(lp0
(lp1
S'59'
p2
aS'60'
p3
aS'0'
p4
aS'1'
p5
aa(lp6
S'59'
p7
aS'63'
p8
ag4
ag5
aa(lp9
S'59'
p10
aS'64'
p11
ag5
ag5
aa(lp12
S'59'
p13
aS'64'
p14
aS'4'
p15
ag5
aa(lp16
S'59'
p17
aS'64'
p18
ag4
ag5
aa(lp19
S'59'
p20
aS'64'
p21
aS'7'
p22
ag5
aa(lp23
S'59'
p24
aS'67'
p25
aS'3'
p26
ag5
aa(lp27
S'60'
p28
aS'59'
p29
aS'17'
p30
aS'2'
p31
aa(lp32
S'60'
p33
aS'65'
p34
ag4
ag31
aa(lp35
S'60'
p36
aS'61'
p37
ag5
ag5
aa(lp38
S'60'
p39
aS'67'
p40
ag31
ag5
aa(lp41
S'60'
p42
aS'61'
p43
aS'25'
p44
ag5
aa(lp45
S'60'
p46
aS'64'
p47
ag4
ag5
aa(lp48
S'61'
p49
aS'62'
p50
aS'5'
p51
ag31
aa(lp52
S'61'
p53
aS'65'
p54
ag4
ag31
aa(lp55
S'61'
p56
aS'68'
p57
ag5
ag31
aa(lp58
S'61'
p59
aS'59'
p60
ag4
ag5
aa(lp61
S'61'
p62
aS'59'
p63
ag4
ag5
aa(lp64
S'61'
p65
aS'64'
p66
ag4
ag5
aa(lp67
S'61'
p68
aS'65'
p69
aS'8'
p70
ag5
aa(lp71
S'61'
p72
aS'68'
p73
ag4
ag5
aa(lp74
S'61'
p75
aS'59'
p76
ag4
ag5
aa(lp77
S'62'
p78
aS'59'
p79
aS'13'
p80
ag31
aa(lp81
S'62'
p82
aS'58'
p83
ag4
ag31
aa(lp84
S'62'
p85
aS'65'
p86
aS'19'
p87
ag31
aa(lp88
S'62'
p89
aS'62'
p90
aS'6'
p91
ag5
aa(lp92
S'62'
p93
aS'66'
p94
ag4
ag5
aa(lp95
S'62'
p96
aS'66'
p97
ag4
ag5
aa(lp98
S'62'
p99
aS'58'
p100
ag4
ag5
aa(lp101
S'63'
p102
aS'61'
p103
ag4
ag5
aa.