(lp0
(lp1
S'45'
p2
aS'67'
p3
aS'1'
p4
ag4
aa(lp5
S'46'
p6
aS'62'
p7
aS'0'
p8
ag4
aa(lp9
S'46'
p10
aS'58'
p11
aS'3'
p12
ag4
aa(lp13
S'46'
p14
aS'63'
p15
ag8
ag4
aa(lp16
S'47'
p17
aS'65'
p18
ag8
aS'2'
p19
aa(lp20
S'47'
p21
aS'61'
p22
ag8
ag4
aa(lp23
S'47'
p24
aS'63'
p25
aS'6'
p26
ag4
aa(lp27
S'47'
p28
aS'66'
p29
ag8
ag4
aa(lp30
S'47'
p31
aS'67'
p32
ag8
ag4
aa(lp33
S'47'
p34
aS'58'
p35
ag12
ag4
aa(lp36
S'47'
p37
aS'60'
p38
aS'4'
p39
ag4
aa(lp40
S'47'
p41
aS'68'
p42
ag39
ag4
aa(lp43
S'47'
p44
aS'66'
p45
aS'12'
p46
ag4
aa(lp47
S'48'
p48
aS'58'
p49
aS'11'
p50
ag19
aa(lp51
S'48'
p52
aS'58'
p53
aS'11'
p54
ag19
aa(lp55
S'48'
p56
aS'67'
p57
aS'7'
p58
ag19
aa(lp59
S'48'
p60
aS'61'
p61
aS'8'
p62
ag4
aa(lp63
S'48'
p64
aS'62'
p65
ag19
ag4
aa(lp66
S'48'
p67
aS'64'
p68
ag8
ag4
aa(lp69
S'48'
p70
aS'66'
p71
ag8
ag4
aa(lp72
S'49'
p73
aS'63'
p74
ag8
ag19
aa(lp75
S'49'
p76
aS'64'
p77
aS'10'
p78
ag19
aa(lp79
S'49'
p80
aS'61'
p81
ag4
ag4
aa(lp82
S'49'
p83
aS'62'
p84
ag8
ag4
aa(lp85
S'49'
p86
aS'66'
p87
ag8
ag4
aa(lp88
S'49'
p89
aS'60'
p90
ag4
ag4
aa(lp91
S'49'
p92
aS'62'
p93
ag4
ag4
aa(lp94
S'49'
p95
aS'63'
p96
ag12
ag4
aa(lp97
S'49'
p98
aS'61'
p99
ag8
ag4
aa(lp100
S'50'
p101
aS'63'
p102
aS'13'
p103
ag19
aa(lp104
S'50'
p105
aS'64'
p106
ag8
ag19
aa.