(lp0
(lp1
S'38'
p2
aS'60'
p3
aS'0'
p4
aS'1'
p5
aa(lp6
S'38'
p7
aS'60'
p8
ag4
ag5
aa(lp9
S'38'
p10
aS'62'
p11
aS'3'
p12
ag5
aa(lp13
S'38'
p14
aS'64'
p15
ag5
ag5
aa(lp16
S'38'
p17
aS'66'
p18
ag4
ag5
aa(lp19
S'38'
p20
aS'66'
p21
aS'11'
p22
ag5
aa(lp23
S'38'
p24
aS'60'
p25
ag5
ag5
aa(lp26
S'38'
p27
aS'67'
p28
aS'5'
p29
ag5
aa(lp30
S'39'
p31
aS'63'
p32
ag4
ag5
aa(lp33
S'39'
p34
aS'67'
p35
ag4
ag5
aa(lp36
S'39'
p37
aS'58'
p38
ag4
ag5
aa(lp39
S'39'
p40
aS'59'
p41
aS'2'
p42
ag5
aa(lp43
S'39'
p44
aS'63'
p45
aS'4'
p46
ag5
aa(lp47
S'40'
p48
aS'58'
p49
ag42
ag5
aa(lp50
S'40'
p51
aS'58'
p52
ag4
ag5
aa(lp53
S'40'
p54
aS'65'
p55
ag4
ag5
aa(lp56
S'41'
p57
aS'58'
p58
ag4
ag5
aa(lp59
S'41'
p60
aS'59'
p61
aS'8'
p62
ag5
aa(lp63
S'41'
p64
aS'59'
p65
ag4
ag5
aa(lp66
S'41'
p67
aS'64'
p68
ag4
ag5
aa(lp69
S'41'
p70
aS'69'
p71
ag62
ag5
aa(lp72
S'41'
p73
aS'65'
p74
ag4
ag5
aa(lp75
S'41'
p76
aS'65'
p77
ag4
ag5
aa(lp78
S'43'
p79
aS'58'
p80
aS'52'
p81
ag42
aa(lp82
S'43'
p83
aS'59'
p84
ag42
ag42
aa(lp85
S'43'
p86
aS'64'
p87
ag4
ag42
aa(lp88
S'43'
p89
aS'64'
p90
ag4
ag42
aa(lp91
S'44'
p92
aS'64'
p93
aS'6'
p94
ag42
aa(lp95
S'44'
p96
aS'58'
p97
aS'9'
p98
ag42
aa(lp99
S'44'
p100
aS'63'
p101
aS'19'
p102
ag42
aa(lp103
S'45'
p104
aS'65'
p105
ag94
ag42
aa.