(lp0
(lp1
S'52'
p2
aS'65'
p3
aS'0'
p4
aS'1'
p5
aa(lp6
S'52'
p7
aS'68'
p8
ag4
ag5
aa(lp9
S'53'
p10
aS'59'
p11
aS'3'
p12
aS'2'
p13
aa(lp14
S'53'
p15
aS'60'
p16
aS'9'
p17
ag13
aa(lp18
S'53'
p19
aS'63'
p20
aS'24'
p21
ag13
aa(lp22
S'53'
p23
aS'65'
p24
aS'12'
p25
ag13
aa(lp26
S'53'
p27
aS'58'
p28
ag5
ag5
aa(lp29
S'53'
p30
aS'60'
p31
ag5
ag5
aa(lp32
S'53'
p33
aS'60'
p34
ag13
ag5
aa(lp35
S'53'
p36
aS'61'
p37
ag5
ag5
aa(lp38
S'53'
p39
aS'63'
p40
ag4
ag5
aa(lp41
S'54'
p42
aS'60'
p43
aS'11'
p44
ag13
aa(lp45
S'54'
p46
aS'65'
p47
aS'23'
p48
ag13
aa(lp49
S'54'
p50
aS'65'
p51
aS'5'
p52
ag13
aa(lp53
S'54'
p54
aS'68'
p55
aS'7'
p56
ag13
aa(lp57
S'54'
p58
aS'59'
p59
ag56
ag5
aa(lp60
S'54'
p61
aS'60'
p62
ag12
ag5
aa(lp63
S'54'
p64
aS'66'
p65
ag4
ag5
aa(lp66
S'54'
p67
aS'67'
p68
aS'46'
p69
ag5
aa(lp70
S'54'
p71
aS'62'
p72
ag4
ag5
aa(lp73
S'54'
p74
aS'69'
p75
ag56
ag5
aa(lp76
S'54'
p77
aS'63'
p78
aS'19'
p79
ag5
aa(lp80
S'54'
p81
aS'58'
p82
ag5
ag5
aa(lp83
S'54'
p84
aS'62'
p85
ag4
ag5
aa(lp86
S'55'
p87
aS'58'
p88
ag5
ag5
aa(lp89
S'55'
p90
aS'58'
p91
ag4
ag5
aa(lp92
S'55'
p93
aS'58'
p94
ag5
ag5
aa(lp95
S'55'
p96
aS'66'
p97
aS'18'
p98
ag5
aa(lp99
S'55'
p100
aS'66'
p101
ag4
ag5
aa(lp102
S'55'
p103
aS'69'
p104
ag12
ag5
aa.