(lp0
(lp1
S'42'
p2
aS'58'
p3
aS'0'
p4
aS'1'
p5
aa(lp6
S'42'
p7
aS'60'
p8
ag5
ag5
aa(lp9
S'42'
p10
aS'59'
p11
aS'2'
p12
ag5
aa(lp13
S'42'
p14
aS'61'
p15
aS'4'
p16
ag5
aa(lp17
S'42'
p18
aS'62'
p19
aS'20'
p20
ag5
aa(lp21
S'42'
p22
aS'65'
p23
ag4
ag5
aa(lp24
S'42'
p25
aS'63'
p26
ag5
ag5
aa(lp27
S'43'
p28
aS'63'
p29
aS'14'
p30
ag5
aa(lp31
S'43'
p32
aS'64'
p33
ag12
ag5
aa(lp34
S'43'
p35
aS'64'
p36
aS'3'
p37
ag5
aa(lp38
S'43'
p39
aS'60'
p40
ag4
ag5
aa(lp41
S'43'
p42
aS'63'
p43
ag12
ag5
aa(lp44
S'43'
p45
aS'65'
p46
ag4
ag5
aa(lp47
S'43'
p48
aS'66'
p49
ag16
ag5
aa(lp50
S'44'
p51
aS'61'
p52
ag4
ag5
aa(lp53
S'44'
p54
aS'63'
p55
ag5
ag5
aa(lp56
S'44'
p57
aS'61'
p58
ag4
ag5
aa(lp59
S'44'
p60
aS'67'
p61
aS'16'
p62
ag5
aa(lp63
S'45'
p64
aS'66'
p65
ag4
ag12
aa(lp66
S'45'
p67
aS'67'
p68
ag5
ag12
aa(lp69
S'45'
p70
aS'60'
p71
ag4
ag5
aa(lp72
S'45'
p73
aS'67'
p74
ag4
ag5
aa(lp75
S'45'
p76
aS'59'
p77
aS'14'
p78
ag5
aa(lp79
S'45'
p80
aS'64'
p81
ag4
ag5
aa(lp82
S'45'
p83
aS'68'
p84
ag4
ag5
aa(lp85
S'46'
p86
aS'58'
p87
ag12
ag12
aa(lp88
S'46'
p89
aS'69'
p90
ag37
ag12
aa(lp91
S'46'
p92
aS'62'
p93
aS'5'
p94
ag12
aa(lp95
S'46'
p96
aS'65'
p97
aS'20'
p98
ag12
aa(lp99
S'47'
p100
aS'63'
p101
aS'23'
p102
ag12
aa(lp103
S'47'
p104
aS'62'
p105
ag4
ag12
aa.