(lp0
(lp1
S'55'
p2
aS'63'
p3
aS'6'
p4
aS'2'
p5
aa(lp6
S'55'
p7
aS'68'
p8
aS'15'
p9
ag5
aa(lp10
S'55'
p11
aS'69'
p12
aS'22'
p13
aS'1'
p14
aa(lp15
S'55'
p16
aS'67'
p17
ag14
ag14
aa(lp18
S'56'
p19
aS'65'
p20
aS'9'
p21
ag5
aa(lp22
S'56'
p23
aS'66'
p24
aS'3'
p25
ag5
aa(lp26
S'56'
p27
aS'60'
p28
aS'0'
p29
ag14
aa(lp30
S'56'
p31
aS'66'
p32
ag5
ag14
aa(lp33
S'56'
p34
aS'66'
p35
ag14
ag14
aa(lp36
S'56'
p37
aS'67'
p38
ag29
ag14
aa(lp39
S'56'
p40
aS'60'
p41
ag29
ag14
aa(lp42
S'57'
p43
aS'61'
p44
aS'5'
p45
ag5
aa(lp46
S'57'
p47
aS'62'
p48
aS'14'
p49
ag5
aa(lp50
S'57'
p51
aS'64'
p52
ag14
ag5
aa(lp53
S'57'
p54
aS'64'
p55
ag21
ag14
aa(lp56
S'57'
p57
aS'69'
p58
ag29
ag14
aa(lp59
S'57'
p60
aS'61'
p61
ag29
ag14
aa(lp62
S'57'
p63
aS'62'
p64
ag29
ag14
aa(lp65
S'57'
p66
aS'63'
p67
ag29
ag14
aa(lp68
S'57'
p69
aS'64'
p70
ag29
ag14
aa(lp71
S'57'
p72
aS'64'
p73
ag29
ag14
aa(lp74
S'57'
p75
aS'67'
p76
ag29
ag14
aa(lp77
S'58'
p78
aS'59'
p79
ag29
ag14
aa(lp80
S'58'
p81
aS'60'
p82
ag25
ag14
aa(lp83
S'58'
p84
aS'61'
p85
ag14
ag14
aa(lp86
S'58'
p87
aS'67'
p88
ag29
ag14
aa(lp89
S'58'
p90
aS'58'
p91
ag29
ag14
aa(lp92
S'58'
p93
aS'58'
p94
ag25
ag14
aa(lp95
S'58'
p96
aS'61'
p97
ag5
ag14
aa(lp98
S'59'
p99
aS'62'
p100
aS'35'
p101
ag5
aa.