(lp0
(lp1
S'30'
p2
aS'64'
p3
aS'1'
p4
ag4
aa(lp5
S'30'
p6
aS'62'
p7
aS'3'
p8
ag4
aa(lp9
S'30'
p10
aS'65'
p11
aS'0'
p12
ag4
aa(lp13
S'31'
p14
aS'59'
p15
aS'2'
p16
ag4
aa(lp17
S'31'
p18
aS'65'
p19
aS'4'
p20
ag4
aa(lp21
S'33'
p22
aS'58'
p23
aS'10'
p24
ag4
aa(lp25
S'33'
p26
aS'60'
p27
ag12
ag4
aa(lp28
S'34'
p29
aS'59'
p30
ag12
ag16
aa(lp31
S'34'
p32
aS'66'
p33
aS'9'
p34
ag16
aa(lp35
S'34'
p36
aS'58'
p37
aS'30'
p38
ag4
aa(lp39
S'34'
p40
aS'60'
p41
ag4
ag4
aa(lp42
S'34'
p43
aS'61'
p44
aS'10'
p45
ag4
aa(lp46
S'34'
p47
aS'67'
p48
aS'7'
p49
ag4
aa(lp50
S'34'
p51
aS'60'
p52
ag12
ag4
aa(lp53
S'35'
p54
aS'64'
p55
aS'13'
p56
ag4
aa(lp57
S'35'
p58
aS'63'
p59
ag12
ag4
aa(lp60
S'36'
p61
aS'60'
p62
ag4
ag4
aa(lp63
S'36'
p64
aS'69'
p65
ag12
ag4
aa(lp66
S'37'
p67
aS'60'
p68
ag12
ag4
aa(lp69
S'37'
p70
aS'63'
p71
ag12
ag4
aa(lp72
S'37'
p73
aS'58'
p74
ag12
ag4
aa(lp75
S'37'
p76
aS'59'
p77
aS'6'
p78
ag4
aa(lp79
S'37'
p80
aS'60'
p81
aS'15'
p82
ag4
aa(lp83
S'37'
p84
aS'63'
p85
ag12
ag4
aa(lp86
S'38'
p87
aS'69'
p88
aS'21'
p89
ag16
aa(lp90
S'38'
p91
aS'59'
p92
ag16
ag4
aa(lp93
S'38'
p94
aS'60'
p95
ag12
ag4
aa(lp96
S'38'
p97
aS'60'
p98
ag12
ag4
aa(lp99
S'38'
p100
aS'62'
p101
ag8
ag4
aa(lp102
S'38'
p103
aS'64'
p104
ag4
ag4
aa(lp105
S'38'
p106
aS'66'
p107
ag12
ag4
aa(lp108
S'38'
p109
aS'66'
p110
aS'11'
p111
ag4
aa(lp112
S'38'
p113
aS'60'
p114
ag4
ag4
aa(lp115
S'38'
p116
aS'67'
p117
aS'5'
p118
ag4
aa(lp119
S'39'
p120
aS'66'
p121
ag12
ag16
aa(lp122
S'39'
p123
aS'63'
p124
ag12
ag4
aa(lp125
S'39'
p126
aS'67'
p127
ag12
ag4
aa(lp128
S'39'
p129
aS'58'
p130
ag12
ag4
aa(lp131
S'39'
p132
aS'59'
p133
ag16
ag4
aa(lp134
S'39'
p135
aS'63'
p136
ag20
ag4
aa(lp137
S'40'
p138
aS'58'
p139
ag16
ag4
aa(lp140
S'40'
p141
aS'58'
p142
ag12
ag4
aa(lp143
S'40'
p144
aS'65'
p145
ag12
ag4
aa(lp146
S'41'
p147
aS'60'
p148
aS'23'
p149
ag16
aa(lp150
S'41'
p151
aS'64'
p152
ag12
ag16
aa(lp153
S'41'
p154
aS'67'
p155
ag12
ag16
aa(lp156
S'41'
p157
aS'58'
p158
ag12
ag4
aa(lp159
S'41'
p160
aS'59'
p161
aS'8'
p162
ag4
aa(lp163
S'41'
p164
aS'59'
p165
ag12
ag4
aa(lp166
S'41'
p167
aS'64'
p168
ag12
ag4
aa(lp169
S'41'
p170
aS'69'
p171
ag162
ag4
aa(lp172
S'41'
p173
aS'65'
p174
ag12
ag4
aa(lp175
S'41'
p176
aS'65'
p177
ag12
ag4
aa(lp178
S'42'
p179
aS'69'
p180
ag4
ag16
aa(lp181
S'42'
p182
aS'59'
p183
ag12
ag16
aa(lp184
S'43'
p185
aS'58'
p186
aS'52'
p187
ag16
aa(lp188
S'43'
p189
aS'59'
p190
ag16
ag16
aa(lp191
S'43'
p192
aS'64'
p193
ag12
ag16
aa(lp194
S'43'
p195
aS'64'
p196
ag12
ag16
aa(lp197
S'44'
p198
aS'64'
p199
ag78
ag16
aa(lp200
S'44'
p201
aS'58'
p202
ag34
ag16
aa(lp203
S'44'
p204
aS'63'
p205
aS'19'
p206
ag16
aa(lp207
S'45'
p208
aS'65'
p209
ag78
ag16
aa(lp210
S'45'
p211
aS'67'
p212
ag4
ag4
aa(lp213
S'46'
p214
aS'62'
p215
ag12
ag4
aa(lp216
S'46'
p217
aS'58'
p218
ag8
ag4
aa(lp219
S'46'
p220
aS'63'
p221
ag12
ag4
aa(lp222
S'47'
p223
aS'65'
p224
ag12
ag16
aa(lp225
S'47'
p226
aS'61'
p227
ag12
ag4
aa(lp228
S'47'
p229
aS'63'
p230
ag78
ag4
aa(lp231
S'47'
p232
aS'66'
p233
ag12
ag4
aa(lp234
S'47'
p235
aS'67'
p236
ag12
ag4
aa(lp237
S'47'
p238
aS'58'
p239
ag8
ag4
aa(lp240
S'47'
p241
aS'60'
p242
ag20
ag4
aa(lp243
S'47'
p244
aS'68'
p245
ag20
ag4
aa(lp246
S'47'
p247
aS'66'
p248
aS'12'
p249
ag4
aa(lp250
S'48'
p251
aS'58'
p252
aS'11'
p253
ag16
aa(lp254
S'48'
p255
aS'58'
p256
aS'11'
p257
ag16
aa(lp258
S'48'
p259
aS'67'
p260
ag49
ag16
aa(lp261
S'48'
p262
aS'61'
p263
ag162
ag4
aa(lp264
S'48'
p265
aS'62'
p266
ag16
ag4
aa(lp267
S'48'
p268
aS'64'
p269
ag12
ag4
aa(lp270
S'48'
p271
aS'66'
p272
ag12
ag4
aa(lp273
S'49'
p274
aS'63'
p275
ag12
ag16
aa(lp276
S'49'
p277
aS'64'
p278
aS'10'
p279
ag16
aa(lp280
S'49'
p281
aS'61'
p282
ag4
ag4
aa(lp283
S'49'
p284
aS'62'
p285
ag12
ag4
aa(lp286
S'49'
p287
aS'66'
p288
ag12
ag4
aa(lp289
S'49'
p290
aS'60'
p291
ag4
ag4
aa(lp292
S'49'
p293
aS'62'
p294
ag4
ag4
aa(lp295
S'49'
p296
aS'63'
p297
ag8
ag4
aa(lp298
S'49'
p299
aS'61'
p300
ag12
ag4
aa(lp301
S'49'
p302
aS'67'
p303
ag4
ag4
aa(lp304
S'50'
p305
aS'63'
p306
aS'13'
p307
ag16
aa(lp308
S'50'
p309
aS'64'
p310
ag12
ag16
aa(lp311
S'50'
p312
aS'59'
p313
ag12
ag4
aa(lp314
S'50'
p315
aS'61'
p316
ag78
ag4
aa(lp317
S'50'
p318
aS'61'
p319
ag12
ag4
aa(lp320
S'50'
p321
aS'63'
p322
ag4
ag4
aa(lp323
S'50'
p324
aS'58'
p325
ag4
ag4
aa(lp326
S'50'
p327
aS'59'
p328
ag16
ag4
aa(lp329
S'50'
p330
aS'61'
p331
ag12
ag4
aa(lp332
S'50'
p333
aS'64'
p334
ag12
ag4
aa(lp335
S'50'
p336
aS'65'
p337
ag20
ag4
aa(lp338
S'50'
p339
aS'66'
p340
ag4
ag4
aa(lp341
S'51'
p342
aS'59'
p343
aS'13'
p344
ag16
aa(lp345
S'51'
p346
aS'59'
p347
ag8
ag16
aa(lp348
S'51'
p349
aS'64'
p350
ag49
ag4
aa(lp351
S'51'
p352
aS'59'
p353
ag4
ag4
aa(lp354
S'51'
p355
aS'65'
p356
ag12
ag4
aa(lp357
S'51'
p358
aS'66'
p359
ag4
ag4
aa(lp360
S'52'
p361
aS'69'
p362
ag8
ag16
aa(lp363
S'52'
p364
aS'59'
p365
ag16
ag16
aa(lp366
S'52'
p367
aS'62'
p368
ag8
ag16
aa(lp369
S'52'
p370
aS'66'
p371
ag20
ag16
aa(lp372
S'52'
p373
aS'61'
p374
ag12
ag4
aa(lp375
S'52'
p376
aS'63'
p377
ag20
ag4
aa(lp378
S'52'
p379
aS'69'
p380
ag12
ag4
aa(lp381
S'52'
p382
aS'60'
p383
ag20
ag4
aa(lp384
S'52'
p385
aS'60'
p386
ag118
ag4
aa(lp387
S'52'
p388
aS'62'
p389
ag12
ag4
aa(lp390
S'52'
p391
aS'62'
p392
ag4
ag4
aa(lp393
S'52'
p394
aS'64'
p395
ag12
ag4
aa(lp396
S'52'
p397
aS'65'
p398
ag12
ag4
aa(lp399
S'52'
p400
aS'68'
p401
ag12
ag4
aa(lp402
S'53'
p403
aS'58'
p404
ag20
ag16
aa(lp405
S'53'
p406
aS'65'
p407
ag4
ag16
aa(lp408
S'53'
p409
aS'59'
p410
ag8
ag16
aa(lp411
S'53'
p412
aS'60'
p413
ag34
ag16
aa(lp414
S'53'
p415
aS'63'
p416
aS'24'
p417
ag16
aa(lp418
S'53'
p419
aS'65'
p420
aS'12'
p421
ag16
aa(lp422
S'53'
p423
aS'58'
p424
ag4
ag4
aa(lp425
S'53'
p426
aS'60'
p427
ag4
ag4
aa(lp428
S'53'
p429
aS'60'
p430
ag16
ag4
aa(lp431
S'53'
p432
aS'61'
p433
ag4
ag4
aa(lp434
S'53'
p435
aS'63'
p436
ag12
ag4
aa(lp437
S'54'
p438
aS'60'
p439
aS'11'
p440
ag16
aa(lp441
S'54'
p442
aS'65'
p443
aS'23'
p444
ag16
aa(lp445
S'54'
p446
aS'65'
p447
ag118
ag16
aa(lp448
S'54'
p449
aS'68'
p450
ag49
ag16
aa(lp451
S'54'
p452
aS'59'
p453
ag49
ag4
aa(lp454
S'54'
p455
aS'60'
p456
ag8
ag4
aa(lp457
S'54'
p458
aS'66'
p459
ag12
ag4
aa(lp460
S'54'
p461
aS'67'
p462
aS'46'
p463
ag4
aa(lp464
S'54'
p465
aS'62'
p466
ag12
ag4
aa(lp467
S'54'
p468
aS'69'
p469
ag49
ag4
aa(lp470
S'54'
p471
aS'63'
p472
aS'19'
p473
ag4
aa(lp474
S'54'
p475
aS'58'
p476
ag4
ag4
aa(lp477
S'54'
p478
aS'62'
p479
ag12
ag4
aa(lp480
S'55'
p481
aS'63'
p482
ag78
ag16
aa(lp483
S'55'
p484
aS'68'
p485
aS'15'
p486
ag16
aa(lp487
S'55'
p488
aS'58'
p489
ag4
ag4
aa(lp490
S'55'
p491
aS'58'
p492
ag12
ag4
aa(lp493
S'55'
p494
aS'58'
p495
ag4
ag4
aa(lp496
S'55'
p497
aS'66'
p498
aS'18'
p499
ag4
aa(lp500
S'55'
p501
aS'66'
p502
ag12
ag4
aa(lp503
S'55'
p504
aS'69'
p505
ag8
ag4
aa(lp506
S'55'
p507
aS'69'
p508
aS'22'
p509
ag4
aa(lp510
S'55'
p511
aS'67'
p512
ag4
ag4
aa(lp513
S'56'
p514
aS'65'
p515
ag34
ag16
aa(lp516
S'56'
p517
aS'66'
p518
ag8
ag16
aa(lp519
S'56'
p520
aS'60'
p521
ag12
ag4
aa(lp522
S'56'
p523
aS'66'
p524
ag16
ag4
aa(lp525
S'56'
p526
aS'66'
p527
ag4
ag4
aa(lp528
S'56'
p529
aS'67'
p530
ag12
ag4
aa(lp531
S'56'
p532
aS'60'
p533
ag12
ag4
aa(lp534
S'57'
p535
aS'61'
p536
ag118
ag16
aa(lp537
S'57'
p538
aS'62'
p539
aS'14'
p540
ag16
aa(lp541
S'57'
p542
aS'64'
p543
ag4
ag16
aa(lp544
S'57'
p545
aS'64'
p546
ag34
ag4
aa(lp547
S'57'
p548
aS'69'
p549
ag12
ag4
aa(lp550
S'57'
p551
aS'61'
p552
ag12
ag4
aa(lp553
S'57'
p554
aS'62'
p555
ag12
ag4
aa(lp556
S'57'
p557
aS'63'
p558
ag12
ag4
aa(lp559
S'57'
p560
aS'64'
p561
ag12
ag4
aa(lp562
S'57'
p563
aS'64'
p564
ag12
ag4
aa(lp565
S'57'
p566
aS'67'
p567
ag12
ag4
aa(lp568
S'58'
p569
aS'59'
p570
ag12
ag4
aa(lp571
S'58'
p572
aS'60'
p573
ag8
ag4
aa(lp574
S'58'
p575
aS'61'
p576
ag4
ag4
aa(lp577
S'58'
p578
aS'67'
p579
ag12
ag4
aa(lp580
S'58'
p581
aS'58'
p582
ag12
ag4
aa(lp583
S'58'
p584
aS'58'
p585
ag8
ag4
aa(lp586
S'58'
p587
aS'61'
p588
ag16
ag4
aa(lp589
S'59'
p590
aS'62'
p591
aS'35'
p592
ag16
aa(lp593
S'59'
p594
aS'60'
p595
ag12
ag4
aa(lp596
S'59'
p597
aS'63'
p598
ag12
ag4
aa(lp599
S'59'
p600
aS'64'
p601
ag4
ag4
aa(lp602
S'59'
p603
aS'64'
p604
ag20
ag4
aa(lp605
S'59'
p606
aS'64'
p607
ag12
ag4
aa(lp608
S'59'
p609
aS'64'
p610
ag49
ag4
aa(lp611
S'59'
p612
aS'67'
p613
ag8
ag4
aa(lp614
S'60'
p615
aS'59'
p616
aS'17'
p617
ag16
aa(lp618
S'60'
p619
aS'65'
p620
ag12
ag16
aa(lp621
S'60'
p622
aS'61'
p623
ag4
ag4
aa(lp624
S'60'
p625
aS'67'
p626
ag16
ag4
aa(lp627
S'60'
p628
aS'61'
p629
aS'25'
p630
ag4
aa(lp631
S'60'
p632
aS'64'
p633
ag12
ag4
aa(lp634
S'61'
p635
aS'62'
p636
ag118
ag16
aa(lp637
S'61'
p638
aS'65'
p639
ag12
ag16
aa(lp640
S'61'
p641
aS'68'
p642
ag4
ag16
aa(lp643
S'61'
p644
aS'59'
p645
ag12
ag4
aa(lp646
S'61'
p647
aS'59'
p648
ag12
ag4
aa(lp649
S'61'
p650
aS'64'
p651
ag12
ag4
aa(lp652
S'61'
p653
aS'65'
p654
ag162
ag4
aa(lp655
S'61'
p656
aS'68'
p657
ag12
ag4
aa(lp658
S'61'
p659
aS'59'
p660
ag12
ag4
aa(lp661
S'62'
p662
aS'59'
p663
aS'13'
p664
ag16
aa(lp665
S'62'
p666
aS'58'
p667
ag12
ag16
aa(lp668
S'62'
p669
aS'65'
p670
aS'19'
p671
ag16
aa(lp672
S'62'
p673
aS'62'
p674
ag78
ag4
aa(lp675
S'62'
p676
aS'66'
p677
ag12
ag4
aa(lp678
S'62'
p679
aS'66'
p680
ag12
ag4
aa(lp681
S'62'
p682
aS'58'
p683
ag12
ag4
aa(lp684
S'63'
p685
aS'60'
p686
ag4
ag16
aa(lp687
S'63'
p688
aS'61'
p689
ag12
ag4
aa(lp690
S'63'
p691
aS'62'
p692
ag12
ag4
aa(lp693
S'63'
p694
aS'63'
p695
ag12
ag4
aa(lp696
S'63'
p697
aS'63'
p698
ag12
ag4
aa(lp699
S'63'
p700
aS'66'
p701
ag12
ag4
aa(lp702
S'63'
p703
aS'61'
p704
ag34
ag4
aa(lp705
S'63'
p706
aS'61'
p707
aS'28'
p708
ag4
aa(lp709
S'64'
p710
aS'58'
p711
ag12
ag4
aa(lp712
S'64'
p713
aS'65'
p714
aS'22'
p715
ag4
aa(lp716
S'64'
p717
aS'66'
p718
ag12
ag4
aa(lp719
S'64'
p720
aS'61'
p721
ag12
ag4
aa(lp722
S'64'
p723
aS'68'
p724
ag12
ag4
aa(lp725
S'65'
p726
aS'58'
p727
ag12
ag16
aa(lp728
S'65'
p729
aS'61'
p730
ag16
ag16
aa(lp731
S'65'
p732
aS'62'
p733
aS'22'
p734
ag16
aa(lp735
S'65'
p736
aS'66'
p737
aS'15'
p738
ag16
aa(lp739
S'65'
p740
aS'58'
p741
ag12
ag4
aa(lp742
S'65'
p743
aS'64'
p744
ag12
ag4
aa(lp745
S'65'
p746
aS'67'
p747
ag12
ag4
aa(lp748
S'65'
p749
aS'59'
p750
ag16
ag4
aa(lp751
S'65'
p752
aS'64'
p753
ag12
ag4
aa(lp754
S'65'
p755
aS'67'
p756
ag4
ag4
aa(lp757
S'66'
p758
aS'58'
p759
ag12
ag16
aa(lp760
S'66'
p761
aS'61'
p762
aS'13'
p763
ag16
aa(lp764
S'66'
p765
aS'58'
p766
ag12
ag4
aa(lp767
S'66'
p768
aS'58'
p769
ag4
ag4
aa(lp770
S'66'
p771
aS'68'
p772
ag12
ag4
aa(lp773
S'67'
p774
aS'64'
p775
ag162
ag16
aa(lp776
S'67'
p777
aS'63'
p778
ag4
ag16
aa(lp779
S'67'
p780
aS'66'
p781
ag12
ag4
aa(lp782
S'67'
p783
aS'66'
p784
ag12
ag4
aa(lp785
S'67'
p786
aS'61'
p787
ag12
ag4
aa(lp788
S'67'
p789
aS'65'
p790
ag12
ag4
aa(lp791
S'68'
p792
aS'67'
p793
ag12
ag4
aa(lp794
S'68'
p795
aS'68'
p796
ag12
ag4
aa(lp797
S'69'
p798
aS'67'
p799
ag162
ag16
aa(lp800
S'69'
p801
aS'60'
p802
ag12
ag4
aa(lp803
S'69'
p804
aS'65'
p805
ag12
ag4
aa(lp806
S'69'
p807
aS'66'
p808
ag12
ag4
aa(lp809
S'70'
p810
aS'58'
p811
ag12
ag16
aa(lp812
S'70'
p813
aS'58'
p814
ag20
ag16
aa(lp815
S'70'
p816
aS'66'
p817
aS'14'
p818
ag4
aa(lp819
S'70'
p820
aS'67'
p821
ag12
ag4
aa(lp822
S'70'
p823
aS'68'
p824
ag12
ag4
aa(lp825
S'70'
p826
aS'59'
p827
ag162
ag4
aa(lp828
S'70'
p829
aS'63'
p830
ag12
ag4
aa(lp831
S'71'
p832
aS'68'
p833
ag16
ag4
aa(lp834
S'72'
p835
aS'63'
p836
ag12
ag16
aa(lp837
S'72'
p838
aS'58'
p839
ag12
ag4
aa(lp840
S'72'
p841
aS'64'
p842
ag12
ag4
aa(lp843
S'72'
p844
aS'67'
p845
ag8
ag4
aa(lp846
S'73'
p847
aS'62'
p848
ag12
ag4
aa(lp849
S'73'
p850
aS'68'
p851
ag12
ag4
aa(lp852
S'74'
p853
aS'65'
p854
ag8
ag16
aa(lp855
S'74'
p856
aS'63'
p857
ag12
ag4
aa(lp858
S'75'
p859
aS'62'
p860
ag4
ag4
aa(lp861
S'76'
p862
aS'67'
p863
ag12
ag4
aa(lp864
S'77'
p865
aS'65'
p866
ag8
ag4
aa(lp867
S'78'
p868
aS'65'
p869
ag4
ag16
aa(lp870
S'83'
p871
aS'58'
p872
ag16
ag16
aa.