(lp0
(lp1
S'30'
p2
aS'64'
p3
aS'1'
p4
ag4
aa(lp5
S'30'
p6
aS'62'
p7
aS'3'
p8
ag4
aa(lp9
S'30'
p10
aS'65'
p11
aS'0'
p12
ag4
aa(lp13
S'31'
p14
aS'59'
p15
aS'2'
p16
ag4
aa(lp17
S'31'
p18
aS'65'
p19
aS'4'
p20
ag4
aa(lp21
S'33'
p22
aS'58'
p23
aS'10'
p24
ag4
aa(lp25
S'33'
p26
aS'60'
p27
ag12
ag4
aa(lp28
S'34'
p29
aS'59'
p30
ag12
ag16
aa(lp31
S'34'
p32
aS'66'
p33
aS'9'
p34
ag16
aa(lp35
S'34'
p36
aS'58'
p37
aS'30'
p38
ag4
aa(lp39
S'34'
p40
aS'60'
p41
ag4
ag4
aa(lp42
S'34'
p43
aS'61'
p44
aS'10'
p45
ag4
aa(lp46
S'34'
p47
aS'67'
p48
aS'7'
p49
ag4
aa(lp50
S'34'
p51
aS'60'
p52
ag12
ag4
aa(lp53
S'35'
p54
aS'64'
p55
aS'13'
p56
ag4
aa(lp57
S'35'
p58
aS'63'
p59
ag12
ag4
aa(lp60
S'36'
p61
aS'60'
p62
ag4
ag4
aa(lp63
S'36'
p64
aS'69'
p65
ag12
ag4
aa(lp66
S'37'
p67
aS'60'
p68
ag12
ag4
aa(lp69
S'37'
p70
aS'63'
p71
ag12
ag4
aa(lp72
S'37'
p73
aS'58'
p74
ag12
ag4
aa(lp75
S'37'
p76
aS'59'
p77
aS'6'
p78
ag4
aa(lp79
S'37'
p80
aS'60'
p81
aS'15'
p82
ag4
aa(lp83
S'37'
p84
aS'63'
p85
ag12
ag4
aa(lp86
S'38'
p87
aS'69'
p88
aS'21'
p89
ag16
aa(lp90
S'38'
p91
aS'59'
p92
ag16
ag4
aa(lp93
S'38'
p94
aS'60'
p95
ag12
ag4
aa(lp96
S'38'
p97
aS'60'
p98
ag12
ag4
aa(lp99
S'38'
p100
aS'62'
p101
ag8
ag4
aa(lp102
S'38'
p103
aS'64'
p104
ag4
ag4
aa(lp105
S'38'
p106
aS'66'
p107
ag12
ag4
aa(lp108
S'38'
p109
aS'66'
p110
aS'11'
p111
ag4
aa(lp112
S'38'
p113
aS'60'
p114
ag4
ag4
aa(lp115
S'38'
p116
aS'67'
p117
aS'5'
p118
ag4
aa(lp119
S'39'
p120
aS'66'
p121
ag12
ag16
aa(lp122
S'39'
p123
aS'63'
p124
ag12
ag4
aa(lp125
S'39'
p126
aS'67'
p127
ag12
ag4
aa(lp128
S'39'
p129
aS'58'
p130
ag12
ag4
aa(lp131
S'39'
p132
aS'59'
p133
ag16
ag4
aa(lp134
S'39'
p135
aS'63'
p136
ag20
ag4
aa(lp137
S'40'
p138
aS'58'
p139
ag16
ag4
aa(lp140
S'40'
p141
aS'58'
p142
ag12
ag4
aa(lp143
S'40'
p144
aS'65'
p145
ag12
ag4
aa(lp146
S'41'
p147
aS'60'
p148
aS'23'
p149
ag16
aa(lp150
S'41'
p151
aS'64'
p152
ag12
ag16
aa(lp153
S'41'
p154
aS'67'
p155
ag12
ag16
aa(lp156
S'41'
p157
aS'58'
p158
ag12
ag4
aa(lp159
S'41'
p160
aS'59'
p161
aS'8'
p162
ag4
aa(lp163
S'41'
p164
aS'59'
p165
ag12
ag4
aa(lp166
S'41'
p167
aS'64'
p168
ag12
ag4
aa(lp169
S'41'
p170
aS'69'
p171
ag162
ag4
aa(lp172
S'41'
p173
aS'65'
p174
ag12
ag4
aa(lp175
S'41'
p176
aS'65'
p177
ag12
ag4
aa(lp178
S'42'
p179
aS'69'
p180
ag4
ag16
aa(lp181
S'42'
p182
aS'59'
p183
ag12
ag16
aa(lp184
S'42'
p185
aS'58'
p186
ag12
ag4
aa(lp187
S'42'
p188
aS'60'
p189
ag4
ag4
aa(lp190
S'42'
p191
aS'59'
p192
ag16
ag4
aa(lp193
S'42'
p194
aS'61'
p195
ag20
ag4
aa(lp196
S'42'
p197
aS'62'
p198
aS'20'
p199
ag4
aa(lp200
S'42'
p201
aS'65'
p202
ag12
ag4
aa(lp203
S'42'
p204
aS'63'
p205
ag4
ag4
aa(lp206
S'43'
p207
aS'58'
p208
aS'52'
p209
ag16
aa(lp210
S'43'
p211
aS'59'
p212
ag16
ag16
aa(lp213
S'43'
p214
aS'64'
p215
ag12
ag16
aa(lp216
S'43'
p217
aS'64'
p218
ag12
ag16
aa(lp219
S'43'
p220
aS'63'
p221
aS'14'
p222
ag4
aa(lp223
S'43'
p224
aS'64'
p225
ag16
ag4
aa(lp226
S'43'
p227
aS'64'
p228
ag8
ag4
aa(lp229
S'43'
p230
aS'60'
p231
ag12
ag4
aa(lp232
S'43'
p233
aS'63'
p234
ag16
ag4
aa(lp235
S'43'
p236
aS'65'
p237
ag12
ag4
aa(lp238
S'43'
p239
aS'66'
p240
ag20
ag4
aa(lp241
S'44'
p242
aS'64'
p243
ag78
ag16
aa(lp244
S'44'
p245
aS'58'
p246
ag34
ag16
aa(lp247
S'44'
p248
aS'63'
p249
aS'19'
p250
ag16
aa(lp251
S'44'
p252
aS'61'
p253
ag12
ag4
aa(lp254
S'44'
p255
aS'63'
p256
ag4
ag4
aa(lp257
S'44'
p258
aS'61'
p259
ag12
ag4
aa(lp260
S'44'
p261
aS'67'
p262
aS'16'
p263
ag4
aa(lp264
S'45'
p265
aS'65'
p266
ag78
ag16
aa(lp267
S'45'
p268
aS'66'
p269
ag12
ag16
aa(lp270
S'45'
p271
aS'67'
p272
ag4
ag16
aa(lp273
S'45'
p274
aS'60'
p275
ag12
ag4
aa(lp276
S'45'
p277
aS'67'
p278
ag12
ag4
aa(lp279
S'45'
p280
aS'59'
p281
aS'14'
p282
ag4
aa(lp283
S'45'
p284
aS'64'
p285
ag12
ag4
aa(lp286
S'45'
p287
aS'68'
p288
ag12
ag4
aa(lp289
S'46'
p290
aS'58'
p291
ag16
ag16
aa(lp292
S'46'
p293
aS'69'
p294
ag8
ag16
aa(lp295
S'46'
p296
aS'62'
p297
ag118
ag16
aa(lp298
S'46'
p299
aS'65'
p300
aS'20'
p301
ag16
aa(lp302
S'47'
p303
aS'63'
p304
aS'23'
p305
ag16
aa(lp306
S'47'
p307
aS'62'
p308
ag12
ag16
aa(lp309
S'49'
p310
aS'67'
p311
ag4
ag4
aa(lp312
S'50'
p313
aS'59'
p314
ag12
ag4
aa(lp315
S'50'
p316
aS'61'
p317
ag78
ag4
aa(lp318
S'50'
p319
aS'61'
p320
ag12
ag4
aa(lp321
S'50'
p322
aS'63'
p323
ag4
ag4
aa(lp324
S'50'
p325
aS'58'
p326
ag4
ag4
aa(lp327
S'50'
p328
aS'59'
p329
ag16
ag4
aa(lp330
S'50'
p331
aS'61'
p332
ag12
ag4
aa(lp333
S'50'
p334
aS'64'
p335
ag12
ag4
aa(lp336
S'50'
p337
aS'65'
p338
ag20
ag4
aa(lp339
S'50'
p340
aS'66'
p341
ag4
ag4
aa(lp342
S'51'
p343
aS'59'
p344
aS'13'
p345
ag16
aa(lp346
S'51'
p347
aS'59'
p348
ag8
ag16
aa(lp349
S'51'
p350
aS'64'
p351
ag49
ag4
aa(lp352
S'51'
p353
aS'59'
p354
ag4
ag4
aa(lp355
S'51'
p356
aS'65'
p357
ag12
ag4
aa(lp358
S'51'
p359
aS'66'
p360
ag4
ag4
aa(lp361
S'52'
p362
aS'69'
p363
ag8
ag16
aa(lp364
S'52'
p365
aS'59'
p366
ag16
ag16
aa(lp367
S'52'
p368
aS'62'
p369
ag8
ag16
aa(lp370
S'52'
p371
aS'66'
p372
ag20
ag16
aa(lp373
S'52'
p374
aS'61'
p375
ag12
ag4
aa(lp376
S'52'
p377
aS'63'
p378
ag20
ag4
aa(lp379
S'52'
p380
aS'69'
p381
ag12
ag4
aa(lp382
S'52'
p383
aS'60'
p384
ag20
ag4
aa(lp385
S'52'
p386
aS'60'
p387
ag118
ag4
aa(lp388
S'52'
p389
aS'62'
p390
ag12
ag4
aa(lp391
S'52'
p392
aS'62'
p393
ag4
ag4
aa(lp394
S'52'
p395
aS'64'
p396
ag12
ag4
aa(lp397
S'52'
p398
aS'65'
p399
ag12
ag4
aa(lp400
S'52'
p401
aS'68'
p402
ag12
ag4
aa(lp403
S'53'
p404
aS'58'
p405
ag20
ag16
aa(lp406
S'53'
p407
aS'65'
p408
ag4
ag16
aa(lp409
S'53'
p410
aS'59'
p411
ag8
ag16
aa(lp412
S'53'
p413
aS'60'
p414
ag34
ag16
aa(lp415
S'53'
p416
aS'63'
p417
aS'24'
p418
ag16
aa(lp419
S'53'
p420
aS'65'
p421
aS'12'
p422
ag16
aa(lp423
S'53'
p424
aS'58'
p425
ag4
ag4
aa(lp426
S'53'
p427
aS'60'
p428
ag4
ag4
aa(lp429
S'53'
p430
aS'60'
p431
ag16
ag4
aa(lp432
S'53'
p433
aS'61'
p434
ag4
ag4
aa(lp435
S'53'
p436
aS'63'
p437
ag12
ag4
aa(lp438
S'54'
p439
aS'60'
p440
aS'11'
p441
ag16
aa(lp442
S'54'
p443
aS'65'
p444
aS'23'
p445
ag16
aa(lp446
S'54'
p447
aS'65'
p448
ag118
ag16
aa(lp449
S'54'
p450
aS'68'
p451
ag49
ag16
aa(lp452
S'54'
p453
aS'59'
p454
ag49
ag4
aa(lp455
S'54'
p456
aS'60'
p457
ag8
ag4
aa(lp458
S'54'
p459
aS'66'
p460
ag12
ag4
aa(lp461
S'54'
p462
aS'67'
p463
aS'46'
p464
ag4
aa(lp465
S'54'
p466
aS'62'
p467
ag12
ag4
aa(lp468
S'54'
p469
aS'69'
p470
ag49
ag4
aa(lp471
S'54'
p472
aS'63'
p473
aS'19'
p474
ag4
aa(lp475
S'54'
p476
aS'58'
p477
ag4
ag4
aa(lp478
S'54'
p479
aS'62'
p480
ag12
ag4
aa(lp481
S'55'
p482
aS'63'
p483
ag78
ag16
aa(lp484
S'55'
p485
aS'68'
p486
aS'15'
p487
ag16
aa(lp488
S'55'
p489
aS'58'
p490
ag4
ag4
aa(lp491
S'55'
p492
aS'58'
p493
ag12
ag4
aa(lp494
S'55'
p495
aS'58'
p496
ag4
ag4
aa(lp497
S'55'
p498
aS'66'
p499
aS'18'
p500
ag4
aa(lp501
S'55'
p502
aS'66'
p503
ag12
ag4
aa(lp504
S'55'
p505
aS'69'
p506
ag8
ag4
aa(lp507
S'55'
p508
aS'69'
p509
aS'22'
p510
ag4
aa(lp511
S'55'
p512
aS'67'
p513
ag4
ag4
aa(lp514
S'56'
p515
aS'65'
p516
ag34
ag16
aa(lp517
S'56'
p518
aS'66'
p519
ag8
ag16
aa(lp520
S'56'
p521
aS'60'
p522
ag12
ag4
aa(lp523
S'56'
p524
aS'66'
p525
ag16
ag4
aa(lp526
S'56'
p527
aS'66'
p528
ag4
ag4
aa(lp529
S'56'
p530
aS'67'
p531
ag12
ag4
aa(lp532
S'56'
p533
aS'60'
p534
ag12
ag4
aa(lp535
S'57'
p536
aS'61'
p537
ag118
ag16
aa(lp538
S'57'
p539
aS'62'
p540
aS'14'
p541
ag16
aa(lp542
S'57'
p543
aS'64'
p544
ag4
ag16
aa(lp545
S'57'
p546
aS'64'
p547
ag34
ag4
aa(lp548
S'57'
p549
aS'69'
p550
ag12
ag4
aa(lp551
S'57'
p552
aS'61'
p553
ag12
ag4
aa(lp554
S'57'
p555
aS'62'
p556
ag12
ag4
aa(lp557
S'57'
p558
aS'63'
p559
ag12
ag4
aa(lp560
S'57'
p561
aS'64'
p562
ag12
ag4
aa(lp563
S'57'
p564
aS'64'
p565
ag12
ag4
aa(lp566
S'57'
p567
aS'67'
p568
ag12
ag4
aa(lp569
S'58'
p570
aS'59'
p571
ag12
ag4
aa(lp572
S'58'
p573
aS'60'
p574
ag8
ag4
aa(lp575
S'58'
p576
aS'61'
p577
ag4
ag4
aa(lp578
S'58'
p579
aS'67'
p580
ag12
ag4
aa(lp581
S'58'
p582
aS'58'
p583
ag12
ag4
aa(lp584
S'58'
p585
aS'58'
p586
ag8
ag4
aa(lp587
S'58'
p588
aS'61'
p589
ag16
ag4
aa(lp590
S'59'
p591
aS'62'
p592
aS'35'
p593
ag16
aa(lp594
S'59'
p595
aS'60'
p596
ag12
ag4
aa(lp597
S'59'
p598
aS'63'
p599
ag12
ag4
aa(lp600
S'59'
p601
aS'64'
p602
ag4
ag4
aa(lp603
S'59'
p604
aS'64'
p605
ag20
ag4
aa(lp606
S'59'
p607
aS'64'
p608
ag12
ag4
aa(lp609
S'59'
p610
aS'64'
p611
ag49
ag4
aa(lp612
S'59'
p613
aS'67'
p614
ag8
ag4
aa(lp615
S'60'
p616
aS'59'
p617
aS'17'
p618
ag16
aa(lp619
S'60'
p620
aS'65'
p621
ag12
ag16
aa(lp622
S'60'
p623
aS'61'
p624
ag4
ag4
aa(lp625
S'60'
p626
aS'67'
p627
ag16
ag4
aa(lp628
S'60'
p629
aS'61'
p630
aS'25'
p631
ag4
aa(lp632
S'60'
p633
aS'64'
p634
ag12
ag4
aa(lp635
S'61'
p636
aS'62'
p637
ag118
ag16
aa(lp638
S'61'
p639
aS'65'
p640
ag12
ag16
aa(lp641
S'61'
p642
aS'68'
p643
ag4
ag16
aa(lp644
S'61'
p645
aS'59'
p646
ag12
ag4
aa(lp647
S'61'
p648
aS'59'
p649
ag12
ag4
aa(lp650
S'61'
p651
aS'64'
p652
ag12
ag4
aa(lp653
S'61'
p654
aS'65'
p655
ag162
ag4
aa(lp656
S'61'
p657
aS'68'
p658
ag12
ag4
aa(lp659
S'61'
p660
aS'59'
p661
ag12
ag4
aa(lp662
S'62'
p663
aS'59'
p664
aS'13'
p665
ag16
aa(lp666
S'62'
p667
aS'58'
p668
ag12
ag16
aa(lp669
S'62'
p670
aS'65'
p671
aS'19'
p672
ag16
aa(lp673
S'62'
p674
aS'62'
p675
ag78
ag4
aa(lp676
S'62'
p677
aS'66'
p678
ag12
ag4
aa(lp679
S'62'
p680
aS'66'
p681
ag12
ag4
aa(lp682
S'62'
p683
aS'58'
p684
ag12
ag4
aa(lp685
S'63'
p686
aS'60'
p687
ag4
ag16
aa(lp688
S'63'
p689
aS'61'
p690
ag12
ag4
aa(lp691
S'63'
p692
aS'62'
p693
ag12
ag4
aa(lp694
S'63'
p695
aS'63'
p696
ag12
ag4
aa(lp697
S'63'
p698
aS'63'
p699
ag12
ag4
aa(lp700
S'63'
p701
aS'66'
p702
ag12
ag4
aa(lp703
S'63'
p704
aS'61'
p705
ag34
ag4
aa(lp706
S'63'
p707
aS'61'
p708
aS'28'
p709
ag4
aa(lp710
S'64'
p711
aS'58'
p712
ag12
ag4
aa(lp713
S'64'
p714
aS'65'
p715
aS'22'
p716
ag4
aa(lp717
S'64'
p718
aS'66'
p719
ag12
ag4
aa(lp720
S'64'
p721
aS'61'
p722
ag12
ag4
aa(lp723
S'64'
p724
aS'68'
p725
ag12
ag4
aa(lp726
S'65'
p727
aS'58'
p728
ag12
ag16
aa(lp729
S'65'
p730
aS'61'
p731
ag16
ag16
aa(lp732
S'65'
p733
aS'62'
p734
aS'22'
p735
ag16
aa(lp736
S'65'
p737
aS'66'
p738
aS'15'
p739
ag16
aa(lp740
S'65'
p741
aS'58'
p742
ag12
ag4
aa(lp743
S'65'
p744
aS'64'
p745
ag12
ag4
aa(lp746
S'65'
p747
aS'67'
p748
ag12
ag4
aa(lp749
S'65'
p750
aS'59'
p751
ag16
ag4
aa(lp752
S'65'
p753
aS'64'
p754
ag12
ag4
aa(lp755
S'65'
p756
aS'67'
p757
ag4
ag4
aa(lp758
S'66'
p759
aS'58'
p760
ag12
ag16
aa(lp761
S'66'
p762
aS'61'
p763
aS'13'
p764
ag16
aa(lp765
S'66'
p766
aS'58'
p767
ag12
ag4
aa(lp768
S'66'
p769
aS'58'
p770
ag4
ag4
aa(lp771
S'66'
p772
aS'68'
p773
ag12
ag4
aa(lp774
S'67'
p775
aS'64'
p776
ag162
ag16
aa(lp777
S'67'
p778
aS'63'
p779
ag4
ag16
aa(lp780
S'67'
p781
aS'66'
p782
ag12
ag4
aa(lp783
S'67'
p784
aS'66'
p785
ag12
ag4
aa(lp786
S'67'
p787
aS'61'
p788
ag12
ag4
aa(lp789
S'67'
p790
aS'65'
p791
ag12
ag4
aa(lp792
S'68'
p793
aS'67'
p794
ag12
ag4
aa(lp795
S'68'
p796
aS'68'
p797
ag12
ag4
aa(lp798
S'69'
p799
aS'67'
p800
ag162
ag16
aa(lp801
S'69'
p802
aS'60'
p803
ag12
ag4
aa(lp804
S'69'
p805
aS'65'
p806
ag12
ag4
aa(lp807
S'69'
p808
aS'66'
p809
ag12
ag4
aa(lp810
S'70'
p811
aS'58'
p812
ag12
ag16
aa(lp813
S'70'
p814
aS'58'
p815
ag20
ag16
aa(lp816
S'70'
p817
aS'66'
p818
aS'14'
p819
ag4
aa(lp820
S'70'
p821
aS'67'
p822
ag12
ag4
aa(lp823
S'70'
p824
aS'68'
p825
ag12
ag4
aa(lp826
S'70'
p827
aS'59'
p828
ag162
ag4
aa(lp829
S'70'
p830
aS'63'
p831
ag12
ag4
aa(lp832
S'71'
p833
aS'68'
p834
ag16
ag4
aa(lp835
S'72'
p836
aS'63'
p837
ag12
ag16
aa(lp838
S'72'
p839
aS'58'
p840
ag12
ag4
aa(lp841
S'72'
p842
aS'64'
p843
ag12
ag4
aa(lp844
S'72'
p845
aS'67'
p846
ag8
ag4
aa(lp847
S'73'
p848
aS'62'
p849
ag12
ag4
aa(lp850
S'73'
p851
aS'68'
p852
ag12
ag4
aa(lp853
S'74'
p854
aS'65'
p855
ag8
ag16
aa(lp856
S'74'
p857
aS'63'
p858
ag12
ag4
aa(lp859
S'75'
p860
aS'62'
p861
ag4
ag4
aa(lp862
S'76'
p863
aS'67'
p864
ag12
ag4
aa(lp865
S'77'
p866
aS'65'
p867
ag8
ag4
aa(lp868
S'78'
p869
aS'65'
p870
ag4
ag16
aa(lp871
S'83'
p872
aS'58'
p873
ag16
ag16
aa.