(lp0
(lp1
S'30'
p2
aS'64'
p3
aS'1'
p4
ag4
aa(lp5
S'30'
p6
aS'62'
p7
aS'3'
p8
ag4
aa(lp9
S'30'
p10
aS'65'
p11
aS'0'
p12
ag4
aa(lp13
S'31'
p14
aS'59'
p15
aS'2'
p16
ag4
aa(lp17
S'31'
p18
aS'65'
p19
aS'4'
p20
ag4
aa(lp21
S'33'
p22
aS'58'
p23
aS'10'
p24
ag4
aa(lp25
S'33'
p26
aS'60'
p27
ag12
ag4
aa(lp28
S'34'
p29
aS'59'
p30
ag12
ag16
aa(lp31
S'34'
p32
aS'66'
p33
aS'9'
p34
ag16
aa(lp35
S'34'
p36
aS'58'
p37
aS'30'
p38
ag4
aa(lp39
S'34'
p40
aS'60'
p41
ag4
ag4
aa(lp42
S'34'
p43
aS'61'
p44
aS'10'
p45
ag4
aa(lp46
S'34'
p47
aS'67'
p48
aS'7'
p49
ag4
aa(lp50
S'34'
p51
aS'60'
p52
ag12
ag4
aa(lp53
S'35'
p54
aS'64'
p55
aS'13'
p56
ag4
aa(lp57
S'35'
p58
aS'63'
p59
ag12
ag4
aa(lp60
S'36'
p61
aS'60'
p62
ag4
ag4
aa(lp63
S'36'
p64
aS'69'
p65
ag12
ag4
aa(lp66
S'37'
p67
aS'60'
p68
ag12
ag4
aa(lp69
S'37'
p70
aS'63'
p71
ag12
ag4
aa(lp72
S'37'
p73
aS'58'
p74
ag12
ag4
aa(lp75
S'37'
p76
aS'59'
p77
aS'6'
p78
ag4
aa(lp79
S'37'
p80
aS'60'
p81
aS'15'
p82
ag4
aa(lp83
S'37'
p84
aS'63'
p85
ag12
ag4
aa(lp86
S'38'
p87
aS'69'
p88
aS'21'
p89
ag16
aa(lp90
S'38'
p91
aS'59'
p92
ag16
ag4
aa(lp93
S'39'
p94
aS'66'
p95
ag12
ag16
aa(lp96
S'41'
p97
aS'60'
p98
aS'23'
p99
ag16
aa(lp100
S'41'
p101
aS'64'
p102
ag12
ag16
aa(lp103
S'41'
p104
aS'67'
p105
ag12
ag16
aa(lp106
S'42'
p107
aS'69'
p108
ag4
ag16
aa(lp109
S'42'
p110
aS'59'
p111
ag12
ag16
aa(lp112
S'42'
p113
aS'58'
p114
ag12
ag4
aa(lp115
S'42'
p116
aS'60'
p117
ag4
ag4
aa(lp118
S'42'
p119
aS'59'
p120
ag16
ag4
aa(lp121
S'42'
p122
aS'61'
p123
ag20
ag4
aa(lp124
S'42'
p125
aS'62'
p126
aS'20'
p127
ag4
aa(lp128
S'42'
p129
aS'65'
p130
ag12
ag4
aa(lp131
S'42'
p132
aS'63'
p133
ag4
ag4
aa(lp134
S'43'
p135
aS'63'
p136
aS'14'
p137
ag4
aa(lp138
S'43'
p139
aS'64'
p140
ag16
ag4
aa(lp141
S'43'
p142
aS'64'
p143
ag8
ag4
aa(lp144
S'43'
p145
aS'60'
p146
ag12
ag4
aa(lp147
S'43'
p148
aS'63'
p149
ag16
ag4
aa(lp150
S'43'
p151
aS'65'
p152
ag12
ag4
aa(lp153
S'43'
p154
aS'66'
p155
ag20
ag4
aa(lp156
S'44'
p157
aS'61'
p158
ag12
ag4
aa(lp159
S'44'
p160
aS'63'
p161
ag4
ag4
aa(lp162
S'44'
p163
aS'61'
p164
ag12
ag4
aa(lp165
S'44'
p166
aS'67'
p167
aS'16'
p168
ag4
aa(lp169
S'45'
p170
aS'66'
p171
ag12
ag16
aa(lp172
S'45'
p173
aS'67'
p174
ag4
ag16
aa(lp175
S'45'
p176
aS'60'
p177
ag12
ag4
aa(lp178
S'45'
p179
aS'67'
p180
ag12
ag4
aa(lp181
S'45'
p182
aS'59'
p183
aS'14'
p184
ag4
aa(lp185
S'45'
p186
aS'64'
p187
ag12
ag4
aa(lp188
S'45'
p189
aS'68'
p190
ag12
ag4
aa(lp191
S'45'
p192
aS'67'
p193
ag4
ag4
aa(lp194
S'46'
p195
aS'58'
p196
ag16
ag16
aa(lp197
S'46'
p198
aS'69'
p199
ag8
ag16
aa(lp200
S'46'
p201
aS'62'
p202
aS'5'
p203
ag16
aa(lp204
S'46'
p205
aS'65'
p206
aS'20'
p207
ag16
aa(lp208
S'46'
p209
aS'62'
p210
ag12
ag4
aa(lp211
S'46'
p212
aS'58'
p213
ag8
ag4
aa(lp214
S'46'
p215
aS'63'
p216
ag12
ag4
aa(lp217
S'47'
p218
aS'63'
p219
aS'23'
p220
ag16
aa(lp221
S'47'
p222
aS'62'
p223
ag12
ag16
aa(lp224
S'47'
p225
aS'65'
p226
ag12
ag16
aa(lp227
S'47'
p228
aS'61'
p229
ag12
ag4
aa(lp230
S'47'
p231
aS'63'
p232
ag78
ag4
aa(lp233
S'47'
p234
aS'66'
p235
ag12
ag4
aa(lp236
S'47'
p237
aS'67'
p238
ag12
ag4
aa(lp239
S'47'
p240
aS'58'
p241
ag8
ag4
aa(lp242
S'47'
p243
aS'60'
p244
ag20
ag4
aa(lp245
S'47'
p246
aS'68'
p247
ag20
ag4
aa(lp248
S'47'
p249
aS'66'
p250
aS'12'
p251
ag4
aa(lp252
S'48'
p253
aS'58'
p254
aS'11'
p255
ag16
aa(lp256
S'48'
p257
aS'58'
p258
aS'11'
p259
ag16
aa(lp260
S'48'
p261
aS'67'
p262
ag49
ag16
aa(lp263
S'48'
p264
aS'61'
p265
aS'8'
p266
ag4
aa(lp267
S'48'
p268
aS'62'
p269
ag16
ag4
aa(lp270
S'48'
p271
aS'64'
p272
ag12
ag4
aa(lp273
S'48'
p274
aS'66'
p275
ag12
ag4
aa(lp276
S'49'
p277
aS'63'
p278
ag12
ag16
aa(lp279
S'49'
p280
aS'64'
p281
aS'10'
p282
ag16
aa(lp283
S'49'
p284
aS'61'
p285
ag4
ag4
aa(lp286
S'49'
p287
aS'62'
p288
ag12
ag4
aa(lp289
S'49'
p290
aS'66'
p291
ag12
ag4
aa(lp292
S'49'
p293
aS'60'
p294
ag4
ag4
aa(lp295
S'49'
p296
aS'62'
p297
ag4
ag4
aa(lp298
S'49'
p299
aS'63'
p300
ag8
ag4
aa(lp301
S'49'
p302
aS'61'
p303
ag12
ag4
aa(lp304
S'49'
p305
aS'67'
p306
ag4
ag4
aa(lp307
S'50'
p308
aS'63'
p309
aS'13'
p310
ag16
aa(lp311
S'50'
p312
aS'64'
p313
ag12
ag16
aa(lp314
S'50'
p315
aS'59'
p316
ag12
ag4
aa(lp317
S'50'
p318
aS'61'
p319
ag78
ag4
aa(lp320
S'50'
p321
aS'61'
p322
ag12
ag4
aa(lp323
S'50'
p324
aS'63'
p325
ag4
ag4
aa(lp326
S'50'
p327
aS'58'
p328
ag4
ag4
aa(lp329
S'50'
p330
aS'59'
p331
ag16
ag4
aa(lp332
S'50'
p333
aS'61'
p334
ag12
ag4
aa(lp335
S'50'
p336
aS'64'
p337
ag12
ag4
aa(lp338
S'50'
p339
aS'65'
p340
ag20
ag4
aa(lp341
S'50'
p342
aS'66'
p343
ag4
ag4
aa(lp344
S'51'
p345
aS'59'
p346
aS'13'
p347
ag16
aa(lp348
S'51'
p349
aS'59'
p350
ag8
ag16
aa(lp351
S'51'
p352
aS'64'
p353
ag49
ag4
aa(lp354
S'51'
p355
aS'59'
p356
ag4
ag4
aa(lp357
S'51'
p358
aS'65'
p359
ag12
ag4
aa(lp360
S'51'
p361
aS'66'
p362
ag4
ag4
aa(lp363
S'52'
p364
aS'69'
p365
ag8
ag16
aa(lp366
S'52'
p367
aS'59'
p368
ag16
ag16
aa(lp369
S'52'
p370
aS'62'
p371
ag8
ag16
aa(lp372
S'52'
p373
aS'66'
p374
ag20
ag16
aa(lp375
S'52'
p376
aS'61'
p377
ag12
ag4
aa(lp378
S'52'
p379
aS'63'
p380
ag20
ag4
aa(lp381
S'52'
p382
aS'69'
p383
ag12
ag4
aa(lp384
S'52'
p385
aS'60'
p386
ag20
ag4
aa(lp387
S'52'
p388
aS'60'
p389
ag203
ag4
aa(lp390
S'52'
p391
aS'62'
p392
ag12
ag4
aa(lp393
S'52'
p394
aS'62'
p395
ag4
ag4
aa(lp396
S'52'
p397
aS'64'
p398
ag12
ag4
aa(lp399
S'52'
p400
aS'65'
p401
ag12
ag4
aa(lp402
S'52'
p403
aS'68'
p404
ag12
ag4
aa(lp405
S'53'
p406
aS'58'
p407
ag20
ag16
aa(lp408
S'53'
p409
aS'65'
p410
ag4
ag16
aa(lp411
S'53'
p412
aS'59'
p413
ag8
ag16
aa(lp414
S'53'
p415
aS'60'
p416
ag34
ag16
aa(lp417
S'53'
p418
aS'63'
p419
aS'24'
p420
ag16
aa(lp421
S'53'
p422
aS'65'
p423
aS'12'
p424
ag16
aa(lp425
S'53'
p426
aS'58'
p427
ag4
ag4
aa(lp428
S'53'
p429
aS'60'
p430
ag4
ag4
aa(lp431
S'53'
p432
aS'60'
p433
ag16
ag4
aa(lp434
S'53'
p435
aS'61'
p436
ag4
ag4
aa(lp437
S'53'
p438
aS'63'
p439
ag12
ag4
aa(lp440
S'54'
p441
aS'60'
p442
aS'11'
p443
ag16
aa(lp444
S'54'
p445
aS'65'
p446
aS'23'
p447
ag16
aa(lp448
S'54'
p449
aS'65'
p450
ag203
ag16
aa(lp451
S'54'
p452
aS'68'
p453
ag49
ag16
aa(lp454
S'54'
p455
aS'59'
p456
ag49
ag4
aa(lp457
S'54'
p458
aS'60'
p459
ag8
ag4
aa(lp460
S'54'
p461
aS'66'
p462
ag12
ag4
aa(lp463
S'54'
p464
aS'67'
p465
aS'46'
p466
ag4
aa(lp467
S'54'
p468
aS'62'
p469
ag12
ag4
aa(lp470
S'54'
p471
aS'69'
p472
ag49
ag4
aa(lp473
S'54'
p474
aS'63'
p475
aS'19'
p476
ag4
aa(lp477
S'54'
p478
aS'58'
p479
ag4
ag4
aa(lp480
S'54'
p481
aS'62'
p482
ag12
ag4
aa(lp483
S'55'
p484
aS'63'
p485
ag78
ag16
aa(lp486
S'55'
p487
aS'68'
p488
aS'15'
p489
ag16
aa(lp490
S'55'
p491
aS'58'
p492
ag4
ag4
aa(lp493
S'55'
p494
aS'58'
p495
ag12
ag4
aa(lp496
S'55'
p497
aS'58'
p498
ag4
ag4
aa(lp499
S'55'
p500
aS'66'
p501
aS'18'
p502
ag4
aa(lp503
S'55'
p504
aS'66'
p505
ag12
ag4
aa(lp506
S'55'
p507
aS'69'
p508
ag8
ag4
aa(lp509
S'55'
p510
aS'69'
p511
aS'22'
p512
ag4
aa(lp513
S'55'
p514
aS'67'
p515
ag4
ag4
aa(lp516
S'56'
p517
aS'65'
p518
ag34
ag16
aa(lp519
S'56'
p520
aS'66'
p521
ag8
ag16
aa(lp522
S'56'
p523
aS'60'
p524
ag12
ag4
aa(lp525
S'56'
p526
aS'66'
p527
ag16
ag4
aa(lp528
S'56'
p529
aS'66'
p530
ag4
ag4
aa(lp531
S'56'
p532
aS'67'
p533
ag12
ag4
aa(lp534
S'56'
p535
aS'60'
p536
ag12
ag4
aa(lp537
S'57'
p538
aS'61'
p539
ag203
ag16
aa(lp540
S'57'
p541
aS'62'
p542
aS'14'
p543
ag16
aa(lp544
S'57'
p545
aS'64'
p546
ag4
ag16
aa(lp547
S'57'
p548
aS'64'
p549
ag34
ag4
aa(lp550
S'57'
p551
aS'69'
p552
ag12
ag4
aa(lp553
S'57'
p554
aS'61'
p555
ag12
ag4
aa(lp556
S'57'
p557
aS'62'
p558
ag12
ag4
aa(lp559
S'57'
p560
aS'63'
p561
ag12
ag4
aa(lp562
S'57'
p563
aS'64'
p564
ag12
ag4
aa(lp565
S'57'
p566
aS'64'
p567
ag12
ag4
aa(lp568
S'57'
p569
aS'67'
p570
ag12
ag4
aa(lp571
S'58'
p572
aS'59'
p573
ag12
ag4
aa(lp574
S'58'
p575
aS'60'
p576
ag8
ag4
aa(lp577
S'58'
p578
aS'61'
p579
ag4
ag4
aa(lp580
S'58'
p581
aS'67'
p582
ag12
ag4
aa(lp583
S'58'
p584
aS'58'
p585
ag12
ag4
aa(lp586
S'58'
p587
aS'58'
p588
ag8
ag4
aa(lp589
S'58'
p590
aS'61'
p591
ag16
ag4
aa(lp592
S'59'
p593
aS'62'
p594
aS'35'
p595
ag16
aa(lp596
S'59'
p597
aS'60'
p598
ag12
ag4
aa(lp599
S'59'
p600
aS'63'
p601
ag12
ag4
aa(lp602
S'59'
p603
aS'64'
p604
ag4
ag4
aa(lp605
S'59'
p606
aS'64'
p607
ag20
ag4
aa(lp608
S'59'
p609
aS'64'
p610
ag12
ag4
aa(lp611
S'59'
p612
aS'64'
p613
ag49
ag4
aa(lp614
S'59'
p615
aS'67'
p616
ag8
ag4
aa(lp617
S'60'
p618
aS'59'
p619
aS'17'
p620
ag16
aa(lp621
S'60'
p622
aS'65'
p623
ag12
ag16
aa(lp624
S'60'
p625
aS'61'
p626
ag4
ag4
aa(lp627
S'60'
p628
aS'67'
p629
ag16
ag4
aa(lp630
S'60'
p631
aS'61'
p632
aS'25'
p633
ag4
aa(lp634
S'60'
p635
aS'64'
p636
ag12
ag4
aa(lp637
S'61'
p638
aS'62'
p639
ag203
ag16
aa(lp640
S'61'
p641
aS'65'
p642
ag12
ag16
aa(lp643
S'61'
p644
aS'68'
p645
ag4
ag16
aa(lp646
S'61'
p647
aS'59'
p648
ag12
ag4
aa(lp649
S'61'
p650
aS'59'
p651
ag12
ag4
aa(lp652
S'61'
p653
aS'64'
p654
ag12
ag4
aa(lp655
S'61'
p656
aS'65'
p657
ag266
ag4
aa(lp658
S'61'
p659
aS'68'
p660
ag12
ag4
aa(lp661
S'61'
p662
aS'59'
p663
ag12
ag4
aa(lp664
S'62'
p665
aS'59'
p666
aS'13'
p667
ag16
aa(lp668
S'62'
p669
aS'58'
p670
ag12
ag16
aa(lp671
S'62'
p672
aS'65'
p673
aS'19'
p674
ag16
aa(lp675
S'62'
p676
aS'62'
p677
ag78
ag4
aa(lp678
S'62'
p679
aS'66'
p680
ag12
ag4
aa(lp681
S'62'
p682
aS'66'
p683
ag12
ag4
aa(lp684
S'62'
p685
aS'58'
p686
ag12
ag4
aa(lp687
S'63'
p688
aS'60'
p689
ag4
ag16
aa(lp690
S'63'
p691
aS'61'
p692
ag12
ag4
aa(lp693
S'63'
p694
aS'62'
p695
ag12
ag4
aa(lp696
S'63'
p697
aS'63'
p698
ag12
ag4
aa(lp699
S'63'
p700
aS'63'
p701
ag12
ag4
aa(lp702
S'63'
p703
aS'66'
p704
ag12
ag4
aa(lp705
S'63'
p706
aS'61'
p707
ag34
ag4
aa(lp708
S'63'
p709
aS'61'
p710
aS'28'
p711
ag4
aa(lp712
S'64'
p713
aS'58'
p714
ag12
ag4
aa(lp715
S'64'
p716
aS'65'
p717
aS'22'
p718
ag4
aa(lp719
S'64'
p720
aS'66'
p721
ag12
ag4
aa(lp722
S'64'
p723
aS'61'
p724
ag12
ag4
aa(lp725
S'64'
p726
aS'68'
p727
ag12
ag4
aa(lp728
S'65'
p729
aS'58'
p730
ag12
ag16
aa(lp731
S'65'
p732
aS'61'
p733
ag16
ag16
aa(lp734
S'65'
p735
aS'62'
p736
aS'22'
p737
ag16
aa(lp738
S'65'
p739
aS'66'
p740
aS'15'
p741
ag16
aa(lp742
S'65'
p743
aS'58'
p744
ag12
ag4
aa(lp745
S'65'
p746
aS'64'
p747
ag12
ag4
aa(lp748
S'65'
p749
aS'67'
p750
ag12
ag4
aa(lp751
S'65'
p752
aS'59'
p753
ag16
ag4
aa(lp754
S'65'
p755
aS'64'
p756
ag12
ag4
aa(lp757
S'65'
p758
aS'67'
p759
ag4
ag4
aa(lp760
S'66'
p761
aS'58'
p762
ag12
ag16
aa(lp763
S'66'
p764
aS'61'
p765
aS'13'
p766
ag16
aa(lp767
S'66'
p768
aS'58'
p769
ag12
ag4
aa(lp770
S'66'
p771
aS'58'
p772
ag4
ag4
aa(lp773
S'66'
p774
aS'68'
p775
ag12
ag4
aa(lp776
S'67'
p777
aS'64'
p778
ag266
ag16
aa(lp779
S'67'
p780
aS'63'
p781
ag4
ag16
aa(lp782
S'67'
p783
aS'66'
p784
ag12
ag4
aa(lp785
S'67'
p786
aS'66'
p787
ag12
ag4
aa(lp788
S'67'
p789
aS'61'
p790
ag12
ag4
aa(lp791
S'67'
p792
aS'65'
p793
ag12
ag4
aa(lp794
S'68'
p795
aS'67'
p796
ag12
ag4
aa(lp797
S'68'
p798
aS'68'
p799
ag12
ag4
aa(lp800
S'69'
p801
aS'67'
p802
ag266
ag16
aa(lp803
S'69'
p804
aS'60'
p805
ag12
ag4
aa(lp806
S'69'
p807
aS'65'
p808
ag12
ag4
aa(lp809
S'69'
p810
aS'66'
p811
ag12
ag4
aa(lp812
S'70'
p813
aS'58'
p814
ag12
ag16
aa(lp815
S'70'
p816
aS'58'
p817
ag20
ag16
aa(lp818
S'70'
p819
aS'66'
p820
aS'14'
p821
ag4
aa(lp822
S'70'
p823
aS'67'
p824
ag12
ag4
aa(lp825
S'70'
p826
aS'68'
p827
ag12
ag4
aa(lp828
S'70'
p829
aS'59'
p830
ag266
ag4
aa(lp831
S'70'
p832
aS'63'
p833
ag12
ag4
aa(lp834
S'71'
p835
aS'68'
p836
ag16
ag4
aa(lp837
S'72'
p838
aS'63'
p839
ag12
ag16
aa(lp840
S'72'
p841
aS'58'
p842
ag12
ag4
aa(lp843
S'72'
p844
aS'64'
p845
ag12
ag4
aa(lp846
S'72'
p847
aS'67'
p848
ag8
ag4
aa(lp849
S'73'
p850
aS'62'
p851
ag12
ag4
aa(lp852
S'73'
p853
aS'68'
p854
ag12
ag4
aa(lp855
S'74'
p856
aS'65'
p857
ag8
ag16
aa(lp858
S'74'
p859
aS'63'
p860
ag12
ag4
aa(lp861
S'75'
p862
aS'62'
p863
ag4
ag4
aa(lp864
S'76'
p865
aS'67'
p866
ag12
ag4
aa(lp867
S'77'
p868
aS'65'
p869
ag8
ag4
aa(lp870
S'78'
p871
aS'65'
p872
ag4
ag16
aa(lp873
S'83'
p874
aS'58'
p875
ag16
ag16
aa.