(lp0
(lp1
S'30'
p2
aS'64'
p3
aS'1'
p4
ag4
aa(lp5
S'30'
p6
aS'62'
p7
aS'3'
p8
ag4
aa(lp9
S'30'
p10
aS'65'
p11
aS'0'
p12
ag4
aa(lp13
S'31'
p14
aS'59'
p15
aS'2'
p16
ag4
aa(lp17
S'31'
p18
aS'65'
p19
aS'4'
p20
ag4
aa(lp21
S'33'
p22
aS'58'
p23
aS'10'
p24
ag4
aa(lp25
S'33'
p26
aS'60'
p27
ag12
ag4
aa(lp28
S'34'
p29
aS'59'
p30
ag12
ag16
aa(lp31
S'34'
p32
aS'66'
p33
aS'9'
p34
ag16
aa(lp35
S'34'
p36
aS'58'
p37
aS'30'
p38
ag4
aa(lp39
S'34'
p40
aS'60'
p41
ag4
ag4
aa(lp42
S'34'
p43
aS'61'
p44
aS'10'
p45
ag4
aa(lp46
S'34'
p47
aS'67'
p48
aS'7'
p49
ag4
aa(lp50
S'34'
p51
aS'60'
p52
ag12
ag4
aa(lp53
S'35'
p54
aS'64'
p55
aS'13'
p56
ag4
aa(lp57
S'35'
p58
aS'63'
p59
ag12
ag4
aa(lp60
S'36'
p61
aS'60'
p62
ag4
ag4
aa(lp63
S'36'
p64
aS'69'
p65
ag12
ag4
aa(lp66
S'37'
p67
aS'60'
p68
ag12
ag4
aa(lp69
S'37'
p70
aS'63'
p71
ag12
ag4
aa(lp72
S'37'
p73
aS'58'
p74
ag12
ag4
aa(lp75
S'37'
p76
aS'59'
p77
aS'6'
p78
ag4
aa(lp79
S'37'
p80
aS'60'
p81
aS'15'
p82
ag4
aa(lp83
S'37'
p84
aS'63'
p85
ag12
ag4
aa(lp86
S'38'
p87
aS'69'
p88
aS'21'
p89
ag16
aa(lp90
S'38'
p91
aS'59'
p92
ag16
ag4
aa(lp93
S'38'
p94
aS'60'
p95
ag12
ag4
aa(lp96
S'38'
p97
aS'60'
p98
ag12
ag4
aa(lp99
S'38'
p100
aS'62'
p101
ag8
ag4
aa(lp102
S'38'
p103
aS'64'
p104
ag4
ag4
aa(lp105
S'38'
p106
aS'66'
p107
ag12
ag4
aa(lp108
S'38'
p109
aS'66'
p110
aS'11'
p111
ag4
aa(lp112
S'38'
p113
aS'60'
p114
ag4
ag4
aa(lp115
S'38'
p116
aS'67'
p117
aS'5'
p118
ag4
aa(lp119
S'39'
p120
aS'66'
p121
ag12
ag16
aa(lp122
S'39'
p123
aS'63'
p124
ag12
ag4
aa(lp125
S'39'
p126
aS'67'
p127
ag12
ag4
aa(lp128
S'39'
p129
aS'58'
p130
ag12
ag4
aa(lp131
S'39'
p132
aS'59'
p133
ag16
ag4
aa(lp134
S'39'
p135
aS'63'
p136
ag20
ag4
aa(lp137
S'40'
p138
aS'58'
p139
ag16
ag4
aa(lp140
S'40'
p141
aS'58'
p142
ag12
ag4
aa(lp143
S'40'
p144
aS'65'
p145
ag12
ag4
aa(lp146
S'41'
p147
aS'60'
p148
aS'23'
p149
ag16
aa(lp150
S'41'
p151
aS'64'
p152
ag12
ag16
aa(lp153
S'41'
p154
aS'67'
p155
ag12
ag16
aa(lp156
S'41'
p157
aS'58'
p158
ag12
ag4
aa(lp159
S'41'
p160
aS'59'
p161
aS'8'
p162
ag4
aa(lp163
S'41'
p164
aS'59'
p165
ag12
ag4
aa(lp166
S'41'
p167
aS'64'
p168
ag12
ag4
aa(lp169
S'41'
p170
aS'69'
p171
ag162
ag4
aa(lp172
S'41'
p173
aS'65'
p174
ag12
ag4
aa(lp175
S'41'
p176
aS'65'
p177
ag12
ag4
aa(lp178
S'42'
p179
aS'69'
p180
ag4
ag16
aa(lp181
S'42'
p182
aS'59'
p183
ag12
ag16
aa(lp184
S'42'
p185
aS'58'
p186
ag12
ag4
aa(lp187
S'42'
p188
aS'60'
p189
ag4
ag4
aa(lp190
S'42'
p191
aS'59'
p192
ag16
ag4
aa(lp193
S'42'
p194
aS'61'
p195
ag20
ag4
aa(lp196
S'42'
p197
aS'62'
p198
aS'20'
p199
ag4
aa(lp200
S'42'
p201
aS'65'
p202
ag12
ag4
aa(lp203
S'42'
p204
aS'63'
p205
ag4
ag4
aa(lp206
S'43'
p207
aS'58'
p208
aS'52'
p209
ag16
aa(lp210
S'43'
p211
aS'59'
p212
ag16
ag16
aa(lp213
S'43'
p214
aS'64'
p215
ag12
ag16
aa(lp216
S'43'
p217
aS'64'
p218
ag12
ag16
aa(lp219
S'43'
p220
aS'63'
p221
aS'14'
p222
ag4
aa(lp223
S'43'
p224
aS'64'
p225
ag16
ag4
aa(lp226
S'43'
p227
aS'64'
p228
ag8
ag4
aa(lp229
S'43'
p230
aS'60'
p231
ag12
ag4
aa(lp232
S'43'
p233
aS'63'
p234
ag16
ag4
aa(lp235
S'43'
p236
aS'65'
p237
ag12
ag4
aa(lp238
S'43'
p239
aS'66'
p240
ag20
ag4
aa(lp241
S'44'
p242
aS'64'
p243
ag78
ag16
aa(lp244
S'44'
p245
aS'58'
p246
ag34
ag16
aa(lp247
S'44'
p248
aS'63'
p249
aS'19'
p250
ag16
aa(lp251
S'44'
p252
aS'61'
p253
ag12
ag4
aa(lp254
S'44'
p255
aS'63'
p256
ag4
ag4
aa(lp257
S'44'
p258
aS'61'
p259
ag12
ag4
aa(lp260
S'44'
p261
aS'67'
p262
aS'16'
p263
ag4
aa(lp264
S'45'
p265
aS'65'
p266
ag78
ag16
aa(lp267
S'45'
p268
aS'66'
p269
ag12
ag16
aa(lp270
S'45'
p271
aS'67'
p272
ag4
ag16
aa(lp273
S'45'
p274
aS'60'
p275
ag12
ag4
aa(lp276
S'45'
p277
aS'67'
p278
ag12
ag4
aa(lp279
S'45'
p280
aS'59'
p281
aS'14'
p282
ag4
aa(lp283
S'45'
p284
aS'64'
p285
ag12
ag4
aa(lp286
S'45'
p287
aS'68'
p288
ag12
ag4
aa(lp289
S'45'
p290
aS'67'
p291
ag4
ag4
aa(lp292
S'46'
p293
aS'58'
p294
ag16
ag16
aa(lp295
S'46'
p296
aS'69'
p297
ag8
ag16
aa(lp298
S'46'
p299
aS'62'
p300
ag118
ag16
aa(lp301
S'46'
p302
aS'65'
p303
aS'20'
p304
ag16
aa(lp305
S'46'
p306
aS'62'
p307
ag12
ag4
aa(lp308
S'46'
p309
aS'58'
p310
ag8
ag4
aa(lp311
S'46'
p312
aS'63'
p313
ag12
ag4
aa(lp314
S'47'
p315
aS'63'
p316
aS'23'
p317
ag16
aa(lp318
S'47'
p319
aS'62'
p320
ag12
ag16
aa(lp321
S'47'
p322
aS'65'
p323
ag12
ag16
aa(lp324
S'47'
p325
aS'61'
p326
ag12
ag4
aa(lp327
S'47'
p328
aS'63'
p329
ag78
ag4
aa(lp330
S'47'
p331
aS'66'
p332
ag12
ag4
aa(lp333
S'47'
p334
aS'67'
p335
ag12
ag4
aa(lp336
S'47'
p337
aS'58'
p338
ag8
ag4
aa(lp339
S'47'
p340
aS'60'
p341
ag20
ag4
aa(lp342
S'47'
p343
aS'68'
p344
ag20
ag4
aa(lp345
S'47'
p346
aS'66'
p347
aS'12'
p348
ag4
aa(lp349
S'48'
p350
aS'58'
p351
aS'11'
p352
ag16
aa(lp353
S'48'
p354
aS'58'
p355
aS'11'
p356
ag16
aa(lp357
S'48'
p358
aS'67'
p359
ag49
ag16
aa(lp360
S'48'
p361
aS'61'
p362
ag162
ag4
aa(lp363
S'48'
p364
aS'62'
p365
ag16
ag4
aa(lp366
S'48'
p367
aS'64'
p368
ag12
ag4
aa(lp369
S'48'
p370
aS'66'
p371
ag12
ag4
aa(lp372
S'49'
p373
aS'63'
p374
ag12
ag16
aa(lp375
S'49'
p376
aS'64'
p377
aS'10'
p378
ag16
aa(lp379
S'49'
p380
aS'61'
p381
ag4
ag4
aa(lp382
S'49'
p383
aS'62'
p384
ag12
ag4
aa(lp385
S'49'
p386
aS'66'
p387
ag12
ag4
aa(lp388
S'49'
p389
aS'60'
p390
ag4
ag4
aa(lp391
S'49'
p392
aS'62'
p393
ag4
ag4
aa(lp394
S'49'
p395
aS'63'
p396
ag8
ag4
aa(lp397
S'49'
p398
aS'61'
p399
ag12
ag4
aa(lp400
S'49'
p401
aS'67'
p402
ag4
ag4
aa(lp403
S'50'
p404
aS'63'
p405
aS'13'
p406
ag16
aa(lp407
S'50'
p408
aS'64'
p409
ag12
ag16
aa(lp410
S'50'
p411
aS'59'
p412
ag12
ag4
aa(lp413
S'50'
p414
aS'61'
p415
ag78
ag4
aa(lp416
S'50'
p417
aS'61'
p418
ag12
ag4
aa(lp419
S'50'
p420
aS'63'
p421
ag4
ag4
aa(lp422
S'50'
p423
aS'58'
p424
ag4
ag4
aa(lp425
S'50'
p426
aS'59'
p427
ag16
ag4
aa(lp428
S'50'
p429
aS'61'
p430
ag12
ag4
aa(lp431
S'50'
p432
aS'64'
p433
ag12
ag4
aa(lp434
S'50'
p435
aS'65'
p436
ag20
ag4
aa(lp437
S'50'
p438
aS'66'
p439
ag4
ag4
aa(lp440
S'51'
p441
aS'59'
p442
aS'13'
p443
ag16
aa(lp444
S'51'
p445
aS'59'
p446
ag8
ag16
aa(lp447
S'51'
p448
aS'64'
p449
ag49
ag4
aa(lp450
S'51'
p451
aS'59'
p452
ag4
ag4
aa(lp453
S'51'
p454
aS'65'
p455
ag12
ag4
aa(lp456
S'51'
p457
aS'66'
p458
ag4
ag4
aa(lp459
S'52'
p460
aS'69'
p461
ag8
ag16
aa(lp462
S'52'
p463
aS'59'
p464
ag16
ag16
aa(lp465
S'52'
p466
aS'62'
p467
ag8
ag16
aa(lp468
S'52'
p469
aS'66'
p470
ag20
ag16
aa(lp471
S'52'
p472
aS'61'
p473
ag12
ag4
aa(lp474
S'52'
p475
aS'63'
p476
ag20
ag4
aa(lp477
S'52'
p478
aS'69'
p479
ag12
ag4
aa(lp480
S'52'
p481
aS'60'
p482
ag20
ag4
aa(lp483
S'52'
p484
aS'60'
p485
ag118
ag4
aa(lp486
S'52'
p487
aS'62'
p488
ag12
ag4
aa(lp489
S'52'
p490
aS'62'
p491
ag4
ag4
aa(lp492
S'52'
p493
aS'64'
p494
ag12
ag4
aa(lp495
S'52'
p496
aS'65'
p497
ag12
ag4
aa(lp498
S'52'
p499
aS'68'
p500
ag12
ag4
aa(lp501
S'53'
p502
aS'58'
p503
ag20
ag16
aa(lp504
S'53'
p505
aS'65'
p506
ag4
ag16
aa(lp507
S'53'
p508
aS'59'
p509
ag8
ag16
aa(lp510
S'53'
p511
aS'60'
p512
ag34
ag16
aa(lp513
S'53'
p514
aS'63'
p515
aS'24'
p516
ag16
aa(lp517
S'53'
p518
aS'65'
p519
aS'12'
p520
ag16
aa(lp521
S'53'
p522
aS'58'
p523
ag4
ag4
aa(lp524
S'53'
p525
aS'60'
p526
ag4
ag4
aa(lp527
S'53'
p528
aS'60'
p529
ag16
ag4
aa(lp530
S'53'
p531
aS'61'
p532
ag4
ag4
aa(lp533
S'53'
p534
aS'63'
p535
ag12
ag4
aa(lp536
S'54'
p537
aS'60'
p538
aS'11'
p539
ag16
aa(lp540
S'54'
p541
aS'65'
p542
aS'23'
p543
ag16
aa(lp544
S'54'
p545
aS'65'
p546
ag118
ag16
aa(lp547
S'54'
p548
aS'68'
p549
ag49
ag16
aa(lp550
S'54'
p551
aS'59'
p552
ag49
ag4
aa(lp553
S'54'
p554
aS'60'
p555
ag8
ag4
aa(lp556
S'54'
p557
aS'66'
p558
ag12
ag4
aa(lp559
S'54'
p560
aS'67'
p561
aS'46'
p562
ag4
aa(lp563
S'54'
p564
aS'62'
p565
ag12
ag4
aa(lp566
S'54'
p567
aS'69'
p568
ag49
ag4
aa(lp569
S'54'
p570
aS'63'
p571
aS'19'
p572
ag4
aa(lp573
S'54'
p574
aS'58'
p575
ag4
ag4
aa(lp576
S'54'
p577
aS'62'
p578
ag12
ag4
aa(lp579
S'55'
p580
aS'63'
p581
ag78
ag16
aa(lp582
S'55'
p583
aS'68'
p584
aS'15'
p585
ag16
aa(lp586
S'55'
p587
aS'58'
p588
ag4
ag4
aa(lp589
S'55'
p590
aS'58'
p591
ag12
ag4
aa(lp592
S'55'
p593
aS'58'
p594
ag4
ag4
aa(lp595
S'55'
p596
aS'66'
p597
aS'18'
p598
ag4
aa(lp599
S'55'
p600
aS'66'
p601
ag12
ag4
aa(lp602
S'55'
p603
aS'69'
p604
ag8
ag4
aa(lp605
S'55'
p606
aS'69'
p607
aS'22'
p608
ag4
aa(lp609
S'55'
p610
aS'67'
p611
ag4
ag4
aa(lp612
S'56'
p613
aS'65'
p614
ag34
ag16
aa(lp615
S'56'
p616
aS'66'
p617
ag8
ag16
aa(lp618
S'56'
p619
aS'60'
p620
ag12
ag4
aa(lp621
S'56'
p622
aS'66'
p623
ag16
ag4
aa(lp624
S'56'
p625
aS'66'
p626
ag4
ag4
aa(lp627
S'56'
p628
aS'67'
p629
ag12
ag4
aa(lp630
S'56'
p631
aS'60'
p632
ag12
ag4
aa(lp633
S'57'
p634
aS'61'
p635
ag118
ag16
aa(lp636
S'57'
p637
aS'62'
p638
aS'14'
p639
ag16
aa(lp640
S'57'
p641
aS'64'
p642
ag4
ag16
aa(lp643
S'57'
p644
aS'64'
p645
ag34
ag4
aa(lp646
S'57'
p647
aS'69'
p648
ag12
ag4
aa(lp649
S'57'
p650
aS'61'
p651
ag12
ag4
aa(lp652
S'57'
p653
aS'62'
p654
ag12
ag4
aa(lp655
S'57'
p656
aS'63'
p657
ag12
ag4
aa(lp658
S'57'
p659
aS'64'
p660
ag12
ag4
aa(lp661
S'57'
p662
aS'64'
p663
ag12
ag4
aa(lp664
S'57'
p665
aS'67'
p666
ag12
ag4
aa(lp667
S'58'
p668
aS'59'
p669
ag12
ag4
aa(lp670
S'58'
p671
aS'60'
p672
ag8
ag4
aa(lp673
S'58'
p674
aS'61'
p675
ag4
ag4
aa(lp676
S'58'
p677
aS'67'
p678
ag12
ag4
aa(lp679
S'58'
p680
aS'58'
p681
ag12
ag4
aa(lp682
S'58'
p683
aS'58'
p684
ag8
ag4
aa(lp685
S'58'
p686
aS'61'
p687
ag16
ag4
aa(lp688
S'59'
p689
aS'62'
p690
aS'35'
p691
ag16
aa(lp692
S'63'
p693
aS'60'
p694
ag4
ag16
aa(lp695
S'63'
p696
aS'62'
p697
ag12
ag4
aa(lp698
S'63'
p699
aS'63'
p700
ag12
ag4
aa(lp701
S'63'
p702
aS'63'
p703
ag12
ag4
aa(lp704
S'63'
p705
aS'66'
p706
ag12
ag4
aa(lp707
S'63'
p708
aS'61'
p709
ag34
ag4
aa(lp710
S'63'
p711
aS'61'
p712
aS'28'
p713
ag4
aa(lp714
S'64'
p715
aS'58'
p716
ag12
ag4
aa(lp717
S'64'
p718
aS'65'
p719
aS'22'
p720
ag4
aa(lp721
S'64'
p722
aS'66'
p723
ag12
ag4
aa(lp724
S'64'
p725
aS'61'
p726
ag12
ag4
aa(lp727
S'64'
p728
aS'68'
p729
ag12
ag4
aa(lp730
S'65'
p731
aS'58'
p732
ag12
ag16
aa(lp733
S'65'
p734
aS'61'
p735
ag16
ag16
aa(lp736
S'65'
p737
aS'62'
p738
aS'22'
p739
ag16
aa(lp740
S'65'
p741
aS'66'
p742
aS'15'
p743
ag16
aa(lp744
S'65'
p745
aS'58'
p746
ag12
ag4
aa(lp747
S'65'
p748
aS'64'
p749
ag12
ag4
aa(lp750
S'65'
p751
aS'67'
p752
ag12
ag4
aa(lp753
S'65'
p754
aS'59'
p755
ag16
ag4
aa(lp756
S'65'
p757
aS'64'
p758
ag12
ag4
aa(lp759
S'65'
p760
aS'67'
p761
ag4
ag4
aa(lp762
S'66'
p763
aS'58'
p764
ag12
ag16
aa(lp765
S'66'
p766
aS'61'
p767
aS'13'
p768
ag16
aa(lp769
S'66'
p770
aS'58'
p771
ag12
ag4
aa(lp772
S'66'
p773
aS'58'
p774
ag4
ag4
aa(lp775
S'66'
p776
aS'68'
p777
ag12
ag4
aa(lp778
S'67'
p779
aS'64'
p780
ag162
ag16
aa(lp781
S'67'
p782
aS'63'
p783
ag4
ag16
aa(lp784
S'67'
p785
aS'66'
p786
ag12
ag4
aa(lp787
S'67'
p788
aS'66'
p789
ag12
ag4
aa(lp790
S'67'
p791
aS'61'
p792
ag12
ag4
aa(lp793
S'67'
p794
aS'65'
p795
ag12
ag4
aa(lp796
S'68'
p797
aS'67'
p798
ag12
ag4
aa(lp799
S'68'
p800
aS'68'
p801
ag12
ag4
aa(lp802
S'69'
p803
aS'67'
p804
ag162
ag16
aa(lp805
S'69'
p806
aS'60'
p807
ag12
ag4
aa(lp808
S'69'
p809
aS'65'
p810
ag12
ag4
aa(lp811
S'69'
p812
aS'66'
p813
ag12
ag4
aa(lp814
S'70'
p815
aS'58'
p816
ag12
ag16
aa(lp817
S'70'
p818
aS'58'
p819
ag20
ag16
aa(lp820
S'70'
p821
aS'66'
p822
aS'14'
p823
ag4
aa(lp824
S'70'
p825
aS'67'
p826
ag12
ag4
aa(lp827
S'70'
p828
aS'68'
p829
ag12
ag4
aa(lp830
S'70'
p831
aS'59'
p832
ag162
ag4
aa(lp833
S'70'
p834
aS'63'
p835
ag12
ag4
aa(lp836
S'71'
p837
aS'68'
p838
ag16
ag4
aa(lp839
S'72'
p840
aS'63'
p841
ag12
ag16
aa(lp842
S'72'
p843
aS'58'
p844
ag12
ag4
aa(lp845
S'72'
p846
aS'64'
p847
ag12
ag4
aa(lp848
S'72'
p849
aS'67'
p850
ag8
ag4
aa(lp851
S'73'
p852
aS'62'
p853
ag12
ag4
aa(lp854
S'73'
p855
aS'68'
p856
ag12
ag4
aa(lp857
S'74'
p858
aS'65'
p859
ag8
ag16
aa(lp860
S'74'
p861
aS'63'
p862
ag12
ag4
aa(lp863
S'75'
p864
aS'62'
p865
ag4
ag4
aa(lp866
S'76'
p867
aS'67'
p868
ag12
ag4
aa(lp869
S'77'
p870
aS'65'
p871
ag8
ag4
aa(lp872
S'78'
p873
aS'65'
p874
ag4
ag16
aa(lp875
S'83'
p876
aS'58'
p877
ag16
ag16
aa.