(lp0
(lp1
F1.0
aF3.0
aF4.0
aF3.0
aS'R'
p2
aa(lp3
F1.0
aF3.0
aF4.0
aF4.0
ag2
aa(lp4
F1.0
aF3.0
aF4.0
aF5.0
ag2
aa(lp5
F1.0
aF3.0
aF5.0
aF1.0
ag2
aa(lp6
F1.0
aF3.0
aF5.0
aF2.0
ag2
aa(lp7
F1.0
aF3.0
aF5.0
aF3.0
ag2
aa(lp8
F1.0
aF3.0
aF5.0
aF4.0
ag2
aa(lp9
F1.0
aF3.0
aF5.0
aF5.0
ag2
aa(lp10
F1.0
aF4.0
aF1.0
aF5.0
ag2
aa(lp11
F1.0
aF4.0
aF2.0
aF3.0
ag2
aa(lp12
F1.0
aF4.0
aF2.0
aF4.0
ag2
aa(lp13
F1.0
aF4.0
aF2.0
aF5.0
ag2
aa(lp14
F1.0
aF4.0
aF3.0
aF2.0
ag2
aa(lp15
F1.0
aF4.0
aF3.0
aF3.0
ag2
aa(lp16
F1.0
aF4.0
aF3.0
aF4.0
ag2
aa(lp17
F1.0
aF4.0
aF3.0
aF5.0
ag2
aa(lp18
F1.0
aF4.0
aF4.0
aF2.0
ag2
aa(lp19
F1.0
aF4.0
aF4.0
aF3.0
ag2
aa(lp20
F1.0
aF4.0
aF4.0
aF4.0
ag2
aa(lp21
F1.0
aF4.0
aF4.0
aF5.0
ag2
aa(lp22
F1.0
aF4.0
aF5.0
aF1.0
ag2
aa(lp23
F1.0
aF4.0
aF5.0
aF2.0
ag2
aa(lp24
F1.0
aF4.0
aF5.0
aF3.0
ag2
aa(lp25
F1.0
aF4.0
aF5.0
aF4.0
ag2
aa(lp26
F1.0
aF4.0
aF5.0
aF5.0
ag2
aa(lp27
F1.0
aF5.0
aF2.0
aF3.0
ag2
aa(lp28
F1.0
aF5.0
aF2.0
aF4.0
ag2
aa(lp29
F1.0
aF5.0
aF2.0
aF5.0
ag2
aa(lp30
F1.0
aF5.0
aF3.0
aF2.0
ag2
aa(lp31
F2.0
aF1.0
aF1.0
aF2.0
aS'B'
p32
aa(lp33
F2.0
aF1.0
aF2.0
aF1.0
ag32
aa(lp34
F2.0
aF2.0
aF1.0
aF4.0
ag32
aa(lp35
F2.0
aF2.0
aF2.0
aF2.0
ag32
aa(lp36
F2.0
aF2.0
aF4.0
aF1.0
ag32
aa(lp37
F2.0
aF5.0
aF4.0
aF2.0
aS'L'
p38
aa(lp39
F2.0
aF5.0
aF5.0
aF1.0
ag38
aa(lp40
F3.0
aF1.0
aF1.0
aF1.0
ag38
aa(lp41
F3.0
aF1.0
aF1.0
aF2.0
ag38
aa(lp42
F3.0
aF1.0
aF2.0
aF1.0
ag38
aa(lp43
F3.0
aF2.0
aF1.0
aF1.0
ag38
aa(lp44
F3.0
aF2.0
aF1.0
aF2.0
ag38
aa(lp45
F3.0
aF2.0
aF1.0
aF3.0
ag38
aa(lp46
F3.0
aF2.0
aF1.0
aF4.0
ag38
aa(lp47
F3.0
aF2.0
aF1.0
aF5.0
ag38
aa(lp48
F3.0
aF2.0
aF2.0
aF1.0
ag38
aa(lp49
F3.0
aF2.0
aF2.0
aF2.0
ag38
aa(lp50
F3.0
aF2.0
aF3.0
aF1.0
ag38
aa(lp51
F3.0
aF2.0
aF4.0
aF1.0
ag38
aa(lp52
F3.0
aF2.0
aF5.0
aF1.0
ag38
aa(lp53
F3.0
aF3.0
aF1.0
aF1.0
ag38
aa(lp54
F3.0
aF3.0
aF1.0
aF2.0
ag38
aa(lp55
F3.0
aF3.0
aF1.0
aF3.0
ag38
aa(lp56
F3.0
aF3.0
aF1.0
aF4.0
ag38
aa(lp57
F3.0
aF3.0
aF1.0
aF5.0
ag38
aa(lp58
F3.0
aF3.0
aF2.0
aF1.0
ag38
aa(lp59
F3.0
aF3.0
aF2.0
aF2.0
ag38
aa(lp60
F3.0
aF3.0
aF2.0
aF3.0
ag38
aa(lp61
F3.0
aF3.0
aF2.0
aF4.0
ag38
aa(lp62
F3.0
aF3.0
aF3.0
aF1.0
ag38
aa(lp63
F3.0
aF3.0
aF3.0
aF2.0
ag38
aa(lp64
F3.0
aF3.0
aF4.0
aF1.0
ag38
aa(lp65
F3.0
aF3.0
aF4.0
aF2.0
ag38
aa(lp66
F3.0
aF3.0
aF5.0
aF1.0
ag38
aa.