(lp0
(lp1
F3.0
aF3.0
aF3.0
aF4.0
aS'R'
p2
aa(lp3
F3.0
aF3.0
aF3.0
aF5.0
ag2
aa(lp4
F3.0
aF3.0
aF4.0
aF3.0
ag2
aa(lp5
F3.0
aF3.0
aF4.0
aF4.0
ag2
aa(lp6
F3.0
aF3.0
aF4.0
aF5.0
ag2
aa(lp7
F3.0
aF3.0
aF5.0
aF2.0
ag2
aa(lp8
F3.0
aF3.0
aF5.0
aF3.0
ag2
aa(lp9
F3.0
aF3.0
aF5.0
aF4.0
ag2
aa(lp10
F3.0
aF3.0
aF5.0
aF5.0
ag2
aa(lp11
F3.0
aF4.0
aF3.0
aF5.0
ag2
aa(lp12
F3.0
aF4.0
aF4.0
aF4.0
ag2
aa(lp13
F3.0
aF4.0
aF4.0
aF5.0
ag2
aa(lp14
F3.0
aF4.0
aF5.0
aF3.0
ag2
aa(lp15
F3.0
aF4.0
aF5.0
aF4.0
ag2
aa(lp16
F3.0
aF4.0
aF5.0
aF5.0
ag2
aa(lp17
F3.0
aF5.0
aF4.0
aF4.0
ag2
aa(lp18
F3.0
aF5.0
aF4.0
aF5.0
ag2
aa(lp19
F3.0
aF5.0
aF5.0
aF4.0
ag2
aa(lp20
F3.0
aF5.0
aF5.0
aF5.0
ag2
aa(lp21
F4.0
aF1.0
aF1.0
aF5.0
ag2
aa(lp22
F4.0
aF1.0
aF2.0
aF3.0
ag2
aa(lp23
F4.0
aF1.0
aF2.0
aF4.0
ag2
aa(lp24
F4.0
aF1.0
aF2.0
aF5.0
ag2
aa(lp25
F4.0
aF1.0
aF3.0
aF2.0
ag2
aa(lp26
F4.0
aF1.0
aF3.0
aF3.0
ag2
aa(lp27
F4.0
aF1.0
aF3.0
aF4.0
ag2
aa(lp28
F4.0
aF1.0
aF3.0
aF5.0
ag2
aa(lp29
F4.0
aF1.0
aF4.0
aF2.0
ag2
aa(lp30
F4.0
aF1.0
aF4.0
aF3.0
ag2
aa(lp31
F4.0
aF3.0
aF3.0
aF4.0
aS'B'
p32
aa(lp33
F4.0
aF3.0
aF4.0
aF3.0
ag32
aa(lp34
F4.0
aF4.0
aF4.0
aF4.0
ag32
aa(lp35
F4.0
aF5.0
aF4.0
aF5.0
ag32
aa(lp36
F4.0
aF5.0
aF5.0
aF4.0
ag32
aa(lp37
F5.0
aF1.0
aF1.0
aF4.0
aS'L'
p38
aa(lp39
F5.0
aF1.0
aF2.0
aF1.0
ag38
aa(lp40
F5.0
aF1.0
aF2.0
aF2.0
ag38
aa(lp41
F5.0
aF1.0
aF3.0
aF1.0
ag38
aa(lp42
F5.0
aF1.0
aF4.0
aF1.0
ag38
aa(lp43
F5.0
aF2.0
aF1.0
aF1.0
ag38
aa(lp44
F5.0
aF2.0
aF1.0
aF2.0
ag38
aa(lp45
F5.0
aF2.0
aF1.0
aF3.0
ag38
aa(lp46
F5.0
aF2.0
aF1.0
aF4.0
ag38
aa(lp47
F5.0
aF2.0
aF1.0
aF5.0
ag38
aa(lp48
F5.0
aF2.0
aF2.0
aF1.0
ag38
aa(lp49
F5.0
aF2.0
aF2.0
aF2.0
ag38
aa(lp50
F5.0
aF2.0
aF2.0
aF3.0
ag38
aa(lp51
F5.0
aF2.0
aF2.0
aF4.0
ag38
aa(lp52
F5.0
aF2.0
aF3.0
aF1.0
ag38
aa(lp53
F5.0
aF2.0
aF3.0
aF2.0
ag38
aa(lp54
F5.0
aF2.0
aF3.0
aF3.0
ag38
aa(lp55
F5.0
aF2.0
aF4.0
aF1.0
ag38
aa(lp56
F5.0
aF2.0
aF4.0
aF2.0
ag38
aa(lp57
F5.0
aF2.0
aF5.0
aF1.0
ag38
aa(lp58
F5.0
aF3.0
aF1.0
aF1.0
ag38
aa(lp59
F5.0
aF3.0
aF1.0
aF2.0
ag38
aa(lp60
F5.0
aF3.0
aF1.0
aF3.0
ag38
aa(lp61
F5.0
aF3.0
aF1.0
aF4.0
ag38
aa(lp62
F5.0
aF3.0
aF1.0
aF5.0
ag38
aa(lp63
F5.0
aF3.0
aF2.0
aF1.0
ag38
aa(lp64
F5.0
aF3.0
aF2.0
aF2.0
ag38
aa(lp65
F5.0
aF3.0
aF2.0
aF3.0
ag38
aa(lp66
F5.0
aF3.0
aF2.0
aF4.0
ag38
aa.