(lp0
(lp1
F11.84
aF0.89
aF2.58
aF18.0
aF94.0
aF2.2
aF2.21
aF0.22
aF2.35
aF3.05
aF0.79
aF3.08
aF520.0
aS'2'
p2
aa(lp3
F11.81
aF2.12
aF2.74
aF21.5
aF134.0
aF1.6
aF0.99
aF0.14
aF1.56
aF2.5
aF0.95
aF2.26
aF625.0
ag2
aa(lp4
F12.04
aF4.3
aF2.38
aF22.0
aF80.0
aF2.1
aF1.75
aF0.42
aF1.35
aF2.6
aF0.79
aF2.57
aF580.0
ag2
aa(lp5
F13.41
aF3.84
aF2.12
aF18.8
aF90.0
aF2.45
aF2.68
aF0.27
aF1.48
aF4.28
aF0.91
aF3.0
aF1035.0
aS'1'
p6
aa(lp7
F13.11
aF1.9
aF2.75
aF25.5
aF116.0
aF2.2
aF1.28
aF0.26
aF1.56
aF7.1
aF0.61
aF1.33
aF425.0
aS'3'
p8
aa(lp9
F12.7
aF3.55
aF2.36
aF21.5
aF106.0
aF1.7
aF1.2
aF0.17
aF0.84
aF5.0
aF0.78
aF1.29
aF600.0
ag8
aa(lp10
F14.1
aF2.02
aF2.4
aF18.8
aF103.0
aF2.75
aF2.92
aF0.32
aF2.38
aF6.2
aF1.07
aF2.75
aF1060.0
ag6
aa(lp11
F13.17
aF2.59
aF2.37
aF20.0
aF120.0
aF1.65
aF0.68
aF0.53
aF1.46
aF9.3
aF0.6
aF1.62
aF840.0
ag8
aa(lp12
F11.03
aF1.51
aF2.2
aF21.5
aF85.0
aF2.46
aF2.17
aF0.52
aF2.01
aF1.9
aF1.71
aF2.87
aF407.0
ag2
aa(lp13
F13.75
aF1.73
aF2.41
aF16.0
aF89.0
aF2.6
aF2.76
aF0.29
aF1.81
aF5.6
aF1.15
aF2.9
aF1320.0
ag6
aa(lp14
F11.79
aF2.13
aF2.78
aF28.5
aF92.0
aF2.13
aF2.24
aF0.58
aF1.76
aF3.0
aF0.97
aF2.44
aF466.0
ag2
aa(lp15
F12.21
aF1.19
aF1.75
aF16.8
aF151.0
aF1.85
aF1.28
aF0.14
aF2.5
aF2.85
aF1.28
aF3.07
aF718.0
ag2
aa(lp16
F13.03
aF0.9
aF1.71
aF16.0
aF86.0
aF1.95
aF2.03
aF0.24
aF1.46
aF4.6
aF1.19
aF2.48
aF392.0
ag2
aa(lp17
F13.56
aF1.71
aF2.31
aF16.2
aF117.0
aF3.15
aF3.29
aF0.34
aF2.34
aF6.13
aF0.95
aF3.38
aF795.0
ag6
aa(lp18
F14.12
aF1.48
aF2.32
aF16.8
aF95.0
aF2.2
aF2.43
aF0.26
aF1.57
aF5.0
aF1.17
aF2.82
aF1280.0
ag6
aa(lp19
F13.73
aF1.5
aF2.7
aF22.5
aF101.0
aF3.0
aF3.25
aF0.29
aF2.38
aF5.7
aF1.19
aF2.71
aF1285.0
ag6
aa(lp20
F12.64
aF1.36
aF2.02
aF16.8
aF100.0
aF2.02
aF1.41
aF0.53
aF0.62
aF5.75
aF0.98
aF1.59
aF450.0
ag2
aa(lp21
F13.58
aF2.58
aF2.69
aF24.5
aF105.0
aF1.55
aF0.84
aF0.39
aF1.54
aF8.66
aF0.74
aF1.8
aF750.0
ag8
aa(lp22
F12.08
aF2.08
aF1.7
aF17.5
aF97.0
aF2.23
aF2.17
aF0.26
aF1.4
aF3.3
aF1.27
aF2.96
aF710.0
ag2
aa(lp23
F13.05
aF1.73
aF2.04
aF12.4
aF92.0
aF2.72
aF3.27
aF0.17
aF2.91
aF7.2
aF1.12
aF2.91
aF1150.0
ag6
aa(lp24
F12.79
aF2.67
aF2.48
aF22.0
aF112.0
aF1.48
aF1.36
aF0.24
aF1.26
aF10.8
aF0.48
aF1.47
aF480.0
ag8
aa(lp25
F12.37
aF1.63
aF2.3
aF24.5
aF88.0
aF2.22
aF2.45
aF0.4
aF1.9
aF2.12
aF0.89
aF2.78
aF342.0
ag2
aa(lp26
F12.29
aF2.83
aF2.22
aF18.0
aF88.0
aF2.45
aF2.25
aF0.25
aF1.99
aF2.15
aF1.15
aF3.3
aF290.0
ag2
aa(lp27
F13.4
aF3.91
aF2.48
aF23.0
aF102.0
aF1.8
aF0.75
aF0.43
aF1.41
aF7.3
aF0.7
aF1.56
aF750.0
ag8
aa(lp28
F14.2
aF1.76
aF2.45
aF15.2
aF112.0
aF3.27
aF3.39
aF0.34
aF1.97
aF6.75
aF1.05
aF2.85
aF1450.0
ag6
aa(lp29
F12.25
aF1.73
aF2.12
aF19.0
aF80.0
aF1.65
aF2.03
aF0.37
aF1.63
aF3.4
aF1.0
aF3.17
aF510.0
ag2
aa(lp30
F13.4
aF4.6
aF2.86
aF25.0
aF112.0
aF1.98
aF0.96
aF0.27
aF1.11
aF8.5
aF0.67
aF1.92
aF630.0
ag8
aa(lp31
F12.17
aF1.45
aF2.53
aF19.0
aF104.0
aF1.89
aF1.75
aF0.45
aF1.03
aF2.95
aF1.45
aF2.23
aF355.0
ag2
aa(lp32
F13.11
aF1.01
aF1.7
aF15.0
aF78.0
aF2.98
aF3.18
aF0.26
aF2.28
aF5.3
aF1.12
aF3.18
aF502.0
ag2
aa(lp33
F13.48
aF1.81
aF2.41
aF20.5
aF100.0
aF2.7
aF2.98
aF0.26
aF1.86
aF5.1
aF1.04
aF3.47
aF920.0
ag6
aa(lp34
F13.68
aF1.83
aF2.36
aF17.2
aF104.0
aF2.42
aF2.69
aF0.42
aF1.97
aF3.84
aF1.23
aF2.87
aF990.0
ag6
aa(lp35
F12.72
aF1.75
aF2.28
aF22.5
aF84.0
aF1.38
aF1.76
aF0.48
aF1.63
aF3.3
aF0.88
aF2.42
aF488.0
ag2
aa(lp36
F14.3
aF1.92
aF2.72
aF20.0
aF120.0
aF2.8
aF3.14
aF0.33
aF1.97
aF6.2
aF1.07
aF2.65
aF1280.0
ag6
aa(lp37
F12.58
aF1.29
aF2.1
aF20.0
aF103.0
aF1.48
aF0.58
aF0.53
aF1.4
aF7.6
aF0.58
aF1.55
aF640.0
ag8
aa(lp38
F13.94
aF1.73
aF2.27
aF17.4
aF108.0
aF2.88
aF3.54
aF0.32
aF2.08
aF8.9
aF1.12
aF3.1
aF1260.0
ag6
aa(lp39
F12.42
aF1.61
aF2.19
aF22.5
aF108.0
aF2.0
aF2.09
aF0.34
aF1.61
aF2.06
aF1.06
aF2.96
aF345.0
ag2
aa(lp40
F14.22
aF3.99
aF2.51
aF13.2
aF128.0
aF3.0
aF3.04
aF0.2
aF2.08
aF5.1
aF0.89
aF3.53
aF760.0
ag6
aa(lp41
F12.25
aF4.72
aF2.54
aF21.0
aF89.0
aF1.38
aF0.47
aF0.53
aF0.8
aF3.85
aF0.75
aF1.27
aF720.0
ag8
aa(lp42
F13.86
aF1.51
aF2.67
aF25.0
aF86.0
aF2.95
aF2.86
aF0.21
aF1.87
aF3.38
aF1.36
aF3.16
aF410.0
ag2
aa(lp43
F12.87
aF4.61
aF2.48
aF21.5
aF86.0
aF1.7
aF0.65
aF0.47
aF0.86
aF7.65
aF0.54
aF1.86
aF625.0
ag8
aa(lp44
F13.73
aF4.36
aF2.26
aF22.5
aF88.0
aF1.28
aF0.47
aF0.52
aF1.15
aF6.62
aF0.78
aF1.75
aF520.0
ag8
aa(lp45
F13.64
aF3.1
aF2.56
aF15.2
aF116.0
aF2.7
aF3.03
aF0.17
aF1.66
aF5.1
aF0.96
aF3.36
aF845.0
ag6
aa(lp46
F11.62
aF1.99
aF2.28
aF18.0
aF98.0
aF3.02
aF2.26
aF0.17
aF1.35
aF3.25
aF1.16
aF2.96
aF345.0
ag2
aa(lp47
F13.84
aF4.12
aF2.38
aF19.5
aF89.0
aF1.8
aF0.83
aF0.48
aF1.56
aF9.01
aF0.57
aF1.64
aF480.0
ag8
aa(lp48
F13.76
aF1.53
aF2.7
aF19.5
aF132.0
aF2.95
aF2.74
aF0.5
aF1.35
aF5.4
aF1.25
aF3.0
aF1235.0
ag6
aa.