(lp0
(lp1
F11.96
aF1.09
aF2.3
aF21.0
aF101.0
aF3.38
aF2.14
aF0.13
aF1.65
aF3.21
aF0.99
aF3.13
aF886.0
aS'2'
p2
aa(lp3
F12.96
aF3.45
aF2.35
aF18.5
aF106.0
aF1.39
aF0.7
aF0.4
aF0.94
aF5.28
aF0.68
aF1.75
aF675.0
aS'3'
p4
aa(lp5
F12.84
aF2.96
aF2.61
aF24.0
aF101.0
aF2.32
aF0.6
aF0.53
aF0.81
aF4.92
aF0.89
aF2.15
aF590.0
ag4
aa(lp6
F13.39
aF1.77
aF2.62
aF16.1
aF93.0
aF2.85
aF2.94
aF0.34
aF1.45
aF4.8
aF0.92
aF3.22
aF1195.0
aS'1'
p7
aa(lp8
F13.24
aF3.98
aF2.29
aF17.5
aF103.0
aF2.64
aF2.63
aF0.32
aF1.66
aF4.36
aF0.82
aF3.0
aF680.0
ag7
aa(lp9
F12.51
aF1.24
aF2.25
aF17.5
aF85.0
aF2.0
aF0.58
aF0.6
aF1.25
aF5.45
aF0.75
aF1.51
aF650.0
ag4
aa(lp10
F14.75
aF1.73
aF2.39
aF11.4
aF91.0
aF3.1
aF3.69
aF0.43
aF2.81
aF5.4
aF1.25
aF2.73
aF1150.0
ag7
aa(lp11
F12.77
aF3.43
aF1.98
aF16.0
aF80.0
aF1.63
aF1.25
aF0.43
aF0.83
aF3.4
aF0.7
aF2.12
aF372.0
ag2
aa(lp12
F13.27
aF4.28
aF2.26
aF20.0
aF120.0
aF1.59
aF0.69
aF0.43
aF1.35
aF10.2
aF0.59
aF1.56
aF835.0
ag4
aa(lp13
F12.7
aF3.55
aF2.36
aF21.5
aF106.0
aF1.7
aF1.2
aF0.17
aF0.84
aF5.0
aF0.78
aF1.29
aF600.0
ag4
aa(lp14
F14.38
aF3.59
aF2.28
aF16.0
aF102.0
aF3.25
aF3.17
aF0.27
aF2.19
aF4.9
aF1.04
aF3.44
aF1065.0
ag7
aa(lp15
F13.17
aF2.59
aF2.37
aF20.0
aF120.0
aF1.65
aF0.68
aF0.53
aF1.46
aF9.3
aF0.6
aF1.62
aF840.0
ag4
aa(lp16
F11.56
aF2.05
aF3.23
aF28.5
aF119.0
aF3.18
aF5.08
aF0.47
aF1.87
aF6.0
aF0.93
aF3.69
aF465.0
ag2
aa(lp17
F11.65
aF1.67
aF2.62
aF26.0
aF88.0
aF1.92
aF1.61
aF0.4
aF1.34
aF2.6
aF1.36
aF3.21
aF562.0
ag2
aa(lp18
F11.46
aF3.74
aF1.82
aF19.5
aF107.0
aF3.18
aF2.58
aF0.24
aF3.58
aF2.9
aF0.75
aF2.81
aF562.0
ag2
aa(lp19
F12.67
aF0.98
aF2.24
aF18.0
aF99.0
aF2.2
aF1.94
aF0.3
aF1.46
aF2.62
aF1.23
aF3.16
aF450.0
ag2
aa(lp20
F11.81
aF2.12
aF2.74
aF21.5
aF134.0
aF1.6
aF0.99
aF0.14
aF1.56
aF2.5
aF0.95
aF2.26
aF625.0
ag2
aa(lp21
F14.2
aF1.76
aF2.45
aF15.2
aF112.0
aF3.27
aF3.39
aF0.34
aF1.97
aF6.75
aF1.05
aF2.85
aF1450.0
ag7
aa(lp22
F13.88
aF1.89
aF2.59
aF15.0
aF101.0
aF3.25
aF3.56
aF0.17
aF1.7
aF5.43
aF0.88
aF3.56
aF1095.0
ag7
aa(lp23
F14.38
aF1.87
aF2.38
aF12.0
aF102.0
aF3.3
aF3.64
aF0.29
aF2.96
aF7.5
aF1.2
aF3.0
aF1547.0
ag7
aa(lp24
F14.16
aF2.51
aF2.48
aF20.0
aF91.0
aF1.68
aF0.7
aF0.44
aF1.24
aF9.7
aF0.62
aF1.71
aF660.0
ag4
aa(lp25
F13.73
aF4.36
aF2.26
aF22.5
aF88.0
aF1.28
aF0.47
aF0.52
aF1.15
aF6.62
aF0.78
aF1.75
aF520.0
ag4
aa(lp26
F12.08
aF2.08
aF1.7
aF17.5
aF97.0
aF2.23
aF2.17
aF0.26
aF1.4
aF3.3
aF1.27
aF2.96
aF710.0
ag2
aa(lp27
F13.11
aF1.9
aF2.75
aF25.5
aF116.0
aF2.2
aF1.28
aF0.26
aF1.56
aF7.1
aF0.61
aF1.33
aF425.0
ag4
aa(lp28
F13.48
aF1.81
aF2.41
aF20.5
aF100.0
aF2.7
aF2.98
aF0.26
aF1.86
aF5.1
aF1.04
aF3.47
aF920.0
ag7
aa(lp29
F14.19
aF1.59
aF2.48
aF16.5
aF108.0
aF3.3
aF3.93
aF0.32
aF1.86
aF8.7
aF1.23
aF2.82
aF1680.0
ag7
aa(lp30
F12.72
aF1.75
aF2.28
aF22.5
aF84.0
aF1.38
aF1.76
aF0.48
aF1.63
aF3.3
aF0.88
aF2.42
aF488.0
ag2
aa(lp31
F12.08
aF1.13
aF2.51
aF24.0
aF78.0
aF2.0
aF1.58
aF0.4
aF1.4
aF2.2
aF1.31
aF2.72
aF630.0
ag2
aa(lp32
F12.72
aF1.81
aF2.2
aF18.8
aF86.0
aF2.2
aF2.53
aF0.26
aF1.77
aF3.9
aF1.16
aF3.14
aF714.0
ag2
aa(lp33
F12.37
aF1.21
aF2.56
aF18.1
aF98.0
aF2.42
aF2.65
aF0.37
aF2.08
aF4.6
aF1.19
aF2.3
aF678.0
ag2
aa(lp34
F14.39
aF1.87
aF2.45
aF14.6
aF96.0
aF2.5
aF2.52
aF0.3
aF1.98
aF5.25
aF1.02
aF3.58
aF1290.0
ag7
aa(lp35
F11.66
aF1.88
aF1.92
aF16.0
aF97.0
aF1.61
aF1.57
aF0.34
aF1.15
aF3.8
aF1.23
aF2.14
aF428.0
ag2
aa(lp36
F14.1
aF2.02
aF2.4
aF18.8
aF103.0
aF2.75
aF2.92
aF0.32
aF2.38
aF6.2
aF1.07
aF2.75
aF1060.0
ag7
aa(lp37
F12.64
aF1.36
aF2.02
aF16.8
aF100.0
aF2.02
aF1.41
aF0.53
aF0.62
aF5.75
aF0.98
aF1.59
aF450.0
ag2
aa(lp38
F13.72
aF1.43
aF2.5
aF16.7
aF108.0
aF3.4
aF3.67
aF0.19
aF2.04
aF6.8
aF0.89
aF2.87
aF1285.0
ag7
aa(lp39
F12.82
aF3.37
aF2.3
aF19.5
aF88.0
aF1.48
aF0.66
aF0.4
aF0.97
aF10.26
aF0.72
aF1.75
aF685.0
ag4
aa(lp40
F11.84
aF2.89
aF2.23
aF18.0
aF112.0
aF1.72
aF1.32
aF0.43
aF0.95
aF2.65
aF0.96
aF2.52
aF500.0
ag2
aa(lp41
F13.17
aF5.19
aF2.32
aF22.0
aF93.0
aF1.74
aF0.63
aF0.61
aF1.55
aF7.9
aF0.6
aF1.48
aF725.0
ag4
aa(lp42
F13.03
aF0.9
aF1.71
aF16.0
aF86.0
aF1.95
aF2.03
aF0.24
aF1.46
aF4.6
aF1.19
aF2.48
aF392.0
ag2
aa(lp43
F14.06
aF1.63
aF2.28
aF16.0
aF126.0
aF3.0
aF3.17
aF0.24
aF2.1
aF5.65
aF1.09
aF3.71
aF780.0
ag7
aa(lp44
F12.36
aF3.83
aF2.38
aF21.0
aF88.0
aF2.3
aF0.92
aF0.5
aF1.04
aF7.65
aF0.56
aF1.58
aF520.0
ag4
aa(lp45
F14.21
aF4.04
aF2.44
aF18.9
aF111.0
aF2.85
aF2.65
aF0.3
aF1.25
aF5.24
aF0.87
aF3.33
aF1080.0
ag7
aa(lp46
F12.0
aF0.92
aF2.0
aF19.0
aF86.0
aF2.42
aF2.26
aF0.3
aF1.43
aF2.5
aF1.38
aF3.12
aF278.0
ag2
aa(lp47
F12.51
aF1.73
aF1.98
aF20.5
aF85.0
aF2.2
aF1.92
aF0.32
aF1.48
aF2.94
aF1.04
aF3.57
aF672.0
ag2
aa(lp48
F13.56
aF1.71
aF2.31
aF16.2
aF117.0
aF3.15
aF3.29
aF0.34
aF2.34
aF6.13
aF0.95
aF3.38
aF795.0
ag7
aa.