(lp0
(lp1
F13.48
aF1.81
aF2.41
aF20.5
aF100.0
aF2.7
aF2.98
aF0.26
aF1.86
aF5.1
aF1.04
aF3.47
aF920.0
aS'1'
p2
aa(lp3
F12.6
aF2.46
aF2.2
aF18.5
aF94.0
aF1.62
aF0.66
aF0.63
aF0.94
aF7.1
aF0.73
aF1.58
aF695.0
aS'3'
p4
aa(lp5
F13.4
aF3.91
aF2.48
aF23.0
aF102.0
aF1.8
aF0.75
aF0.43
aF1.41
aF7.3
aF0.7
aF1.56
aF750.0
ag4
aa(lp6
F12.08
aF2.08
aF1.7
aF17.5
aF97.0
aF2.23
aF2.17
aF0.26
aF1.4
aF3.3
aF1.27
aF2.96
aF710.0
aS'2'
p7
aa(lp8
F12.42
aF4.43
aF2.73
aF26.5
aF102.0
aF2.2
aF2.13
aF0.43
aF1.71
aF2.08
aF0.92
aF3.12
aF365.0
ag7
aa(lp9
F12.6
aF1.34
aF1.9
aF18.5
aF88.0
aF1.45
aF1.36
aF0.29
aF1.35
aF2.45
aF1.04
aF2.77
aF562.0
ag7
aa(lp10
F13.16
aF2.36
aF2.67
aF18.6
aF101.0
aF2.8
aF3.24
aF0.3
aF2.81
aF5.68
aF1.03
aF3.17
aF1185.0
ag2
aa(lp11
F12.0
aF1.51
aF2.42
aF22.0
aF86.0
aF1.45
aF1.25
aF0.5
aF1.63
aF3.6
aF1.05
aF2.65
aF450.0
ag7
aa(lp12
F12.99
aF1.67
aF2.6
aF30.0
aF139.0
aF3.3
aF2.89
aF0.21
aF1.96
aF3.35
aF1.31
aF3.5
aF985.0
ag7
aa(lp13
F11.76
aF2.68
aF2.92
aF20.0
aF103.0
aF1.75
aF2.03
aF0.6
aF1.05
aF3.8
aF1.23
aF2.5
aF607.0
ag7
aa(lp14
F13.86
aF1.35
aF2.27
aF16.0
aF98.0
aF2.98
aF3.15
aF0.22
aF1.85
aF7.22
aF1.01
aF3.55
aF1045.0
ag2
aa(lp15
F14.75
aF1.73
aF2.39
aF11.4
aF91.0
aF3.1
aF3.69
aF0.43
aF2.81
aF5.4
aF1.25
aF2.73
aF1150.0
ag2
aa(lp16
F13.32
aF3.24
aF2.38
aF21.5
aF92.0
aF1.93
aF0.76
aF0.45
aF1.25
aF8.42
aF0.55
aF1.62
aF650.0
ag4
aa(lp17
F13.75
aF1.73
aF2.41
aF16.0
aF89.0
aF2.6
aF2.76
aF0.29
aF1.81
aF5.6
aF1.15
aF2.9
aF1320.0
ag2
aa(lp18
F12.51
aF1.73
aF1.98
aF20.5
aF85.0
aF2.2
aF1.92
aF0.32
aF1.48
aF2.94
aF1.04
aF3.57
aF672.0
ag7
aa(lp19
F13.28
aF1.64
aF2.84
aF15.5
aF110.0
aF2.6
aF2.68
aF0.34
aF1.36
aF4.6
aF1.09
aF2.78
aF880.0
ag2
aa(lp20
F12.51
aF1.24
aF2.25
aF17.5
aF85.0
aF2.0
aF0.58
aF0.6
aF1.25
aF5.45
aF0.75
aF1.51
aF650.0
ag4
aa(lp21
F14.12
aF1.48
aF2.32
aF16.8
aF95.0
aF2.2
aF2.43
aF0.26
aF1.57
aF5.0
aF1.17
aF2.82
aF1280.0
ag2
aa(lp22
F12.52
aF2.43
aF2.17
aF21.0
aF88.0
aF2.55
aF2.27
aF0.26
aF1.22
aF2.0
aF0.9
aF2.78
aF325.0
ag7
aa(lp23
F14.13
aF4.1
aF2.74
aF24.5
aF96.0
aF2.05
aF0.76
aF0.56
aF1.35
aF9.2
aF0.61
aF1.6
aF560.0
ag4
aa(lp24
F14.34
aF1.68
aF2.7
aF25.0
aF98.0
aF2.8
aF1.31
aF0.53
aF2.7
aF13.0
aF0.57
aF1.96
aF660.0
ag4
aa(lp25
F13.67
aF1.25
aF1.92
aF18.0
aF94.0
aF2.1
aF1.79
aF0.32
aF0.73
aF3.8
aF1.23
aF2.46
aF630.0
ag7
aa(lp26
F13.82
aF1.75
aF2.42
aF14.0
aF111.0
aF3.88
aF3.74
aF0.32
aF1.87
aF7.05
aF1.01
aF3.26
aF1190.0
ag2
aa(lp27
F12.0
aF3.43
aF2.0
aF19.0
aF87.0
aF2.0
aF1.64
aF0.37
aF1.87
aF1.28
aF0.93
aF3.05
aF564.0
ag7
aa(lp28
F12.7
aF3.55
aF2.36
aF21.5
aF106.0
aF1.7
aF1.2
aF0.17
aF0.84
aF5.0
aF0.78
aF1.29
aF600.0
ag4
aa(lp29
F12.36
aF3.83
aF2.38
aF21.0
aF88.0
aF2.3
aF0.92
aF0.5
aF1.04
aF7.65
aF0.56
aF1.58
aF520.0
ag4
aa(lp30
F13.77
aF1.9
aF2.68
aF17.1
aF115.0
aF3.0
aF2.79
aF0.39
aF1.68
aF6.3
aF1.13
aF2.93
aF1375.0
ag2
aa(lp31
F12.08
aF1.83
aF2.32
aF18.5
aF81.0
aF1.6
aF1.5
aF0.52
aF1.64
aF2.4
aF1.08
aF2.27
aF480.0
ag7
aa(lp32
F13.16
aF3.57
aF2.15
aF21.0
aF102.0
aF1.5
aF0.55
aF0.43
aF1.3
aF4.0
aF0.6
aF1.68
aF830.0
ag4
aa(lp33
F13.83
aF1.65
aF2.6
aF17.2
aF94.0
aF2.45
aF2.99
aF0.22
aF2.29
aF5.6
aF1.24
aF3.37
aF1265.0
ag2
aa(lp34
F12.85
aF1.6
aF2.52
aF17.8
aF95.0
aF2.48
aF2.37
aF0.26
aF1.46
aF3.93
aF1.09
aF3.63
aF1015.0
ag2
aa(lp35
F12.37
aF1.17
aF1.92
aF19.6
aF78.0
aF2.11
aF2.0
aF0.27
aF1.04
aF4.68
aF1.12
aF3.48
aF510.0
ag7
aa(lp36
F12.21
aF1.19
aF1.75
aF16.8
aF151.0
aF1.85
aF1.28
aF0.14
aF2.5
aF2.85
aF1.28
aF3.07
aF718.0
ag7
aa(lp37
F12.43
aF1.53
aF2.29
aF21.5
aF86.0
aF2.74
aF3.15
aF0.39
aF1.77
aF3.94
aF0.69
aF2.84
aF352.0
ag7
aa(lp38
F14.1
aF2.02
aF2.4
aF18.8
aF103.0
aF2.75
aF2.92
aF0.32
aF2.38
aF6.2
aF1.07
aF2.75
aF1060.0
ag2
aa(lp39
F13.2
aF1.78
aF2.14
aF11.2
aF100.0
aF2.65
aF2.76
aF0.26
aF1.28
aF4.38
aF1.05
aF3.4
aF1050.0
ag2
aa(lp40
F13.71
aF1.86
aF2.36
aF16.6
aF101.0
aF2.61
aF2.88
aF0.27
aF1.69
aF3.8
aF1.11
aF4.0
aF1035.0
ag2
aa(lp41
F13.48
aF1.67
aF2.64
aF22.5
aF89.0
aF2.6
aF1.1
aF0.52
aF2.29
aF11.75
aF0.57
aF1.78
aF620.0
ag4
aa(lp42
F12.17
aF1.45
aF2.53
aF19.0
aF104.0
aF1.89
aF1.75
aF0.45
aF1.03
aF2.95
aF1.45
aF2.23
aF355.0
ag7
aa(lp43
F12.29
aF2.83
aF2.22
aF18.0
aF88.0
aF2.45
aF2.25
aF0.25
aF1.99
aF2.15
aF1.15
aF3.3
aF290.0
ag7
aa(lp44
F14.83
aF1.64
aF2.17
aF14.0
aF97.0
aF2.8
aF2.98
aF0.29
aF1.98
aF5.2
aF1.08
aF2.85
aF1045.0
ag2
aa(lp45
F12.77
aF3.43
aF1.98
aF16.0
aF80.0
aF1.63
aF1.25
aF0.43
aF0.83
aF3.4
aF0.7
aF2.12
aF372.0
ag7
aa(lp46
F12.25
aF4.72
aF2.54
aF21.0
aF89.0
aF1.38
aF0.47
aF0.53
aF0.8
aF3.85
aF0.75
aF1.27
aF720.0
ag4
aa(lp47
F13.11
aF1.01
aF1.7
aF15.0
aF78.0
aF2.98
aF3.18
aF0.26
aF2.28
aF5.3
aF1.12
aF3.18
aF502.0
ag7
aa(lp48
F13.49
aF3.59
aF2.19
aF19.5
aF88.0
aF1.62
aF0.48
aF0.58
aF0.88
aF5.7
aF0.81
aF1.82
aF580.0
ag4
aa.