(lp0
(lp1
F12.25
aF1.73
aF2.12
aF19.0
aF80.0
aF1.65
aF2.03
aF0.37
aF1.63
aF3.4
aF1.0
aF3.17
aF510.0
aS'2'
p2
aa(lp3
F12.93
aF2.81
aF2.7
aF21.0
aF96.0
aF1.54
aF0.5
aF0.53
aF0.75
aF4.6
aF0.77
aF2.31
aF600.0
aS'3'
p4
aa(lp5
F14.38
aF1.87
aF2.38
aF12.0
aF102.0
aF3.3
aF3.64
aF0.29
aF2.96
aF7.5
aF1.2
aF3.0
aF1547.0
aS'1'
p6
aa(lp7
F11.62
aF1.99
aF2.28
aF18.0
aF98.0
aF3.02
aF2.26
aF0.17
aF1.35
aF3.25
aF1.16
aF2.96
aF345.0
ag2
aa(lp8
F13.52
aF3.17
aF2.72
aF23.5
aF97.0
aF1.55
aF0.52
aF0.5
aF0.55
aF4.35
aF0.89
aF2.06
aF520.0
ag4
aa(lp9
F13.5
aF1.81
aF2.61
aF20.0
aF96.0
aF2.53
aF2.61
aF0.28
aF1.66
aF3.52
aF1.12
aF3.82
aF845.0
ag6
aa(lp10
F11.82
aF1.47
aF1.99
aF20.8
aF86.0
aF1.98
aF1.6
aF0.3
aF1.53
aF1.95
aF0.95
aF3.33
aF495.0
ag2
aa(lp11
F12.04
aF4.3
aF2.38
aF22.0
aF80.0
aF2.1
aF1.75
aF0.42
aF1.35
aF2.6
aF0.79
aF2.57
aF580.0
ag2
aa(lp12
F13.05
aF3.86
aF2.32
aF22.5
aF85.0
aF1.65
aF1.59
aF0.61
aF1.62
aF4.8
aF0.84
aF2.01
aF515.0
ag2
aa(lp13
F12.79
aF2.67
aF2.48
aF22.0
aF112.0
aF1.48
aF1.36
aF0.24
aF1.26
aF10.8
aF0.48
aF1.47
aF480.0
ag4
aa(lp14
F14.02
aF1.68
aF2.21
aF16.0
aF96.0
aF2.65
aF2.33
aF0.26
aF1.98
aF4.7
aF1.04
aF3.59
aF1035.0
ag6
aa(lp15
F12.69
aF1.53
aF2.26
aF20.7
aF80.0
aF1.38
aF1.46
aF0.58
aF1.62
aF3.05
aF0.96
aF2.06
aF495.0
ag2
aa(lp16
F13.48
aF1.67
aF2.64
aF22.5
aF89.0
aF2.6
aF1.1
aF0.52
aF2.29
aF11.75
aF0.57
aF1.78
aF620.0
ag4
aa(lp17
F12.37
aF1.17
aF1.92
aF19.6
aF78.0
aF2.11
aF2.0
aF0.27
aF1.04
aF4.68
aF1.12
aF3.48
aF510.0
ag2
aa(lp18
F11.03
aF1.51
aF2.2
aF21.5
aF85.0
aF2.46
aF2.17
aF0.52
aF2.01
aF1.9
aF1.71
aF2.87
aF407.0
ag2
aa(lp19
F13.45
aF3.7
aF2.6
aF23.0
aF111.0
aF1.7
aF0.92
aF0.43
aF1.46
aF10.68
aF0.85
aF1.56
aF695.0
ag4
aa(lp20
F12.0
aF1.51
aF2.42
aF22.0
aF86.0
aF1.45
aF1.25
aF0.5
aF1.63
aF3.6
aF1.05
aF2.65
aF450.0
ag2
aa(lp21
F12.84
aF2.96
aF2.61
aF24.0
aF101.0
aF2.32
aF0.6
aF0.53
aF0.81
aF4.92
aF0.89
aF2.15
aF590.0
ag4
aa(lp22
F11.64
aF2.06
aF2.46
aF21.6
aF84.0
aF1.95
aF1.69
aF0.48
aF1.35
aF2.8
aF1.0
aF2.75
aF680.0
ag2
aa(lp23
F12.45
aF3.03
aF2.64
aF27.0
aF97.0
aF1.9
aF0.58
aF0.63
aF1.14
aF7.5
aF0.67
aF1.73
aF880.0
ag4
aa(lp24
F14.06
aF2.15
aF2.61
aF17.6
aF121.0
aF2.6
aF2.51
aF0.31
aF1.25
aF5.05
aF1.06
aF3.58
aF1295.0
ag6
aa(lp25
F13.4
aF4.6
aF2.86
aF25.0
aF112.0
aF1.98
aF0.96
aF0.27
aF1.11
aF8.5
aF0.67
aF1.92
aF630.0
ag4
aa(lp26
F12.08
aF1.33
aF2.3
aF23.6
aF70.0
aF2.2
aF1.59
aF0.42
aF1.38
aF1.74
aF1.07
aF3.21
aF625.0
ag2
aa(lp27
F12.72
aF1.75
aF2.28
aF22.5
aF84.0
aF1.38
aF1.76
aF0.48
aF1.63
aF3.3
aF0.88
aF2.42
aF488.0
ag2
aa(lp28
F13.56
aF1.73
aF2.46
aF20.5
aF116.0
aF2.96
aF2.78
aF0.2
aF2.45
aF6.25
aF0.98
aF3.03
aF1120.0
ag6
aa(lp29
F13.28
aF1.64
aF2.84
aF15.5
aF110.0
aF2.6
aF2.68
aF0.34
aF1.36
aF4.6
aF1.09
aF2.78
aF880.0
ag6
aa(lp30
F11.66
aF1.88
aF1.92
aF16.0
aF97.0
aF1.61
aF1.57
aF0.34
aF1.15
aF3.8
aF1.23
aF2.14
aF428.0
ag2
aa(lp31
F12.6
aF2.46
aF2.2
aF18.5
aF94.0
aF1.62
aF0.66
aF0.63
aF0.94
aF7.1
aF0.73
aF1.58
aF695.0
ag4
aa(lp32
F13.84
aF4.12
aF2.38
aF19.5
aF89.0
aF1.8
aF0.83
aF0.48
aF1.56
aF9.01
aF0.57
aF1.64
aF480.0
ag4
aa(lp33
F12.37
aF1.13
aF2.16
aF19.0
aF87.0
aF3.5
aF3.1
aF0.19
aF1.87
aF4.45
aF1.22
aF2.87
aF420.0
ag2
aa(lp34
F12.67
aF0.98
aF2.24
aF18.0
aF99.0
aF2.2
aF1.94
aF0.3
aF1.46
aF2.62
aF1.23
aF3.16
aF450.0
ag2
aa(lp35
F13.05
aF1.65
aF2.55
aF18.0
aF98.0
aF2.45
aF2.43
aF0.29
aF1.44
aF4.25
aF1.12
aF2.51
aF1105.0
ag6
aa(lp36
F12.37
aF0.94
aF1.36
aF10.6
aF88.0
aF1.98
aF0.57
aF0.28
aF0.42
aF1.95
aF1.05
aF1.82
aF520.0
ag2
aa(lp37
F13.16
aF2.36
aF2.67
aF18.6
aF101.0
aF2.8
aF3.24
aF0.3
aF2.81
aF5.68
aF1.03
aF3.17
aF1185.0
ag6
aa(lp38
F12.77
aF3.43
aF1.98
aF16.0
aF80.0
aF1.63
aF1.25
aF0.43
aF0.83
aF3.4
aF0.7
aF2.12
aF372.0
ag2
aa(lp39
F14.3
aF1.92
aF2.72
aF20.0
aF120.0
aF2.8
aF3.14
aF0.33
aF1.97
aF6.2
aF1.07
aF2.65
aF1280.0
ag6
aa(lp40
F14.2
aF1.76
aF2.45
aF15.2
aF112.0
aF3.27
aF3.39
aF0.34
aF1.97
aF6.75
aF1.05
aF2.85
aF1450.0
ag6
aa(lp41
F13.76
aF1.53
aF2.7
aF19.5
aF132.0
aF2.95
aF2.74
aF0.5
aF1.35
aF5.4
aF1.25
aF3.0
aF1235.0
ag6
aa(lp42
F13.75
aF1.73
aF2.41
aF16.0
aF89.0
aF2.6
aF2.76
aF0.29
aF1.81
aF5.6
aF1.15
aF2.9
aF1320.0
ag6
aa(lp43
F14.16
aF2.51
aF2.48
aF20.0
aF91.0
aF1.68
aF0.7
aF0.44
aF1.24
aF9.7
aF0.62
aF1.71
aF660.0
ag4
aa(lp44
F13.86
aF1.51
aF2.67
aF25.0
aF86.0
aF2.95
aF2.86
aF0.21
aF1.87
aF3.38
aF1.36
aF3.16
aF410.0
ag2
aa(lp45
F13.58
aF1.66
aF2.36
aF19.1
aF106.0
aF2.86
aF3.19
aF0.22
aF1.95
aF6.9
aF1.09
aF2.88
aF1515.0
ag6
aa(lp46
F14.23
aF1.71
aF2.43
aF15.6
aF127.0
aF2.8
aF3.06
aF0.28
aF2.29
aF5.64
aF1.04
aF3.92
aF1065.0
ag6
aa(lp47
F13.49
aF3.59
aF2.19
aF19.5
aF88.0
aF1.62
aF0.48
aF0.58
aF0.88
aF5.7
aF0.81
aF1.82
aF580.0
ag4
aa(lp48
F13.56
aF1.71
aF2.31
aF16.2
aF117.0
aF3.15
aF3.29
aF0.34
aF2.34
aF6.13
aF0.95
aF3.38
aF795.0
ag6
aa.