(lp0
(lp1
F13.23
aF3.3
aF2.28
aF18.5
aF98.0
aF1.8
aF0.83
aF0.61
aF1.87
aF10.52
aF0.56
aF1.51
aF675.0
aS'3'
p2
aa(lp3
F11.45
aF2.4
aF2.42
aF20.0
aF96.0
aF2.9
aF2.79
aF0.32
aF1.83
aF3.25
aF0.8
aF3.39
aF625.0
aS'2'
p4
aa(lp5
F12.37
aF1.13
aF2.16
aF19.0
aF87.0
aF3.5
aF3.1
aF0.19
aF1.87
aF4.45
aF1.22
aF2.87
aF420.0
ag4
aa(lp6
F12.77
aF3.43
aF1.98
aF16.0
aF80.0
aF1.63
aF1.25
aF0.43
aF0.83
aF3.4
aF0.7
aF2.12
aF372.0
ag4
aa(lp7
F13.24
aF3.98
aF2.29
aF17.5
aF103.0
aF2.64
aF2.63
aF0.32
aF1.66
aF4.36
aF0.82
aF3.0
aF680.0
aS'1'
p8
aa(lp9
F12.81
aF2.31
aF2.4
aF24.0
aF98.0
aF1.15
aF1.09
aF0.27
aF0.83
aF5.7
aF0.66
aF1.36
aF560.0
ag2
aa(lp10
F12.53
aF5.51
aF2.64
aF25.0
aF96.0
aF1.79
aF0.6
aF0.63
aF1.1
aF5.0
aF0.82
aF1.69
aF515.0
ag2
aa(lp11
F12.7
aF3.55
aF2.36
aF21.5
aF106.0
aF1.7
aF1.2
aF0.17
aF0.84
aF5.0
aF0.78
aF1.29
aF600.0
ag2
aa(lp12
F12.29
aF1.41
aF1.98
aF16.0
aF85.0
aF2.55
aF2.5
aF0.29
aF1.77
aF2.9
aF1.23
aF2.74
aF428.0
ag4
aa(lp13
F13.56
aF1.71
aF2.31
aF16.2
aF117.0
aF3.15
aF3.29
aF0.34
aF2.34
aF6.13
aF0.95
aF3.38
aF795.0
ag8
aa(lp14
F12.25
aF1.73
aF2.12
aF19.0
aF80.0
aF1.65
aF2.03
aF0.37
aF1.63
aF3.4
aF1.0
aF3.17
aF510.0
ag4
aa(lp15
F11.84
aF0.89
aF2.58
aF18.0
aF94.0
aF2.2
aF2.21
aF0.22
aF2.35
aF3.05
aF0.79
aF3.08
aF520.0
ag4
aa(lp16
F12.08
aF1.83
aF2.32
aF18.5
aF81.0
aF1.6
aF1.5
aF0.52
aF1.64
aF2.4
aF1.08
aF2.27
aF480.0
ag4
aa(lp17
F13.11
aF1.01
aF1.7
aF15.0
aF78.0
aF2.98
aF3.18
aF0.26
aF2.28
aF5.3
aF1.12
aF3.18
aF502.0
ag4
aa(lp18
F12.08
aF1.39
aF2.5
aF22.5
aF84.0
aF2.56
aF2.29
aF0.43
aF1.04
aF2.9
aF0.93
aF3.19
aF385.0
ag4
aa(lp19
F14.1
aF2.16
aF2.3
aF18.0
aF105.0
aF2.95
aF3.32
aF0.22
aF2.38
aF5.75
aF1.25
aF3.17
aF1510.0
ag8
aa(lp20
F13.05
aF1.73
aF2.04
aF12.4
aF92.0
aF2.72
aF3.27
aF0.17
aF2.91
aF7.2
aF1.12
aF2.91
aF1150.0
ag8
aa(lp21
F14.21
aF4.04
aF2.44
aF18.9
aF111.0
aF2.85
aF2.65
aF0.3
aF1.25
aF5.24
aF0.87
aF3.33
aF1080.0
ag8
aa(lp22
F12.51
aF1.73
aF1.98
aF20.5
aF85.0
aF2.2
aF1.92
aF0.32
aF1.48
aF2.94
aF1.04
aF3.57
aF672.0
ag4
aa(lp23
F12.17
aF1.45
aF2.53
aF19.0
aF104.0
aF1.89
aF1.75
aF0.45
aF1.03
aF2.95
aF1.45
aF2.23
aF355.0
ag4
aa(lp24
F13.75
aF1.73
aF2.41
aF16.0
aF89.0
aF2.6
aF2.76
aF0.29
aF1.81
aF5.6
aF1.15
aF2.9
aF1320.0
ag8
aa(lp25
F12.82
aF3.37
aF2.3
aF19.5
aF88.0
aF1.48
aF0.66
aF0.4
aF0.97
aF10.26
aF0.72
aF1.75
aF685.0
ag2
aa(lp26
F13.2
aF1.78
aF2.14
aF11.2
aF100.0
aF2.65
aF2.76
aF0.26
aF1.28
aF4.38
aF1.05
aF3.4
aF1050.0
ag8
aa(lp27
F12.93
aF3.8
aF2.65
aF18.6
aF102.0
aF2.41
aF2.41
aF0.25
aF1.98
aF4.5
aF1.03
aF3.52
aF770.0
ag8
aa(lp28
F12.37
aF1.07
aF2.1
aF18.5
aF88.0
aF3.52
aF3.75
aF0.24
aF1.95
aF4.5
aF1.04
aF2.77
aF660.0
ag4
aa(lp29
F12.6
aF2.46
aF2.2
aF18.5
aF94.0
aF1.62
aF0.66
aF0.63
aF0.94
aF7.1
aF0.73
aF1.58
aF695.0
ag2
aa(lp30
F13.62
aF4.95
aF2.35
aF20.0
aF92.0
aF2.0
aF0.8
aF0.47
aF1.02
aF4.4
aF0.91
aF2.05
aF550.0
ag2
aa(lp31
F12.84
aF2.96
aF2.61
aF24.0
aF101.0
aF2.32
aF0.6
aF0.53
aF0.81
aF4.92
aF0.89
aF2.15
aF590.0
ag2
aa(lp32
F13.68
aF1.83
aF2.36
aF17.2
aF104.0
aF2.42
aF2.69
aF0.42
aF1.97
aF3.84
aF1.23
aF2.87
aF990.0
ag8
aa(lp33
F13.48
aF1.67
aF2.64
aF22.5
aF89.0
aF2.6
aF1.1
aF0.52
aF2.29
aF11.75
aF0.57
aF1.78
aF620.0
ag2
aa(lp34
F13.73
aF1.5
aF2.7
aF22.5
aF101.0
aF3.0
aF3.25
aF0.29
aF2.38
aF5.7
aF1.19
aF2.71
aF1285.0
ag8
aa(lp35
F13.72
aF1.43
aF2.5
aF16.7
aF108.0
aF3.4
aF3.67
aF0.19
aF2.04
aF6.8
aF0.89
aF2.87
aF1285.0
ag8
aa(lp36
F11.46
aF3.74
aF1.82
aF19.5
aF107.0
aF3.18
aF2.58
aF0.24
aF3.58
aF2.9
aF0.75
aF2.81
aF562.0
ag4
aa(lp37
F12.16
aF1.61
aF2.31
aF22.8
aF90.0
aF1.78
aF1.69
aF0.43
aF1.56
aF2.45
aF1.33
aF2.26
aF495.0
ag4
aa(lp38
F13.51
aF1.8
aF2.65
aF19.0
aF110.0
aF2.35
aF2.53
aF0.29
aF1.54
aF4.2
aF1.1
aF2.87
aF1095.0
ag8
aa(lp39
F11.66
aF1.88
aF1.92
aF16.0
aF97.0
aF1.61
aF1.57
aF0.34
aF1.15
aF3.8
aF1.23
aF2.14
aF428.0
ag4
aa(lp40
F13.05
aF3.86
aF2.32
aF22.5
aF85.0
aF1.65
aF1.59
aF0.61
aF1.62
aF4.8
aF0.84
aF2.01
aF515.0
ag4
aa(lp41
F12.45
aF3.03
aF2.64
aF27.0
aF97.0
aF1.9
aF0.58
aF0.63
aF1.14
aF7.5
aF0.67
aF1.73
aF880.0
ag2
aa(lp42
F13.17
aF5.19
aF2.32
aF22.0
aF93.0
aF1.74
aF0.63
aF0.61
aF1.55
aF7.9
aF0.6
aF1.48
aF725.0
ag2
aa(lp43
F13.83
aF1.65
aF2.6
aF17.2
aF94.0
aF2.45
aF2.99
aF0.22
aF2.29
aF5.6
aF1.24
aF3.37
aF1265.0
ag8
aa(lp44
F14.37
aF1.95
aF2.5
aF16.8
aF113.0
aF3.85
aF3.49
aF0.24
aF2.18
aF7.8
aF0.86
aF3.45
aF1480.0
ag8
aa(lp45
F14.23
aF1.71
aF2.43
aF15.6
aF127.0
aF2.8
aF3.06
aF0.28
aF2.29
aF5.64
aF1.04
aF3.92
aF1065.0
ag8
aa(lp46
F12.08
aF2.08
aF1.7
aF17.5
aF97.0
aF2.23
aF2.17
aF0.26
aF1.4
aF3.3
aF1.27
aF2.96
aF710.0
ag4
aa(lp47
F12.87
aF4.61
aF2.48
aF21.5
aF86.0
aF1.7
aF0.65
aF0.47
aF0.86
aF7.65
aF0.54
aF1.86
aF625.0
ag2
aa(lp48
F11.62
aF1.99
aF2.28
aF18.0
aF98.0
aF3.02
aF2.26
aF0.17
aF1.35
aF3.25
aF1.16
aF2.96
aF345.0
ag4
aa.