(lp0
(lp1
F13.5
aF3.12
aF2.62
aF24.0
aF123.0
aF1.4
aF1.57
aF0.22
aF1.25
aF8.6
aF0.59
aF1.3
aF500.0
aS'3'
p2
aa(lp3
F14.1
aF2.02
aF2.4
aF18.8
aF103.0
aF2.75
aF2.92
aF0.32
aF2.38
aF6.2
aF1.07
aF2.75
aF1060.0
aS'1'
p4
aa(lp5
F13.23
aF3.3
aF2.28
aF18.5
aF98.0
aF1.8
aF0.83
aF0.61
aF1.87
aF10.52
aF0.56
aF1.51
aF675.0
ag2
aa(lp6
F13.56
aF1.71
aF2.31
aF16.2
aF117.0
aF3.15
aF3.29
aF0.34
aF2.34
aF6.13
aF0.95
aF3.38
aF795.0
ag4
aa(lp7
F12.29
aF1.61
aF2.21
aF20.4
aF103.0
aF1.1
aF1.02
aF0.37
aF1.46
aF3.05
aF0.906
aF1.82
aF870.0
aS'2'
p8
aa(lp9
F12.51
aF1.73
aF1.98
aF20.5
aF85.0
aF2.2
aF1.92
aF0.32
aF1.48
aF2.94
aF1.04
aF3.57
aF672.0
ag8
aa(lp10
F12.47
aF1.52
aF2.2
aF19.0
aF162.0
aF2.5
aF2.27
aF0.32
aF3.28
aF2.6
aF1.16
aF2.63
aF937.0
ag8
aa(lp11
F13.82
aF1.75
aF2.42
aF14.0
aF111.0
aF3.88
aF3.74
aF0.32
aF1.87
aF7.05
aF1.01
aF3.26
aF1190.0
ag4
aa(lp12
F12.88
aF2.99
aF2.4
aF20.0
aF104.0
aF1.3
aF1.22
aF0.24
aF0.83
aF5.4
aF0.74
aF1.42
aF530.0
ag2
aa(lp13
F11.96
aF1.09
aF2.3
aF21.0
aF101.0
aF3.38
aF2.14
aF0.13
aF1.65
aF3.21
aF0.99
aF3.13
aF886.0
ag8
aa(lp14
F13.73
aF1.5
aF2.7
aF22.5
aF101.0
aF3.0
aF3.25
aF0.29
aF2.38
aF5.7
aF1.19
aF2.71
aF1285.0
ag4
aa(lp15
F13.51
aF1.8
aF2.65
aF19.0
aF110.0
aF2.35
aF2.53
aF0.29
aF1.54
aF4.2
aF1.1
aF2.87
aF1095.0
ag4
aa(lp16
F12.64
aF1.36
aF2.02
aF16.8
aF100.0
aF2.02
aF1.41
aF0.53
aF0.62
aF5.75
aF0.98
aF1.59
aF450.0
ag8
aa(lp17
F12.17
aF1.45
aF2.53
aF19.0
aF104.0
aF1.89
aF1.75
aF0.45
aF1.03
aF2.95
aF1.45
aF2.23
aF355.0
ag8
aa(lp18
F13.05
aF2.05
aF3.22
aF25.0
aF124.0
aF2.63
aF2.68
aF0.47
aF1.92
aF3.58
aF1.13
aF3.2
aF830.0
ag4
aa(lp19
F13.87
aF1.9
aF2.8
aF19.4
aF107.0
aF2.95
aF2.97
aF0.37
aF1.76
aF4.5
aF1.25
aF3.4
aF915.0
ag4
aa(lp20
F12.52
aF2.43
aF2.17
aF21.0
aF88.0
aF2.55
aF2.27
aF0.26
aF1.22
aF2.0
aF0.9
aF2.78
aF325.0
ag8
aa(lp21
F13.17
aF5.19
aF2.32
aF22.0
aF93.0
aF1.74
aF0.63
aF0.61
aF1.55
aF7.9
aF0.6
aF1.48
aF725.0
ag2
aa(lp22
F12.08
aF1.83
aF2.32
aF18.5
aF81.0
aF1.6
aF1.5
aF0.52
aF1.64
aF2.4
aF1.08
aF2.27
aF480.0
ag8
aa(lp23
F13.5
aF1.81
aF2.61
aF20.0
aF96.0
aF2.53
aF2.61
aF0.28
aF1.66
aF3.52
aF1.12
aF3.82
aF845.0
ag4
aa(lp24
F12.36
aF3.83
aF2.38
aF21.0
aF88.0
aF2.3
aF0.92
aF0.5
aF1.04
aF7.65
aF0.56
aF1.58
aF520.0
ag2
aa(lp25
F13.05
aF1.65
aF2.55
aF18.0
aF98.0
aF2.45
aF2.43
aF0.29
aF1.44
aF4.25
aF1.12
aF2.51
aF1105.0
ag4
aa(lp26
F12.37
aF1.07
aF2.1
aF18.5
aF88.0
aF3.52
aF3.75
aF0.24
aF1.95
aF4.5
aF1.04
aF2.77
aF660.0
ag8
aa(lp27
F14.34
aF1.68
aF2.7
aF25.0
aF98.0
aF2.8
aF1.31
aF0.53
aF2.7
aF13.0
aF0.57
aF1.96
aF660.0
ag2
aa(lp28
F13.71
aF5.65
aF2.45
aF20.5
aF95.0
aF1.68
aF0.61
aF0.52
aF1.06
aF7.7
aF0.64
aF1.74
aF740.0
ag2
aa(lp29
F13.86
aF1.51
aF2.67
aF25.0
aF86.0
aF2.95
aF2.86
aF0.21
aF1.87
aF3.38
aF1.36
aF3.16
aF410.0
ag8
aa(lp30
F11.79
aF2.13
aF2.78
aF28.5
aF92.0
aF2.13
aF2.24
aF0.58
aF1.76
aF3.0
aF0.97
aF2.44
aF466.0
ag8
aa(lp31
F12.25
aF1.73
aF2.12
aF19.0
aF80.0
aF1.65
aF2.03
aF0.37
aF1.63
aF3.4
aF1.0
aF3.17
aF510.0
ag8
aa(lp32
F13.17
aF2.59
aF2.37
aF20.0
aF120.0
aF1.65
aF0.68
aF0.53
aF1.46
aF9.3
aF0.6
aF1.62
aF840.0
ag2
aa(lp33
F11.82
aF1.47
aF1.99
aF20.8
aF86.0
aF1.98
aF1.6
aF0.3
aF1.53
aF1.95
aF0.95
aF3.33
aF495.0
ag8
aa(lp34
F12.25
aF4.72
aF2.54
aF21.0
aF89.0
aF1.38
aF0.47
aF0.53
aF0.8
aF3.85
aF0.75
aF1.27
aF720.0
ag2
aa(lp35
F13.39
aF1.77
aF2.62
aF16.1
aF93.0
aF2.85
aF2.94
aF0.34
aF1.45
aF4.8
aF0.92
aF3.22
aF1195.0
ag4
aa(lp36
F14.37
aF1.95
aF2.5
aF16.8
aF113.0
aF3.85
aF3.49
aF0.24
aF2.18
aF7.8
aF0.86
aF3.45
aF1480.0
ag4
aa(lp37
F13.3
aF1.72
aF2.14
aF17.0
aF94.0
aF2.4
aF2.19
aF0.27
aF1.35
aF3.95
aF1.02
aF2.77
aF1285.0
ag4
aa(lp38
F11.65
aF1.67
aF2.62
aF26.0
aF88.0
aF1.92
aF1.61
aF0.4
aF1.34
aF2.6
aF1.36
aF3.21
aF562.0
ag8
aa(lp39
F12.96
aF3.45
aF2.35
aF18.5
aF106.0
aF1.39
aF0.7
aF0.4
aF0.94
aF5.28
aF0.68
aF1.75
aF675.0
ag2
aa(lp40
F12.93
aF3.8
aF2.65
aF18.6
aF102.0
aF2.41
aF2.41
aF0.25
aF1.98
aF4.5
aF1.03
aF3.52
aF770.0
ag4
aa(lp41
F12.43
aF1.53
aF2.29
aF21.5
aF86.0
aF2.74
aF3.15
aF0.39
aF1.77
aF3.94
aF0.69
aF2.84
aF352.0
ag8
aa(lp42
F13.72
aF1.43
aF2.5
aF16.7
aF108.0
aF3.4
aF3.67
aF0.19
aF2.04
aF6.8
aF0.89
aF2.87
aF1285.0
ag4
aa(lp43
F12.45
aF3.03
aF2.64
aF27.0
aF97.0
aF1.9
aF0.58
aF0.63
aF1.14
aF7.5
aF0.67
aF1.73
aF880.0
ag2
aa(lp44
F12.67
aF0.98
aF2.24
aF18.0
aF99.0
aF2.2
aF1.94
aF0.3
aF1.46
aF2.62
aF1.23
aF3.16
aF450.0
ag8
aa(lp45
F12.29
aF2.83
aF2.22
aF18.0
aF88.0
aF2.45
aF2.25
aF0.25
aF1.99
aF2.15
aF1.15
aF3.3
aF290.0
ag8
aa(lp46
F11.82
aF1.72
aF1.88
aF19.5
aF86.0
aF2.5
aF1.64
aF0.37
aF1.42
aF2.06
aF0.94
aF2.44
aF415.0
ag8
aa(lp47
F14.2
aF1.76
aF2.45
aF15.2
aF112.0
aF3.27
aF3.39
aF0.34
aF1.97
aF6.75
aF1.05
aF2.85
aF1450.0
ag4
aa(lp48
F13.62
aF4.95
aF2.35
aF20.0
aF92.0
aF2.0
aF0.8
aF0.47
aF1.02
aF4.4
aF0.91
aF2.05
aF550.0
ag2
aa.