(lp0
(lp1
F4.3848
aF-3.0729
aF3.0423
aF1.2741
aS'0'
p2
aa(lp3
F0.77445
aF9.0552
aF-2.4089
aF-1.3884
ag2
aa(lp4
F0.96574
aF8.393
aF-1.361
aF-1.4659
ag2
aa(lp5
F3.0948
aF8.7324
aF-2.9007
aF-0.96682
ag2
aa(lp6
F4.9362
aF7.6046
aF-2.3429
aF-0.85302
ag2
aa(lp7
F-1.9458
aF11.2217
aF1.9079
aF-3.4405
ag2
aa(lp8
F5.7403
aF-0.44284
aF0.38015
aF1.3763
ag2
aa(lp9
F-2.6989
aF12.1984
aF0.67661
aF-8.5482
ag2
aa(lp10
F1.1472
aF3.5985
aF1.9387
aF-0.43406
ag2
aa(lp11
F2.9742
aF8.96
aF-2.9024
aF-1.0379
ag2
aa(lp12
F4.5707
aF7.2094
aF-3.2794
aF-1.4944
ag2
aa(lp13
F0.1848
aF6.5079
aF2.0133
aF-0.87242
ag2
aa(lp14
F0.87256
aF9.2931
aF-0.7843
aF-2.1978
ag2
aa(lp15
F0.39559
aF6.8866
aF1.0588
aF-0.67587
ag2
aa(lp16
F3.8384
aF6.1851
aF-2.0439
aF-0.033204
ag2
aa(lp17
F2.8209
aF7.3108
aF-0.81857
aF-1.8784
ag2
aa(lp18
F2.5817
aF9.7546
aF-3.1749
aF-2.9957
ag2
aa(lp19
F3.8213
aF0.23175
aF2.0133
aF2.0564
ag2
aa(lp20
F0.3798
aF0.7098
aF0.7572
aF-0.4444
ag2
aa(lp21
F3.4893
aF6.69
aF-1.2042
aF-0.38751
ag2
aa(lp22
F-1.7781
aF0.8546
aF7.1303
aF0.027572
ag2
aa(lp23
F2.0962
aF2.4769
aF1.9379
aF-0.040962
ag2
aa(lp24
F0.94732
aF-0.57113
aF7.1903
aF-0.67587
ag2
aa(lp25
F2.8261
aF9.4007
aF-3.3034
aF-1.0509
ag2
aa(lp26
F0.0071249
aF8.3661
aF0.50781
aF-3.8155
ag2
aa(lp27
F0.96788
aF7.1907
aF1.2798
aF-2.4565
ag2
aa(lp28
F4.7432
aF2.1086
aF0.1368
aF1.6543
ag2
aa(lp29
F3.6575
aF7.2797
aF-2.2692
aF-1.144
ag2
aa(lp30
F3.8832
aF6.4023
aF-2.432
aF-0.98363
ag2
aa(lp31
F3.4776
aF8.811
aF-3.1886
aF-0.92285
ag2
aa(lp32
F1.1315
aF7.9212
aF1.093
aF-2.8444
ag2
aa(lp33
F2.8237
aF2.8597
aF0.19678
aF0.57196
ag2
aa(lp34
F1.9321
aF6.0423
aF0.26019
aF-2.053
ag2
aa(lp35
F3.0632
aF-3.3315
aF5.1305
aF0.8267
ag2
aa(lp36
F-1.8411
aF10.8306
aF2.769
aF-3.0901
ag2
aa(lp37
F2.8084
aF11.3045
aF-3.3394
aF-4.4194
ag2
aa(lp38
F2.5698
aF-4.4076
aF5.9856
aF0.078002
ag2
aa(lp39
F-0.12624
aF10.3216
aF-3.7121
aF-6.1185
ag2
aa(lp40
F3.3756
aF-4.0951
aF4.367
aF1.0698
ag2
aa(lp41
F-0.048008
aF-1.6037
aF8.4756
aF0.75558
ag2
aa(lp42
F0.5706
aF-0.0248
aF1.2421
aF-0.5621
ag2
aa(lp43
F0.88444
aF6.5906
aF0.55837
aF-0.44182
ag2
aa(lp44
F3.8644
aF3.7061
aF0.70403
aF0.35214
ag2
aa(lp45
F1.2999
aF2.5762
aF2.0107
aF-0.18967
ag2
aa(lp46
F2.0051
aF-6.8638
aF8.132
aF-0.2401
ag2
aa(lp47
F4.9294
aF0.27727
aF0.20792
aF0.33662
ag2
aa(lp48
F2.8297
aF6.3485
aF-0.73546
aF-0.58665
ag2
aa(lp49
F2.565
aF8.633
aF-2.9941
aF-1.3082
ag2
aa(lp50
F2.093
aF8.3061
aF0.022844
aF-3.2724
ag2
aa(lp51
F4.6014
aF5.6264
aF-2.1235
aF0.19309
ag2
aa(lp52
F5.0617
aF-0.35799
aF0.44698
aF0.99868
ag2
aa(lp53
F-0.2951
aF9.0489
aF-0.52725
aF-2.0789
ag2
aa(lp54
F3.577
aF2.4004
aF1.8908
aF0.73231
ag2
aa(lp55
F3.9433
aF2.5017
aF1.5215
aF0.903
ag2
aa(lp56
F2.6648
aF10.754
aF-3.3994
aF-4.1685
ag2
aa(lp57
F5.9374
aF6.1664
aF-2.5905
aF-0.36553
ag2
aa(lp58
F2.0153
aF1.8479
aF3.1375
aF0.42843
ag2
aa(lp59
F5.8782
aF5.9409
aF-2.8544
aF-0.60863
ag2
aa(lp60
F-2.3983
aF12.606
aF2.9464
aF-5.7888
ag2
aa(lp61
F1.762
aF4.3682
aF2.1384
aF0.75429
ag2
aa(lp62
F4.2406
aF-2.4852
aF1.608
aF0.7155
ag2
aa(lp63
F3.4669
aF6.87
aF-1.0568
aF-0.73147
ag2
aa(lp64
F3.1896
aF5.7526
aF-0.18537
aF-0.30087
ag2
aa(lp65
F0.81356
aF9.1566
aF-2.1492
aF-4.1814
ag2
aa(lp66
F0.52855
aF0.96427
aF4.0243
aF-1.0483
ag2
aa(lp67
F2.1319
aF-2.0403
aF2.5574
aF-0.061652
ag2
aa(lp68
F0.33111
aF4.5731
aF2.057
aF-0.18967
ag2
aa(lp69
F1.2746
aF8.8172
aF-1.5323
aF-1.7957
ag2
aa(lp70
F2.2091
aF7.4556
aF-1.3284
aF-3.3021
ag2
aa(lp71
F2.5328
aF7.528
aF-0.41929
aF-2.6478
ag2
aa(lp72
F3.6244
aF1.4609
aF1.3501
aF1.9284
ag2
aa(lp73
F-1.3885
aF12.5026
aF0.69118
aF-7.5487
ag2
aa(lp74
F5.7227
aF5.8312
aF-2.4097
aF-0.24527
ag2
aa(lp75
F3.3583
aF10.3567
aF-3.7301
aF-3.6991
ag2
aa(lp76
F2.5227
aF2.2369
aF2.7236
aF0.79438
ag2
aa(lp77
F0.045304
aF6.7334
aF1.0708
aF-0.9332
ag2
aa(lp78
F-2.1802
aF3.3791
aF-1.2256
aF-2.6621
aS'1'
p79
aa(lp80
F-0.40951
aF-0.15521
aF0.060545
aF-0.088807
ag79
aa(lp81
F-2.2918
aF-7.257
aF7.9597
aF0.9211
ag79
aa(lp82
F-4.0214
aF-12.8006
aF15.6199
aF-0.95647
ag79
aa(lp83
F-3.3884
aF-8.215
aF10.3315
aF0.98187
ag79
aa(lp84
F-2.0046
aF-0.49457
aF1.333
aF1.6543
ag79
aa(lp85
F-1.7063
aF2.7956
aF-2.378
aF-2.3491
ag79
aa(lp86
F-1.6386
aF3.3584
aF-1.7302
aF-3.5646
ag79
aa(lp87
F-0.41645
aF0.32487
aF-0.33617
aF-0.36036
ag79
aa(lp88
F-1.5877
aF-6.6072
aF5.8022
aF0.31593
ag79
aa(lp89
F-2.5961
aF-9.349
aF9.7942
aF-0.28018
ag79
aa(lp90
F-1.5228
aF-6.4789
aF5.7568
aF0.87325
ag79
aa(lp91
F-0.53072
aF-0.097265
aF-0.21793
aF1.0426
ag79
aa(lp92
F-0.49081
aF2.8452
aF-3.6436
aF-3.1004
ag79
aa(lp93
F-6.5773
aF6.8017
aF0.85483
aF-7.5344
ag79
aa(lp94
F-2.4621
aF2.7645
aF-0.62578
aF-2.8573
ag79
aa(lp95
F-1.3995
aF-1.9162
aF2.5154
aF0.59912
ag79
aa(lp96
F-2.3221
aF-9.3304
aF9.233
aF-0.79871
ag79
aa(lp97
F-3.73
aF-12.9723
aF12.9817
aF-2.684
ag79
aa(lp98
F-1.6988
aF-7.1163
aF5.7902
aF0.16723
ag79
aa(lp99
F-0.26654
aF-0.64562
aF-0.42014
aF0.89136
ag79
aa(lp100
F0.33325
aF3.3108
aF-4.5081
aF-4.012
ag79
aa(lp101
F-4.2091
aF4.7283
aF-0.49126
aF-5.2159
ag79
aa(lp102
F-2.3142
aF-0.68494
aF1.9833
aF-0.44829
ag79
aa(lp103
F-2.4835
aF-7.4494
aF6.8964
aF-0.64484
ag79
aa(lp104
F-2.7611
aF-10.5099
aF9.0239
aF-1.9547
ag79
aa(lp105
F-0.36025
aF-4.449
aF2.1067
aF0.94308
ag79
aa(lp106
F1.0117
aF0.9022
aF-2.3506
aF0.42714
ag79
aa(lp107
F0.96708
aF3.8426
aF-4.9314
aF-4.1323
ag79
aa(lp108
F-5.2049
aF7.259
aF0.070827
aF-7.3004
ag79
aa(lp109
F-3.3203
aF-0.02691
aF2.9618
aF-0.44958
ag79
aa(lp110
F-2.565
aF-5.7899
aF6.0122
aF0.046968
ag79
aa(lp111
F-1.5951
aF-6.572
aF4.7689
aF-0.94354
ag79
aa(lp112
F0.7049
aF0.17174
aF-1.7859
aF0.36119
ag79
aa(lp113
F1.7331
aF3.9544
aF-4.7412
aF-2.5017
ag79
aa(lp114
F0.6818
aF4.8504
aF-5.2133
aF-6.1043
ag79
aa(lp115
F-6.3364
aF9.2848
aF0.014275
aF-6.7844
ag79
aa(lp116
F-3.8053
aF2.4273
aF0.6809
aF-1.0871
ag79
aa(lp117
F-2.1979
aF-2.1252
aF1.7151
aF0.45171
ag79
aa(lp118
F-0.87874
aF-2.2121
aF-0.051701
aF0.099985
ag79
aa(lp119
F0.74067
aF1.7299
aF-3.1963
aF-0.1457
ag79
aa(lp120
F0.98296
aF3.4226
aF-3.9692
aF-1.7116
ag79
aa(lp121
F-0.3489
aF3.1929
aF-3.4054
aF-3.1832
ag79
aa(lp122
F-3.8552
aF3.5219
aF-0.38415
aF-3.8608
ag79
aa(lp123
F-6.9599
aF8.9931
aF0.2182
aF-4.572
ag79
aa(lp124
F-4.7462
aF3.1205
aF1.075
aF-1.2966
ag79
aa(lp125
F-3.2051
aF-0.14279
aF0.97565
aF0.045675
ag79
aa(lp126
F-1.7549
aF-0.080711
aF-0.75774
aF-0.3707
ag79
aa(lp127
F-0.59587
aF2.4811
aF-2.8673
aF-0.89828
ag79
aa(lp128
F-0.89542
aF2.0279
aF-2.3652
aF-1.2746
ag79
aa(lp129
F-2.0754
aF1.2767
aF-0.64206
aF-1.2642
ag79
aa(lp130
F-3.2778
aF1.8023
aF0.1805
aF-2.3931
ag79
aa(lp131
F-2.2183
aF-1.254
aF2.9986
aF0.36378
ag79
aa(lp132
F-3.5895
aF-6.572
aF10.5251
aF-0.16381
ag79
aa(lp133
F-5.0477
aF-5.8023
aF11.244
aF-0.3901
ag79
aa(lp134
F-3.5741
aF3.944
aF-0.07912
aF-2.1203
ag79
aa(lp135
F-0.7351
aF1.7361
aF-1.4938
aF-1.1582
ag79
aa(lp136
F-2.2617
aF-4.7428
aF6.3489
aF0.11162
ag79
aa(lp137
F-4.244
aF-13.0634
aF17.1116
aF-2.8017
ag79
aa(lp138
F-4.0218
aF-8.304
aF12.555
aF-1.5099
ag79
aa(lp139
F-3.0201
aF-0.67253
aF2.7056
aF0.85774
ag79
aa.