(lp0
(lp1
F0.86202
aF2.6963
aF4.2908
aF0.54739
aS'0'
p2
aa(lp3
F3.8117
aF10.1457
aF-4.0463
aF-4.5629
ag2
aa(lp4
F0.54777
aF10.3754
aF-1.5435
aF-4.1633
ag2
aa(lp5
F2.3718
aF7.4908
aF0.015989
aF-1.7414
ag2
aa(lp6
F-2.4953
aF11.1472
aF1.9353
aF-3.4638
ag2
aa(lp7
F4.6361
aF-2.6611
aF2.8358
aF1.1991
ag2
aa(lp8
F-2.2527
aF11.5321
aF2.5899
aF-3.2737
ag2
aa(lp9
F3.7982
aF10.423
aF-4.1602
aF-4.9728
ag2
aa(lp10
F-0.36279
aF8.2895
aF-1.9213
aF-3.3332
ag2
aa(lp11
F2.1265
aF6.8783
aF0.44784
aF-2.2224
ag2
aa(lp12
F0.86736
aF5.5643
aF1.6765
aF-0.16769
ag2
aa(lp13
F3.7831
aF10.0526
aF-3.8869
aF-3.7366
ag2
aa(lp14
F-2.2623
aF12.1177
aF0.28846
aF-7.7581
ag2
aa(lp15
F1.2616
aF4.4303
aF-1.3335
aF-1.7517
ag2
aa(lp16
F2.6799
aF3.1349
aF0.34073
aF0.58489
ag2
aa(lp17
F-0.39816
aF5.9781
aF1.3912
aF-1.1621
ag2
aa(lp18
F4.3937
aF0.35798
aF2.0416
aF1.2004
ag2
aa(lp19
F2.9695
aF5.6222
aF0.27561
aF-1.1556
ag2
aa(lp20
F1.3049
aF-0.15521
aF6.4911
aF-0.75346
ag2
aa(lp21
F2.2123
aF-5.8395
aF7.7687
aF-0.85302
ag2
aa(lp22
F1.9647
aF6.9383
aF0.57722
aF0.66377
ag2
aa(lp23
F3.0864
aF-2.5845
aF2.2309
aF0.30947
ag2
aa(lp24
F0.3798
aF0.7098
aF0.7572
aF-0.4444
ag2
aa(lp25
F0.58982
aF7.4266
aF1.2353
aF-2.9595
ag2
aa(lp26
F0.14783
aF7.946
aF1.0742
aF-3.3409
ag2
aa(lp27
F-0.062025
aF6.1975
aF1.099
aF-1.131
ag2
aa(lp28
F4.223
aF1.1319
aF0.72202
aF0.96118
ag2
aa(lp29
F0.64295
aF7.1018
aF0.3493
aF-0.41337
ag2
aa(lp30
F1.941
aF0.46351
aF4.6472
aF1.0879
ag2
aa(lp31
F4.0047
aF0.45937
aF1.3621
aF1.6181
ag2
aa(lp32
F3.7767
aF9.7794
aF-3.9075
aF-3.5323
ag2
aa(lp33
F3.4769
aF-0.15314
aF2.53
aF2.4495
ag2
aa(lp34
F1.9818
aF9.2621
aF-3.521
aF-1.872
ag2
aa(lp35
F3.8023
aF-3.8696
aF4.044
aF0.95343
ag2
aa(lp36
F4.3483
aF11.1079
aF-4.0857
aF-4.2539
ag2
aa(lp37
F1.1518
aF1.3864
aF5.2727
aF-0.43536
ag2
aa(lp38
F-1.2576
aF1.5892
aF7.0078
aF0.42455
ag2
aa(lp39
F1.9572
aF-5.1153
aF8.6127
aF-1.4297
ag2
aa(lp40
F-2.484
aF12.1611
aF2.8204
aF-3.7418
ag2
aa(lp41
F-1.1497
aF1.2954
aF7.701
aF0.62627
ag2
aa(lp42
F4.8368
aF10.0132
aF-4.3239
aF-4.3276
ag2
aa(lp43
F-0.12196
aF8.8068
aF0.94566
aF-4.2267
ag2
aa(lp44
F1.9429
aF6.3961
aF0.092248
aF0.58102
ag2
aa(lp45
F1.742
aF-4.809
aF8.2142
aF-2.0659
ag2
aa(lp46
F-1.5222
aF10.8409
aF2.7827
aF-4.0974
ag2
aa(lp47
F-1.3
aF10.2678
aF-2.953
aF-5.8638
ag2
aa(lp48
F3.4246
aF-0.14693
aF0.80342
aF0.29136
ag2
aa(lp49
F2.5503
aF-4.9518
aF6.3729
aF-0.41596
ag2
aa(lp50
F1.5691
aF6.3465
aF-0.1828
aF-2.4099
ag2
aa(lp51
F1.3087
aF4.9228
aF2.0013
aF0.22024
ag2
aa(lp52
F5.1776
aF8.2316
aF-3.2511
aF-1.5694
ag2
aa(lp53
F2.229
aF9.6325
aF-3.1123
aF-2.7164
ag2
aa(lp54
F5.6272
aF10.0857
aF-4.2931
aF-3.8142
ag2
aa(lp55
F1.2138
aF8.7986
aF-2.1672
aF-0.74182
ag2
aa(lp56
F0.3798
aF0.7098
aF0.7572
aF-0.4444
ag2
aa(lp57
F0.5415
aF6.0319
aF1.6825
aF-0.46122
ag2
aa(lp58
F4.0524
aF5.6802
aF-1.9693
aF0.026279
ag2
aa(lp59
F4.7285
aF2.1065
aF-0.28305
aF1.5625
ag2
aa(lp60
F3.4359
aF0.66216
aF2.1041
aF1.8922
ag2
aa(lp61
F0.86816
aF10.2429
aF-1.4912
aF-4.0082
ag2
aa(lp62
F3.359
aF9.8022
aF-3.8209
aF-3.7133
ag2
aa(lp63
F3.6702
aF2.9942
aF0.85141
aF0.30688
ag2
aa(lp64
F1.3349
aF6.1189
aF0.46497
aF0.49826
ag2
aa(lp65
F3.1887
aF-3.4143
aF2.7742
aF-0.2026
ag2
aa(lp66
F2.4527
aF2.9653
aF0.20021
aF-0.056479
ag2
aa(lp67
F3.9121
aF2.9735
aF0.92852
aF0.60558
ag2
aa(lp68
F3.9364
aF10.5885
aF-3.725
aF-4.3133
ag2
aa(lp69
F3.9414
aF-3.2902
aF3.1674
aF1.0866
ag2
aa(lp70
F3.6922
aF-3.9585
aF4.3439
aF1.3517
ag2
aa(lp71
F5.681
aF7.795
aF-2.6848
aF-0.92544
ag2
aa(lp72
F0.77124
aF9.0862
aF-1.2281
aF-1.4996
ag2
aa(lp73
F3.5761
aF9.7753
aF-3.9795
aF-3.4638
ag2
aa(lp74
F1.602
aF6.1251
aF0.52924
aF0.47886
ag2
aa(lp75
F2.6682
aF10.216
aF-3.4414
aF-4.0069
ag2
aa(lp76
F2.0007
aF1.8644
aF2.6491
aF0.47369
ag2
aa(lp77
F0.64215
aF3.1287
aF4.2933
aF0.64696
ag2
aa(lp78
F-0.82601
aF2.9611
aF-1.2864
aF-1.4647
aS'1'
p79
aa(lp80
F0.31803
aF-0.99326
aF1.0947
aF0.88619
ag79
aa(lp81
F-1.4454
aF-8.4385
aF8.8483
aF0.96894
ag79
aa(lp82
F-3.1423
aF-13.0365
aF15.6773
aF-0.66165
ag79
aa(lp83
F-2.5373
aF-6.959
aF8.8054
aF1.5289
ag79
aa(lp84
F-1.366
aF0.18416
aF0.90539
aF1.5806
ag79
aa(lp85
F-1.7064
aF3.3088
aF-2.2829
aF-2.1978
ag79
aa(lp86
F-0.41965
aF2.9094
aF-1.7859
aF-2.2069
ag79
aa(lp87
F0.37637
aF-0.82358
aF0.78543
aF0.74524
ag79
aa(lp88
F-0.55355
aF-7.9233
aF6.7156
aF0.74394
ag79
aa(lp89
F-1.6001
aF-9.5828
aF9.4044
aF0.081882
ag79
aa(lp90
F-0.37013
aF-5.554
aF4.7749
aF1.547
ag79
aa(lp91
F0.12126
aF0.22347
aF-0.47327
aF0.97024
ag79
aa(lp92
F-0.27068
aF3.2674
aF-3.5562
aF-3.0888
ag79
aa(lp93
F-5.119
aF6.6486
aF-0.049987
aF-6.5206
ag79
aa(lp94
F-1.3946
aF2.3134
aF-0.44499
aF-1.4905
ag79
aa(lp95
F-0.69879
aF-3.3771
aF4.1211
aF1.5043
ag79
aa(lp96
F-1.48
aF-10.5244
aF9.9176
aF-0.5026
ag79
aa(lp97
F-2.6649
aF-12.813
aF12.6689
aF-1.9082
ag79
aa(lp98
F-0.62684
aF-6.301
aF4.7843
aF1.106
ag79
aa(lp99
F0.518
aF0.25865
aF-0.84085
aF0.96118
ag79
aa(lp100
F0.64376
aF3.764
aF-4.4738
aF-4.0483
ag79
aa(lp101
F-2.9821
aF4.1986
aF-0.5898
aF-3.9642
ag79
aa(lp102
F-1.4628
aF-1.5706
aF2.4357
aF0.49826
ag79
aa(lp103
F-1.7101
aF-8.7903
aF7.9735
aF-0.45475
ag79
aa(lp104
F-1.5572
aF-9.8808
aF8.1088
aF-1.0806
ag79
aa(lp105
F0.74428
aF-3.7723
aF1.6131
aF1.5754
ag79
aa(lp106
F2.0177
aF1.7982
aF-2.9581
aF0.2099
ag79
aa(lp107
F1.164
aF3.913
aF-4.5544
aF-3.8672
ag79
aa(lp108
F-4.3667
aF6.0692
aF0.57208
aF-5.4668
ag79
aa(lp109
F-2.5919
aF-1.0553
aF3.8949
aF0.77757
ag79
aa(lp110
F-1.8046
aF-6.8141
aF6.7019
aF1.1681
ag79
aa(lp111
F-0.71868
aF-5.7154
aF3.8298
aF1.0233
ag79
aa(lp112
F1.4378
aF0.66837
aF-2.0267
aF1.0271
ag79
aa(lp113
F2.1943
aF4.5503
aF-4.976
aF-2.7254
ag79
aa(lp114
F0.7376
aF4.8525
aF-4.7986
aF-5.6659
ag79
aa(lp115
F-5.637
aF8.1261
aF0.13081
aF-5.0142
ag79
aa(lp116
F-3.0193
aF1.7775
aF0.73745
aF-0.45346
ag79
aa(lp117
F-1.6706
aF-2.09
aF1.584
aF0.71162
ag79
aa(lp118
F-0.1269
aF-1.1505
aF-0.95138
aF0.57843
ag79
aa(lp119
F1.2198
aF2.0982
aF-3.1954
aF0.12843
ag79
aa(lp120
F1.4501
aF3.6067
aF-4.0557
aF-1.5966
ag79
aa(lp121
F-0.40857
aF3.0977
aF-2.9607
aF-2.6892
ag79
aa(lp122
F-3.8952
aF3.8157
aF-0.31304
aF-3.8194
ag79
aa(lp123
F-6.3679
aF8.0102
aF0.4247
aF-3.2207
ag79
aa(lp124
F-4.1429
aF2.7749
aF0.68261
aF-0.71984
ag79
aa(lp125
F-2.6864
aF-0.097265
aF0.61663
aF0.061192
ag79
aa(lp126
F-1.0555
aF0.79459
aF-1.6968
aF-0.46768
ag79
aa(lp127
F-0.29858
aF2.4769
aF-2.9512
aF-0.66165
ag79
aa(lp128
F-0.49948
aF1.7734
aF-2.2469
aF-0.68104
ag79
aa(lp129
F-1.9881
aF0.99945
aF-0.28562
aF-0.70044
ag79
aa(lp130
F-1.9389
aF1.5706
aF0.045979
aF-1.122
ag79
aa(lp131
F-1.4375
aF-1.8624
aF4.026
aF0.55127
ag79
aa(lp132
F-3.1875
aF-7.5756
aF11.8678
aF-0.57889
ag79
aa(lp133
F-4.6765
aF-5.6636
aF10.969
aF-0.33449
ag79
aa(lp134
F-2.0285
aF3.8468
aF-0.63435
aF-1.175
ag79
aa(lp135
F0.26637
aF0.73252
aF-0.67891
aF0.03533
ag79
aa(lp136
F-1.7589
aF-6.4624
aF8.4773
aF0.31981
ag79
aa(lp137
F-3.5985
aF-13.6593
aF17.6052
aF-2.4927
ag79
aa(lp138
F-3.3582
aF-7.2404
aF11.4419
aF-0.57113
ag79
aa(lp139
F-2.3629
aF-0.10554
aF1.9336
aF1.1358
ag79
aa.