(lp0
(lp1
F3.6216
aF8.6661
aF-2.8073
aF-0.44699
aS'0'
p2
aa(lp3
F4.5459
aF8.1674
aF-2.4586
aF-1.4621
ag2
aa(lp4
F3.866
aF-2.6383
aF1.9242
aF0.10645
ag2
aa(lp5
F3.4566
aF9.5228
aF-4.0112
aF-3.5944
ag2
aa(lp6
F0.32924
aF-4.4552
aF4.5718
aF-0.9888
ag2
aa(lp7
F4.3684
aF9.6718
aF-3.9606
aF-3.1625
ag2
aa(lp8
F3.5912
aF3.0129
aF0.72888
aF0.56421
ag2
aa(lp9
F2.0922
aF-6.81
aF8.4636
aF-0.60216
ag2
aa(lp10
F3.2032
aF5.7588
aF-0.75345
aF-0.61251
ag2
aa(lp11
F1.5356
aF9.1772
aF-2.2718
aF-0.73535
ag2
aa(lp12
F1.2247
aF8.7779
aF-2.2135
aF-0.80647
ag2
aa(lp13
F3.9899
aF-2.7066
aF2.3946
aF0.86291
ag2
aa(lp14
F1.8993
aF7.6625
aF0.15394
aF-3.1108
ag2
aa(lp15
F-1.5768
aF10.843
aF2.5462
aF-2.9362
ag2
aa(lp16
F3.404
aF8.7261
aF-2.9915
aF-0.57242
ag2
aa(lp17
F4.6765
aF-3.3895
aF3.4896
aF1.4771
ag2
aa(lp18
F2.6719
aF3.0646
aF0.37158
aF0.58619
ag2
aa(lp19
F0.80355
aF2.8473
aF4.3439
aF0.6017
ag2
aa(lp20
F1.4479
aF-4.8794
aF8.3428
aF-2.1086
ag2
aa(lp21
F5.2423
aF11.0272
aF-4.353
aF-4.1013
ag2
aa(lp22
F5.7867
aF7.8902
aF-2.6196
aF-0.48708
ag2
aa(lp23
F0.3292
aF-4.4552
aF4.5718
aF-0.9888
ag2
aa(lp24
F3.9362
aF10.1622
aF-3.8235
aF-4.0172
ag2
aa(lp25
F0.93584
aF8.8855
aF-1.6831
aF-1.6599
ag2
aa(lp26
F4.4338
aF9.887
aF-4.6795
aF-3.7483
ag2
aa(lp27
F0.7057
aF-5.4981
aF8.3368
aF-2.8715
ag2
aa(lp28
F1.1432
aF-3.7413
aF5.5777
aF-0.63578
ag2
aa(lp29
F-0.38214
aF8.3909
aF2.1624
aF-3.7405
ag2
aa(lp30
F6.5633
aF9.8187
aF-4.4113
aF-3.2258
ag2
aa(lp31
F4.8906
aF-3.3584
aF3.4202
aF1.0905
ag2
aa(lp32
F-0.24811
aF-0.17797
aF4.9068
aF0.15429
ag2
aa(lp33
F1.4884
aF3.6274
aF3.308
aF0.48921
ag2
aa(lp34
F4.2969
aF7.617
aF-2.3874
aF-0.96164
ag2
aa(lp35
F-0.96511
aF9.4111
aF1.7305
aF-4.8629
ag2
aa(lp36
F-1.6162
aF0.80908
aF8.1628
aF0.60817
ag2
aa(lp37
F2.4391
aF6.4417
aF-0.80743
aF-0.69139
ag2
aa(lp38
F2.6881
aF6.0195
aF-0.46641
aF-0.69268
ag2
aa(lp39
F3.6289
aF0.81322
aF1.6277
aF0.77627
ag2
aa(lp40
F4.5679
aF3.1929
aF-2.1055
aF0.29653
ag2
aa(lp41
F3.4805
aF9.7008
aF-3.7541
aF-3.4379
ag2
aa(lp42
F4.1711
aF8.722
aF-3.0224
aF-0.59699
ag2
aa(lp43
F-0.2062
aF9.2207
aF-3.7044
aF-6.8103
ag2
aa(lp44
F-0.0068919
aF9.2931
aF-0.41243
aF-1.9638
ag2
aa(lp45
F0.96441
aF5.8395
aF2.3235
aF0.066365
ag2
aa(lp46
F2.8561
aF6.9176
aF-0.79372
aF0.48403
ag2
aa(lp47
F-0.7869
aF9.5663
aF-3.7867
aF-7.5034
ag2
aa(lp48
F2.0843
aF6.6258
aF0.48382
aF-2.2134
ag2
aa(lp49
F-0.7869
aF9.5663
aF-3.7867
aF-7.5034
ag2
aa(lp50
F3.9102
aF6.065
aF-2.4534
aF-0.68234
ag2
aa(lp51
F1.6349
aF3.286
aF2.8753
aF0.087054
ag2
aa(lp52
F4.3239
aF-4.8835
aF3.4356
aF-0.5776
ag2
aa(lp53
F5.262
aF3.9834
aF-1.5572
aF1.0103
ag2
aa(lp54
F3.1452
aF5.825
aF-0.51439
aF-1.4944
ag2
aa(lp55
F2.549
aF6.1499
aF-1.1605
aF-1.2371
ag2
aa(lp56
F4.9264
aF5.496
aF-2.4774
aF-0.50648
ag2
aa(lp57
F4.8265
aF0.80287
aF1.6371
aF1.1875
ag2
aa(lp58
F2.5635
aF6.7769
aF-0.61979
aF0.38576
ag2
aa(lp59
F5.807
aF5.0097
aF-2.2384
aF0.43878
ag2
aa(lp60
F3.1377
aF-4.1096
aF4.5701
aF0.98963
ag2
aa(lp61
F-0.78289
aF11.3603
aF-0.37644
aF-7.0495
ag2
aa(lp62
F2.888
aF0.44696
aF4.5907
aF-0.24398
ag2
aa(lp63
F0.49665
aF5.527
aF1.7785
aF-0.47156
ag2
aa(lp64
F4.2586
aF11.2962
aF-4.0943
aF-4.3457
ag2
aa(lp65
F1.7939
aF-1.1174
aF1.5454
aF-0.26079
ag2
aa(lp66
F5.4021
aF3.1039
aF-1.1536
aF1.5651
ag2
aa(lp67
F2.5367
aF2.599
aF2.0938
aF0.20085
ag2
aa(lp68
F4.6054
aF-4.0765
aF2.7587
aF0.31981
ag2
aa(lp69
F2.4235
aF9.5332
aF-3.0789
aF-2.7746
ag2
aa(lp70
F1.0009
aF7.7846
aF-0.28219
aF-2.6608
ag2
aa(lp71
F0.12326
aF8.9848
aF-0.9351
aF-2.4332
ag2
aa(lp72
F3.9529
aF-2.3548
aF2.3792
aF0.48274
ag2
aa(lp73
F4.1373
aF0.49248
aF1.093
aF1.8276
ag2
aa(lp74
F4.7181
aF10.0153
aF-3.9486
aF-3.8582
ag2
aa(lp75
F4.1654
aF-3.4495
aF3.643
aF1.0879
ag2
aa(lp76
F4.4069
aF10.9072
aF-4.5775
aF-4.4271
ag2
aa(lp77
F2.3066
aF3.5364
aF0.57551
aF0.41938
ag2
aa(lp78
F3.7935
aF7.9853
aF-2.5477
aF-1.872
ag2
aa(lp79
F-1.3971
aF3.3191
aF-1.3927
aF-1.9948
aS'1'
p80
aa(lp81
F0.39012
aF-0.14279
aF-0.031994
aF0.35084
ag80
aa(lp82
F-1.6677
aF-7.1535
aF7.8929
aF0.96765
ag80
aa(lp83
F-3.8483
aF-12.8047
aF15.6824
aF-1.281
ag80
aa(lp84
F-3.5681
aF-8.213
aF10.083
aF0.96765
ag80
aa(lp85
F-2.2804
aF-0.30626
aF1.3347
aF1.3763
ag80
aa(lp86
F-1.7582
aF2.7397
aF-2.5323
aF-2.234
ag80
aa(lp87
F-0.89409
aF3.1991
aF-1.8219
aF-2.9452
ag80
aa(lp88
F0.3434
aF0.12415
aF-0.28733
aF0.14654
ag80
aa(lp89
F-0.9854
aF-6.661
aF5.8245
aF0.5461
ag80
aa(lp90
F-2.4115
aF-9.1359
aF9.3444
aF-0.65259
ag80
aa(lp91
F-1.5252
aF-6.2534
aF5.3524
aF0.59912
ag80
aa(lp92
F-0.61442
aF-0.091058
aF-0.31818
aF0.50214
ag80
aa(lp93
F-0.36506
aF2.8928
aF-3.6461
aF-3.0603
ag80
aa(lp94
F-5.9034
aF6.5679
aF0.67661
aF-6.6797
ag80
aa(lp95
F-1.8215
aF2.7521
aF-0.72261
aF-2.353
ag80
aa(lp96
F-0.77461
aF-1.8768
aF2.4023
aF1.1319
ag80
aa(lp97
F-1.8187
aF-9.0366
aF9.0162
aF-0.12243
ag80
aa(lp98
F-3.5801
aF-12.9309
aF13.1779
aF-2.5677
ag80
aa(lp99
F-1.8219
aF-6.8824
aF5.4681
aF0.057313
ag80
aa(lp100
F-0.3481
aF-0.38696
aF-0.47841
aF0.62627
ag80
aa(lp101
F0.47368
aF3.3605
aF-4.5064
aF-4.0431
ag80
aa(lp102
F-3.4083
aF4.8587
aF-0.76888
aF-4.8668
ag80
aa(lp103
F-1.6662
aF-0.30005
aF1.4238
aF0.024986
ag80
aa(lp104
F-2.0962
aF-7.1059
aF6.6188
aF-0.33708
ag80
aa(lp105
F-2.6685
aF-10.4519
aF9.1139
aF-1.7323
ag80
aa(lp106
F-0.47465
aF-4.3496
aF1.9901
aF0.7517
ag80
aa(lp107
F1.0552
aF1.1857
aF-2.6411
aF0.11033
ag80
aa(lp108
F1.1644
aF3.8095
aF-4.9408
aF-4.0909
ag80
aa(lp109
F-4.4779
aF7.3708
aF-0.31218
aF-6.7754
ag80
aa(lp110
F-2.7338
aF0.45523
aF2.4391
aF0.21766
ag80
aa(lp111
F-2.286
aF-5.4484
aF5.8039
aF0.88231
ag80
aa(lp112
F-1.6244
aF-6.3444
aF4.6575
aF0.16981
ag80
aa(lp113
F0.50813
aF0.47799
aF-1.9804
aF0.57714
ag80
aa(lp114
F1.6408
aF4.2503
aF-4.9023
aF-2.6621
ag80
aa(lp115
F0.81583
aF4.84
aF-5.2613
aF-6.0823
ag80
aa(lp116
F-5.4901
aF9.1048
aF-0.38758
aF-5.9763
ag80
aa(lp117
F-3.2238
aF2.7935
aF0.32274
aF-0.86078
ag80
aa(lp118
F-2.0631
aF-1.5147
aF1.219
aF0.44524
ag80
aa(lp119
F-0.91318
aF-2.0113
aF-0.19565
aF0.066365
ag80
aa(lp120
F0.6005
aF1.9327
aF-3.2888
aF-0.32415
ag80
aa(lp121
F0.91315
aF3.3377
aF-4.0557
aF-1.6741
ag80
aa(lp122
F-0.28015
aF3.0729
aF-3.3857
aF-2.9155
ag80
aa(lp123
F-3.6085
aF3.3253
aF-0.51954
aF-3.5737
ag80
aa(lp124
F-6.2003
aF8.6806
aF0.0091344
aF-3.703
ag80
aa(lp125
F-4.2932
aF3.3419
aF0.77258
aF-0.99785
ag80
aa(lp126
F-3.0265
aF-0.062088
aF0.68604
aF-0.055186
ag80
aa(lp127
F-1.7015
aF-0.010356
aF-0.99337
aF-0.53104
ag80
aa(lp128
F-0.64326
aF2.4748
aF-2.9452
aF-1.0276
ag80
aa(lp129
F-0.86339
aF1.9348
aF-2.3729
aF-1.0897
ag80
aa(lp130
F-2.0659
aF1.0512
aF-0.46298
aF-1.0974
ag80
aa(lp131
F-2.1333
aF1.5685
aF-0.084261
aF-1.7453
ag80
aa(lp132
F-1.2568
aF-1.4733
aF2.8718
aF0.44653
ag80
aa(lp133
F-3.1128
aF-6.841
aF10.7402
aF-1.0172
ag80
aa(lp134
F-4.8554
aF-5.9037
aF10.9818
aF-0.82199
ag80
aa(lp135
F-2.588
aF3.8654
aF-0.3336
aF-1.2797
ag80
aa(lp136
F0.24394
aF1.4733
aF-1.4192
aF-0.58535
ag80
aa(lp137
F-1.5322
aF-5.0966
aF6.6779
aF0.17498
ag80
aa(lp138
F-4.0025
aF-13.4979
aF17.6772
aF-3.3202
ag80
aa(lp139
F-4.0173
aF-8.3123
aF12.4547
aF-1.4375
ag80
aa(lp140
F-3.0731
aF-0.53181
aF2.3877
aF0.77627
ag80
aa.