(lp0
(lp1
F0.27451
aF9.2186
aF-3.2863
aF-4.8448
aS'0'
p2
aa(lp3
F1.6032
aF-4.7863
aF8.5193
aF-2.1203
ag2
aa(lp4
F4.616
aF10.1788
aF-4.2185
aF-4.4245
ag2
aa(lp5
F4.2478
aF7.6956
aF-2.7696
aF-1.0767
ag2
aa(lp6
F4.0215
aF-2.7004
aF2.4957
aF0.36636
ag2
aa(lp7
F5.0297
aF-4.9704
aF3.5025
aF-0.23751
ag2
aa(lp8
F1.5902
aF2.2948
aF3.2403
aF0.18404
ag2
aa(lp9
F2.1274
aF5.1939
aF-1.7971
aF-1.1763
ag2
aa(lp10
F1.1811
aF8.3847
aF-2.0567
aF-0.90345
ag2
aa(lp11
F0.3292
aF-4.4552
aF4.5718
aF-0.9888
ag2
aa(lp12
F5.7353
aF5.2808
aF-2.2598
aF0.075416
ag2
aa(lp13
F2.6718
aF5.6574
aF0.72974
aF-1.4892
ag2
aa(lp14
F1.5799
aF-4.7076
aF7.9186
aF-1.5487
ag2
aa(lp15
F2.9499
aF2.2493
aF1.3458
aF-0.037083
ag2
aa(lp16
F0.5195
aF-3.2633
aF3.0895
aF-0.9849
ag2
aa(lp17
F3.7352
aF9.5911
aF-3.9032
aF-3.3487
ag2
aa(lp18
F-1.7344
aF2.0175
aF7.7618
aF0.93532
ag2
aa(lp19
F3.884
aF10.0277
aF-3.9298
aF-4.0819
ag2
aa(lp20
F3.5257
aF1.2829
aF1.9276
aF1.7991
ag2
aa(lp21
F4.4549
aF2.4976
aF1.0313
aF0.96894
ag2
aa(lp22
F-0.16108
aF-6.4624
aF8.3573
aF-1.5216
ag2
aa(lp23
F4.2164
aF9.4607
aF-4.9288
aF-5.2366
ag2
aa(lp24
F3.5152
aF6.8224
aF-0.67377
aF-0.46898
ag2
aa(lp25
F1.6988
aF2.9094
aF2.9044
aF0.11033
ag2
aa(lp26
F1.0607
aF2.4542
aF2.5188
aF-0.17027
ag2
aa(lp27
F2.0421
aF1.2436
aF4.2171
aF0.90429
ag2
aa(lp28
F3.5594
aF1.3078
aF1.291
aF1.6556
ag2
aa(lp29
F3.0009
aF5.8126
aF-2.2306
aF-0.66553
ag2
aa(lp30
F3.9294
aF1.4112
aF1.8076
aF0.89782
ag2
aa(lp31
F3.4667
aF-4.0724
aF4.2882
aF1.5418
ag2
aa(lp32
F3.966
aF3.9213
aF0.70574
aF0.33662
ag2
aa(lp33
F1.0191
aF2.33
aF4.9334
aF0.82929
ag2
aa(lp34
F0.96414
aF5.616
aF2.2138
aF-0.12501
ag2
aa(lp35
F1.8205
aF6.7562
aF0.0099913
aF0.39481
ag2
aa(lp36
F4.9923
aF7.8653
aF-2.3515
aF-0.71984
ag2
aa(lp37
F-1.1804
aF11.5093
aF0.15565
aF-6.8194
ag2
aa(lp38
F4.0329
aF0.23175
aF0.89082
aF1.1823
ag2
aa(lp39
F0.66018
aF10.3878
aF-1.4029
aF-3.9151
ag2
aa(lp40
F3.5982
aF7.1307
aF-1.3035
aF0.21248
ag2
aa(lp41
F-1.8584
aF7.886
aF-1.6643
aF-1.8384
ag2
aa(lp42
F4.0972
aF0.46972
aF1.6671
aF0.91593
ag2
aa(lp43
F3.3299
aF0.91254
aF1.5806
aF0.39352
ag2
aa(lp44
F3.1088
aF3.1122
aF0.80857
aF0.4336
ag2
aa(lp45
F-4.2859
aF8.5234
aF3.1392
aF-0.91639
ag2
aa(lp46
F-1.2528
aF10.2036
aF2.1787
aF-5.6038
ag2
aa(lp47
F0.5195
aF-3.2633
aF3.0895
aF-0.9849
ag2
aa(lp48
F0.3292
aF-4.4552
aF4.5718
aF-0.9888
ag2
aa(lp49
F0.88872
aF5.3449
aF2.045
aF-0.19355
ag2
aa(lp50
F3.5458
aF9.3718
aF-4.0351
aF-3.9564
ag2
aa(lp51
F-0.21661
aF8.0329
aF1.8848
aF-3.8853
ag2
aa(lp52
F2.7206
aF9.0821
aF-3.3111
aF-0.96811
ag2
aa(lp53
F3.2051
aF8.6889
aF-2.9033
aF-0.7819
ag2
aa(lp54
F2.6917
aF10.8161
aF-3.3
aF-4.2888
ag2
aa(lp55
F-2.3242
aF11.5176
aF1.8231
aF-5.375
ag2
aa(lp56
F2.7161
aF-4.2006
aF4.1914
aF0.16981
ag2
aa(lp57
F3.3848
aF3.2674
aF0.90967
aF0.25128
ag2
aa(lp58
F1.7452
aF4.8028
aF2.0878
aF0.62627
ag2
aa(lp59
F2.805
aF0.57732
aF1.3424
aF1.2133
ag2
aa(lp60
F5.7823
aF5.5788
aF-2.4089
aF-0.056479
ag2
aa(lp61
F3.8999
aF1.734
aF1.6011
aF0.96765
ag2
aa(lp62
F3.5189
aF6.332
aF-1.7791
aF-0.020273
ag2
aa(lp63
F3.2294
aF7.7391
aF-0.37816
aF-2.5405
ag2
aa(lp64
F3.4985
aF3.1639
aF0.22677
aF-0.1651
ag2
aa(lp65
F2.1948
aF1.3781
aF1.1582
aF0.85774
ag2
aa(lp66
F2.2526
aF9.9636
aF-3.1749
aF-2.9944
ag2
aa(lp67
F4.1529
aF-3.9358
aF2.8633
aF-0.017686
ag2
aa(lp68
F0.74307
aF11.17
aF-1.3824
aF-4.0728
ag2
aa(lp69
F1.9105
aF8.871
aF-2.3386
aF-0.75604
ag2
aa(lp70
F-1.5055
aF0.070346
aF6.8681
aF-0.50648
ag2
aa(lp71
F0.58836
aF10.7727
aF-1.3884
aF-4.3276
ag2
aa(lp72
F3.2303
aF7.8384
aF-3.5348
aF-1.2151
ag2
aa(lp73
F-1.9922
aF11.6542
aF2.6542
aF-5.2107
ag2
aa(lp74
F2.8523
aF9.0096
aF-3.761
aF-3.3371
ag2
aa(lp75
F4.2772
aF2.4955
aF0.48554
aF0.36119
ag2
aa(lp76
F1.5099
aF0.039307
aF6.2332
aF-0.30346
ag2
aa(lp77
F5.4188
aF10.1457
aF-4.084
aF-3.6991
ag2
aa(lp78
F-0.98193
aF2.7956
aF-1.2341
aF-1.5668
aS'1'
p79
aa(lp80
F-0.17296
aF-1.1816
aF1.3818
aF0.7336
ag79
aa(lp81
F-1.9409
aF-8.6848
aF9.155
aF0.94049
ag79
aa(lp82
F-3.5713
aF-12.4922
aF14.8881
aF-0.47027
ag79
aa(lp83
F-2.9915
aF-6.6258
aF8.6521
aF1.8198
ag79
aa(lp84
F-1.8483
aF0.31038
aF0.77344
aF1.4189
ag79
aa(lp85
F-2.2677
aF3.2964
aF-2.2563
aF-2.4642
ag79
aa(lp86
F-0.50816
aF2.868
aF-1.8108
aF-2.2612
ag79
aa(lp87
F0.14329
aF-1.0885
aF1.0039
aF0.48791
ag79
aa(lp88
F-0.90784
aF-7.9026
aF6.7807
aF0.34179
ag79
aa(lp89
F-2.0042
aF-9.3676
aF9.3333
aF-0.10303
ag79
aa(lp90
F-0.93587
aF-5.1008
aF4.5367
aF1.3866
ag79
aa(lp91
F-0.40804
aF0.54214
aF-0.52725
aF0.6586
ag79
aa(lp92
F-0.8172
aF3.3812
aF-3.6684
aF-3.456
ag79
aa(lp93
F-4.8392
aF6.6755
aF-0.24278
aF-6.5775
ag79
aa(lp94
F-1.2792
aF2.1376
aF-0.47584
aF-1.3974
ag79
aa(lp95
F-0.66008
aF-3.226
aF3.8058
aF1.1836
ag79
aa(lp96
F-1.7713
aF-10.7665
aF10.2184
aF-1.0043
ag79
aa(lp97
F-3.0061
aF-12.2377
aF11.9552
aF-2.1603
ag79
aa(lp98
F-1.1022
aF-5.8395
aF4.5641
aF0.68705
ag79
aa(lp99
F0.11806
aF0.39108
aF-0.98223
aF0.42843
ag79
aa(lp100
F0.11686
aF3.735
aF-4.4379
aF-4.3741
ag79
aa(lp101
F-2.7264
aF3.9213
aF-0.49212
aF-3.6371
ag79
aa(lp102
F-1.2369
aF-1.6906
aF2.518
aF0.51636
ag79
aa(lp103
F-1.8439
aF-8.6475
aF7.6796
aF-0.66682
ag79
aa(lp104
F-1.8554
aF-9.6035
aF7.7764
aF-0.97716
ag79
aa(lp105
F0.16358
aF-3.3584
aF1.3749
aF1.3569
ag79
aa(lp106
F1.5077
aF1.9596
aF-3.0584
aF-0.12243
ag79
aa(lp107
F0.67886
aF4.1199
aF-4.569
aF-4.1414
ag79
aa(lp108
F-3.9934
aF5.8333
aF0.54723
aF-4.9379
ag79
aa(lp109
F-2.3898
aF-0.78427
aF3.0141
aF0.76205
ag79
aa(lp110
F-1.7976
aF-6.7686
aF6.6753
aF0.89912
ag79
aa(lp111
F-0.70867
aF-5.5602
aF4.0483
aF0.903
ag79
aa(lp112
F1.0194
aF1.1029
aF-2.3
aF0.59395
ag79
aa(lp113
F1.7875
aF4.78
aF-5.1362
aF-3.2362
ag79
aa(lp114
F0.27331
aF4.8773
aF-4.9194
aF-5.8198
ag79
aa(lp115
F-5.1661
aF8.0433
aF0.044265
aF-4.4983
ag79
aa(lp116
F-2.7028
aF1.6327
aF0.83598
aF-0.091393
ag79
aa(lp117
F-1.4904
aF-2.2183
aF1.6054
aF0.89394
ag79
aa(lp118
F-0.014902
aF-1.0243
aF-0.94024
aF0.64955
ag79
aa(lp119
F0.88992
aF2.2638
aF-3.1046
aF-0.11855
ag79
aa(lp120
F1.0637
aF3.6957
aF-4.1594
aF-1.9379
ag79
aa(lp121
F-0.8471
aF3.1329
aF-3.0112
aF-2.9388
ag79
aa(lp122
F-3.9594
aF4.0289
aF-0.35845
aF-3.8957
ag79
aa(lp123
F-5.8818
aF7.6584
aF0.5558
aF-2.9155
ag79
aa(lp124
F-3.7747
aF2.5162
aF0.83341
aF-0.30993
ag79
aa(lp125
F-2.4198
aF-0.24418
aF0.70146
aF0.41809
ag79
aa(lp126
F-0.83535
aF0.80494
aF-1.6411
aF-0.19225
ag79
aa(lp127
F-0.30432
aF2.6528
aF-2.7756
aF-0.65647
ag79
aa(lp128
F-0.60254
aF1.7237
aF-2.1501
aF-0.77027
ag79
aa(lp129
F-2.1059
aF1.1815
aF-0.53324
aF-0.82716
ag79
aa(lp130
F-2.0441
aF1.2271
aF0.18564
aF-1.091
ag79
aa(lp131
F-1.5621
aF-2.2121
aF4.2591
aF0.27972
ag79
aa(lp132
F-3.2305
aF-7.2135
aF11.6433
aF-0.94613
ag79
aa(lp133
F-4.8426
aF-4.9932
aF10.4052
aF-0.53104
ag79
aa(lp134
F-2.3147
aF3.6668
aF-0.6969
aF-1.2474
ag79
aa(lp135
F-0.11716
aF0.60422
aF-0.38587
aF-0.059065
ag79
aa(lp136
F-2.0066
aF-6.719
aF9.0162
aF0.099985
ag79
aa(lp137
F-3.6961
aF-13.6779
aF17.5795
aF-2.6181
ag79
aa(lp138
F-3.6012
aF-6.5389
aF10.5234
aF-0.48967
ag79
aa(lp139
F-2.6286
aF0.18002
aF1.7956
aF0.97282
ag79
aa.