(lp0
(lp1
F4.8278
aF7.7598
aF-2.4491
aF-1.2216
aS'0'
p2
aa(lp3
F1.9476
aF-4.7738
aF8.527
aF-1.8668
ag2
aa(lp4
F2.7659
aF0.66216
aF4.1494
aF-0.28406
ag2
aa(lp5
F-0.10648
aF-0.76771
aF7.7575
aF0.64179
ag2
aa(lp6
F0.72252
aF-0.053811
aF5.6703
aF-1.3509
ag2
aa(lp7
F4.2475
aF1.4816
aF-0.48355
aF0.95343
ag2
aa(lp8
F3.9772
aF0.33521
aF2.2566
aF2.1625
ag2
aa(lp9
F3.6667
aF4.302
aF0.55923
aF0.33791
ag2
aa(lp10
F2.8232
aF10.8513
aF-3.1466
aF-3.9784
ag2
aa(lp11
F-1.4217
aF11.6542
aF-0.057699
aF-7.1025
ag2
aa(lp12
F4.2458
aF1.1981
aF0.66633
aF0.94696
ag2
aa(lp13
F4.1038
aF-4.8069
aF3.3491
aF-0.49225
ag2
aa(lp14
F1.4507
aF8.7903
aF-2.2324
aF-0.65259
ag2
aa(lp15
F3.4647
aF-3.9172
aF3.9746
aF0.36119
ag2
aa(lp16
F1.8533
aF6.1458
aF1.0176
aF-2.0401
ag2
aa(lp17
F3.5288
aF0.71596
aF1.9507
aF1.9375
ag2
aa(lp18
F3.9719
aF1.0367
aF0.75973
aF1.0013
ag2
aa(lp19
F3.534
aF9.3614
aF-3.6316
aF-1.2461
ag2
aa(lp20
F3.6894
aF9.887
aF-4.0788
aF-4.3664
ag2
aa(lp21
F3.0672
aF-4.4117
aF3.8238
aF-0.81682
ag2
aa(lp22
F2.6463
aF-4.8152
aF6.3549
aF0.003003
ag2
aa(lp23
F2.2893
aF3.733
aF0.6312
aF-0.39786
ag2
aa(lp24
F1.5673
aF7.9274
aF-0.056842
aF-2.1694
ag2
aa(lp25
F4.0405
aF0.51524
aF1.0279
aF1.106
ag2
aa(lp26
F4.3846
aF-4.8794
aF3.3662
aF-0.029324
ag2
aa(lp27
F2.0165
aF-0.25246
aF5.1707
aF1.0763
ag2
aa(lp28
F4.0446
aF11.1741
aF-4.3582
aF-4.7401
ag2
aa(lp29
F-0.33729
aF-0.64976
aF7.6659
aF0.72326
ag2
aa(lp30
F-2.4604
aF12.7302
aF0.91738
aF-7.6418
ag2
aa(lp31
F4.1195
aF10.9258
aF-3.8929
aF-4.1802
ag2
aa(lp32
F2.0193
aF0.82356
aF4.6369
aF1.4202
ag2
aa(lp33
F1.5701
aF7.9129
aF0.29018
aF-2.1953
ag2
aa(lp34
F2.6415
aF7.586
aF-0.28562
aF-1.6677
ag2
aa(lp35
F5.0214
aF8.0764
aF-3.0515
aF-1.7155
ag2
aa(lp36
F4.3435
aF3.3295
aF0.83598
aF0.64955
ag2
aa(lp37
F1.8238
aF-6.7748
aF8.3873
aF-0.54139
ag2
aa(lp38
F3.9382
aF0.9291
aF0.78543
aF0.6767
ag2
aa(lp39
F2.2517
aF-5.1422
aF4.2916
aF-1.2487
ag2
aa(lp40
F5.504
aF10.3671
aF-4.413
aF-4.0211
ag2
aa(lp41
F2.8521
aF9.171
aF-3.6461
aF-1.2047
ag2
aa(lp42
F1.1676
aF9.1566
aF-2.0867
aF-0.80647
ag2
aa(lp43
F2.6104
aF8.0081
aF-0.23592
aF-1.7608
ag2
aa(lp44
F0.32444
aF10.067
aF-1.1982
aF-4.1284
ag2
aa(lp45
F3.8962
aF-4.7904
aF3.3954
aF-0.53751
ag2
aa(lp46
F2.1752
aF-0.8091
aF5.1022
aF-0.67975
ag2
aa(lp47
F1.1588
aF8.9331
aF-2.0807
aF-1.1272
ag2
aa(lp48
F4.7072
aF8.2957
aF-2.5605
aF-1.4905
ag2
aa(lp49
F-1.9667
aF11.8052
aF-0.40472
aF-7.8719
ag2
aa(lp50
F4.0552
aF0.40143
aF1.4563
aF0.65343
ag2
aa(lp51
F2.3678
aF-6.839
aF8.4207
aF-0.44829
ag2
aa(lp52
F0.33565
aF6.8369
aF0.69718
aF-0.55691
ag2
aa(lp53
F4.3398
aF-5.3036
aF3.8803
aF-0.70432
ag2
aa(lp54
F1.5456
aF8.5482
aF0.4187
aF-2.1784
ag2
aa(lp55
F1.4276
aF8.3847
aF-2.0995
aF-1.9677
ag2
aa(lp56
F-0.27802
aF8.1881
aF-3.1338
aF-2.5276
ag2
aa(lp57
F0.93611
aF8.6413
aF-1.6351
aF-1.3043
ag2
aa(lp58
F4.6352
aF-3.0087
aF2.6773
aF1.212
ag2
aa(lp59
F1.5268
aF-5.5871
aF8.6564
aF-1.722
ag2
aa(lp60
F0.95626
aF2.4728
aF4.4578
aF0.21636
ag2
aa(lp61
F-2.7914
aF1.7734
aF6.7756
aF-0.39915
ag2
aa(lp62
F5.2032
aF3.5116
aF-1.2538
aF1.0129
ag2
aa(lp63
F3.1836
aF7.2321
aF-1.0713
aF-2.5909
ag2
aa(lp64
F0.65497
aF5.1815
aF1.0673
aF-0.42113
ag2
aa(lp65
F5.6084
aF10.3009
aF-4.8003
aF-4.3534
ag2
aa(lp66
F1.105
aF7.4432
aF0.41099
aF-3.0332
ag2
aa(lp67
F3.9292
aF-2.9156
aF2.2129
aF0.30817
ag2
aa(lp68
F1.1558
aF6.4003
aF1.5506
aF0.6961
ag2
aa(lp69
F2.5581
aF2.6218
aF1.8513
aF0.40257
ag2
aa(lp70
F2.7831
aF10.9796
aF-3.557
aF-4.4039
ag2
aa(lp71
F3.7635
aF2.7811
aF0.66119
aF0.34179
ag2
aa(lp72
F-2.6479
aF10.1374
aF-1.331
aF-5.4707
ag2
aa(lp73
F1.0652
aF8.3682
aF-1.4004
aF-1.6509
ag2
aa(lp74
F-1.4275
aF11.8797
aF0.41613
aF-6.9978
ag2
aa(lp75
F5.7456
aF10.1808
aF-4.7857
aF-4.3366
ag2
aa(lp76
F5.086
aF3.2798
aF-1.2701
aF1.1189
ag2
aa(lp77
F3.4092
aF5.4049
aF-2.5228
aF-0.89958
ag2
aa(lp78
F-2.4941
aF3.5447
aF-1.3721
aF-2.8483
aS'1'
p79
aa(lp80
F-0.83121
aF0.039307
aF0.05369
aF-0.23105
ag79
aa(lp81
F-2.5665
aF-6.8824
aF7.5416
aF0.70774
ag79
aa(lp82
F-4.4018
aF-12.9371
aF15.6559
aF-1.6806
ag79
aa(lp83
F-3.7573
aF-8.2916
aF10.3032
aF0.38059
ag79
aa(lp84
F-2.4725
aF-0.40145
aF1.4855
aF1.1189
ag79
aa(lp85
F-1.9725
aF2.8825
aF-2.3086
aF-2.3724
ag79
aa(lp86
F-2.0149
aF3.6874
aF-1.9385
aF-3.8918
ag79
aa(lp87
F-0.82053
aF0.65181
aF-0.48869
aF-0.52716
ag79
aa(lp88
F-1.7886
aF-6.3486
aF5.6154
aF0.42584
ag79
aa(lp89
F-2.9138
aF-9.4711
aF9.7668
aF-0.60216
ag79
aa(lp90
F-1.8343
aF-6.5907
aF5.6429
aF0.54998
ag79
aa(lp91
F-0.8734
aF-0.033118
aF-0.20165
aF0.55774
ag79
aa(lp92
F-0.70346
aF2.957
aF-3.5947
aF-3.1457
ag79
aa(lp93
F-6.7387
aF6.9879
aF0.67833
aF-7.5887
ag79
aa(lp94
F-2.7723
aF3.2777
aF-0.9351
aF-3.1457
ag79
aa(lp95
F-1.6641
aF-1.3678
aF1.997
aF0.52283
ag79
aa(lp96
F-2.4349
aF-9.2497
aF8.9922
aF-0.50001
ag79
aa(lp97
F-3.793
aF-12.7095
aF12.7957
aF-2.825
ag79
aa(lp98
F-1.9551
aF-6.9756
aF5.5383
aF-0.12889
ag79
aa(lp99
F-0.69078
aF-0.50077
aF-0.35417
aF0.47498
ag79
aa(lp100
F0.025013
aF3.3998
aF-4.4327
aF-4.2655
ag79
aa(lp101
F-4.3967
aF4.9601
aF-0.64892
aF-5.4719
ag79
aa(lp102
F-2.456
aF-0.24418
aF1.4041
aF-0.45863
ag79
aa(lp103
F-2.62
aF-6.8555
aF6.2169
aF-0.62285
ag79
aa(lp104
F-2.9662
aF-10.3257
aF8.784
aF-2.1138
ag79
aa(lp105
F-0.71494
aF-4.4448
aF2.2241
aF0.49826
ag79
aa(lp106
F0.6005
aF0.99945
aF-2.2126
aF0.097399
ag79
aa(lp107
F0.61652
aF3.8944
aF-4.7275
aF-4.3948
ag79
aa(lp108
F-5.4414
aF7.2363
aF0.10938
aF-7.5642
ag79
aa(lp109
F-3.5798
aF0.45937
aF2.3457
aF-0.45734
ag79
aa(lp110
F-2.7769
aF-5.6967
aF5.9179
aF0.37671
ag79
aa(lp111
F-1.8356
aF-6.7562
aF5.0585
aF-0.55044
ag79
aa(lp112
F0.30081
aF0.17381
aF-1.7542
aF0.48921
ag79
aa(lp113
F1.3403
aF4.1323
aF-4.7018
aF-2.5987
ag79
aa(lp114
F0.26877
aF4.987
aF-5.1508
aF-6.3913
ag79
aa(lp115
F-6.5235
aF9.6014
aF-0.25392
aF-6.9642
ag79
aa(lp116
F-4.0679
aF2.4955
aF0.79571
aF-1.1039
ag79
aa(lp117
F-2.564
aF-1.7051
aF1.5026
aF0.32757
ag79
aa(lp118
F-1.3414
aF-1.9162
aF-0.15538
aF-0.11984
ag79
aa(lp119
F0.23874
aF2.0879
aF-3.3522
aF-0.66553
ag79
aa(lp120
F0.6212
aF3.6771
aF-4.0771
aF-2.0711
ag79
aa(lp121
F-0.77848
aF3.4019
aF-3.4859
aF-3.5569
ag79
aa(lp122
F-4.1244
aF3.7909
aF-0.6532
aF-4.1802
ag79
aa(lp123
F-7.0421
aF9.2
aF0.25933
aF-4.6832
ag79
aa(lp124
F-4.9462
aF3.5716
aF0.82742
aF-1.4957
ag79
aa(lp125
F-3.5359
aF0.30417
aF0.6569
aF-0.2957
ag79
aa(lp126
F-2.0662
aF0.16967
aF-1.0054
aF-0.82975
ag79
aa(lp127
F-0.88728
aF2.808
aF-3.1432
aF-1.2035
ag79
aa(lp128
F-1.0941
aF2.3072
aF-2.5237
aF-1.4453
ag79
aa(lp129
F-2.4458
aF1.6285
aF-0.88541
aF-1.4802
ag79
aa(lp130
F-3.551
aF1.8955
aF0.1865
aF-2.4409
ag79
aa(lp131
F-2.2811
aF-0.85669
aF2.7185
aF0.044382
ag79
aa(lp132
F-3.6053
aF-5.974
aF10.0916
aF-0.82846
ag79
aa(lp133
F-5.0676
aF-5.1877
aF10.4266
aF-0.86725
ag79
aa(lp134
F-3.9204
aF4.0723
aF-0.23678
aF-2.1151
ag79
aa(lp135
F-1.1306
aF1.8458
aF-1.3575
aF-1.3806
ag79
aa(lp136
F-2.4561
aF-4.5566
aF6.4534
aF-0.056479
ag79
aa(lp137
F-4.4775
aF-13.0303
aF17.0834
aF-3.0345
ag79
aa(lp138
F-4.1958
aF-8.1819
aF12.1291
aF-1.6017
ag79
aa(lp139
F-3.38
aF-0.7077
aF2.5325
aF0.71808
ag79
aa.