(lp0
(lp1
S'ADT1_YEAST'
p2
aS'0.58'
p3
aS'0.61'
p4
aS'0.47'
p5
aS'0.13'
p6
aS'0.50'
p7
aS'0.00'
p8
aS'0.48'
p9
aS'0.22'
p10
aS'MIT'
p11
aa(lp12
S'ADT2_YEAST'
p13
aS'0.43'
p14
aS'0.67'
p15
aS'0.48'
p16
aS'0.27'
p17
aS'0.50'
p18
aS'0.00'
p19
aS'0.53'
p20
aS'0.22'
p21
aS'MIT'
p22
aa(lp23
S'ADT3_YEAST'
p24
aS'0.64'
p25
aS'0.62'
p26
aS'0.49'
p27
aS'0.15'
p28
aS'0.50'
p29
aS'0.00'
p30
aS'0.53'
p31
aS'0.22'
p32
aS'MIT'
p33
aa(lp34
S'AAR2_YEAST'
p35
aS'0.58'
p36
aS'0.44'
p37
aS'0.57'
p38
aS'0.13'
p39
aS'0.50'
p40
aS'0.00'
p41
aS'0.54'
p42
aS'0.22'
p43
aS'NUC'
p44
aa(lp45
S'AATM_YEAST'
p46
aS'0.42'
p47
aS'0.44'
p48
aS'0.48'
p49
aS'0.54'
p50
aS'0.50'
p51
aS'0.00'
p52
aS'0.48'
p53
aS'0.22'
p54
aS'MIT'
p55
aa(lp56
S'AATC_YEAST'
p57
aS'0.51'
p58
aS'0.40'
p59
aS'0.56'
p60
aS'0.17'
p61
aS'0.50'
p62
aS'0.50'
p63
aS'0.49'
p64
aS'0.22'
p65
aS'CYT'
p66
aa(lp67
S'ABC1_YEAST'
p68
aS'0.50'
p69
aS'0.54'
p70
aS'0.48'
p71
aS'0.65'
p72
aS'0.50'
p73
aS'0.00'
p74
aS'0.53'
p75
aS'0.22'
p76
aS'MIT'
p77
aa(lp78
S'BAF1_YEAST'
p79
aS'0.48'
p80
aS'0.45'
p81
aS'0.59'
p82
aS'0.20'
p83
aS'0.50'
p84
aS'0.00'
p85
aS'0.58'
p86
aS'0.34'
p87
aS'NUC'
p88
aa(lp89
S'ABF2_YEAST'
p90
aS'0.55'
p91
aS'0.50'
p92
aS'0.66'
p93
aS'0.36'
p94
aS'0.50'
p95
aS'0.00'
p96
aS'0.49'
p97
aS'0.22'
p98
aS'MIT'
p99
aa(lp100
S'ABP1_YEAST'
p101
aS'0.40'
p102
aS'0.39'
p103
aS'0.60'
p104
aS'0.15'
p105
aS'0.50'
p106
aS'0.00'
p107
aS'0.58'
p108
aS'0.30'
p109
aS'CYT'
p110
aa(lp111
S'ACE1_YEAST'
p112
aS'0.43'
p113
aS'0.39'
p114
aS'0.54'
p115
aS'0.21'
p116
aS'0.50'
p117
aS'0.00'
p118
aS'0.53'
p119
aS'0.27'
p120
aS'NUC'
p121
aa(lp122
S'ACE2_YEAST'
p123
aS'0.42'
p124
aS'0.37'
p125
aS'0.59'
p126
aS'0.20'
p127
aS'0.50'
p128
aS'0.00'
p129
aS'0.52'
p130
aS'0.29'
p131
aS'NUC'
p132
aa(lp133
S'ACH1_YEAST'
p134
aS'0.40'
p135
aS'0.42'
p136
aS'0.57'
p137
aS'0.35'
p138
aS'0.50'
p139
aS'0.00'
p140
aS'0.53'
p141
aS'0.25'
p142
aS'CYT'
p143
aa(lp144
S'ACON_YEAST'
p145
aS'0.60'
p146
aS'0.40'
p147
aS'0.52'
p148
aS'0.46'
p149
aS'0.50'
p150
aS'0.00'
p151
aS'0.53'
p152
aS'0.22'
p153
aS'MIT'
p154
aa(lp155
S'ACR1_YEAST'
p156
aS'0.66'
p157
aS'0.55'
p158
aS'0.45'
p159
aS'0.19'
p160
aS'0.50'
p161
aS'0.00'
p162
aS'0.46'
p163
aS'0.22'
p164
aS'MIT'
p165
aa(lp166
S'ACT_YEAST'
p167
aS' 0.46'
p168
aS'0.44'
p169
aS'0.52'
p170
aS'0.11'
p171
aS'0.50'
p172
aS'0.00'
p173
aS'0.50'
p174
aS'0.22'
p175
aS'CYT'
p176
aa(lp177
S'ACT2_YEAST'
p178
aS'0.47'
p179
aS'0.39'
p180
aS'0.50'
p181
aS'0.11'
p182
aS'0.50'
p183
aS'0.00'
p184
aS'0.49'
p185
aS'0.40'
p186
aS'CYT'
p187
aa(lp188
S'ACT3_YEAST'
p189
aS'0.58'
p190
aS'0.47'
p191
aS'0.54'
p192
aS'0.11'
p193
aS'0.50'
p194
aS'0.00'
p195
aS'0.51'
p196
aS'0.26'
p197
aS'NUC'
p198
aa(lp199
S'ACT5_YEAST'
p200
aS'0.50'
p201
aS'0.34'
p202
aS'0.55'
p203
aS'0.21'
p204
aS'0.50'
p205
aS'0.00'
p206
aS'0.49'
p207
aS'0.22'
p208
aS'NUC'
p209
aa(lp210
S'ADA2_YEAST'
p211
aS'0.61'
p212
aS'0.60'
p213
aS'0.55'
p214
aS'0.21'
p215
aS'0.50'
p216
aS'0.00'
p217
aS'0.50'
p218
aS'0.25'
p219
aS'NUC'
p220
aa(lp221
S'C1TC_YEAST'
p222
aS'0.45'
p223
aS'0.40'
p224
aS'0.50'
p225
aS'0.16'
p226
aS'0.50'
p227
aS'0.00'
p228
aS'0.50'
p229
aS'0.22'
p230
aS'CYT'
p231
aa(lp232
S'PUR4_YEAST'
p233
aS'0.43'
p234
aS'0.44'
p235
aS'0.48'
p236
aS'0.22'
p237
aS'0.50'
p238
aS'0.00'
p239
aS'0.51'
p240
aS'0.22'
p241
aS'CYT'
p242
aa(lp243
S'PUR3_YEAST'
p244
aS'0.73'
p245
aS'0.63'
p246
aS'0.42'
p247
aS'0.30'
p248
aS'0.50'
p249
aS'0.00'
p250
aS'0.49'
p251
aS'0.22'
p252
aS'CYT'
p253
aa(lp254
S'ADH1_YEAST'
p255
aS'0.43'
p256
aS'0.53'
p257
aS'0.52'
p258
aS'0.13'
p259
aS'0.50'
p260
aS'0.00'
p261
aS'0.55'
p262
aS'0.22'
p263
aS'CYT'
p264
aa(lp265
S'ADH2_YEAST'
p266
aS'0.46'
p267
aS'0.53'
p268
aS'0.52'
p269
aS'0.15'
p270
aS'0.50'
p271
aS'0.00'
p272
aS'0.58'
p273
aS'0.22'
p274
aS'CYT'
p275
aa(lp276
S'ADH3_YEAST'
p277
aS'0.51'
p278
aS'0.51'
p279
aS'0.52'
p280
aS'0.51'
p281
aS'0.50'
p282
aS'0.00'
p283
aS'0.54'
p284
aS'0.22'
p285
aS'MIT'
p286
aa(lp287
S'ADH4_YEAST'
p288
aS'0.59'
p289
aS'0.45'
p290
aS'0.53'
p291
aS'0.19'
p292
aS'0.50'
p293
aS'0.00'
p294
aS'0.59'
p295
aS'0.27'
p296
aS'CYT'
p297
aa(lp298
S'KAD1_YEAST'
p299
aS'0.57'
p300
aS'0.47'
p301
aS'0.60'
p302
aS'0.18'
p303
aS'0.50'
p304
aS'0.00'
p305
aS'0.51'
p306
aS'0.22'
p307
aS'CYT'
p308
aa(lp309
S'KAD2_YEAST'
p310
aS'0.63'
p311
aS'0.67'
p312
aS'0.57'
p313
aS'0.24'
p314
aS'0.50'
p315
aS'0.00'
p316
aS'0.49'
p317
aS'0.22'
p318
aS'MIT'
p319
aa(lp320
S'ADP1_YEAST'
p321
aS'0.80'
p322
aS'0.88'
p323
aS'0.36'
p324
aS'0.39'
p325
aS'0.50'
p326
aS'0.00'
p327
aS'0.56'
p328
aS'0.33'
p329
aS'ME1'
p330
aa(lp331
S'ADR1_YEAST'
p332
aS'0.53'
p333
aS'0.54'
p334
aS'0.43'
p335
aS'0.10'
p336
aS'0.50'
p337
aS'0.00'
p338
aS'0.57'
p339
aS'0.32'
p340
aS'NUC'
p341
aa(lp342
S'AFG3_YEAST'
p343
aS'0.51'
p344
aS'0.51'
p345
aS'0.43'
p346
aS'0.87'
p347
aS'0.50'
p348
aS'0.00'
p349
aS'0.52'
p350
aS'0.22'
p351
aS'MIT'
p352
aa(lp353
S'AFR1_YEAST'
p354
aS'0.38'
p355
aS'0.61'
p356
aS'0.61'
p357
aS'0.12'
p358
aS'0.50'
p359
aS'0.00'
p360
aS'0.53'
p361
aS'0.47'
p362
aS'CYT'
p363
aa(lp364
S'RCS1_YEAST'
p365
aS'0.33'
p366
aS'0.55'
p367
aS'0.51'
p368
aS'0.43'
p369
aS'0.50'
p370
aS'0.00'
p371
aS'0.51'
p372
aS'0.22'
p373
aS'NUC'
p374
aa(lp375
S'AGA1_YEAST'
p376
aS'0.78'
p377
aS'0.74'
p378
aS'0.42'
p379
aS'0.26'
p380
aS'0.50'
p381
aS'0.00'
p382
aS'0.43'
p383
aS'0.22'
p384
aS'ME1'
p385
aa(lp386
S'AGA2_YEAST'
p387
aS'0.74'
p388
aS'0.67'
p389
aS'0.47'
p390
aS'0.34'
p391
aS'0.50'
p392
aS'0.00'
p393
aS'0.42'
p394
aS'0.22'
p395
aS'EXC'
p396
aa(lp397
S'YMX1_YEAST'
p398
aS'0.72'
p399
aS'0.61'
p400
aS'0.45'
p401
aS'0.30'
p402
aS'0.50'
p403
aS'0.00'
p404
aS'0.54'
p405
aS'0.25'
p406
aS'MIT'
p407
aa(lp408
S'SYAC_YEAST'
p409
aS'0.40'
p410
aS'0.45'
p411
aS'0.57'
p412
aS'0.18'
p413
aS'0.50'
p414
aS'0.00'
p415
aS'0.56'
p416
aS'0.26'
p417
aS'CYT'
p418
aa(lp419
S'DHA1_YEAST'
p420
aS'0.59'
p421
aS'0.53'
p422
aS'0.43'
p423
aS'0.44'
p424
aS'0.50'
p425
aS'0.00'
p426
aS'0.50'
p427
aS'0.22'
p428
aS'MIT'
p429
aa(lp430
S'DHA2_YEAST'
p431
aS'0.57'
p432
aS'0.53'
p433
aS'0.53'
p434
aS'0.34'
p435
aS'0.50'
p436
aS'0.00'
p437
aS'0.53'
p438
aS'0.22'
p439
aS'MIT'
p440
aa(lp441
S'ALG1_YEAST'
p442
aS'0.86'
p443
aS'0.68'
p444
aS'0.39'
p445
aS'0.24'
p446
aS'0.50'
p447
aS'0.00'
p448
aS'0.54'
p449
aS'0.22'
p450
aS'ME2'
p451
aa(lp452
S'ALG5_YEAST'
p453
aS'0.86'
p454
aS'0.74'
p455
aS'0.51'
p456
aS'0.40'
p457
aS'0.50'
p458
aS'0.00'
p459
aS'0.55'
p460
aS'0.22'
p461
aS'ME2'
p462
aa(lp463
S'GPT_YEAST'
p464
aS' 0.79'
p465
aS'0.57'
p466
aS'0.41'
p467
aS'0.28'
p468
aS'0.50'
p469
aS'0.00'
p470
aS'0.59'
p471
aS'0.22'
p472
aS'ME2'
p473
aa(lp474
S'ALG8_YEAST'
p475
aS'0.41'
p476
aS'0.54'
p477
aS'0.39'
p478
aS'0.20'
p479
aS'0.50'
p480
aS'0.00'
p481
aS'0.51'
p482
aS'0.22'
p483
aS'ME3'
p484
aa(lp485
S'MAN1_YEAST'
p486
aS'0.37'
p487
aS'0.36'
p488
aS'0.56'
p489
aS'0.18'
p490
aS'0.50'
p491
aS'0.00'
p492
aS'0.48'
p493
aS'0.26'
p494
aS'VAC'
p495
aa(lp496
S'ANC1_YEAST'
p497
aS'0.53'
p498
aS'0.31'
p499
aS'0.58'
p500
aS'0.39'
p501
aS'0.50'
p502
aS'0.00'
p503
aS'0.47'
p504
aS'0.37'
p505
aS'NUC'
p506
aa(lp507
S'ANP1_YEAST'
p508
aS'0.74'
p509
aS'0.75'
p510
aS'0.58'
p511
aS'0.47'
p512
aS'0.50'
p513
aS'0.00'
p514
aS'0.40'
p515
aS'0.35'
p516
aS'ME2'
p517
aa(lp518
S'APE2_YEAST'
p519
aS'0.49'
p520
aS'0.39'
p521
aS'0.52'
p522
aS'0.29'
p523
aS'0.50'
p524
aS'0.00'
p525
aS'0.48'
p526
aS'0.22'
p527
aS'EXC'
p528
aa(lp529
S'APE3_YEAST'
p530
aS'0.74'
p531
aS'0.57'
p532
aS'0.51'
p533
aS'0.28'
p534
aS'0.50'
p535
aS'0.00'
p536
aS'0.58'
p537
aS'0.22'
p538
aS'VAC'
p539
aa(lp540
S'ALP1_YEAST'
p541
aS'0.42'
p542
aS'0.24'
p543
aS'0.34'
p544
aS'0.16'
p545
aS'0.50'
p546
aS'0.00'
p547
aS'0.50'
p548
aS'0.22'
p549
aS'ME3'
p550
aa(lp551
S'ADB2_YEAST'
p552
aS'0.48'
p553
aS'0.39'
p554
aS'0.51'
p555
aS'0.21'
p556
aS'0.50'
p557
aS'0.00'
p558
aS'0.52'
p559
aS'0.28'
p560
aS'CYT'
p561
aa(lp562
S'YHB9_YEAST'
p563
aS'0.41'
p564
aS'0.53'
p565
aS'0.45'
p566
aS'0.14'
p567
aS'0.50'
p568
aS'0.00'
p569
aS'0.52'
p570
aS'0.66'
p571
aS'ME3'
p572
aa(lp573
S'APN1_YEAST'
p574
aS'0.45'
p575
aS'0.46'
p576
aS'0.55'
p577
aS'0.43'
p578
aS'0.50'
p579
aS'0.00'
p580
aS'0.55'
p581
aS'0.38'
p582
aS'NUC'
p583
aa(lp584
S'ARD1_YEAST'
p585
aS'0.56'
p586
aS'0.48'
p587
aS'0.58'
p588
aS'0.27'
p589
aS'0.50'
p590
aS'0.00'
p591
aS'0.51'
p592
aS'0.22'
p593
aS'CYT'
p594
aa(lp595
S'ARF1_YEAST'
p596
aS'0.64'
p597
aS'0.59'
p598
aS'0.56'
p599
aS'0.23'
p600
aS'0.50'
p601
aS'0.00'
p602
aS'0.46'
p603
aS'0.22'
p604
aS'CYT'
p605
aa(lp606
S'ARF2_YEAST'
p607
aS'0.64'
p608
aS'0.56'
p609
aS'0.56'
p610
aS'0.22'
p611
aS'0.50'
p612
aS'0.00'
p613
aS'0.45'
p614
aS'0.22'
p615
aS'CYT'
p616
aa(lp617
S'ASSY_YEAST'
p618
aS'0.66'
p619
aS'0.62'
p620
aS'0.49'
p621
aS'0.10'
p622
aS'0.50'
p623
aS'0.00'
p624
aS'0.49'
p625
aS'0.22'
p626
aS'CYT'
p627
aa(lp628
S'OTC_YEAST'
p629
aS' 0.53'
p630
aS'0.44'
p631
aS'0.51'
p632
aS'0.33'
p633
aS'0.50'
p634
aS'0.00'
p635
aS'0.55'
p636
aS'0.22'
p637
aS'CYT'
p638
aa(lp639
S'ARLY_YEAST'
p640
aS'0.38'
p641
aS'0.49'
p642
aS'0.53'
p643
aS'0.19'
p644
aS'0.50'
p645
aS'0.00'
p646
aS'0.50'
p647
aS'0.22'
p648
aS'CYT'
p649
aa(lp650
S'AR56_YEAST'
p651
aS'0.45'
p652
aS'0.58'
p653
aS'0.48'
p654
aS'0.67'
p655
aS'0.50'
p656
aS'0.00'
p657
aS'0.52'
p658
aS'0.22'
p659
aS'MIT'
p660
aa(lp661
S'ARGD_YEAST'
p662
aS'0.43'
p663
aS'0.35'
p664
aS'0.52'
p665
aS'0.52'
p666
aS'0.50'
p667
aS'0.00'
p668
aS'0.54'
p669
aS'0.22'
p670
aS'MIT'
p671
aa(lp672
S'ARG1_YEAST'
p673
aS'0.37'
p674
aS'0.32'
p675
aS'0.47'
p676
aS'0.18'
p677
aS'0.50'
p678
aS'0.00'
p679
aS'0.45'
p680
aS'0.25'
p681
aS'NUC'
p682
aa(lp683
S'ARG2_YEAST'
p684
aS'0.48'
p685
aS'0.43'
p686
aS'0.51'
p687
aS'0.32'
p688
aS'0.50'
p689
aS'0.00'
p690
aS'0.52'
p691
aS'0.43'
p692
aS'NUC'
p693
aa(lp694
S'ARG3_YEAST'
p695
aS'0.41'
p696
aS'0.46'
p697
aS'0.59'
p698
aS'0.19'
p699
aS'0.50'
p700
aS'0.00'
p701
aS'0.58'
p702
aS'0.27'
p703
aS'NUC'
p704
aa(lp705
S'ARO1_YEAST'
p706
aS'0.54'
p707
aS'0.48'
p708
aS'0.44'
p709
aS'0.08'
p710
aS'0.50'
p711
aS'0.00'
p712
aS'0.52'
p713
aS'0.27'
p714
aS'CYT'
p715
aa(lp716
S'AROC_YEAST'
p717
aS'0.60'
p718
aS'0.47'
p719
aS'0.45'
p720
aS'0.22'
p721
aS'0.50'
p722
aS'0.00'
p723
aS'0.51'
p724
aS'0.29'
p725
aS'CYT'
p726
aa(lp727
S'AROF_YEAST'
p728
aS'0.34'
p729
aS'0.46'
p730
aS'0.57'
p731
aS'0.09'
p732
aS'0.50'
p733
aS'0.00'
p734
aS'0.55'
p735
aS'0.22'
p736
aS'CYT'
p737
aa(lp738
S'AROG_YEAST'
p739
aS'0.48'
p740
aS'0.54'
p741
aS'0.55'
p742
aS'0.12'
p743
aS'0.50'
p744
aS'0.00'
p745
aS'0.51'
p746
aS'0.22'
p747
aS'CYT'
p748
aa(lp749
S'CHMU_YEAST'
p750
aS'0.47'
p751
aS'0.39'
p752
aS'0.59'
p753
aS'0.15'
p754
aS'0.50'
p755
aS'0.00'
p756
aS'0.57'
p757
aS'0.22'
p758
aS'CYT'
p759
aa(lp760
S'ASG2_YEAST'
p761
aS'0.81'
p762
aS'0.85'
p763
aS'0.47'
p764
aS'0.37'
p765
aS'0.50'
p766
aS'0.00'
p767
aS'0.56'
p768
aS'0.22'
p769
aS'EXC'
p770
aa(lp771
S'AST1_YEAST'
p772
aS'0.48'
p773
aS'0.42'
p774
aS'0.52'
p775
aS'0.24'
p776
aS'0.50'
p777
aS'0.00'
p778
aS'0.56'
p779
aS'0.22'
p780
aS'CYT'
p781
aa(lp782
S'ATE1_YEAST'
p783
aS'0.58'
p784
aS'0.51'
p785
aS'0.49'
p786
aS'0.27'
p787
aS'0.50'
p788
aS'0.00'
p789
aS'0.57'
p790
aS'0.29'
p791
aS'CYT'
p792
aa(lp793
S'ATM1_YEAST'
p794
aS'0.60'
p795
aS'0.50'
p796
aS'0.44'
p797
aS'0.61'
p798
aS'0.50'
p799
aS'0.00'
p800
aS'0.47'
p801
aS'0.22'
p802
aS'MIT'
p803
aa(lp804
S'ATPA_YEAST'
p805
aS'0.45'
p806
aS'0.55'
p807
aS'0.54'
p808
aS'0.66'
p809
aS'0.50'
p810
aS'0.00'
p811
aS'0.47'
p812
aS'0.22'
p813
aS'MIT'
p814
aa(lp815
S'ATPY_YEAST'
p816
aS'0.46'
p817
aS'0.49'
p818
aS'0.58'
p819
aS'0.23'
p820
aS'0.50'
p821
aS'0.00'
p822
aS'0.44'
p823
aS'0.22'
p824
aS'MIT'
p825
aa(lp826
S'ATPS_YEAST'
p827
aS'0.49'
p828
aS'0.42'
p829
aS'0.56'
p830
aS'0.55'
p831
aS'0.50'
p832
aS'0.00'
p833
aS'0.42'
p834
aS'0.25'
p835
aS'MIT'
p836
aa(lp837
S'ATPT_YEAST'
p838
aS'0.63'
p839
aS'0.53'
p840
aS'0.54'
p841
aS'0.40'
p842
aS'0.50'
p843
aS'0.00'
p844
aS'0.50'
p845
aS'0.22'
p846
aS'MIT'
p847
aa(lp848
S'ATPU_YEAST'
p849
aS'0.50'
p850
aS'0.54'
p851
aS'0.53'
p852
aS'0.54'
p853
aS'0.50'
p854
aS'0.00'
p855
aS'0.51'
p856
aS'0.27'
p857
aS'MIT'
p858
aa(lp859
S'ATPE_YEAST'
p860
aS'0.63'
p861
aS'0.57'
p862
aS'0.59'
p863
aS'0.40'
p864
aS'0.50'
p865
aS'0.00'
p866
aS'0.38'
p867
aS'0.22'
p868
aS'MIT'
p869
aa(lp870
S'ATPB_YEAST'
p871
aS'0.43'
p872
aS'0.57'
p873
aS'0.51'
p874
aS'0.49'
p875
aS'0.50'
p876
aS'0.00'
p877
aS'0.48'
p878
aS'0.22'
p879
aS'MIT'
p880
aa(lp881
S'ATPG_YEAST'
p882
aS'0.48'
p883
aS'0.45'
p884
aS'0.55'
p885
aS'0.50'
p886
aS'0.50'
p887
aS'0.00'
p888
aS'0.53'
p889
aS'0.22'
p890
aS'MIT'
p891
aa(lp892
S'ATR1_YEAST'
p893
aS'0.28'
p894
aS'0.58'
p895
aS'0.21'
p896
aS'0.13'
p897
aS'0.50'
p898
aS'0.00'
p899
aS'0.51'
p900
aS'0.22'
p901
aS'ME3'
p902
aa(lp903
S'YBR8_YEAST'
p904
aS'0.39'
p905
aS'0.44'
p906
aS'0.35'
p907
aS'0.16'
p908
aS'0.50'
p909
aS'0.00'
p910
aS'0.55'
p911
aS'0.22'
p912
aS'ME3'
p913
aa(lp914
S'BAR1_YEAST'
p915
aS'0.80'
p916
aS'0.63'
p917
aS'0.45'
p918
aS'0.29'
p919
aS'0.50'
p920
aS'0.00'
p921
aS'0.51'
p922
aS'0.22'
p923
aS'EXC'
p924
aa(lp925
S'BAS1_YEAST'
p926
aS'0.50'
p927
aS'0.52'
p928
aS'0.59'
p929
aS'0.30'
p930
aS'0.50'
p931
aS'0.00'
p932
aS'0.51'
p933
aS'0.35'
p934
aS'NUC'
p935
aa(lp936
S'BCK1_YEAST'
p937
aS'0.42'
p938
aS'0.47'
p939
aS'0.52'
p940
aS'0.41'
p941
aS'0.50'
p942
aS'0.00'
p943
aS'0.53'
p944
aS'0.32'
p945
aS'CYT'
p946
aa(lp947
S'BCK2_YEAST'
p948
aS'0.36'
p949
aS'0.46'
p950
aS'0.62'
p951
aS'0.46'
p952
aS'0.50'
p953
aS'0.00'
p954
aS'0.51'
p955
aS'0.33'
p956
aS'CYT'
p957
aa(lp958
S'KAPR_YEAST'
p959
aS'0.40'
p960
aS'0.45'
p961
aS'0.56'
p962
aS'0.20'
p963
aS'0.50'
p964
aS'0.00'
p965
aS'0.45'
p966
aS'0.22'
p967
aS'CYT'
p968
aa(lp969
S'BDF1_YEAST'
p970
aS'0.33'
p971
aS'0.43'
p972
aS'0.64'
p973
aS'0.16'
p974
aS'0.50'
p975
aS'0.00'
p976
aS'0.52'
p977
aS'0.52'
p978
aS'NUC'
p979
aa(lp980
S'BEM1_YEAST'
p981
aS'0.49'
p982
aS'0.61'
p983
aS'0.49'
p984
aS'0.25'
p985
aS'0.50'
p986
aS'0.00'
p987
aS'0.50'
p988
aS'0.28'
p989
aS'CYT'
p990
aa(lp991
S'BET1_YEAST'
p992
aS'0.38'
p993
aS'0.50'
p994
aS'0.37'
p995
aS'0.26'
p996
aS'0.50'
p997
aS'0.00'
p998
aS'0.43'
p999
aS'0.22'
p1000
aS'ME3'
p1001
aa(lp1002
S'BIK1_YEAST'
p1003
aS'0.64'
p1004
aS'0.57'
p1005
aS'0.57'
p1006
aS'0.27'
p1007
aS'0.50'
p1008
aS'0.00'
p1009
aS'0.37'
p1010
aS'0.22'
p1011
aS'CYT'
p1012
aa(lp1013
S'BOS1_YEAST'
p1014
aS'0.36'
p1015
aS'0.58'
p1016
aS'0.35'
p1017
aS'0.24'
p1018
aS'0.50'
p1019
aS'0.00'
p1020
aS'0.44'
p1021
aS'0.22'
p1022
aS'ME3'
p1023
aa(lp1024
S'BSD2_YEAST'
p1025
aS'0.36'
p1026
aS'0.43'
p1027
aS'0.39'
p1028
aS'0.12'
p1029
aS'0.50'
p1030
aS'0.00'
p1031
aS'0.49'
p1032
aS'0.22'
p1033
aS'ME3'
p1034
aa(lp1035
S'BUD5_YEAST'
p1036
aS'0.47'
p1037
aS'0.52'
p1038
aS'0.50'
p1039
aS'0.40'
p1040
aS'0.50'
p1041
aS'0.00'
p1042
aS'0.41'
p1043
aS'0.22'
p1044
aS'CYT'
p1045
aa(lp1046
S'CAD1_YEAST'
p1047
aS'0.48'
p1048
aS'0.23'
p1049
aS'0.57'
p1050
aS'0.27'
p1051
aS'0.50'
p1052
aS'0.00'
p1053
aS'0.48'
p1054
aS'0.47'
p1055
aS'NUC'
p1056
aa(lp1057
S'CAP2_YEAST'
p1058
aS'0.47'
p1059
aS'0.39'
p1060
aS'0.55'
p1061
aS'0.24'
p1062
aS'0.50'
p1063
aS'0.00'
p1064
aS'0.47'
p1065
aS'0.22'
p1066
aS'CYT'
p1067
aa(lp1068
S'CAN1_YEAST'
p1069
aS'0.44'
p1070
aS'0.59'
p1071
aS'0.36'
p1072
aS'0.16'
p1073
aS'0.50'
p1074
aS'0.00'
p1075
aS'0.52'
p1076
aS'0.22'
p1077
aS'ME3'
p1078
aa(lp1079
S'CAPA_YEAST'
p1080
aS'0.42'
p1081
aS'0.35'
p1082
aS'0.54'
p1083
aS'0.18'
p1084
aS'0.50'
p1085
aS'0.00'
p1086
aS'0.56'
p1087
aS'0.22'
p1088
aS'CYT'
p1089
aa(lp1090
S'CAPB_YEAST'
p1091
aS'0.30'
p1092
aS'0.56'
p1093
aS'0.55'
p1094
aS'0.18'
p1095
aS'0.50'
p1096
aS'0.00'
p1097
aS'0.50'
p1098
aS'0.22'
p1099
aS'CYT'
p1100
aa(lp1101
S'ARGI_YEAST'
p1102
aS'0.65'
p1103
aS'0.65'
p1104
aS'0.52'
p1105
aS'0.16'
p1106
aS'0.50'
p1107
aS'0.00'
p1108
aS'0.60'
p1109
aS'0.22'
p1110
aS'CYT'
p1111
aa(lp1112
S'OAT_YEAST'
p1113
aS' 0.27'
p1114
aS'0.60'
p1115
aS'0.48'
p1116
aS'0.23'
p1117
aS'0.50'
p1118
aS'0.00'
p1119
aS'0.55'
p1120
aS'0.22'
p1121
aS'CYT'
p1122
aa(lp1123
S'CACP_YEAST'
p1124
aS'0.45'
p1125
aS'0.41'
p1126
aS'0.50'
p1127
aS'0.46'
p1128
aS'0.50'
p1129
aS'0.50'
p1130
aS'0.50'
p1131
aS'0.27'
p1132
aS'POX'
p1133
aa(lp1134
S'CAT8_YEAST'
p1135
aS'0.44'
p1136
aS'0.52'
p1137
aS'0.41'
p1138
aS'0.23'
p1139
aS'0.50'
p1140
aS'0.00'
p1141
aS'0.51'
p1142
aS'0.22'
p1143
aS'NUC'
p1144
aa(lp1145
S'CBF1_YEAST'
p1146
aS'0.30'
p1147
aS'0.32'
p1148
aS'0.57'
p1149
aS'0.19'
p1150
aS'0.50'
p1151
aS'0.00'
p1152
aS'0.48'
p1153
aS'0.55'
p1154
aS'NUC'
p1155
aa(lp1156
S'CB32_YEAST'
p1157
aS'0.40'
p1158
aS'0.44'
p1159
aS'0.49'
p1160
aS'0.47'
p1161
aS'0.50'
p1162
aS'0.00'
p1163
aS'0.49'
p1164
aS'0.27'
p1165
aS'NUC'
p1166
aa(lp1167
S'CBF5_YEAST'
p1168
aS'0.45'
p1169
aS'0.51'
p1170
aS'0.50'
p1171
aS'0.16'
p1172
aS'0.50'
p1173
aS'0.00'
p1174
aS'0.52'
p1175
aS'1.00'
p1176
aS'NUC'
p1177
aa(lp1178
S'ATU1_YEAST'
p1179
aS'0.54'
p1180
aS'0.55'
p1181
aS'0.34'
p1182
aS'0.31'
p1183
aS'0.50'
p1184
aS'0.00'
p1185
aS'0.54'
p1186
aS'0.22'
p1187
aS'ME3'
p1188
aa(lp1189
S'CCL1_YEAST'
p1190
aS'0.40'
p1191
aS'0.38'
p1192
aS'0.53'
p1193
aS'0.16'
p1194
aS'0.50'
p1195
aS'0.00'
p1196
aS'0.52'
p1197
aS'0.27'
p1198
aS'NUC'
p1199
aa(lp1200
S'CCR4_YEAST'
p1201
aS'0.53'
p1202
aS'0.51'
p1203
aS'0.55'
p1204
aS'0.05'
p1205
aS'0.50'
p1206
aS'0.00'
p1207
aS'0.45'
p1208
aS'0.25'
p1209
aS'NUC'
p1210
aa(lp1211
S'CTPT_YEAST'
p1212
aS'0.41'
p1213
aS'0.40'
p1214
aS'0.59'
p1215
aS'0.47'
p1216
aS'0.50'
p1217
aS'0.00'
p1218
aS'0.48'
p1219
aS'0.43'
p1220
aS'CYT'
p1221
aa(lp1222
S'CC10_YEAST'
p1223
aS'0.50'
p1224
aS'0.64'
p1225
aS'0.57'
p1226
aS'0.15'
p1227
aS'0.50'
p1228
aS'0.00'
p1229
aS'0.47'
p1230
aS'0.22'
p1231
aS'CYT'
p1232
aa(lp1233
S'CC11_YEAST'
p1234
aS'0.40'
p1235
aS'0.62'
p1236
aS'0.52'
p1237
aS'0.31'
p1238
aS'0.50'
p1239
aS'0.00'
p1240
aS'0.49'
p1241
aS'0.31'
p1242
aS'CYT'
p1243
aa(lp1244
S'CC12_YEAST'
p1245
aS'0.60'
p1246
aS'0.50'
p1247
aS'0.57'
p1248
aS'0.25'
p1249
aS'0.50'
p1250
aS'0.00'
p1251
aS'0.41'
p1252
aS'0.26'
p1253
aS'CYT'
p1254
aa(lp1255
S'CC16_YEAST'
p1256
aS'0.62'
p1257
aS'0.51'
p1258
aS'0.52'
p1259
aS'0.42'
p1260
aS'0.50'
p1261
aS'0.00'
p1262
aS'0.54'
p1263
aS'0.27'
p1264
aS'NUC'
p1265
aa(lp1266
S'CC23_YEAST'
p1267
aS'0.35'
p1268
aS'0.58'
p1269
aS'0.54'
p1270
aS'0.16'
p1271
aS'0.50'
p1272
aS'0.00'
p1273
aS'0.51'
p1274
aS'0.22'
p1275
aS'NUC'
p1276
aa(lp1277
S'CC24_YEAST'
p1278
aS'0.34'
p1279
aS'0.54'
p1280
aS'0.50'
p1281
aS'0.21'
p1282
aS'0.50'
p1283
aS'0.00'
p1284
aS'0.54'
p1285
aS'0.31'
p1286
aS'CYT'
p1287
aa(lp1288
S'CC25_YEAST'
p1289
aS'0.39'
p1290
aS'0.58'
p1291
aS'0.50'
p1292
aS'0.26'
p1293
aS'0.50'
p1294
aS'0.00'
p1295
aS'0.54'
p1296
aS'0.59'
p1297
aS'ME3'
p1298
aa(lp1299
S'CC27_YEAST'
p1300
aS'0.48'
p1301
aS'0.54'
p1302
aS'0.50'
p1303
aS'0.17'
p1304
aS'0.50'
p1305
aS'0.00'
p1306
aS'0.53'
p1307
aS'0.22'
p1308
aS'NUC'
p1309
aa(lp1310
S'CDC3_YEAST'
p1311
aS'0.29'
p1312
aS'0.32'
p1313
aS'0.58'
p1314
aS'0.15'
p1315
aS'0.50'
p1316
aS'0.00'
p1317
aS'0.50'
p1318
aS'0.30'
p1319
aS'CYT'
p1320
aa(lp1321
S'CC31_YEAST'
p1322
aS'0.47'
p1323
aS'0.32'
p1324
aS'0.64'
p1325
aS'0.30'
p1326
aS'0.50'
p1327
aS'0.00'
p1328
aS'0.63'
p1329
aS'0.22'
p1330
aS'NUC'
p1331
aa(lp1332
S'IF4E_YEAST'
p1333
aS'0.39'
p1334
aS'0.47'
p1335
aS'0.56'
p1336
aS'0.16'
p1337
aS'0.50'
p1338
aS'0.00'
p1339
aS'0.47'
p1340
aS'0.22'
p1341
aS'CYT'
p1342
aa(lp1343
S'UBC3_YEAST'
p1344
aS'0.58'
p1345
aS'0.48'
p1346
aS'0.51'
p1347
aS'0.47'
p1348
aS'0.50'
p1349
aS'0.00'
p1350
aS'0.55'
p1351
aS'0.22'
p1352
aS'NUC'
p1353
aa(lp1354
S'NOT2_YEAST'
p1355
aS'0.64'
p1356
aS'0.60'
p1357
aS'0.57'
p1358
aS'0.19'
p1359
aS'0.50'
p1360
aS'0.00'
p1361
aS'0.43'
p1362
aS'0.22'
p1363
aS'NUC'
p1364
aa(lp1365
S'NOT1_YEAST'
p1366
aS'0.37'
p1367
aS'0.46'
p1368
aS'0.40'
p1369
aS'0.27'
p1370
aS'0.50'
p1371
aS'0.00'
p1372
aS'0.45'
p1373
aS'0.22'
p1374
aS'NUC'
p1375
aa(lp1376
S'CC4_YEAST'
p1377
aS' 0.43'
p1378
aS'0.57'
p1379
aS'0.53'
p1380
aS'0.16'
p1381
aS'0.50'
p1382
aS'0.00'
p1383
aS'0.54'
p1384
aS'0.22'
p1385
aS'CYT'
p1386
aa(lp1387
S'CC40_YEAST'
p1388
aS'0.28'
p1389
aS'0.37'
p1390
aS'0.61'
p1391
aS'0.09'
p1392
aS'0.50'
p1393
aS'0.00'
p1394
aS'0.52'
p1395
aS'0.55'
p1396
aS'NUC'
p1397
aa(lp1398
S'RFC1_YEAST'
p1399
aS'0.26'
p1400
aS'0.36'
p1401
aS'0.47'
p1402
aS'0.34'
p1403
aS'0.50'
p1404
aS'0.00'
p1405
aS'0.53'
p1406
aS'0.72'
p1407
aS'NUC'
p1408
aa(lp1409
S'CC46_YEAST'
p1410
aS'0.51'
p1411
aS'0.34'
p1412
aS'0.50'
p1413
aS'0.19'
p1414
aS'0.50'
p1415
aS'0.00'
p1416
aS'0.50'
p1417
aS'0.22'
p1418
aS'NUC'
p1419
aa(lp1420
S'YB52_YEAST'
p1421
aS'0.58'
p1422
aS'0.50'
p1423
aS'0.50'
p1424
aS'0.12'
p1425
aS'0.50'
p1426
aS'0.00'
p1427
aS'0.48'
p1428
aS'0.25'
p1429
aS'NUC'
p1430
aa(lp1431
S'CC6_YEAST'
p1432
aS' 0.41'
p1433
aS'0.39'
p1434
aS'0.44'
p1435
aS'0.34'
p1436
aS'0.50'
p1437
aS'0.00'
p1438
aS'0.48'
p1439
aS'0.40'
p1440
aS'NUC'
p1441
aa(lp1442
S'CC68_YEAST'
p1443
aS'0.36'
p1444
aS'0.68'
p1445
aS'0.46'
p1446
aS'0.16'
p1447
aS'0.50'
p1448
aS'0.00'
p1449
aS'0.53'
p1450
aS'0.28'
p1451
aS'NUC'
p1452
aa(lp1453
S'CC7_YEAST'
p1454
aS' 0.42'
p1455
aS'0.31'
p1456
aS'0.50'
p1457
aS'0.15'
p1458
aS'0.50'
p1459
aS'0.00'
p1460
aS'0.53'
p1461
aS'0.22'
p1462
aS'NUC'
p1463
aa(lp1464
S'DNLI_YEAST'
p1465
aS'0.67'
p1466
aS'0.71'
p1467
aS'0.52'
p1468
aS'0.65'
p1469
aS'0.50'
p1470
aS'0.00'
p1471
aS'0.53'
p1472
aS'0.36'
p1473
aS'NUC'
p1474
aa(lp1475
S'MCE1_YEAST'
p1476
aS'0.49'
p1477
aS'0.47'
p1478
aS'0.53'
p1479
aS'0.16'
p1480
aS'0.50'
p1481
aS'0.00'
p1482
aS'0.48'
p1483
aS'0.27'
p1484
aS'NUC'
p1485
aa(lp1486
S'CHL1_YEAST'
p1487
aS'0.42'
p1488
aS'0.51'
p1489
aS'0.50'
p1490
aS'0.12'
p1491
aS'0.50'
p1492
aS'0.00'
p1493
aS'0.52'
p1494
aS'0.46'
p1495
aS'NUC'
p1496
aa(lp1497
S'CHL4_YEAST'
p1498
aS'0.57'
p1499
aS'0.51'
p1500
aS'0.53'
p1501
aS'0.18'
p1502
aS'0.50'
p1503
aS'0.00'
p1504
aS'0.56'
p1505
aS'0.25'
p1506
aS'NUC'
p1507
aa(lp1508
S'PSS_YEAST'
p1509
aS' 0.35'
p1510
aS'0.45'
p1511
aS'0.43'
p1512
aS'0.11'
p1513
aS'0.50'
p1514
aS'0.00'
p1515
aS'0.56'
p1516
aS'0.22'
p1517
aS'ME3'
p1518
aa(lp1519
S'PEM1_YEAST'
p1520
aS'0.42'
p1521
aS'0.42'
p1522
aS'0.42'
p1523
aS'0.20'
p1524
aS'0.50'
p1525
aS'0.00'
p1526
aS'0.49'
p1527
aS'0.22'
p1528
aS'ME3'
p1529
aa(lp1530
S'CHS1_YEAST'
p1531
aS'0.26'
p1532
aS'0.50'
p1533
aS'0.33'
p1534
aS'0.28'
p1535
aS'0.50'
p1536
aS'0.00'
p1537
aS'0.51'
p1538
aS'0.22'
p1539
aS'ME3'
p1540
aa(lp1541
S'CHS2_YEAST'
p1542
aS'0.39'
p1543
aS'0.42'
p1544
aS'0.38'
p1545
aS'0.40'
p1546
aS'0.50'
p1547
aS'0.00'
p1548
aS'0.49'
p1549
aS'0.47'
p1550
aS'ME3'
p1551
aa(lp1552
S'CHS3_YEAST'
p1553
aS'0.26'
p1554
aS'0.44'
p1555
aS'0.30'
p1556
aS'0.11'
p1557
aS'0.50'
p1558
aS'0.00'
p1559
aS'0.51'
p1560
aS'0.47'
p1561
aS'ME3'
p1562
aa(lp1563
S'CIK1_YEAST'
p1564
aS'0.31'
p1565
aS'0.44'
p1566
aS'0.53'
p1567
aS'0.23'
p1568
aS'0.50'
p1569
aS'0.00'
p1570
aS'0.51'
p1571
aS'0.32'
p1572
aS'NUC'
p1573
aa(lp1574
S'CISZ_YEAST'
p1575
aS'0.44'
p1576
aS'0.38'
p1577
aS'0.48'
p1578
aS'0.32'
p1579
aS'0.50'
p1580
aS'0.83'
p1581
aS'0.53'
p1582
aS'0.22'
p1583
aS'POX'
p1584
aa(lp1585
S'KC21_YEAST'
p1586
aS'0.31'
p1587
aS'0.31'
p1588
aS'0.56'
p1589
aS'0.33'
p1590
aS'0.50'
p1591
aS'0.00'
p1592
aS'0.52'
p1593
aS'0.33'
p1594
aS'NUC'
p1595
aa(lp1596
S'CALX_YEAST'
p1597
aS'0.75'
p1598
aS'0.70'
p1599
aS'0.38'
p1600
aS'0.27'
p1601
aS'0.50'
p1602
aS'0.00'
p1603
aS'0.49'
p1604
aS'0.22'
p1605
aS'ME1'
p1606
aa(lp1607
S'CYPR_YEAST'
p1608
aS'0.73'
p1609
aS'0.83'
p1610
aS'0.43'
p1611
aS'0.30'
p1612
aS'0.50'
p1613
aS'0.00'
p1614
aS'0.55'
p1615
aS'0.22'
p1616
aS'ME1'
p1617
aa(lp1618
S'CYPD_YEAST'
p1619
aS'0.78'
p1620
aS'0.74'
p1621
aS'0.58'
p1622
aS'0.25'
p1623
aS'1.00'
p1624
aS'0.00'
p1625
aS'0.53'
p1626
aS'0.22'
p1627
aS'ERL'
p1628
aa(lp1629
S'CBPS_YEAST'
p1630
aS'0.70'
p1631
aS'0.65'
p1632
aS'0.54'
p1633
aS'0.28'
p1634
aS'0.50'
p1635
aS'0.00'
p1636
aS'0.60'
p1637
aS'0.40'
p1638
aS'VAC'
p1639
aa(lp1640
S'CPT1_YEAST'
p1641
aS'0.47'
p1642
aS'0.54'
p1643
aS'0.37'
p1644
aS'0.14'
p1645
aS'0.50'
p1646
aS'0.00'
p1647
aS'0.50'
p1648
aS'0.22'
p1649
aS'ME3'
p1650
aa(lp1651
S'CSG2_YEAST'
p1652
aS'0.69'
p1653
aS'0.61'
p1654
aS'0.38'
p1655
aS'0.27'
p1656
aS'0.50'
p1657
aS'0.00'
p1658
aS'0.52'
p1659
aS'0.22'
p1660
aS'ME2'
p1661
aa(lp1662
S'DPM1_YEAST'
p1663
aS'0.54'
p1664
aS'0.42'
p1665
aS'0.41'
p1666
aS'0.16'
p1667
aS'0.50'
p1668
aS'0.00'
p1669
aS'0.52'
p1670
aS'0.22'
p1671
aS'ME2'
p1672
aa(lp1673
S'END2_YEAST'
p1674
aS'0.78'
p1675
aS'0.70'
p1676
aS'0.32'
p1677
aS'0.23'
p1678
aS'0.50'
p1679
aS'0.00'
p1680
aS'0.53'
p1681
aS'0.22'
p1682
aS'ME1'
p1683
aa.