(lp0
(lp1
S'COT1_YEAST'
p2
aS'0.72'
p3
aS'0.62'
p4
aS'0.34'
p5
aS'0.29'
p6
aS'0.50'
p7
aS'0.00'
p8
aS'0.56'
p9
aS'0.28'
p10
aS'MIT'
p11
aa(lp12
S'COX1_YEAST'
p13
aS'0.72'
p14
aS'0.61'
p15
aS'0.37'
p16
aS'0.30'
p17
aS'0.50'
p18
aS'0.00'
p19
aS'0.57'
p20
aS'0.22'
p21
aS'MIT'
p22
aa(lp23
S'COXX_YEAST'
p24
aS'0.46'
p25
aS'0.43'
p26
aS'0.38'
p27
aS'0.33'
p28
aS'0.50'
p29
aS'0.00'
p30
aS'0.48'
p31
aS'0.28'
p32
aS'MIT'
p33
aa(lp34
S'COXZ_YEAST'
p35
aS'0.57'
p36
aS'0.57'
p37
aS'0.44'
p38
aS'0.37'
p39
aS'0.50'
p40
aS'0.00'
p41
aS'0.52'
p42
aS'0.25'
p43
aS'MIT'
p44
aa(lp45
S'COXG_YEAST'
p46
aS'0.42'
p47
aS'0.31'
p48
aS'0.62'
p49
aS'0.12'
p50
aS'0.50'
p51
aS'0.00'
p52
aS'0.40'
p53
aS'0.22'
p54
aS'MIT'
p55
aa(lp56
S'COXE_YEAST'
p57
aS'0.49'
p58
aS'0.46'
p59
aS'0.45'
p60
aS'0.45'
p61
aS'0.50'
p62
aS'0.00'
p63
aS'0.52'
p64
aS'0.22'
p65
aS'MIT'
p66
aa(lp67
S'YEX1_YEAST'
p68
aS'0.42'
p69
aS'0.58'
p70
aS'0.41'
p71
aS'0.65'
p72
aS'0.50'
p73
aS'0.00'
p74
aS'0.46'
p75
aS'0.26'
p76
aS'MIT'
p77
aa(lp78
S'COX2_YEAST'
p79
aS'0.59'
p80
aS'0.61'
p81
aS'0.34'
p82
aS'0.22'
p83
aS'0.50'
p84
aS'0.00'
p85
aS'0.51'
p86
aS'0.22'
p87
aS'MIT'
p88
aa(lp89
S'COX3_YEAST'
p90
aS'0.52'
p91
aS'0.77'
p92
aS'0.38'
p93
aS'0.34'
p94
aS'0.50'
p95
aS'0.00'
p96
aS'0.51'
p97
aS'0.22'
p98
aS'MIT'
p99
aa(lp100
S'COX4_YEAST'
p101
aS'0.50'
p102
aS'0.52'
p103
aS'0.60'
p104
aS'0.51'
p105
aS'0.50'
p106
aS'0.00'
p107
aS'0.48'
p108
aS'0.22'
p109
aS'MIT'
p110
aa(lp111
S'COXA_YEAST'
p112
aS'0.49'
p113
aS'0.60'
p114
aS'0.43'
p115
aS'0.56'
p116
aS'0.50'
p117
aS'0.00'
p118
aS'0.36'
p119
aS'0.22'
p120
aS'MIT'
p121
aa(lp122
S'COXB_YEAST'
p123
aS'0.50'
p124
aS'0.41'
p125
aS'0.44'
p126
aS'0.50'
p127
aS'0.50'
p128
aS'0.00'
p129
aS'0.42'
p130
aS'0.22'
p131
aS'MIT'
p132
aa(lp133
S'COX6_YEAST'
p134
aS'0.50'
p135
aS'0.40'
p136
aS'0.56'
p137
aS'0.70'
p138
aS'0.50'
p139
aS'0.00'
p140
aS'0.50'
p141
aS'0.22'
p142
aS'MIT'
p143
aa(lp144
S'COX7_YEAST'
p145
aS'0.37'
p146
aS'0.58'
p147
aS'0.44'
p148
aS'0.51'
p149
aS'0.50'
p150
aS'0.00'
p151
aS'0.44'
p152
aS'0.22'
p153
aS'MIT'
p154
aa(lp155
S'COX8_YEAST'
p156
aS'0.55'
p157
aS'0.45'
p158
aS'0.45'
p159
aS'0.54'
p160
aS'0.50'
p161
aS'0.00'
p162
aS'0.50'
p163
aS'0.22'
p164
aS'MIT'
p165
aa(lp166
S'COX9_YEAST'
p167
aS'0.67'
p168
aS'0.68'
p169
aS'0.46'
p170
aS'0.29'
p171
aS'0.50'
p172
aS'0.00'
p173
aS'0.46'
p174
aS'0.22'
p175
aS'MIT'
p176
aa(lp177
S'CYPC_YEAST'
p178
aS'0.47'
p179
aS'0.46'
p180
aS'0.59'
p181
aS'0.49'
p182
aS'0.50'
p183
aS'0.00'
p184
aS'0.56'
p185
aS'0.22'
p186
aS'MIT'
p187
aa(lp188
S'CYB2_YEAST'
p189
aS'0.53'
p190
aS'0.44'
p191
aS'0.51'
p192
aS'0.33'
p193
aS'0.50'
p194
aS'0.00'
p195
aS'0.52'
p196
aS'0.22'
p197
aS'MIT'
p198
aa(lp199
S'CYC1_YEAST'
p200
aS'0.46'
p201
aS'0.54'
p202
aS'0.71'
p203
aS'0.15'
p204
aS'0.50'
p205
aS'0.00'
p206
aS'0.59'
p207
aS'0.22'
p208
aS'MIT'
p209
aa(lp210
S'CYC2_YEAST'
p211
aS'0.40'
p212
aS'0.56'
p213
aS'0.48'
p214
aS'0.14'
p215
aS'0.50'
p216
aS'0.00'
p217
aS'0.47'
p218
aS'0.22'
p219
aS'MIT'
p220
aa(lp221
S'CCHL_YEAST'
p222
aS'0.53'
p223
aS'0.53'
p224
aS'0.60'
p225
aS'0.13'
p226
aS'0.50'
p227
aS'0.00'
p228
aS'0.49'
p229
aS'0.22'
p230
aS'MIT'
p231
aa(lp232
S'CYC7_YEAST'
p233
aS'0.42'
p234
aS'0.57'
p235
aS'0.72'
p236
aS'0.22'
p237
aS'0.50'
p238
aS'0.00'
p239
aS'0.57'
p240
aS'0.22'
p241
aS'MIT'
p242
aa(lp243
S'CY1_YEAST'
p244
aS' 0.44'
p245
aS'0.68'
p246
aS'0.45'
p247
aS'0.51'
p248
aS'0.50'
p249
aS'0.00'
p250
aS'0.52'
p251
aS'0.41'
p252
aS'MIT'
p253
aa(lp254
S'CYT2_YEAST'
p255
aS'0.27'
p256
aS'0.39'
p257
aS'0.66'
p258
aS'0.11'
p259
aS'0.50'
p260
aS'0.00'
p261
aS'0.44'
p262
aS'0.22'
p263
aS'MIT'
p264
aa(lp265
S'DLD1_YEAST'
p266
aS'0.47'
p267
aS'0.65'
p268
aS'0.54'
p269
aS'0.62'
p270
aS'0.50'
p271
aS'0.00'
p272
aS'0.53'
p273
aS'0.36'
p274
aS'MIT'
p275
aa(lp276
S'ERG8_YEAST'
p277
aS'0.62'
p278
aS'0.58'
p279
aS'0.46'
p280
aS'0.13'
p281
aS'0.50'
p282
aS'0.00'
p283
aS'0.53'
p284
aS'0.22'
p285
aS'CYT'
p286
aa(lp287
S'ERS1_YEAST'
p288
aS'0.73'
p289
aS'0.55'
p290
aS'0.41'
p291
aS'0.16'
p292
aS'0.50'
p293
aS'0.00'
p294
aS'0.46'
p295
aS'0.22'
p296
aS'ME2'
p297
aa(lp298
S'EXG1_YEAST'
p299
aS'0.77'
p300
aS'0.87'
p301
aS'0.47'
p302
aS'0.37'
p303
aS'0.50'
p304
aS'0.00'
p305
aS'0.48'
p306
aS'0.22'
p307
aS'EXC'
p308
aa(lp309
S'LCF2_YEAST'
p310
aS'0.35'
p311
aS'0.46'
p312
aS'0.49'
p313
aS'0.15'
p314
aS'1.00'
p315
aS'0.00'
p316
aS'0.55'
p317
aS'0.35'
p318
aS'CYT'
p319
aa(lp320
S'FAD1_YEAST'
p321
aS'0.43'
p322
aS'0.51'
p323
aS'0.48'
p324
aS'0.14'
p325
aS'0.50'
p326
aS'0.00'
p327
aS'0.50'
p328
aS'0.22'
p329
aS'CYT'
p330
aa(lp331
S'FAS1_YEAST'
p332
aS'0.57'
p333
aS'0.61'
p334
aS'0.45'
p335
aS'0.26'
p336
aS'0.50'
p337
aS'0.00'
p338
aS'0.50'
p339
aS'0.22'
p340
aS'CYT'
p341
aa(lp342
S'FAS2_YEAST'
p343
aS'0.63'
p344
aS'0.62'
p345
aS'0.42'
p346
aS'0.12'
p347
aS'0.50'
p348
aS'0.00'
p349
aS'0.52'
p350
aS'0.25'
p351
aS'CYT'
p352
aa(lp353
S'COAC_YEAST'
p354
aS'0.25'
p355
aS'0.40'
p356
aS'0.51'
p357
aS'0.18'
p358
aS'0.50'
p359
aS'0.00'
p360
aS'0.50'
p361
aS'0.27'
p362
aS'CYT'
p363
aa(lp364
S'ALF_YEAST'
p365
aS' 0.56'
p366
aS'0.62'
p367
aS'0.53'
p368
aS'0.24'
p369
aS'0.50'
p370
aS'0.00'
p371
aS'0.57'
p372
aS'0.22'
p373
aS'CYT'
p374
aa(lp375
S'F16P_YEAST'
p376
aS'0.58'
p377
aS'0.60'
p378
aS'0.51'
p379
aS'0.24'
p380
aS'0.50'
p381
aS'0.00'
p382
aS'0.53'
p383
aS'0.22'
p384
aS'CYT'
p385
aa(lp386
S'F26_YEAST'
p387
aS' 0.71'
p388
aS'0.59'
p389
aS'0.53'
p390
aS'0.15'
p391
aS'0.50'
p392
aS'0.00'
p393
aS'0.49'
p394
aS'0.33'
p395
aS'CYT'
p396
aa(lp397
S'FLO1_YEAST'
p398
aS'0.81'
p399
aS'0.82'
p400
aS'0.41'
p401
aS'0.36'
p402
aS'0.50'
p403
aS'0.00'
p404
aS'0.39'
p405
aS'0.22'
p406
aS'EXC'
p407
aa(lp408
S'FOX2_YEAST'
p409
aS'0.69'
p410
aS'0.60'
p411
aS'0.51'
p412
aS'0.13'
p413
aS'0.50'
p414
aS'0.83'
p415
aS'0.52'
p416
aS'0.22'
p417
aS'POX'
p418
aa(lp419
S'THIK_YEAST'
p420
aS'0.46'
p421
aS'0.48'
p422
aS'0.44'
p423
aS'0.21'
p424
aS'0.50'
p425
aS'0.00'
p426
aS'0.55'
p427
aS'0.22'
p428
aS'POX'
p429
aa(lp430
S'FKBP_YEAST'
p431
aS'0.35'
p432
aS'0.36'
p433
aS'0.57'
p434
aS'0.17'
p435
aS'0.50'
p436
aS'0.00'
p437
aS'0.52'
p438
aS'0.22'
p439
aS'CYT'
p440
aa(lp441
S'YKW0_YEAST'
p442
aS'0.81'
p443
aS'0.90'
p444
aS'0.39'
p445
aS'0.41'
p446
aS'0.50'
p447
aS'0.00'
p448
aS'0.53'
p449
aS'0.22'
p450
aS'ME2'
p451
aa(lp452
S'SYFA_YEAST'
p453
aS'0.45'
p454
aS'0.40'
p455
aS'0.56'
p456
aS'0.14'
p457
aS'0.50'
p458
aS'0.00'
p459
aS'0.54'
p460
aS'0.22'
p461
aS'CYT'
p462
aa(lp463
S'SYFB_YEAST'
p464
aS'0.47'
p465
aS'0.47'
p466
aS'0.58'
p467
aS'0.16'
p468
aS'0.50'
p469
aS'0.00'
p470
aS'0.49'
p471
aS'0.28'
p472
aS'CYT'
p473
aa(lp474
S'FUMH_YEAST'
p475
aS'0.41'
p476
aS'0.39'
p477
aS'0.51'
p478
aS'0.52'
p479
aS'0.50'
p480
aS'0.00'
p481
aS'0.49'
p482
aS'0.22'
p483
aS'CYT'
p484
aa(lp485
S'FUR1_YEAST'
p486
aS'0.69'
p487
aS'0.60'
p488
aS'0.50'
p489
aS'0.31'
p490
aS'0.50'
p491
aS'0.00'
p492
aS'0.55'
p493
aS'0.22'
p494
aS'CYT'
p495
aa(lp496
S'FUR4_YEAST'
p497
aS'0.35'
p498
aS'0.56'
p499
aS'0.36'
p500
aS'0.30'
p501
aS'0.50'
p502
aS'0.00'
p503
aS'0.53'
p504
aS'0.25'
p505
aS'ME3'
p506
aa(lp507
S'FUS3_YEAST'
p508
aS'0.51'
p509
aS'0.58'
p510
aS'0.54'
p511
aS'0.29'
p512
aS'0.50'
p513
aS'0.00'
p514
aS'0.53'
p515
aS'0.22'
p516
aS'CYT'
p517
aa(lp518
S'GAC1_YEAST'
p519
aS'0.55'
p520
aS'0.66'
p521
aS'0.57'
p522
aS'0.32'
p523
aS'0.50'
p524
aS'0.00'
p525
aS'0.57'
p526
aS'0.34'
p527
aS'CYT'
p528
aa(lp529
S'GAL1_YEAST'
p530
aS'0.48'
p531
aS'0.35'
p532
aS'0.42'
p533
aS'0.21'
p534
aS'0.50'
p535
aS'0.00'
p536
aS'0.57'
p537
aS'0.22'
p538
aS'CYT'
p539
aa(lp540
S'GALX_YEAST'
p541
aS'0.62'
p542
aS'0.58'
p543
aS'0.52'
p544
aS'0.15'
p545
aS'0.50'
p546
aS'0.00'
p547
aS'0.52'
p548
aS'0.29'
p549
aS'CYT'
p550
aa(lp551
S'GAL2_YEAST'
p552
aS'0.44'
p553
aS'0.51'
p554
aS'0.37'
p555
aS'0.15'
p556
aS'0.50'
p557
aS'0.00'
p558
aS'0.51'
p559
aS'0.22'
p560
aS'ME3'
p561
aa(lp562
S'GAL7_YEAST'
p563
aS'0.50'
p564
aS'0.50'
p565
aS'0.48'
p566
aS'0.17'
p567
aS'0.50'
p568
aS'0.00'
p569
aS'0.47'
p570
aS'0.26'
p571
aS'CYT'
p572
aa(lp573
S'GAP1_YEAST'
p574
aS'0.49'
p575
aS'0.46'
p576
aS'0.34'
p577
aS'0.21'
p578
aS'0.50'
p579
aS'0.00'
p580
aS'0.55'
p581
aS'0.22'
p582
aS'ME3'
p583
aa(lp584
S'E2BG_YEAST'
p585
aS'0.45'
p586
aS'0.42'
p587
aS'0.52'
p588
aS'0.20'
p589
aS'0.50'
p590
aS'0.00'
p591
aS'0.50'
p592
aS'0.25'
p593
aS'CYT'
p594
aa(lp595
S'IF2G_YEAST'
p596
aS'0.51'
p597
aS'0.35'
p598
aS'0.46'
p599
aS'0.15'
p600
aS'0.50'
p601
aS'0.00'
p602
aS'0.51'
p603
aS'0.42'
p604
aS'CYT'
p605
aa(lp606
S'E2BD_YEAST'
p607
aS'0.42'
p608
aS'0.39'
p609
aS'0.47'
p610
aS'0.13'
p611
aS'0.50'
p612
aS'0.00'
p613
aS'0.50'
p614
aS'0.27'
p615
aS'CYT'
p616
aa(lp617
S'E2BE_YEAST'
p618
aS'0.32'
p619
aS'0.38'
p620
aS'0.52'
p621
aS'0.20'
p622
aS'0.50'
p623
aS'0.00'
p624
aS'0.52'
p625
aS'0.28'
p626
aS'CYT'
p627
aa(lp628
S'E2BB_YEAST'
p629
aS'0.59'
p630
aS'0.65'
p631
aS'0.52'
p632
aS'0.30'
p633
aS'0.50'
p634
aS'0.00'
p635
aS'0.46'
p636
aS'0.31'
p637
aS'CYT'
p638
aa(lp639
S'GCN1_YEAST'
p640
aS'0.41'
p641
aS'0.52'
p642
aS'0.41'
p643
aS'0.11'
p644
aS'0.50'
p645
aS'0.00'
p646
aS'0.54'
p647
aS'0.35'
p648
aS'CYT'
p649
aa(lp650
S'GCN2_YEAST'
p651
aS'0.37'
p652
aS'0.33'
p653
aS'0.50'
p654
aS'0.12'
p655
aS'0.50'
p656
aS'0.00'
p657
aS'0.51'
p658
aS'0.54'
p659
aS'CYT'
p660
aa(lp661
S'E2BA_YEAST'
p662
aS'0.45'
p663
aS'0.56'
p664
aS'0.49'
p665
aS'0.17'
p666
aS'0.50'
p667
aS'0.00'
p668
aS'0.52'
p669
aS'0.22'
p670
aS'CYT'
p671
aa(lp672
S'GCY_YEAST'
p673
aS' 0.60'
p674
aS'0.40'
p675
aS'0.59'
p676
aS'0.18'
p677
aS'0.50'
p678
aS'0.00'
p679
aS'0.48'
p680
aS'0.22'
p681
aS'CYT'
p682
aa(lp683
S'GDA1_YEAST'
p684
aS'0.91'
p685
aS'0.69'
p686
aS'0.57'
p687
aS'0.45'
p688
aS'0.50'
p689
aS'0.00'
p690
aS'0.56'
p691
aS'0.22'
p692
aS'ME2'
p693
aa(lp694
S'DHE4_YEAST'
p695
aS'0.38'
p696
aS'0.47'
p697
aS'0.53'
p698
aS'0.12'
p699
aS'0.50'
p700
aS'0.00'
p701
aS'0.48'
p702
aS'0.22'
p703
aS'CYT'
p704
aa(lp705
S'DHE2_YEAST'
p706
aS'0.59'
p707
aS'0.43'
p708
aS'0.52'
p709
aS'0.19'
p710
aS'0.50'
p711
aS'0.00'
p712
aS'0.55'
p713
aS'0.27'
p714
aS'CYT'
p715
aa(lp716
S'GDI1_YEAST'
p717
aS'0.64'
p718
aS'0.53'
p719
aS'0.45'
p720
aS'0.13'
p721
aS'0.50'
p722
aS'0.00'
p723
aS'0.53'
p724
aS'0.22'
p725
aS'CYT'
p726
aa(lp727
S'GEF1_YEAST'
p728
aS'0.49'
p729
aS'0.31'
p730
aS'0.34'
p731
aS'0.13'
p732
aS'0.50'
p733
aS'0.00'
p734
aS'0.52'
p735
aS'0.22'
p736
aS'ME3'
p737
aa(lp738
S'GFA1_YEAST'
p739
aS'0.52'
p740
aS'0.51'
p741
aS'0.51'
p742
aS'0.12'
p743
aS'0.50'
p744
aS'0.00'
p745
aS'0.51'
p746
aS'0.40'
p747
aS'CYT'
p748
aa(lp749
S'GLGB_YEAST'
p750
aS'0.49'
p751
aS'0.43'
p752
aS'0.48'
p753
aS'0.15'
p754
aS'0.50'
p755
aS'0.00'
p756
aS'0.55'
p757
aS'0.25'
p758
aS'CYT'
p759
aa(lp760
S'PP12_YEAST'
p761
aS'0.49'
p762
aS'0.47'
p763
aS'0.52'
p764
aS'0.16'
p765
aS'0.50'
p766
aS'0.00'
p767
aS'0.53'
p768
aS'0.28'
p769
aS'CYT'
p770
aa(lp771
S'HXKG_YEAST'
p772
aS'0.48'
p773
aS'0.39'
p774
aS'0.49'
p775
aS'0.18'
p776
aS'0.50'
p777
aS'0.00'
p778
aS'0.51'
p779
aS'0.22'
p780
aS'CYT'
p781
aa(lp782
S'GLNA_YEAST'
p783
aS'0.44'
p784
aS'0.34'
p785
aS'0.55'
p786
aS'0.18'
p787
aS'0.50'
p788
aS'0.00'
p789
aS'0.52'
p790
aS'0.22'
p791
aS'CYT'
p792
aa(lp793
S'SYQ_YEAST'
p794
aS' 0.49'
p795
aS'0.42'
p796
aS'0.54'
p797
aS'0.17'
p798
aS'0.50'
p799
aS'0.00'
p800
aS'0.50'
p801
aS'0.36'
p802
aS'CYT'
p803
aa(lp804
S'GLO3_YEAST'
p805
aS'0.34'
p806
aS'0.66'
p807
aS'0.51'
p808
aS'0.16'
p809
aS'0.50'
p810
aS'0.00'
p811
aS'0.47'
p812
aS'0.33'
p813
aS'NUC'
p814
aa(lp815
S'GLS1_YEAST'
p816
aS'0.20'
p817
aS'0.34'
p818
aS'0.33'
p819
aS'0.10'
p820
aS'0.50'
p821
aS'0.00'
p822
aS'0.48'
p823
aS'0.31'
p824
aS'ME3'
p825
aa(lp826
S'6PGD_YEAST'
p827
aS'0.74'
p828
aS'0.53'
p829
aS'0.50'
p830
aS'0.08'
p831
aS'0.50'
p832
aS'0.00'
p833
aS'0.55'
p834
aS'0.31'
p835
aS'CYT'
p836
aa(lp837
S'GOG5_YEAST'
p838
aS'0.69'
p839
aS'0.48'
p840
aS'0.38'
p841
aS'0.15'
p842
aS'0.50'
p843
aS'0.00'
p844
aS'0.55'
p845
aS'0.22'
p846
aS'ME2'
p847
aa(lp848
S'GBA1_YEAST'
p849
aS'0.30'
p850
aS'0.50'
p851
aS'0.47'
p852
aS'0.11'
p853
aS'0.50'
p854
aS'0.00'
p855
aS'0.46'
p856
aS'0.22'
p857
aS'CYT'
p858
aa(lp859
S'GPDA_YEAST'
p860
aS'0.44'
p861
aS'0.51'
p862
aS'0.48'
p863
aS'0.38'
p864
aS'0.50'
p865
aS'0.00'
p866
aS'0.52'
p867
aS'0.22'
p868
aS'CYT'
p869
aa(lp870
S'PHSG_YEAST'
p871
aS'0.31'
p872
aS'0.45'
p873
aS'0.50'
p874
aS'0.17'
p875
aS'0.50'
p876
aS'0.00'
p877
aS'0.49'
p878
aS'0.22'
p879
aS'CYT'
p880
aa(lp881
S'PMGY_YEAST'
p882
aS'0.55'
p883
aS'0.41'
p884
aS'0.56'
p885
aS'0.21'
p886
aS'0.50'
p887
aS'0.00'
p888
aS'0.52'
p889
aS'0.22'
p890
aS'CYT'
p891
aa(lp892
S'PHO2_YEAST'
p893
aS'0.40'
p894
aS'0.34'
p895
aS'0.52'
p896
aS'0.17'
p897
aS'0.50'
p898
aS'0.00'
p899
aS'0.47'
p900
aS'0.51'
p901
aS'NUC'
p902
aa(lp903
S'SYG_YEAST'
p904
aS' 0.40'
p905
aS'0.48'
p906
aS'0.50'
p907
aS'0.17'
p908
aS'0.50'
p909
aS'0.00'
p910
aS'0.54'
p911
aS'0.50'
p912
aS'CYT'
p913
aa(lp914
S'GSP1_YEAST'
p915
aS'0.58'
p916
aS'0.48'
p917
aS'0.56'
p918
aS'0.10'
p919
aS'0.50'
p920
aS'0.00'
p921
aS'0.46'
p922
aS'0.25'
p923
aS'NUC'
p924
aa(lp925
S'GSP2_YEAST'
p926
aS'0.58'
p927
aS'0.48'
p928
aS'0.56'
p929
aS'0.12'
p930
aS'0.50'
p931
aS'0.00'
p932
aS'0.46'
p933
aS'0.25'
p934
aS'NUC'
p935
aa(lp936
S'UGS1_YEAST'
p937
aS'0.58'
p938
aS'0.45'
p939
aS'0.48'
p940
aS'0.24'
p941
aS'0.50'
p942
aS'0.00'
p943
aS'0.52'
p944
aS'0.37'
p945
aS'CYT'
p946
aa(lp947
S'UGS2_YEAST'
p948
aS'0.58'
p949
aS'0.41'
p950
aS'0.51'
p951
aS'0.26'
p952
aS'0.50'
p953
aS'0.00'
p954
aS'0.51'
p955
aS'0.37'
p956
aS'CYT'
p957
aa(lp958
S'GTS1_YEAST'
p959
aS'0.41'
p960
aS'0.60'
p961
aS'0.53'
p962
aS'0.29'
p963
aS'0.50'
p964
aS'0.00'
p965
aS'0.47'
p966
aS'0.43'
p967
aS'NUC'
p968
aa(lp969
S'HAL1_YEAST'
p970
aS'0.38'
p971
aS'0.49'
p972
aS'0.61'
p973
aS'0.13'
p974
aS'0.50'
p975
aS'0.00'
p976
aS'0.54'
p977
aS'0.22'
p978
aS'CYT'
p979
aa(lp980
S'CYP1_YEAST'
p981
aS'0.60'
p982
aS'0.48'
p983
aS'0.44'
p984
aS'0.52'
p985
aS'0.50'
p986
aS'0.00'
p987
aS'0.54'
p988
aS'0.63'
p989
aS'NUC'
p990
aa(lp991
S'HAP2_YEAST'
p992
aS'0.47'
p993
aS'0.49'
p994
aS'0.63'
p995
aS'0.17'
p996
aS'0.50'
p997
aS'0.00'
p998
aS'0.31'
p999
aS'0.26'
p1000
aS'NUC'
p1001
aa(lp1002
S'HAP3_YEAST'
p1003
aS'0.28'
p1004
aS'0.51'
p1005
aS'0.55'
p1006
aS'0.11'
p1007
aS'0.50'
p1008
aS'0.00'
p1009
aS'0.46'
p1010
aS'0.22'
p1011
aS'NUC'
p1012
aa(lp1013
S'HAP4_YEAST'
p1014
aS'0.56'
p1015
aS'0.57'
p1016
aS'0.63'
p1017
aS'0.39'
p1018
aS'1.00'
p1019
aS'0.00'
p1020
aS'0.59'
p1021
aS'0.40'
p1022
aS'NUC'
p1023
aa(lp1024
S'HBS1_YEAST'
p1025
aS'0.21'
p1026
aS'0.38'
p1027
aS'0.49'
p1028
aS'0.16'
p1029
aS'0.50'
p1030
aS'0.00'
p1031
aS'0.51'
p1032
aS'0.45'
p1033
aS'CYT'
p1034
aa(lp1035
S'HCM1_YEAST'
p1036
aS'0.46'
p1037
aS'0.57'
p1038
aS'0.57'
p1039
aS'0.15'
p1040
aS'0.50'
p1041
aS'0.00'
p1042
aS'0.52'
p1043
aS'0.26'
p1044
aS'NUC'
p1045
aa(lp1046
S'HDF1_YEAST'
p1047
aS'0.43'
p1048
aS'0.42'
p1049
aS'0.54'
p1050
aS'0.22'
p1051
aS'0.50'
p1052
aS'0.00'
p1053
aS'0.57'
p1054
aS'0.33'
p1055
aS'NUC'
p1056
aa(lp1057
S'HEX2_YEAST'
p1058
aS'0.44'
p1059
aS'0.42'
p1060
aS'0.62'
p1061
aS'0.14'
p1062
aS'0.50'
p1063
aS'0.00'
p1064
aS'0.55'
p1065
aS'0.37'
p1066
aS'NUC'
p1067
aa(lp1068
S'H4_YEAST'
p1069
aS''
p1070
aS'0.37'
p1071
aS'0.34'
p1072
aS'0.58'
p1073
aS'0.24'
p1074
aS'0.50'
p1075
aS'0.00'
p1076
aS'0.44'
p1077
aS'0.18'
p1078
aS'NUC'
p1079
aa(lp1080
S'H4_YEAST'
p1081
ag1070
aS'0.37'
p1082
aS'0.34'
p1083
aS'0.58'
p1084
aS'0.24'
p1085
aS'0.50'
p1086
aS'0.00'
p1087
aS'0.44'
p1088
aS'0.18'
p1089
aS'NUC'
p1090
aa(lp1091
S'H3_YEAST'
p1092
ag1070
aS'0.39'
p1093
aS'0.39'
p1094
aS'0.55'
p1095
aS'0.52'
p1096
aS'0.50'
p1097
aS'0.00'
p1098
aS'0.37'
p1099
aS'0.16'
p1100
aS'NUC'
p1101
aa(lp1102
S'H3_YEAST'
p1103
ag1070
aS'0.39'
p1104
aS'0.39'
p1105
aS'0.55'
p1106
aS'0.52'
p1107
aS'0.50'
p1108
aS'0.00'
p1109
aS'0.37'
p1110
aS'0.16'
p1111
aS'NUC'
p1112
aa(lp1113
S'HIP1_YEAST'
p1114
aS'0.48'
p1115
aS'0.46'
p1116
aS'0.38'
p1117
aS'0.29'
p1118
aS'0.50'
p1119
aS'0.00'
p1120
aS'0.53'
p1121
aS'0.22'
p1122
aS'ME3'
p1123
aa(lp1124
S'HIR1_YEAST'
p1125
aS'0.48'
p1126
aS'0.57'
p1127
aS'0.50'
p1128
aS'0.09'
p1129
aS'0.50'
p1130
aS'0.00'
p1131
aS'0.52'
p1132
aS'0.42'
p1133
aS'NUC'
p1134
aa(lp1135
S'HIR2_YEAST'
p1136
aS'0.61'
p1137
aS'0.57'
p1138
aS'0.45'
p1139
aS'0.21'
p1140
aS'0.50'
p1141
aS'0.00'
p1142
aS'0.50'
p1143
aS'0.42'
p1144
aS'NUC'
p1145
aa(lp1146
S'HMD1_YEAST'
p1147
aS'0.51'
p1148
aS'0.63'
p1149
aS'0.30'
p1150
aS'0.35'
p1151
aS'0.50'
p1152
aS'0.00'
p1153
aS'0.53'
p1154
aS'0.27'
p1155
aS'ME3'
p1156
aa(lp1157
S'HMD2_YEAST'
p1158
aS'0.53'
p1159
aS'0.68'
p1160
aS'0.34'
p1161
aS'0.42'
p1162
aS'0.50'
p1163
aS'0.00'
p1164
aS'0.54'
p1165
aS'0.27'
p1166
aS'ME3'
p1167
aa(lp1168
S'MAT1_YEAST'
p1169
aS'0.37'
p1170
aS'0.22'
p1171
aS'0.64'
p1172
aS'0.35'
p1173
aS'0.50'
p1174
aS'0.00'
p1175
aS'0.47'
p1176
aS'0.22'
p1177
aS'NUC'
p1178
aa(lp1179
S'MAT2_YEAST'
p1180
aS'0.51'
p1181
aS'0.48'
p1182
aS'0.58'
p1183
aS'0.22'
p1184
aS'0.50'
p1185
aS'0.00'
p1186
aS'0.50'
p1187
aS'0.28'
p1188
aS'NUC'
p1189
aa(lp1190
S'MTA1_YEAST'
p1191
aS'0.49'
p1192
aS'0.37'
p1193
aS'0.59'
p1194
aS'0.17'
p1195
aS'0.50'
p1196
aS'0.00'
p1197
aS'0.51'
p1198
aS'0.22'
p1199
aS'NUC'
p1200
aa(lp1201
S'MAT2_YEAST'
p1202
aS'0.51'
p1203
aS'0.48'
p1204
aS'0.58'
p1205
aS'0.22'
p1206
aS'0.50'
p1207
aS'0.00'
p1208
aS'0.50'
p1209
aS'0.28'
p1210
aS'NUC'
p1211
aa(lp1212
S'HO_YEAST'
p1213
ag1070
aS'0.53'
p1214
aS'0.53'
p1215
aS'0.53'
p1216
aS'0.17'
p1217
aS'0.50'
p1218
aS'0.00'
p1219
aS'0.49'
p1220
aS'0.37'
p1221
aS'NUC'
p1222
aa(lp1223
S'HOP1_YEAST'
p1224
aS'0.29'
p1225
aS'0.68'
p1226
aS'0.47'
p1227
aS'0.26'
p1228
aS'0.50'
p1229
aS'0.00'
p1230
aS'0.47'
p1231
aS'0.37'
p1232
aS'NUC'
p1233
aa(lp1234
S'HPR1_YEAST'
p1235
aS'0.50'
p1236
aS'0.45'
p1237
aS'0.49'
p1238
aS'0.15'
p1239
aS'0.50'
p1240
aS'0.00'
p1241
aS'0.55'
p1242
aS'0.43'
p1243
aS'NUC'
p1244
aa(lp1245
S'HXTY_YEAST'
p1246
aS'0.33'
p1247
aS'0.28'
p1248
aS'0.31'
p1249
aS'0.24'
p1250
aS'0.50'
p1251
aS'0.00'
p1252
aS'0.53'
p1253
aS'0.22'
p1254
aS'ME3'
p1255
aa(lp1256
S'HR25_YEAST'
p1257
aS'0.43'
p1258
aS'0.39'
p1259
aS'0.51'
p1260
aS'0.28'
p1261
aS'0.50'
p1262
aS'0.00'
p1263
aS'0.40'
p1264
aS'0.22'
p1265
aS'NUC'
p1266
aa(lp1267
S'HSF_YEAST'
p1268
aS' 0.34'
p1269
aS'0.35'
p1270
aS'0.61'
p1271
aS'0.19'
p1272
aS'0.50'
p1273
aS'0.00'
p1274
aS'0.52'
p1275
aS'0.25'
p1276
aS'NUC'
p1277
aa(lp1278
S'HS30_YEAST'
p1279
aS'0.37'
p1280
aS'0.62'
p1281
aS'0.34'
p1282
aS'0.25'
p1283
aS'0.50'
p1284
aS'0.00'
p1285
aS'0.51'
p1286
aS'0.22'
p1287
aS'ME3'
p1288
aa(lp1289
S'H2A1_YEAST'
p1290
aS'0.44'
p1291
aS'0.53'
p1292
aS'0.52'
p1293
aS'0.37'
p1294
aS'0.50'
p1295
aS'0.00'
p1296
aS'0.50'
p1297
aS'0.22'
p1298
aS'NUC'
p1299
aa(lp1300
S'H2A2_YEAST'
p1301
aS'0.44'
p1302
aS'0.53'
p1303
aS'0.52'
p1304
aS'0.37'
p1305
aS'0.50'
p1306
aS'0.00'
p1307
aS'0.50'
p1308
aS'0.22'
p1309
aS'NUC'
p1310
aa(lp1311
S'H2B1_YEAST'
p1312
aS'0.32'
p1313
aS'0.34'
p1314
aS'0.61'
p1315
aS'0.17'
p1316
aS'0.50'
p1317
aS'0.00'
p1318
aS'0.52'
p1319
aS'0.32'
p1320
aS'NUC'
p1321
aa(lp1322
S'H2B2_YEAST'
p1323
aS'0.34'
p1324
aS'0.34'
p1325
aS'0.61'
p1326
aS'0.18'
p1327
aS'0.50'
p1328
aS'0.00'
p1329
aS'0.52'
p1330
aS'0.32'
p1331
aS'NUC'
p1332
aa(lp1333
S'HXT1_YEAST'
p1334
aS'0.30'
p1335
aS'0.50'
p1336
aS'0.34'
p1337
aS'0.26'
p1338
aS'0.50'
p1339
aS'0.00'
p1340
aS'0.51'
p1341
aS'0.22'
p1342
aS'ME3'
p1343
aa(lp1344
S'HXT2_YEAST'
p1345
aS'0.49'
p1346
aS'0.40'
p1347
aS'0.34'
p1348
aS'0.26'
p1349
aS'0.50'
p1350
aS'0.00'
p1351
aS'0.50'
p1352
aS'0.22'
p1353
aS'ME3'
p1354
aa(lp1355
S'HXT3_YEAST'
p1356
aS'0.34'
p1357
aS'0.40'
p1358
aS'0.30'
p1359
aS'0.23'
p1360
aS'0.50'
p1361
aS'0.00'
p1362
aS'0.51'
p1363
aS'0.22'
p1364
aS'ME3'
p1365
aa(lp1366
S'HXT4_YEAST'
p1367
aS'0.43'
p1368
aS'0.44'
p1369
aS'0.30'
p1370
aS'0.18'
p1371
aS'0.50'
p1372
aS'0.00'
p1373
aS'0.51'
p1374
aS'0.22'
p1375
aS'ME3'
p1376
aa(lp1377
S'HXT5_YEAST'
p1378
aS'0.43'
p1379
aS'0.45'
p1380
aS'0.37'
p1381
aS'0.12'
p1382
aS'0.50'
p1383
aS'0.00'
p1384
aS'0.48'
p1385
aS'0.22'
p1386
aS'ME3'
p1387
aa(lp1388
S'HXT6_YEAST'
p1389
aS'0.45'
p1390
aS'0.57'
p1391
aS'0.30'
p1392
aS'0.17'
p1393
aS'0.50'
p1394
aS'0.00'
p1395
aS'0.51'
p1396
aS'0.22'
p1397
aS'ME3'
p1398
aa(lp1399
S'HXT7_YEAST'
p1400
aS'0.45'
p1401
aS'0.57'
p1402
aS'0.30'
p1403
aS'0.17'
p1404
aS'0.50'
p1405
aS'0.00'
p1406
aS'0.51'
p1407
aS'0.22'
p1408
aS'ME3'
p1409
aa(lp1410
S'IME1_YEAST'
p1411
aS'0.54'
p1412
aS'0.45'
p1413
aS'0.62'
p1414
aS'0.13'
p1415
aS'0.50'
p1416
aS'0.00'
p1417
aS'0.52'
p1418
aS'0.26'
p1419
aS'NUC'
p1420
aa(lp1421
S'INO2_YEAST'
p1422
aS'0.56'
p1423
aS'0.45'
p1424
aS'0.59'
p1425
aS'0.14'
p1426
aS'0.50'
p1427
aS'0.00'
p1428
aS'0.51'
p1429
aS'0.26'
p1430
aS'NUC'
p1431
aa(lp1432
S'INO4_YEAST'
p1433
aS'0.45'
p1434
aS'0.38'
p1435
aS'0.59'
p1436
aS'0.18'
p1437
aS'0.50'
p1438
aS'0.00'
p1439
aS'0.44'
p1440
aS'0.45'
p1441
aS'NUC'
p1442
aa(lp1443
S'IRE1_YEAST'
p1444
aS'0.89'
p1445
aS'0.81'
p1446
aS'0.36'
p1447
aS'0.71'
p1448
aS'0.50'
p1449
aS'0.00'
p1450
aS'0.55'
p1451
aS'0.63'
p1452
aS'ME1'
p1453
aa(lp1454
S'IXR1_YEAST'
p1455
aS'0.42'
p1456
aS'0.32'
p1457
aS'0.61'
p1458
aS'0.13'
p1459
aS'0.50'
p1460
aS'0.00'
p1461
aS'0.14'
p1462
aS'0.27'
p1463
aS'NUC'
p1464
aa(lp1465
S'YJ13_YEAST'
p1466
aS'0.68'
p1467
aS'0.50'
p1468
aS'0.43'
p1469
aS'0.27'
p1470
aS'0.50'
p1471
aS'0.00'
p1472
aS'0.61'
p1473
aS'0.22'
p1474
aS'ME2'
p1475
aa(lp1476
S'YJ16_YEAST'
p1477
aS'0.50'
p1478
aS'0.45'
p1479
aS'0.49'
p1480
aS'0.30'
p1481
aS'0.50'
p1482
aS'0.00'
p1483
aS'0.47'
p1484
aS'0.40'
p1485
aS'NUC'
p1486
aa(lp1487
S'YJ49_YEAST'
p1488
aS'0.70'
p1489
aS'0.73'
p1490
aS'0.37'
p1491
aS'0.37'
p1492
aS'0.50'
p1493
aS'0.00'
p1494
aS'0.48'
p1495
aS'0.31'
p1496
aS'ME1'
p1497
aa(lp1498
S'KAR1_YEAST'
p1499
aS'0.23'
p1500
aS'0.34'
p1501
aS'0.41'
p1502
aS'0.28'
p1503
aS'0.50'
p1504
aS'0.00'
p1505
aS'0.50'
p1506
aS'0.27'
p1507
aS'NUC'
p1508
aa(lp1509
S'GR78_YEAST'
p1510
aS'0.85'
p1511
aS'0.56'
p1512
aS'0.33'
p1513
aS'0.38'
p1514
aS'1.00'
p1515
aS'0.00'
p1516
aS'0.55'
p1517
aS'0.25'
p1518
aS'ERL'
p1519
aa(lp1520
S'KAR3_YEAST'
p1521
aS'0.34'
p1522
aS'0.31'
p1523
aS'0.60'
p1524
aS'0.37'
p1525
aS'0.50'
p1526
aS'0.00'
p1527
aS'0.50'
p1528
aS'0.30'
p1529
aS'NUC'
p1530
aa(lp1531
S'KEM1_YEAST'
p1532
aS'0.59'
p1533
aS'0.53'
p1534
aS'0.47'
p1535
aS'0.26'
p1536
aS'0.50'
p1537
aS'0.00'
p1538
aS'0.53'
p1539
aS'0.31'
p1540
aS'NUC'
p1541
aa(lp1542
S'KEX1_YEAST'
p1543
aS'0.67'
p1544
aS'0.63'
p1545
aS'0.34'
p1546
aS'0.41'
p1547
aS'0.50'
p1548
aS'0.00'
p1549
aS'0.60'
p1550
aS'0.33'
p1551
aS'ME1'
p1552
aa(lp1553
S'KEX2_YEAST'
p1554
aS'0.70'
p1555
aS'0.73'
p1556
aS'0.38'
p1557
aS'0.36'
p1558
aS'0.50'
p1559
aS'0.00'
p1560
aS'0.54'
p1561
aS'0.22'
p1562
aS'ME1'
p1563
aa(lp1564
S'KHR1_YEAST'
p1565
aS'0.84'
p1566
aS'0.63'
p1567
aS'0.38'
p1568
aS'0.23'
p1569
aS'0.50'
p1570
aS'0.00'
p1571
aS'0.53'
p1572
aS'0.22'
p1573
aS'EXC'
p1574
aa(lp1575
S'KHS1_YEAST'
p1576
aS'0.89'
p1577
aS'0.77'
p1578
aS'0.36'
p1579
aS'0.34'
p1580
aS'0.50'
p1581
aS'0.00'
p1582
aS'0.44'
p1583
aS'0.22'
p1584
aS'EXC'
p1585
aa(lp1586
S'KI28_YEAST'
p1587
aS'0.57'
p1588
aS'0.49'
p1589
aS'0.48'
p1590
aS'0.16'
p1591
aS'0.50'
p1592
aS'0.00'
p1593
aS'0.51'
p1594
aS'0.22'
p1595
aS'NUC'
p1596
aa(lp1597
S'SMI1_YEAST'
p1598
aS'0.43'
p1599
aS'0.32'
p1600
aS'0.56'
p1601
aS'0.27'
p1602
aS'0.50'
p1603
aS'0.00'
p1604
aS'0.47'
p1605
aS'0.27'
p1606
aS'NUC'
p1607
aa(lp1608
S'KRE1_YEAST'
p1609
aS'0.84'
p1610
aS'0.87'
p1611
aS'0.45'
p1612
aS'0.54'
p1613
aS'0.50'
p1614
aS'0.00'
p1615
aS'0.28'
p1616
aS'0.22'
p1617
aS'ME1'
p1618
aa(lp1619
S'KSS1_YEAST'
p1620
aS'0.52'
p1621
aS'0.48'
p1622
aS'0.54'
p1623
aS'0.28'
p1624
aS'0.50'
p1625
aS'0.00'
p1626
aS'0.54'
p1627
aS'0.22'
p1628
aS'NUC'
p1629
aa(lp1630
S'LAS1_YEAST'
p1631
aS'0.43'
p1632
aS'0.38'
p1633
aS'0.51'
p1634
aS'0.24'
p1635
aS'0.50'
p1636
aS'0.00'
p1637
aS'0.46'
p1638
aS'0.33'
p1639
aS'NUC'
p1640
aa(lp1641
S'PEP3_YEAST'
p1642
aS'0.51'
p1643
aS'0.46'
p1644
aS'0.49'
p1645
aS'0.21'
p1646
aS'0.50'
p1647
aS'0.00'
p1648
aS'0.55'
p1649
aS'0.22'
p1650
aS'VAC'
p1651
aa(lp1652
S'CARP_YEAST'
p1653
aS'0.80'
p1654
aS'0.82'
p1655
aS'0.57'
p1656
aS'0.26'
p1657
aS'0.50'
p1658
aS'0.00'
p1659
aS'0.57'
p1660
aS'0.27'
p1661
aS'VAC'
p1662
aa(lp1663
S'END1_YEAST'
p1664
aS'0.46'
p1665
aS'0.49'
p1666
aS'0.45'
p1667
aS'0.28'
p1668
aS'0.50'
p1669
aS'0.00'
p1670
aS'0.55'
p1671
aS'0.22'
p1672
aS'VAC'
p1673
aa.