(lp0
(lp1
S'ATPD_YEAST'
p2
aS'0.50'
p3
aS'0.58'
p4
aS'0.46'
p5
aS'0.46'
p6
aS'0.50'
p7
aS'0.00'
p8
aS'0.46'
p9
aS'0.22'
p10
aS'MIT'
p11
aa(lp12
S'ATPO_YEAST'
p13
aS'0.51'
p14
aS'0.54'
p15
aS'0.60'
p16
aS'0.57'
p17
aS'0.50'
p18
aS'0.00'
p19
aS'0.58'
p20
aS'0.22'
p21
aS'MIT'
p22
aa(lp23
S'ATP7_YEAST'
p24
aS'0.54'
p25
aS'0.52'
p26
aS'0.63'
p27
aS'0.37'
p28
aS'0.50'
p29
aS'0.00'
p30
aS'0.46'
p31
aS'0.22'
p32
aS'MIT'
p33
aa(lp34
S'ATP8_YEAST'
p35
aS'0.67'
p36
aS'0.62'
p37
aS'0.40'
p38
aS'0.43'
p39
aS'0.50'
p40
aS'0.83'
p41
aS'0.50'
p42
aS'0.22'
p43
aS'MIT'
p44
aa(lp45
S'BCS1_YEAST'
p46
aS'0.46'
p47
aS'0.38'
p48
aS'0.47'
p49
aS'0.22'
p50
aS'0.50'
p51
aS'0.00'
p52
aS'0.52'
p53
aS'0.27'
p54
aS'MIT'
p55
aa(lp56
S'BGL2_YEAST'
p57
aS'0.69'
p58
aS'0.70'
p59
aS'0.52'
p60
aS'0.36'
p61
aS'0.50'
p62
aS'0.00'
p63
aS'0.46'
p64
aS'0.22'
p65
aS'EXC'
p66
aa(lp67
S'CYBM_YEAST'
p68
aS'0.61'
p69
aS'0.72'
p70
aS'0.39'
p71
aS'0.33'
p72
aS'0.50'
p73
aS'0.00'
p74
aS'0.58'
p75
aS'0.22'
p76
aS'MIT'
p77
aa(lp78
S'YMC4_YEAST'
p79
aS'0.78'
p80
aS'0.75'
p81
aS'0.40'
p82
aS'0.28'
p83
aS'0.50'
p84
aS'0.00'
p85
aS'0.53'
p86
aS'0.22'
p87
aS'MIT'
p88
aa(lp89
S'CBP1_YEAST'
p90
aS'0.45'
p91
aS'0.45'
p92
aS'0.50'
p93
aS'0.60'
p94
aS'0.50'
p95
aS'0.00'
p96
aS'0.49'
p97
aS'0.22'
p98
aS'MIT'
p99
aa(lp100
S'CBP2_YEAST'
p101
aS'0.59'
p102
aS'0.67'
p103
aS'0.56'
p104
aS'0.41'
p105
aS'0.50'
p106
aS'0.00'
p107
aS'0.47'
p108
aS'0.22'
p109
aS'MIT'
p110
aa(lp111
S'CBP3_YEAST'
p112
aS'0.47'
p113
aS'0.47'
p114
aS'0.57'
p115
aS'0.48'
p116
aS'0.50'
p117
aS'0.00'
p118
aS'0.48'
p119
aS'0.22'
p120
aS'MIT'
p121
aa(lp122
S'CBP4_YEAST'
p123
aS'0.35'
p124
aS'0.52'
p125
aS'0.48'
p126
aS'0.22'
p127
aS'0.50'
p128
aS'0.00'
p129
aS'0.26'
p130
aS'0.22'
p131
aS'MIT'
p132
aa(lp133
S'CBP6_YEAST'
p134
aS'0.47'
p135
aS'0.41'
p136
aS'0.66'
p137
aS'0.26'
p138
aS'0.50'
p139
aS'0.00'
p140
aS'0.53'
p141
aS'0.22'
p142
aS'MIT'
p143
aa(lp144
S'NC5R_YEAST'
p145
aS'0.64'
p146
aS'0.62'
p147
aS'0.29'
p148
aS'0.28'
p149
aS'0.50'
p150
aS'0.00'
p151
aS'0.51'
p152
aS'0.22'
p153
aS'MIT'
p154
aa(lp155
S'CBS1_YEAST'
p156
aS'0.55'
p157
aS'0.53'
p158
aS'0.55'
p159
aS'0.46'
p160
aS'0.50'
p161
aS'0.00'
p162
aS'0.52'
p163
aS'0.22'
p164
aS'MIT'
p165
aa(lp166
S'CBS2_YEAST'
p167
aS'0.67'
p168
aS'0.62'
p169
aS'0.54'
p170
aS'0.43'
p171
aS'0.50'
p172
aS'0.00'
p173
aS'0.53'
p174
aS'0.22'
p175
aS'MIT'
p176
aa(lp177
S'TNT_YEAST'
p178
aS' 0.59'
p179
aS'0.60'
p180
aS'0.49'
p181
aS'0.43'
p182
aS'0.50'
p183
aS'0.00'
p184
aS'0.53'
p185
aS'0.31'
p186
aS'MIT'
p187
aa(lp188
S'CCE1_YEAST'
p189
aS'0.58'
p190
aS'0.62'
p191
aS'0.54'
p192
aS'0.17'
p193
aS'0.50'
p194
aS'0.00'
p195
aS'0.48'
p196
aS'0.22'
p197
aS'MIT'
p198
aa(lp199
S'CCPR_YEAST'
p200
aS'0.46'
p201
aS'0.71'
p202
aS'0.48'
p203
aS'0.53'
p204
aS'0.50'
p205
aS'0.00'
p206
aS'0.53'
p207
aS'0.22'
p208
aS'MIT'
p209
aa(lp210
S'CC42_YEAST'
p211
aS'0.59'
p212
aS'0.48'
p213
aS'0.50'
p214
aS'0.14'
p215
aS'0.50'
p216
aS'0.00'
p217
aS'0.45'
p218
aS'0.25'
p219
aS'CYT'
p220
aa(lp221
S'CAL1_YEAST'
p222
aS'0.39'
p223
aS'0.55'
p224
aS'0.48'
p225
aS'0.31'
p226
aS'0.50'
p227
aS'0.00'
p228
aS'0.54'
p229
aS'0.29'
p230
aS'CYT'
p231
aa(lp232
S'CC48_YEAST'
p233
aS'0.44'
p234
aS'0.39'
p235
aS'0.53'
p236
aS'0.14'
p237
aS'0.50'
p238
aS'0.00'
p239
aS'0.54'
p240
aS'0.44'
p241
aS'CYT'
p242
aa(lp243
S'SYLC_YEAST'
p244
aS'0.45'
p245
aS'0.43'
p246
aS'0.51'
p247
aS'0.24'
p248
aS'0.50'
p249
aS'0.00'
p250
aS'0.54'
p251
aS'0.33'
p252
aS'CYT'
p253
aa(lp254
S'KTHY_YEAST'
p255
aS'0.42'
p256
aS'0.43'
p257
aS'0.56'
p258
aS'0.10'
p259
aS'0.50'
p260
aS'0.00'
p261
aS'0.49'
p262
aS'0.22'
p263
aS'CYT'
p264
aa(lp265
S'CEM1_YEAST'
p266
aS'0.71'
p267
aS'0.59'
p268
aS'0.48'
p269
aS'0.43'
p270
aS'0.50'
p271
aS'0.00'
p272
aS'0.59'
p273
aS'0.22'
p274
aS'MIT'
p275
aa(lp276
S'RLUB_YEAST'
p277
aS'0.40'
p278
aS'0.42'
p279
aS'0.71'
p280
aS'0.21'
p281
aS'0.50'
p282
aS'0.00'
p283
aS'0.54'
p284
aS'0.32'
p285
aS'CYT'
p286
aa(lp287
S'RLUB_YEAST'
p288
aS'0.40'
p289
aS'0.42'
p290
aS'0.71'
p291
aS'0.21'
p292
aS'0.50'
p293
aS'0.00'
p294
aS'0.54'
p295
aS'0.32'
p296
aS'CYT'
p297
aa(lp298
S'CLH_YEAST'
p299
aS' 0.54'
p300
aS'0.49'
p301
aS'0.49'
p302
aS'0.20'
p303
aS'0.50'
p304
aS'0.00'
p305
aS'0.52'
p306
aS'0.22'
p307
aS'CYT'
p308
aa(lp309
S'CIN1_YEAST'
p310
aS'0.48'
p311
aS'0.61'
p312
aS'0.44'
p313
aS'0.20'
p314
aS'0.50'
p315
aS'0.00'
p316
aS'0.47'
p317
aS'0.22'
p318
aS'CYT'
p319
aa(lp320
S'CIN4_YEAST'
p321
aS'0.66'
p322
aS'0.45'
p323
aS'0.50'
p324
aS'0.23'
p325
aS'0.50'
p326
aS'0.00'
p327
aS'0.49'
p328
aS'0.22'
p329
aS'CYT'
p330
aa(lp331
S'CIN8_YEAST'
p332
aS'0.21'
p333
aS'0.41'
p334
aS'0.55'
p335
aS'0.11'
p336
aS'0.50'
p337
aS'0.00'
p338
aS'0.50'
p339
aS'0.27'
p340
aS'CYT'
p341
aa(lp342
S'CISY_YEAST'
p343
aS'0.38'
p344
aS'0.68'
p345
aS'0.44'
p346
aS'0.45'
p347
aS'0.50'
p348
aS'0.00'
p349
aS'0.53'
p350
aS'0.22'
p351
aS'MIT'
p352
aa(lp353
S'KC22_YEAST'
p354
aS'0.49'
p355
aS'0.31'
p356
aS'0.49'
p357
aS'0.35'
p358
aS'0.50'
p359
aS'0.00'
p360
aS'0.51'
p361
aS'0.29'
p362
aS'NUC'
p363
aa(lp364
S'KC2C_YEAST'
p365
aS'0.38'
p366
aS'0.37'
p367
aS'0.56'
p368
aS'0.21'
p369
aS'0.50'
p370
aS'0.00'
p371
aS'0.49'
p372
aS'0.22'
p373
aS'NUC'
p374
aa(lp375
S'KICH_YEAST'
p376
aS'0.39'
p377
aS'0.40'
p378
aS'0.53'
p379
aS'0.67'
p380
aS'0.50'
p381
aS'0.00'
p382
aS'0.47'
p383
aS'0.22'
p384
aS'CYT'
p385
aa(lp386
S'CLC1_YEAST'
p387
aS'0.24'
p388
aS'0.34'
p389
aS'0.69'
p390
aS'0.18'
p391
aS'0.50'
p392
aS'0.00'
p393
aS'0.52'
p394
aS'0.22'
p395
aS'CYT'
p396
aa(lp397
S'CG11_YEAST'
p398
aS'0.49'
p399
aS'0.43'
p400
aS'0.51'
p401
aS'0.13'
p402
aS'0.50'
p403
aS'0.00'
p404
aS'0.47'
p405
aS'0.22'
p406
aS'CYT'
p407
aa(lp408
S'CG12_YEAST'
p409
aS'0.54'
p410
aS'0.38'
p411
aS'0.52'
p412
aS'0.18'
p413
aS'0.50'
p414
aS'0.00'
p415
aS'0.48'
p416
aS'0.22'
p417
aS'CYT'
p418
aa(lp419
S'CG13_YEAST'
p420
aS'0.43'
p421
aS'0.57'
p422
aS'0.53'
p423
aS'0.53'
p424
aS'0.50'
p425
aS'0.00'
p426
aS'0.53'
p427
aS'0.25'
p428
aS'CYT'
p429
aa(lp430
S'CALM_YEAST'
p431
aS'0.48'
p432
aS'0.64'
p433
aS'0.61'
p434
aS'0.23'
p435
aS'0.50'
p436
aS'0.00'
p437
aS'0.60'
p438
aS'0.22'
p439
aS'CYT'
p440
aa(lp441
S'KCC1_YEAST'
p442
aS'0.31'
p443
aS'0.55'
p444
aS'0.52'
p445
aS'0.17'
p446
aS'0.50'
p447
aS'0.00'
p448
aS'0.52'
p449
aS'0.22'
p450
aS'CYT'
p451
aa(lp452
S'KCC2_YEAST'
p453
aS'0.32'
p454
aS'0.57'
p455
aS'0.50'
p456
aS'0.15'
p457
aS'0.50'
p458
aS'0.00'
p459
aS'0.53'
p460
aS'0.22'
p461
aS'CYT'
p462
aa(lp463
S'P2B1_YEAST'
p464
aS'0.32'
p465
aS'0.42'
p466
aS'0.52'
p467
aS'0.24'
p468
aS'0.50'
p469
aS'0.00'
p470
aS'0.60'
p471
aS'0.22'
p472
aS'CYT'
p473
aa(lp474
S'P2B2_YEAST'
p475
aS'0.59'
p476
aS'0.50'
p477
aS'0.52'
p478
aS'0.28'
p479
aS'0.50'
p480
aS'0.00'
p481
aS'0.55'
p482
aS'0.25'
p483
aS'CYT'
p484
aa(lp485
S'CALB_YEAST'
p486
aS'0.37'
p487
aS'0.42'
p488
aS'0.51'
p489
aS'0.11'
p490
aS'0.50'
p491
aS'0.00'
p492
aS'0.57'
p493
aS'0.22'
p494
aS'CYT'
p495
aa(lp496
S'CYB_YEAST'
p497
aS' 0.61'
p498
aS'0.72'
p499
aS'0.31'
p500
aS'0.33'
p501
aS'0.50'
p502
aS'0.00'
p503
aS'0.56'
p504
aS'0.22'
p505
aS'MIT'
p506
aa(lp507
S'COFI_YEAST'
p508
aS'0.44'
p509
aS'0.42'
p510
aS'0.60'
p511
aS'0.21'
p512
aS'0.50'
p513
aS'0.00'
p514
aS'0.57'
p515
aS'0.22'
p516
aS'CYT'
p517
aa(lp518
S'COQ1_YEAST'
p519
aS'0.52'
p520
aS'0.51'
p521
aS'0.51'
p522
aS'0.54'
p523
aS'0.50'
p524
aS'0.00'
p525
aS'0.55'
p526
aS'0.27'
p527
aS'MIT'
p528
aa(lp529
S'COQ2_YEAST'
p530
aS'0.63'
p531
aS'0.56'
p532
aS'0.45'
p533
aS'0.58'
p534
aS'0.50'
p535
aS'0.00'
p536
aS'0.51'
p537
aS'0.22'
p538
aS'MIT'
p539
aa(lp540
S'COQ3_YEAST'
p541
aS'0.52'
p542
aS'0.56'
p543
aS'0.54'
p544
aS'0.53'
p545
aS'0.50'
p546
aS'0.00'
p547
aS'0.45'
p548
aS'0.22'
p549
aS'MIT'
p550
aa(lp551
S'UCR1_YEAST'
p552
aS'0.58'
p553
aS'0.58'
p554
aS'0.58'
p555
aS'0.49'
p556
aS'0.50'
p557
aS'0.00'
p558
aS'0.49'
p559
aS'0.26'
p560
aS'MIT'
p561
aa(lp562
S'CARA_YEAST'
p563
aS'0.53'
p564
aS'0.51'
p565
aS'0.46'
p566
aS'0.28'
p567
aS'0.50'
p568
aS'0.00'
p569
aS'0.48'
p570
aS'0.22'
p571
aS'CYT'
p572
aa(lp573
S'CARB_YEAST'
p574
aS'0.35'
p575
aS'0.66'
p576
aS'0.49'
p577
aS'0.21'
p578
aS'0.50'
p579
aS'0.00'
p580
aS'0.54'
p581
aS'0.25'
p582
aS'CYT'
p583
aa(lp584
S'CYPH_YEAST'
p585
aS'0.52'
p586
aS'0.40'
p587
aS'0.60'
p588
aS'0.12'
p589
aS'0.50'
p590
aS'0.00'
p591
aS'0.55'
p592
aS'0.22'
p593
aS'CYT'
p594
aa(lp595
S'CYPB_YEAST'
p596
aS'0.77'
p597
aS'0.79'
p598
aS'0.58'
p599
aS'0.23'
p600
aS'0.50'
p601
aS'0.00'
p602
aS'0.48'
p603
aS'0.22'
p604
aS'EXC'
p605
aa(lp606
S'CRM1_YEAST'
p607
aS'0.56'
p608
aS'0.52'
p609
aS'0.48'
p610
aS'0.17'
p611
aS'0.50'
p612
aS'0.00'
p613
aS'0.46'
p614
aS'0.22'
p615
aS'NUC'
p616
aa(lp617
S'R141_YEAST'
p618
aS'0.57'
p619
aS'0.41'
p620
aS'0.59'
p621
aS'0.24'
p622
aS'0.50'
p623
aS'0.00'
p624
aS'0.40'
p625
aS'0.22'
p626
aS'CYT'
p627
aa(lp628
S'R142_YEAST'
p629
aS'0.56'
p630
aS'0.41'
p631
aS'0.58'
p632
aS'0.21'
p633
aS'0.50'
p634
aS'0.00'
p635
aS'0.42'
p636
aS'0.22'
p637
aS'CYT'
p638
aa(lp639
S'CSE1_YEAST'
p640
aS'0.58'
p641
aS'0.56'
p642
aS'0.45'
p643
aS'0.12'
p644
aS'0.50'
p645
aS'0.00'
p646
aS'0.51'
p647
aS'0.22'
p648
aS'NUC'
p649
aa(lp650
S'CSE2_YEAST'
p651
aS'0.53'
p652
aS'0.38'
p653
aS'0.66'
p654
aS'0.25'
p655
aS'0.50'
p656
aS'0.00'
p657
aS'0.43'
p658
aS'0.22'
p659
aS'NUC'
p660
aa(lp661
S'YKE9_YEAST'
p662
aS'0.34'
p663
aS'0.36'
p664
aS'0.54'
p665
aS'0.11'
p666
aS'0.50'
p667
aS'0.00'
p668
aS'0.36'
p669
aS'0.21'
p670
aS'NUC'
p671
aa(lp672
S'CATA_YEAST'
p673
aS'0.37'
p674
aS'0.53'
p675
aS'0.60'
p676
aS'0.19'
p677
aS'0.50'
p678
aS'0.50'
p679
aS'0.42'
p680
aS'0.22'
p681
aS'POX'
p682
aa(lp683
S'CB33_YEAST'
p684
aS'0.41'
p685
aS'0.45'
p686
aS'0.53'
p687
aS'0.17'
p688
aS'0.50'
p689
aS'0.00'
p690
aS'0.51'
p691
aS'0.25'
p692
aS'NUC'
p693
aa(lp694
S'CTK1_YEAST'
p695
aS'0.31'
p696
aS'0.46'
p697
aS'0.54'
p698
aS'0.52'
p699
aS'0.50'
p700
aS'0.00'
p701
aS'0.50'
p702
aS'0.34'
p703
aS'NUC'
p704
aa(lp705
S'CTR1_YEAST'
p706
aS'0.36'
p707
aS'0.37'
p708
aS'0.33'
p709
aS'0.14'
p710
aS'0.50'
p711
aS'0.00'
p712
aS'0.57'
p713
aS'0.31'
p714
aS'ME3'
p715
aa(lp716
S'CHI1_YEAST'
p717
aS'0.82'
p718
aS'0.78'
p719
aS'0.49'
p720
aS'0.23'
p721
aS'0.50'
p722
aS'0.00'
p723
aS'0.46'
p724
aS'0.22'
p725
aS'EXC'
p726
aa(lp727
S'CHI2_YEAST'
p728
aS'0.82'
p729
aS'0.75'
p730
aS'0.54'
p731
aS'0.23'
p732
aS'0.50'
p733
aS'0.00'
p734
aS'0.46'
p735
aS'0.22'
p736
aS'EXC'
p737
aa(lp738
S'CATT_YEAST'
p739
aS'0.41'
p740
aS'0.51'
p741
aS'0.58'
p742
aS'0.15'
p743
aS'0.50'
p744
aS'0.00'
p745
aS'0.45'
p746
aS'0.27'
p747
aS'CYT'
p748
aa(lp749
S'MTC_YEAST'
p750
aS' 0.38'
p751
aS'0.51'
p752
aS'0.75'
p753
aS'0.17'
p754
aS'0.50'
p755
aS'0.00'
p756
aS'0.55'
p757
aS'0.22'
p758
aS'CYT'
p759
aa(lp760
S'MTC_YEAST'
p761
aS' 0.38'
p762
aS'0.51'
p763
aS'0.75'
p764
aS'0.17'
p765
aS'0.50'
p766
aS'0.00'
p767
aS'0.55'
p768
aS'0.22'
p769
aS'CYT'
p770
aa(lp771
S'RL2A_YEAST'
p772
aS'0.45'
p773
aS'0.27'
p774
aS'0.57'
p775
aS'0.36'
p776
aS'0.50'
p777
aS'0.00'
p778
aS'0.52'
p779
aS'0.18'
p780
aS'CYT'
p781
aa(lp782
S'CYAA_YEAST'
p783
aS'0.20'
p784
aS'0.26'
p785
aS'0.52'
p786
aS'0.14'
p787
aS'0.50'
p788
aS'0.00'
p789
aS'0.53'
p790
aS'0.44'
p791
aS'CYT'
p792
aa(lp793
S'CYS3_YEAST'
p794
aS'0.51'
p795
aS'0.53'
p796
aS'0.55'
p797
aS'0.14'
p798
aS'0.50'
p799
aS'0.00'
p800
aS'0.51'
p801
aS'0.22'
p802
aS'CYT'
p803
aa(lp804
S'DAL4_YEAST'
p805
aS'0.55'
p806
aS'0.42'
p807
aS'0.34'
p808
aS'0.30'
p809
aS'0.50'
p810
aS'0.00'
p811
aS'0.52'
p812
aS'0.22'
p813
aS'ME3'
p814
aa(lp815
S'DAL5_YEAST'
p816
aS'0.34'
p817
aS'0.42'
p818
aS'0.30'
p819
aS'0.23'
p820
aS'0.50'
p821
aS'0.00'
p822
aS'0.53'
p823
aS'0.22'
p824
aS'ME3'
p825
aa(lp826
S'MASZ_YEAST'
p827
aS'0.44'
p828
aS'0.53'
p829
aS'0.52'
p830
aS'0.23'
p831
aS'0.50'
p832
aS'0.83'
p833
aS'0.51'
p834
aS'0.22'
p835
aS'POX'
p836
aa(lp837
S'DA80_YEAST'
p838
aS'0.59'
p839
aS'0.58'
p840
aS'0.56'
p841
aS'0.21'
p842
aS'0.50'
p843
aS'0.00'
p844
aS'0.54'
p845
aS'0.33'
p846
aS'NUC'
p847
aa(lp848
S'DA81_YEAST'
p849
aS'0.39'
p850
aS'0.28'
p851
aS'0.46'
p852
aS'0.12'
p853
aS'0.50'
p854
aS'0.00'
p855
aS'0.41'
p856
aS'0.22'
p857
aS'NUC'
p858
aa(lp859
S'DA82_YEAST'
p860
aS'0.56'
p861
aS'0.43'
p862
aS'0.54'
p863
aS'0.16'
p864
aS'0.50'
p865
aS'0.00'
p866
aS'0.50'
p867
aS'0.22'
p868
aS'NUC'
p869
aa(lp870
S'DAP2_YEAST'
p871
aS'0.36'
p872
aS'0.68'
p873
aS'0.38'
p874
aS'0.08'
p875
aS'0.50'
p876
aS'0.00'
p877
aS'0.53'
p878
aS'0.25'
p879
aS'VAC'
p880
aa(lp881
S'DATI_YEAST'
p882
aS'0.27'
p883
aS'0.36'
p884
aS'0.60'
p885
aS'0.33'
p886
aS'0.50'
p887
aS'0.00'
p888
aS'0.37'
p889
aS'0.31'
p890
aS'NUC'
p891
aa(lp892
S'DBF4_YEAST'
p893
aS'0.35'
p894
aS'0.40'
p895
aS'0.59'
p896
aS'0.22'
p897
aS'0.50'
p898
aS'0.00'
p899
aS'0.47'
p900
aS'0.37'
p901
aS'NUC'
p902
aa(lp903
S'DBP1_YEAST'
p904
aS'0.42'
p905
aS'0.32'
p906
aS'0.50'
p907
aS'0.21'
p908
aS'0.50'
p909
aS'0.00'
p910
aS'0.51'
p911
aS'0.22'
p912
aS'NUC'
p913
aa(lp914
S'DBP2_YEAST'
p915
aS'0.23'
p916
aS'0.20'
p917
aS'0.53'
p918
aS'0.20'
p919
aS'0.50'
p920
aS'0.00'
p921
aS'0.44'
p922
aS'0.22'
p923
aS'NUC'
p924
aa(lp925
S'DBR1_YEAST'
p926
aS'0.55'
p927
aS'0.54'
p928
aS'0.56'
p929
aS'0.22'
p930
aS'0.50'
p931
aS'0.00'
p932
aS'0.50'
p933
aS'0.37'
p934
aS'NUC'
p935
aa(lp936
S'DED1_YEAST'
p937
aS'0.36'
p938
aS'0.24'
p939
aS'0.49'
p940
aS'0.16'
p941
aS'0.50'
p942
aS'0.00'
p943
aS'0.51'
p944
aS'0.22'
p945
aS'NUC'
p946
aa(lp947
S'DEP1_YEAST'
p948
aS'0.38'
p949
aS'0.48'
p950
aS'0.59'
p951
aS'0.22'
p952
aS'0.50'
p953
aS'0.00'
p954
aS'0.46'
p955
aS'0.22'
p956
aS'CYT'
p957
aa(lp958
S'DYR_YEAST'
p959
aS' 0.80'
p960
aS'0.46'
p961
aS'0.50'
p962
aS'0.15'
p963
aS'0.50'
p964
aS'0.00'
p965
aS'0.53'
p966
aS'0.22'
p967
aS'CYT'
p968
aa(lp969
S'DYHC_YEAST'
p970
aS'0.60'
p971
aS'0.56'
p972
aS'0.47'
p973
aS'0.20'
p974
aS'0.50'
p975
aS'0.00'
p976
aS'0.50'
p977
aS'0.38'
p978
aS'NUC'
p979
aa(lp980
S'DHH1_YEAST'
p981
aS'0.41'
p982
aS'0.24'
p983
aS'0.54'
p984
aS'0.26'
p985
aS'0.50'
p986
aS'0.00'
p987
aS'0.41'
p988
aS'0.22'
p989
aS'NUC'
p990
aa(lp991
S'DMC1_YEAST'
p992
aS'0.43'
p993
aS'0.39'
p994
aS'0.54'
p995
aS'0.14'
p996
aS'0.50'
p997
aS'0.00'
p998
aS'0.47'
p999
aS'0.22'
p1000
aS'NUC'
p1001
aa(lp1002
S'DPB2_YEAST'
p1003
aS'0.50'
p1004
aS'0.51'
p1005
aS'0.52'
p1006
aS'0.09'
p1007
aS'0.50'
p1008
aS'0.00'
p1009
aS'0.48'
p1010
aS'0.25'
p1011
aS'NUC'
p1012
aa(lp1013
S'DPB3_YEAST'
p1014
aS'0.53'
p1015
aS'0.61'
p1016
aS'0.52'
p1017
aS'0.21'
p1018
aS'0.50'
p1019
aS'0.00'
p1020
aS'0.55'
p1021
aS'0.30'
p1022
aS'NUC'
p1023
aa(lp1024
S'SYDC_YEAST'
p1025
aS'0.46'
p1026
aS'0.35'
p1027
aS'0.53'
p1028
aS'0.16'
p1029
aS'0.50'
p1030
aS'0.00'
p1031
aS'0.51'
p1032
aS'0.29'
p1033
aS'CYT'
p1034
aa(lp1035
S'DRS1_YEAST'
p1036
aS'0.46'
p1037
aS'0.43'
p1038
aS'0.49'
p1039
aS'0.79'
p1040
aS'0.50'
p1041
aS'0.00'
p1042
aS'0.49'
p1043
aS'0.63'
p1044
aS'NUC'
p1045
aa(lp1046
S'ATC4_YEAST'
p1047
aS'0.51'
p1048
aS'0.55'
p1049
aS'0.35'
p1050
aS'0.16'
p1051
aS'0.50'
p1052
aS'0.00'
p1053
aS'0.51'
p1054
aS'0.47'
p1055
aS'ME3'
p1056
aa(lp1057
S'DSS4_YEAST'
p1058
aS'0.56'
p1059
aS'0.52'
p1060
aS'0.55'
p1061
aS'0.19'
p1062
aS'0.50'
p1063
aS'0.00'
p1064
aS'0.54'
p1065
aS'0.22'
p1066
aS'CYT'
p1067
aa(lp1068
S'TFS2_YEAST'
p1069
aS'0.61'
p1070
aS'0.30'
p1071
aS'0.59'
p1072
aS'0.12'
p1073
aS'0.50'
p1074
aS'0.00'
p1075
aS'0.49'
p1076
aS'0.27'
p1077
aS'NUC'
p1078
aa(lp1079
S'DUN1_YEAST'
p1080
aS'0.37'
p1081
aS'0.53'
p1082
aS'0.46'
p1083
aS'0.23'
p1084
aS'0.50'
p1085
aS'0.00'
p1086
aS'0.47'
p1087
aS'0.22'
p1088
aS'NUC'
p1089
aa(lp1090
S'DUR3_YEAST'
p1091
aS'0.83'
p1092
aS'0.58'
p1093
aS'0.33'
p1094
aS'0.04'
p1095
aS'0.50'
p1096
aS'0.00'
p1097
aS'0.53'
p1098
aS'0.22'
p1099
aS'ME2'
p1100
aa(lp1101
S'EF1B_YEAST'
p1102
aS'0.39'
p1103
aS'0.45'
p1104
aS'0.53'
p1105
aS'0.18'
p1106
aS'0.50'
p1107
aS'0.00'
p1108
aS'0.54'
p1109
aS'0.22'
p1110
aS'CYT'
p1111
aa(lp1112
S'EF2_YEAST'
p1113
aS' 0.52'
p1114
aS'0.54'
p1115
aS'0.50'
p1116
aS'0.21'
p1117
aS'0.50'
p1118
aS'0.00'
p1119
aS'0.48'
p1120
aS'0.30'
p1121
aS'CYT'
p1122
aa(lp1123
S'EGD1_YEAST'
p1124
aS'0.35'
p1125
aS'0.39'
p1126
aS'0.57'
p1127
aS'0.11'
p1128
aS'0.50'
p1129
aS'0.00'
p1130
aS'0.48'
p1131
aS'0.22'
p1132
aS'NUC'
p1133
aa(lp1134
S'ATN2_YEAST'
p1135
aS'0.36'
p1136
aS'0.49'
p1137
aS'0.30'
p1138
aS'0.22'
p1139
aS'0.50'
p1140
aS'0.00'
p1141
aS'0.52'
p1142
aS'0.31'
p1143
aS'ME3'
p1144
aa(lp1145
S'END3_YEAST'
p1146
aS'0.55'
p1147
aS'0.46'
p1148
aS'0.53'
p1149
aS'0.11'
p1150
aS'0.50'
p1151
aS'0.00'
p1152
aS'0.52'
p1153
aS'0.48'
p1154
aS'CYT'
p1155
aa(lp1156
S'ENO1_YEAST'
p1157
aS'0.45'
p1158
aS'0.56'
p1159
aS'0.54'
p1160
aS'0.32'
p1161
aS'0.50'
p1162
aS'0.00'
p1163
aS'0.57'
p1164
aS'0.22'
p1165
aS'CYT'
p1166
aa(lp1167
S'ENO2_YEAST'
p1168
aS'0.45'
p1169
aS'0.56'
p1170
aS'0.53'
p1171
aS'0.32'
p1172
aS'0.50'
p1173
aS'0.00'
p1174
aS'0.57'
p1175
aS'0.22'
p1176
aS'CYT'
p1177
aa(lp1178
S'EPT1_YEAST'
p1179
aS'0.29'
p1180
aS'0.43'
p1181
aS'0.40'
p1182
aS'0.15'
p1183
aS'0.50'
p1184
aS'0.00'
p1185
aS'0.53'
p1186
aS'0.22'
p1187
aS'ME3'
p1188
aa(lp1189
S'ERD1_YEAST'
p1190
aS'0.52'
p1191
aS'0.75'
p1192
aS'0.37'
p1193
aS'0.14'
p1194
aS'0.50'
p1195
aS'0.00'
p1196
aS'0.46'
p1197
aS'0.22'
p1198
aS'ME3'
p1199
aa(lp1200
S'ERD2_YEAST'
p1201
aS'0.71'
p1202
aS'0.56'
p1203
aS'0.39'
p1204
aS'0.27'
p1205
aS'0.50'
p1206
aS'0.00'
p1207
aS'0.52'
p1208
aS'0.22'
p1209
aS'ME2'
p1210
aa(lp1211
S'ERG1_YEAST'
p1212
aS'0.58'
p1213
aS'0.60'
p1214
aS'0.43'
p1215
aS'0.12'
p1216
aS'0.50'
p1217
aS'0.00'
p1218
aS'0.55'
p1219
aS'0.22'
p1220
aS'ME3'
p1221
aa(lp1222
S'THIL_YEAST'
p1223
aS'0.54'
p1224
aS'0.65'
p1225
aS'0.49'
p1226
aS'0.34'
p1227
aS'0.50'
p1228
aS'0.00'
p1229
aS'0.52'
p1230
aS'0.22'
p1231
aS'CYT'
p1232
aa(lp1233
S'CP51_YEAST'
p1234
aS'0.57'
p1235
aS'0.59'
p1236
aS'0.44'
p1237
aS'0.16'
p1238
aS'0.50'
p1239
aS'0.00'
p1240
aS'0.52'
p1241
aS'0.22'
p1242
aS'ME2'
p1243
aa(lp1244
S'KIME_YEAST'
p1245
aS'0.59'
p1246
aS'0.58'
p1247
aS'0.46'
p1248
aS'0.19'
p1249
aS'0.50'
p1250
aS'0.00'
p1251
aS'0.56'
p1252
aS'0.27'
p1253
aS'CYT'
p1254
aa(lp1255
S'ERG2_YEAST'
p1256
aS'0.92'
p1257
aS'0.61'
p1258
aS'0.40'
p1259
aS'0.22'
p1260
aS'0.50'
p1261
aS'0.00'
p1262
aS'0.54'
p1263
aS'0.22'
p1264
aS'ME2'
p1265
aa(lp1266
S'FPPS_YEAST'
p1267
aS'0.55'
p1268
aS'0.56'
p1269
aS'0.45'
p1270
aS'0.14'
p1271
aS'0.50'
p1272
aS'0.00'
p1273
aS'0.54'
p1274
aS'0.22'
p1275
aS'CYT'
p1276
aa(lp1277
S'ER24_YEAST'
p1278
aS'0.63'
p1279
aS'0.61'
p1280
aS'0.41'
p1281
aS'0.22'
p1282
aS'0.50'
p1283
aS'0.00'
p1284
aS'0.51'
p1285
aS'0.22'
p1286
aS'ME3'
p1287
aa(lp1288
S'ERG3_YEAST'
p1289
aS'0.58'
p1290
aS'0.53'
p1291
aS'0.38'
p1292
aS'0.18'
p1293
aS'0.50'
p1294
aS'0.00'
p1295
aS'0.52'
p1296
aS'0.22'
p1297
aS'ME3'
p1298
aa(lp1299
S'ERG4_YEAST'
p1300
aS'0.36'
p1301
aS'0.46'
p1302
aS'0.43'
p1303
aS'0.19'
p1304
aS'0.50'
p1305
aS'0.00'
p1306
aS'0.48'
p1307
aS'0.22'
p1308
aS'ME3'
p1309
aa(lp1310
S'ERG6_YEAST'
p1311
aS'0.32'
p1312
aS'0.47'
p1313
aS'0.55'
p1314
aS'0.12'
p1315
aS'0.50'
p1316
aS'0.00'
p1317
aS'0.52'
p1318
aS'0.22'
p1319
aS'CYT'
p1320
aa(lp1321
S'ERG7_YEAST'
p1322
aS'0.34'
p1323
aS'0.38'
p1324
aS'0.45'
p1325
aS'0.19'
p1326
aS'0.50'
p1327
aS'0.00'
p1328
aS'0.51'
p1329
aS'0.22'
p1330
aS'ME2'
p1331
aa(lp1332
S'FDFT_YEAST'
p1333
aS'0.53'
p1334
aS'0.68'
p1335
aS'0.42'
p1336
aS'0.19'
p1337
aS'0.50'
p1338
aS'0.00'
p1339
aS'0.53'
p1340
aS'0.22'
p1341
aS'ME3'
p1342
aa(lp1343
S'ESP1_YEAST'
p1344
aS'0.55'
p1345
aS'0.46'
p1346
aS'0.46'
p1347
aS'0.31'
p1348
aS'0.50'
p1349
aS'0.00'
p1350
aS'0.58'
p1351
aS'0.48'
p1352
aS'NUC'
p1353
aa(lp1354
S'EST1_YEAST'
p1355
aS'0.35'
p1356
aS'0.60'
p1357
aS'0.47'
p1358
aS'0.13'
p1359
aS'0.50'
p1360
aS'0.00'
p1361
aS'0.52'
p1362
aS'0.43'
p1363
aS'NUC'
p1364
aa(lp1365
S'EUG1_YEAST'
p1366
aS'0.77'
p1367
aS'0.80'
p1368
aS'0.51'
p1369
aS'0.40'
p1370
aS'1.00'
p1371
aS'0.00'
p1372
aS'0.54'
p1373
aS'0.22'
p1374
aS'ERL'
p1375
aa(lp1376
S'FCY2_YEAST'
p1377
aS'0.46'
p1378
aS'0.35'
p1379
aS'0.33'
p1380
aS'0.17'
p1381
aS'0.50'
p1382
aS'0.00'
p1383
aS'0.55'
p1384
aS'0.22'
p1385
aS'ME3'
p1386
aa(lp1387
S'FET3_YEAST'
p1388
aS'0.54'
p1389
aS'0.55'
p1390
aS'0.42'
p1391
aS'0.22'
p1392
aS'0.50'
p1393
aS'0.00'
p1394
aS'0.48'
p1395
aS'0.22'
p1396
aS'ME3'
p1397
aa(lp1398
S'FET4_YEAST'
p1399
aS'0.39'
p1400
aS'0.44'
p1401
aS'0.28'
p1402
aS'0.12'
p1403
aS'0.50'
p1404
aS'0.00'
p1405
aS'0.46'
p1406
aS'0.27'
p1407
aS'ME3'
p1408
aa(lp1409
S'FHL1_YEAST'
p1410
aS'0.33'
p1411
aS'0.44'
p1412
aS'0.49'
p1413
aS'0.08'
p1414
aS'0.50'
p1415
aS'0.00'
p1416
aS'0.48'
p1417
aS'0.49'
p1418
aS'NUC'
p1419
aa(lp1420
S'FKB2_YEAST'
p1421
aS'0.74'
p1422
aS'0.72'
p1423
aS'0.47'
p1424
aS'0.25'
p1425
aS'0.50'
p1426
aS'0.00'
p1427
aS'0.57'
p1428
aS'0.22'
p1429
aS'ME1'
p1430
aa(lp1431
S'FKB3_YEAST'
p1432
aS'0.54'
p1433
aS'0.57'
p1434
aS'0.52'
p1435
aS'0.19'
p1436
aS'0.50'
p1437
aS'0.00'
p1438
aS'0.59'
p1439
aS'0.67'
p1440
aS'NUC'
p1441
aa(lp1442
S'FPS1_YEAST'
p1443
aS'0.42'
p1444
aS'0.52'
p1445
aS'0.40'
p1446
aS'0.17'
p1447
aS'0.50'
p1448
aS'0.00'
p1449
aS'0.50'
p1450
aS'0.26'
p1451
aS'ME3'
p1452
aa(lp1453
S'FRE1_YEAST'
p1454
aS'0.91'
p1455
aS'0.77'
p1456
aS'0.34'
p1457
aS'0.47'
p1458
aS'0.50'
p1459
aS'0.00'
p1460
aS'0.52'
p1461
aS'0.31'
p1462
aS'ME1'
p1463
aa(lp1464
S'FU34_YEAST'
p1465
aS'0.37'
p1466
aS'0.34'
p1467
aS'0.32'
p1468
aS'0.22'
p1469
aS'0.50'
p1470
aS'0.00'
p1471
aS'0.56'
p1472
aS'0.22'
p1473
aS'ME3'
p1474
aa(lp1475
S'FUS1_YEAST'
p1476
aS'0.84'
p1477
aS'0.66'
p1478
aS'0.36'
p1479
aS'0.78'
p1480
aS'0.50'
p1481
aS'0.00'
p1482
aS'0.49'
p1483
aS'0.50'
p1484
aS'ME1'
p1485
aa(lp1486
S'FZF1_YEAST'
p1487
aS'0.37'
p1488
aS'0.43'
p1489
aS'0.62'
p1490
aS'0.27'
p1491
aS'0.50'
p1492
aS'0.00'
p1493
aS'0.48'
p1494
aS'0.22'
p1495
aS'NUC'
p1496
aa(lp1497
S'GALY_YEAST'
p1498
aS'0.56'
p1499
aS'0.59'
p1500
aS'0.53'
p1501
aS'0.16'
p1502
aS'0.50'
p1503
aS'0.00'
p1504
aS'0.24'
p1505
aS'0.42'
p1506
aS'NUC'
p1507
aa(lp1508
S'GAL4_YEAST'
p1509
aS'0.44'
p1510
aS'0.44'
p1511
aS'0.49'
p1512
aS'0.15'
p1513
aS'0.50'
p1514
aS'0.00'
p1515
aS'0.46'
p1516
aS'0.27'
p1517
aS'NUC'
p1518
aa(lp1519
S'GAL8_YEAST'
p1520
aS'0.60'
p1521
aS'0.60'
p1522
aS'0.49'
p1523
aS'0.30'
p1524
aS'0.50'
p1525
aS'0.00'
p1526
aS'0.53'
p1527
aS'0.22'
p1528
aS'NUC'
p1529
aa(lp1530
S'GAR1_YEAST'
p1531
aS'0.35'
p1532
aS'0.68'
p1533
aS'0.57'
p1534
aS'0.40'
p1535
aS'0.50'
p1536
aS'0.00'
p1537
aS'0.53'
p1538
aS'0.36'
p1539
aS'NUC'
p1540
aa(lp1541
S'GAS1_YEAST'
p1542
aS'0.70'
p1543
aS'0.69'
p1544
aS'0.43'
p1545
aS'0.33'
p1546
aS'0.50'
p1547
aS'0.00'
p1548
aS'0.58'
p1549
aS'0.22'
p1550
aS'ME1'
p1551
aa(lp1552
S'GBP2_YEAST'
p1553
aS'0.23'
p1554
aS'0.30'
p1555
aS'0.58'
p1556
aS'0.22'
p1557
aS'0.50'
p1558
aS'0.00'
p1559
aS'0.48'
p1560
aS'0.27'
p1561
aS'NUC'
p1562
aa(lp1563
S'GCN4_YEAST'
p1564
aS'0.56'
p1565
aS'0.54'
p1566
aS'0.59'
p1567
aS'0.14'
p1568
aS'0.50'
p1569
aS'0.00'
p1570
aS'0.52'
p1571
aS'0.27'
p1572
aS'NUC'
p1573
aa(lp1574
S'GCN5_YEAST'
p1575
aS'0.31'
p1576
aS'0.31'
p1577
aS'0.54'
p1578
aS'0.18'
p1579
aS'0.50'
p1580
aS'0.00'
p1581
aS'0.52'
p1582
aS'0.29'
p1583
aS'NUC'
p1584
aa(lp1585
S'GCR1_YEAST'
p1586
aS'0.27'
p1587
aS'0.51'
p1588
aS'0.47'
p1589
aS'0.35'
p1590
aS'0.50'
p1591
aS'0.00'
p1592
aS'0.49'
p1593
aS'0.28'
p1594
aS'NUC'
p1595
aa(lp1596
S'GCR2_YEAST'
p1597
aS'0.54'
p1598
aS'0.56'
p1599
aS'0.57'
p1600
aS'0.18'
p1601
aS'0.50'
p1602
aS'0.00'
p1603
aS'0.45'
p1604
aS'0.25'
p1605
aS'NUC'
p1606
aa(lp1607
S'GCR3_YEAST'
p1608
aS'0.17'
p1609
aS'0.38'
p1610
aS'0.45'
p1611
aS'0.09'
p1612
aS'0.50'
p1613
aS'0.00'
p1614
aS'0.54'
p1615
aS'0.27'
p1616
aS'NUC'
p1617
aa(lp1618
S'GCS1_YEAST'
p1619
aS'0.43'
p1620
aS'0.51'
p1621
aS'0.54'
p1622
aS'0.15'
p1623
aS'0.50'
p1624
aS'0.00'
p1625
aS'0.45'
p1626
aS'0.26'
p1627
aS'NUC'
p1628
aa(lp1629
S'GLN3_YEAST'
p1630
aS'0.43'
p1631
aS'0.54'
p1632
aS'0.58'
p1633
aS'0.16'
p1634
aS'0.50'
p1635
aS'0.00'
p1636
aS'0.50'
p1637
aS'0.36'
p1638
aS'NUC'
p1639
aa(lp1640
S'YJ64_YEAST'
p1641
aS'0.85'
p1642
aS'0.85'
p1643
aS'0.30'
p1644
aS'0.31'
p1645
aS'0.50'
p1646
aS'0.00'
p1647
aS'0.55'
p1648
aS'0.42'
p1649
aS'ME1'
p1650
aa(lp1651
S'AMPL_YEAST'
p1652
aS'0.42'
p1653
aS'0.32'
p1654
aS'0.48'
p1655
aS'0.16'
p1656
aS'0.50'
p1657
aS'0.00'
p1658
aS'0.55'
p1659
aS'0.22'
p1660
aS'VAC'
p1661
aa(lp1662
S'PE12_YEAST'
p1663
aS'0.28'
p1664
aS'0.46'
p1665
aS'0.26'
p1666
aS'0.18'
p1667
aS'0.50'
p1668
aS'0.00'
p1669
aS'0.39'
p1670
aS'0.22'
p1671
aS'VAC'
p1672
aa.