(lp0
(lp1
S'2'
p2
aS'7588'
p3
aS'1897'
p4
aS'5234'
p5
aS'417'
p6
aS'2208'
p7
aS'254'
p8
ag2
aa(lp9
g2
aS'8090'
p10
aS'3199'
p11
aS'6986'
p12
aS'1455'
p13
aS'3712'
p14
aS'531'
p15
ag2
aa(lp16
g2
aS'6758'
p17
aS'4560'
p18
aS'9965'
p19
aS'934'
p20
aS'4538'
p21
aS'1037'
p22
ag2
aa(lp23
g2
aS'16448'
p24
aS'6243'
p25
aS'6360'
p26
aS'824'
p27
aS'2662'
p28
aS'2005'
p29
ag2
aa(lp30
g2
aS'5283'
p31
aS'13316'
p32
aS'20399'
p33
aS'1809'
p34
aS'8752'
p35
aS'172'
p36
ag2
aa(lp37
g2
aS'2886'
p38
aS'5302'
p39
aS'9785'
p40
aS'364'
p41
aS'6236'
p42
aS'555'
p43
ag2
aa(lp44
g2
aS'2599'
p45
aS'3688'
p46
aS'13829'
p47
aS'492'
p48
aS'10069'
p49
aS'59'
p50
ag2
aa(lp51
g2
aS'161'
p52
aS'7460'
p53
aS'24773'
p54
aS'617'
p55
aS'11783'
p56
aS'2410'
p57
ag2
aa(lp58
g2
aS'243'
p59
aS'12939'
p60
aS'8852'
p61
aS'799'
p62
aS'3909'
p63
aS'211'
p64
ag2
aa(lp65
g2
aS'6468'
p66
aS'12867'
p67
aS'21570'
p68
aS'1840'
p69
aS'7558'
p70
aS'1543'
p71
ag2
aa(lp72
g2
aS'918'
p73
aS'20655'
p74
aS'13567'
p75
aS'1465'
p76
aS'6846'
p77
aS'806'
p78
ag2
aa(lp79
g2
aS'2137'
p80
aS'3737'
p81
aS'19172'
p82
aS'1274'
p83
aS'17120'
p84
aS'142'
p85
ag2
aa(lp86
g2
aS'1479'
p87
aS'14982'
p88
aS'11924'
p89
aS'662'
p90
aS'3891'
p91
aS'3508'
p92
ag2
aa(lp93
g2
aS'9759'
p94
aS'25071'
p95
aS'17645'
p96
aS'1128'
p97
aS'12408'
p98
aS'1625'
p99
ag2
aa(lp100
g2
aS'25977'
p101
aS'3587'
p102
aS'2464'
p103
aS'2369'
p104
aS'140'
p105
aS'1092'
p106
aS'1'
p107
aa(lp108
g2
aS'32717'
p109
aS'16784'
p110
aS'13626'
p111
aS'60869'
p112
aS'1272'
p113
aS'5609'
p114
ag107
aa(lp115
g2
aS'4414'
p116
aS'1610'
p117
aS'1431'
p118
aS'3498'
p119
aS'387'
p120
aS'834'
p121
ag107
aa(lp122
g2
aS'542'
p123
aS'899'
p124
aS'1664'
p125
aS'414'
p126
aS'88'
p127
aS'522'
p128
ag107
aa(lp129
g2
aS'16933'
p130
aS'2209'
p131
aS'3389'
p132
aS'7849'
p133
aS'210'
p134
aS'1534'
p135
ag107
aa(lp136
g2
aS'5113'
p137
aS'1486'
p138
aS'4583'
p139
aS'5127'
p140
aS'492'
p141
aS'739'
p142
ag107
aa(lp143
g2
aS'9790'
p144
aS'1786'
p145
aS'5109'
p146
aS'3570'
p147
aS'182'
p148
aS'1043'
p149
ag107
aa(lp150
g2
aS'22321'
p151
aS'3216'
p152
aS'1447'
p153
aS'2208'
p154
aS'178'
p155
aS'2602'
p156
ag107
aa(lp157
g2
aS'13970'
p158
aS'1511'
p159
aS'1330'
p160
aS'650'
p161
aS'146'
p162
aS'778'
p163
ag107
aa(lp164
g2
aS'9351'
p165
aS'1347'
p166
aS'2611'
p167
aS'8170'
p168
aS'442'
p169
aS'868'
p170
ag107
aa(lp171
g2
aS'3'
p172
aS'333'
p173
aS'7021'
p174
aS'15601'
p175
aS'15'
p176
aS'550'
p177
ag107
aa(lp178
g2
aS'2617'
p179
aS'1188'
p180
aS'5332'
p181
aS'9584'
p182
aS'573'
p183
aS'1942'
p184
ag107
aa(lp185
g172
aS'255'
p186
aS'5758'
p187
aS'5923'
p188
aS'349'
p189
aS'4595'
p190
aS'1328'
p191
ag107
aa(lp192
g172
aS'3043'
p193
aS'1172'
p194
aS'1763'
p195
aS'2234'
p196
aS'217'
p197
aS'379'
p198
ag107
aa(lp199
g172
aS'1198'
p200
aS'2602'
p201
aS'8335'
p202
aS'402'
p203
aS'3843'
p204
aS'303'
p205
ag107
aa(lp206
g172
aS'3428'
p207
aS'2380'
p208
aS'2028'
p209
aS'1341'
p210
aS'1184'
p211
aS'665'
p212
ag107
aa(lp213
g172
aS'3521'
p214
aS'1099'
p215
aS'1997'
p216
aS'1796'
p217
aS'173'
p218
aS'995'
p219
ag107
aa(lp220
g172
aS'608'
p221
aS'1106'
p222
aS'1533'
p223
aS'830'
p224
aS'90'
p225
aS'195'
p226
ag107
aa(lp227
g172
aS'14039'
p228
aS'7393'
p229
aS'2548'
p230
aS'6386'
p231
aS'1333'
p232
aS'2341'
p233
ag107
aa(lp234
g172
aS'190'
p235
aS'727'
p236
aS'2012'
p237
aS'245'
p238
aS'184'
p239
aS'127'
p240
ag107
aa(lp241
g172
aS'22686'
p242
aS'134'
p243
aS'218'
p244
aS'3157'
p245
aS'9'
p246
aS'548'
p247
ag107
aa(lp248
g172
aS'759'
p249
aS'18664'
p250
aS'1660'
p251
aS'6114'
p252
aS'536'
p253
aS'4100'
p254
ag107
aa(lp255
g172
aS'796'
p256
aS'5878'
p257
aS'2109'
p258
aS'340'
p259
aS'232'
p260
aS'776'
p261
ag107
aa(lp262
g172
aS'19746'
p263
aS'2872'
p264
aS'2006'
p265
aS'2601'
p266
aS'468'
p267
aS'503'
p268
ag107
aa(lp269
g172
aS'4734'
p270
aS'607'
p271
aS'864'
p272
aS'1206'
p273
aS'159'
p274
aS'405'
p275
ag107
aa(lp276
g172
aS'2121'
p277
aS'1601'
p278
aS'2453'
p279
aS'560'
p280
aS'179'
p281
aS'712'
p282
ag107
aa(lp283
g172
aS'4627'
p284
aS'997'
p285
aS'4438'
p286
aS'191'
p287
aS'1335'
p288
aS'314'
p289
ag107
aa(lp290
g172
aS'2615'
p291
aS'873'
p292
aS'1524'
p293
aS'1103'
p294
aS'514'
p295
aS'468'
p296
ag107
aa(lp297
g172
aS'9561'
p298
aS'2217'
p299
aS'1664'
p300
aS'1173'
p301
aS'222'
p302
aS'447'
p303
ag107
aa(lp304
g172
aS'3477'
p305
aS'894'
p306
aS'534'
p307
aS'1457'
p308
aS'252'
p309
aS'342'
p310
ag107
aa.