(lp0
(lp1
S'1'
p2
aS'2362'
p3
aS'6551'
p4
aS'11364'
p5
aS'913'
p6
aS'5957'
p7
aS'791'
p8
aS'2'
p9
aa(lp10
g2
aS'2532'
p11
aS'16599'
p12
aS'36486'
p13
aS'179'
p14
aS'13308'
p15
aS'674'
p16
ag9
aa(lp17
g2
aS'18'
p18
aS'7504'
p19
aS'15205'
p20
aS'1285'
p21
aS'4797'
p22
aS'6372'
p23
ag9
aa(lp24
g2
aS'2790'
p25
aS'2527'
p26
aS'5265'
p27
aS'5612'
p28
aS'788'
p29
aS'1360'
p30
ag9
aa(lp31
g2
aS'20782'
p32
aS'5921'
p33
aS'9212'
p34
aS'1759'
p35
aS'2568'
p36
aS'1553'
p37
ag9
aa(lp38
g2
aS'11072'
p39
aS'5989'
p40
aS'5615'
p41
aS'8321'
p42
aS'955'
p43
aS'2137'
p44
ag9
aa(lp45
g2
aS'3062'
p46
aS'6154'
p47
aS'13916'
p48
aS'230'
p49
aS'8933'
p50
aS'2784'
p51
ag9
aa(lp52
g2
aS'6134'
p53
aS'23133'
p54
aS'33586'
p55
aS'6746'
p56
aS'18594'
p57
aS'5121'
p58
ag9
aa(lp59
g2
aS'1073'
p60
aS'9679'
p61
aS'15445'
p62
aS'61'
p63
aS'5980'
p64
aS'1265'
p65
ag9
aa(lp66
g2
aS'572'
p67
aS'9763'
p68
aS'22182'
p69
aS'2221'
p70
aS'4882'
p71
aS'2563'
p72
ag9
aa(lp73
g2
aS'11908'
p74
aS'8053'
p75
aS'19847'
p76
aS'1069'
p77
aS'6374'
p78
aS'698'
p79
ag9
aa(lp80
S'3'
p81
aS'9061'
p82
aS'829'
p83
aS'683'
p84
aS'16919'
p85
aS'621'
p86
aS'139'
p87
ag2
aa(lp88
g81
aS'11693'
p89
aS'2317'
p90
aS'2543'
p91
aS'5845'
p92
aS'274'
p93
aS'1409'
p94
ag2
aa(lp95
g81
aS'17360'
p96
aS'6200'
p97
aS'9694'
p98
aS'1293'
p99
aS'3620'
p100
aS'1721'
p101
ag9
aa(lp102
g81
aS'3366'
p103
aS'2884'
p104
aS'2431'
p105
aS'977'
p106
aS'167'
p107
aS'1104'
p108
ag2
aa(lp109
g81
aS'12238'
p110
aS'7108'
p111
aS'6235'
p112
aS'1093'
p113
aS'2328'
p114
aS'2079'
p115
ag9
aa(lp116
g81
aS'49063'
p117
aS'3965'
p118
aS'4252'
p119
aS'5970'
p120
aS'1041'
p121
aS'1404'
p122
ag2
aa(lp123
g81
aS'25767'
p124
aS'3613'
p125
aS'2013'
p126
aS'10303'
p127
aS'314'
p128
aS'1384'
p129
ag2
aa(lp130
g81
aS'68951'
p131
aS'4411'
p132
aS'12609'
p133
aS'8692'
p134
aS'751'
p135
aS'2406'
p136
ag2
aa(lp137
g81
aS'40254'
p138
aS'640'
p139
aS'3600'
p140
aS'1042'
p141
aS'436'
p142
aS'18'
p143
ag2
aa(lp144
g81
aS'7149'
p145
aS'2247'
p146
aS'1242'
p147
aS'1619'
p148
aS'1226'
p149
aS'128'
p150
ag2
aa(lp151
g81
aS'15354'
p152
aS'2102'
p153
aS'2828'
p154
aS'8366'
p155
aS'386'
p156
aS'1027'
p157
ag2
aa(lp158
g81
aS'16260'
p159
aS'594'
p160
aS'1296'
p161
aS'848'
p162
aS'445'
p163
aS'258'
p164
ag2
aa(lp165
g81
aS'42786'
p166
aS'286'
p167
aS'471'
p168
aS'1388'
p169
aS'32'
p170
aS'22'
p171
ag2
aa(lp172
g81
aS'2708'
p173
aS'2160'
p174
aS'2642'
p175
aS'502'
p176
aS'965'
p177
aS'1522'
p178
ag2
aa(lp179
g81
aS'6022'
p180
aS'3354'
p181
aS'3261'
p182
aS'2507'
p183
aS'212'
p184
aS'686'
p185
ag2
aa(lp186
g81
aS'2838'
p187
aS'3086'
p188
aS'4329'
p189
aS'3838'
p190
aS'825'
p191
aS'1060'
p192
ag2
aa(lp193
g9
aS'3996'
p194
aS'11103'
p195
aS'12469'
p196
aS'902'
p197
aS'5952'
p198
aS'741'
p199
ag9
aa(lp200
g9
aS'21273'
p201
aS'2013'
p202
aS'6550'
p203
aS'909'
p204
aS'811'
p205
aS'1854'
p206
ag2
aa(lp207
g9
aS'19087'
p208
aS'1304'
p209
aS'3643'
p210
aS'3045'
p211
aS'710'
p212
aS'898'
p213
ag2
aa(lp214
g9
aS'444'
p215
aS'879'
p216
aS'2060'
p217
aS'264'
p218
aS'290'
p219
aS'259'
p220
ag2
aa(lp221
g9
aS'17327'
p222
aS'2374'
p223
aS'2842'
p224
aS'1149'
p225
aS'351'
p226
aS'925'
p227
ag2
aa(lp228
g9
aS'6987'
p229
aS'1020'
p230
aS'3007'
p231
aS'416'
p232
aS'257'
p233
aS'656'
p234
ag2
aa(lp235
g9
aS'7034'
p236
aS'1492'
p237
aS'2405'
p238
aS'12569'
p239
aS'299'
p240
aS'1117'
p241
ag2
aa(lp242
g9
aS'29635'
p243
aS'2335'
p244
aS'8280'
p245
aS'3046'
p246
aS'371'
p247
aS'117'
p248
ag2
aa(lp249
g9
aS'9784'
p250
aS'925'
p251
aS'2405'
p252
aS'4447'
p253
aS'183'
p254
aS'297'
p255
ag2
aa(lp256
g9
aS'10617'
p257
aS'1795'
p258
aS'7647'
p259
aS'1483'
p260
aS'857'
p261
aS'1233'
p262
ag2
aa(lp263
g9
aS'7127'
p264
aS'1375'
p265
aS'2201'
p266
aS'2679'
p267
aS'83'
p268
aS'1059'
p269
ag2
aa(lp270
g9
aS'1182'
p271
aS'3088'
p272
aS'6114'
p273
aS'978'
p274
aS'821'
p275
aS'1637'
p276
ag2
aa(lp277
g9
aS'11800'
p278
aS'2713'
p279
aS'3558'
p280
aS'2121'
p281
aS'706'
p282
aS'51'
p283
ag2
aa(lp284
g9
aS'1774'
p285
aS'3696'
p286
aS'2280'
p287
aS'514'
p288
aS'275'
p289
aS'834'
p290
ag2
aa(lp291
g9
aS'9155'
p292
aS'1897'
p293
aS'5167'
p294
aS'2714'
p295
aS'228'
p296
aS'1113'
p297
ag2
aa(lp298
g9
aS'15881'
p299
aS'713'
p300
aS'3315'
p301
aS'3703'
p302
aS'1470'
p303
aS'229'
p304
ag2
aa(lp305
g9
aS'13360'
p306
aS'944'
p307
aS'11593'
p308
aS'915'
p309
aS'1679'
p310
aS'573'
p311
ag2
aa.