(lp0
(lp1
S'3'
p2
aS'17546'
p3
aS'4519'
p4
aS'4602'
p5
aS'1066'
p6
aS'2259'
p7
aS'2124'
p8
aS'2'
p9
aa(lp10
g2
aS'26373'
p11
aS'36423'
p12
aS'22019'
p13
aS'5154'
p14
aS'4337'
p15
aS'16523'
p16
ag9
aa(lp17
g2
aS'22647'
p18
aS'9776'
p19
aS'13792'
p20
aS'2915'
p21
aS'4482'
p22
aS'5778'
p23
ag9
aa(lp24
g2
aS'16165'
p25
aS'4230'
p26
aS'7595'
p27
aS'201'
p28
aS'4003'
p29
aS'57'
p30
ag9
aa(lp31
g2
aS'4113'
p32
aS'20484'
p33
aS'25957'
p34
aS'1158'
p35
aS'8604'
p36
aS'5206'
p37
ag9
aa(lp38
g2
aS'688'
p39
aS'5491'
p40
aS'11091'
p41
aS'833'
p42
aS'4239'
p43
aS'436'
p44
ag9
aa(lp45
g2
aS'15168'
p46
aS'10556'
p47
aS'12477'
p48
aS'1920'
p49
aS'6506'
p50
aS'714'
p51
ag9
aa(lp52
g2
aS'4591'
p53
aS'15729'
p54
aS'16709'
p55
aS'33'
p56
aS'6956'
p57
aS'433'
p58
ag9
aa(lp59
g2
aS'10850'
p60
aS'7555'
p61
aS'14961'
p62
aS'188'
p63
aS'6899'
p64
aS'46'
p65
ag9
aa(lp66
g2
aS'630'
p67
aS'11095'
p68
aS'23998'
p69
aS'787'
p70
aS'9529'
p71
aS'72'
p72
ag9
aa(lp73
g2
aS'9670'
p74
aS'7027'
p75
aS'10471'
p76
aS'541'
p77
aS'4618'
p78
aS'65'
p79
ag9
aa(lp80
g2
aS'5181'
p81
aS'22044'
p82
aS'21531'
p83
aS'1740'
p84
aS'7353'
p85
aS'4985'
p86
ag9
aa(lp87
g2
aS'3103'
p88
aS'14069'
p89
aS'21955'
p90
aS'1668'
p91
aS'6792'
p92
aS'1452'
p93
ag9
aa(lp94
g2
aS'44466'
p95
aS'54259'
p96
aS'55571'
p97
aS'7782'
p98
aS'24171'
p99
aS'6465'
p100
ag9
aa(lp101
g2
aS'11519'
p102
aS'6152'
p103
aS'10868'
p104
aS'584'
p105
aS'5121'
p106
aS'1476'
p107
ag9
aa(lp108
g2
aS'18291'
p109
aS'1266'
p110
aS'21042'
p111
aS'5373'
p112
aS'4173'
p113
aS'14472'
p114
aS'1'
p115
aa(lp116
g2
aS'4420'
p117
aS'5139'
p118
aS'2661'
p119
aS'8872'
p120
aS'1321'
p121
aS'181'
p122
ag115
aa(lp123
g2
aS'20398'
p124
aS'1137'
p125
ag2
aS'4407'
p126
ag2
aS'975'
p127
ag115
aa(lp128
g2
aS'717'
p129
aS'3587'
p130
aS'6532'
p131
aS'7530'
p132
aS'529'
p133
aS'894'
p134
ag115
aa(lp135
g2
aS'10766'
p136
aS'1175'
p137
aS'2067'
p138
aS'2096'
p139
aS'301'
p140
aS'167'
p141
ag115
aa(lp142
g2
aS'1640'
p143
aS'3259'
p144
aS'3655'
p145
aS'868'
p146
aS'1202'
p147
aS'1653'
p148
ag115
aa(lp149
g2
aS'7005'
p150
aS'829'
p151
aS'3009'
p152
aS'430'
p153
aS'610'
p154
aS'529'
p155
ag115
aa(lp156
g2
aS'20874'
p157
aS'1563'
p158
aS'1783'
p159
aS'2320'
p160
aS'550'
p161
aS'772'
p162
ag115
aa(lp163
g2
aS'43265'
p164
aS'5025'
p165
aS'8117'
p166
aS'6312'
p167
aS'1579'
p168
aS'14351'
p169
ag115
aa(lp170
g2
aS'7864'
p171
aS'542'
p172
aS'4042'
p173
aS'9735'
p174
aS'165'
p175
aS'46'
p176
ag115
aa(lp177
g2
aS'24904'
p178
aS'3836'
p179
aS'5330'
p180
aS'3443'
p181
aS'454'
p182
aS'3178'
p183
ag115
aa(lp184
g2
aS'11405'
p185
aS'596'
p186
aS'1638'
p187
aS'3347'
p188
aS'69'
p189
aS'360'
p190
ag115
aa(lp191
g2
aS'12754'
p192
aS'2762'
p193
aS'2530'
p194
aS'8693'
p195
aS'627'
p196
aS'1117'
p197
ag115
aa(lp198
g2
aS'11314'
p199
aS'3090'
p200
aS'2062'
p201
aS'35009'
p202
aS'71'
p203
aS'2698'
p204
ag115
aa(lp205
g2
ag2
aS'2920'
p206
aS'6252'
p207
aS'440'
p208
aS'223'
p209
aS'709'
p210
ag115
aa(lp211
g2
aS'403'
p212
aS'254'
p213
aS'610'
p214
aS'774'
p215
aS'54'
p216
aS'63'
p217
ag115
aa(lp218
g2
aS'503'
p219
aS'112'
p220
aS'778'
p221
aS'895'
p222
aS'56'
p223
aS'132'
p224
ag115
aa(lp225
g2
aS'9658'
p226
aS'2182'
p227
aS'1909'
p228
aS'5639'
p229
aS'215'
p230
aS'323'
p231
ag115
aa(lp232
g2
aS'56082'
p233
aS'3504'
p234
aS'8906'
p235
aS'18028'
p236
aS'1480'
p237
aS'2498'
p238
ag115
aa(lp239
g2
aS'14100'
p240
aS'2132'
p241
aS'3445'
p242
aS'1336'
p243
aS'1491'
p244
aS'548'
p245
ag115
aa(lp246
g2
aS'15587'
p247
aS'1014'
p248
aS'3970'
p249
aS'910'
p250
aS'139'
p251
aS'1378'
p252
ag115
aa(lp253
g2
aS'11818'
p254
aS'1648'
p255
aS'1694'
p256
aS'2276'
p257
aS'169'
p258
aS'1647'
p259
ag115
aa(lp260
g2
aS'19046'
p261
aS'2770'
p262
aS'2469'
p263
aS'8853'
p264
aS'483'
p265
aS'2708'
p266
ag115
aa(lp267
g2
aS'14438'
p268
aS'2295'
p269
aS'1733'
p270
aS'3220'
p271
aS'585'
p272
aS'1561'
p273
ag115
aa(lp274
g2
aS'18044'
p275
aS'1080'
p276
aS'2000'
p277
aS'2555'
p278
aS'118'
p279
aS'1266'
p280
ag115
aa(lp281
g2
aS'11134'
p282
aS'793'
p283
aS'2988'
p284
aS'2715'
p285
aS'276'
p286
aS'610'
p287
ag115
aa(lp288
g2
aS'11173'
p289
aS'2521'
p290
aS'3355'
p291
aS'1517'
p292
aS'310'
p293
aS'222'
p294
ag115
aa(lp295
g2
aS'6990'
p296
aS'3880'
p297
aS'5380'
p298
aS'1647'
p299
aS'319'
p300
aS'1160'
p301
ag115
aa(lp302
g2
aS'20049'
p303
aS'1891'
p304
aS'2362'
p305
aS'5343'
p306
aS'411'
p307
aS'933'
p308
ag115
aa(lp309
g2
aS'8258'
p310
aS'2344'
p311
aS'2147'
p312
aS'3896'
p313
aS'266'
p314
aS'635'
p315
ag115
aa.