(lp0
(lp1
S'3'
p2
aS'1406'
p3
aS'16729'
p4
aS'28986'
p5
aS'673'
p6
aS'836'
p7
ag2
aS'2'
p8
aa(lp9
g2
aS'12579'
p10
aS'11114'
p11
aS'17569'
p12
aS'805'
p13
aS'6457'
p14
aS'1519'
p15
ag8
aa(lp16
g2
aS'11170'
p17
aS'10769'
p18
aS'8814'
p19
aS'2194'
p20
aS'1976'
p21
aS'143'
p22
ag8
aa(lp23
g2
aS'21465'
p24
aS'7243'
p25
aS'10685'
p26
aS'880'
p27
aS'2386'
p28
aS'2749'
p29
ag8
aa(lp30
g2
aS'22039'
p31
aS'8384'
p32
aS'34792'
p33
aS'42'
p34
aS'12591'
p35
aS'4430'
p36
ag8
aa(lp37
g2
aS'1989'
p38
aS'10690'
p39
aS'19460'
p40
aS'233'
p41
aS'11577'
p42
aS'2153'
p43
ag8
aa(lp44
g2
aS'3830'
p45
aS'5291'
p46
aS'14855'
p47
aS'317'
p48
aS'6694'
p49
aS'3182'
p50
ag8
aa(lp51
g2
aS'2861'
p52
aS'6570'
p53
aS'9618'
p54
aS'930'
p55
aS'4004'
p56
aS'1682'
p57
ag8
aa(lp58
g2
aS'355'
p59
aS'7704'
p60
aS'14682'
p61
aS'398'
p62
aS'8077'
p63
aS'303'
p64
ag8
aa(lp65
g2
aS'1725'
p66
aS'3651'
p67
aS'12822'
p68
aS'824'
p69
aS'4424'
p70
aS'2157'
p71
ag8
aa(lp72
g2
aS'5531'
p73
aS'15726'
p74
aS'26870'
p75
aS'2367'
p76
aS'13726'
p77
aS'446'
p78
ag8
aa(lp79
g2
aS'5224'
p80
aS'7603'
p81
aS'8584'
p82
aS'2540'
p83
aS'3674'
p84
aS'238'
p85
ag8
aa(lp86
g2
aS'15615'
p87
aS'12653'
p88
aS'19858'
p89
aS'4425'
p90
aS'7108'
p91
aS'2379'
p92
ag8
aa(lp93
g2
aS'4822'
p94
aS'6721'
p95
aS'9170'
p96
aS'993'
p97
aS'4973'
p98
aS'3637'
p99
ag8
aa(lp100
S'1'
p101
aS'25203'
p102
aS'11487'
p103
aS'9490'
p104
aS'5065'
p105
aS'284'
p106
aS'6854'
p107
ag101
aa(lp108
g101
aS'583'
p109
aS'685'
p110
aS'2216'
p111
aS'469'
p112
aS'954'
p113
aS'18'
p114
ag101
aa(lp115
g101
aS'1956'
p116
aS'891'
p117
aS'5226'
p118
aS'1383'
p119
aS'5'
p120
aS'1328'
p121
ag101
aa(lp122
g101
aS'6373'
p123
aS'780'
p124
aS'950'
p125
aS'878'
p126
aS'288'
p127
aS'285'
p128
ag101
aa(lp129
g101
aS'1537'
p130
aS'3748'
p131
aS'5838'
p132
aS'1859'
p133
aS'3381'
p134
aS'806'
p135
ag101
aa(lp136
g101
aS'18567'
p137
aS'1895'
p138
aS'1393'
p139
aS'1801'
p140
aS'244'
p141
aS'2100'
p142
ag101
aa(lp143
g101
aS'7291'
p144
aS'1012'
p145
aS'2062'
p146
aS'1291'
p147
aS'240'
p148
aS'1775'
p149
ag101
aa(lp150
g101
aS'3317'
p151
aS'6602'
p152
aS'6861'
p153
aS'1329'
p154
aS'3961'
p155
aS'1215'
p156
ag101
aa(lp157
g101
aS'2806'
p158
aS'10765'
p159
aS'15538'
p160
aS'1374'
p161
aS'5828'
p162
aS'2388'
p163
ag101
aa(lp164
g101
aS'18044'
p165
aS'1475'
p166
aS'2046'
p167
aS'2532'
p168
aS'130'
p169
aS'1158'
p170
ag101
aa(lp171
g101
aS'4155'
p172
aS'367'
p173
aS'1390'
p174
aS'2306'
p175
aS'86'
p176
aS'130'
p177
ag101
aa(lp178
g101
aS'14755'
p179
aS'899'
p180
aS'1382'
p181
aS'1765'
p182
aS'56'
p183
aS'749'
p184
ag101
aa(lp185
g101
aS'5396'
p186
aS'7503'
p187
aS'10646'
p188
aS'91'
p189
aS'4167'
p190
aS'239'
p191
ag101
aa(lp192
g101
aS'5041'
p193
aS'1115'
p194
aS'2856'
p195
aS'7496'
p196
aS'256'
p197
aS'375'
p198
ag101
aa(lp199
g101
aS'7274'
p200
aS'659'
p201
aS'1499'
p202
aS'784'
p203
aS'70'
p204
aS'659'
p205
ag101
aa(lp206
g101
aS'12680'
p207
aS'3243'
p208
aS'4157'
p209
aS'660'
p210
aS'761'
p211
aS'786'
p212
ag101
aa(lp213
g101
aS'4042'
p214
aS'2204'
p215
aS'1563'
p216
aS'2286'
p217
aS'263'
p218
aS'689'
p219
ag101
aa(lp220
g101
aS'1869'
p221
aS'577'
p222
aS'572'
p223
aS'950'
p224
aS'4762'
p225
aS'203'
p226
ag101
aa(lp227
g101
aS'8656'
p228
aS'2746'
p229
aS'2501'
p230
aS'6845'
p231
aS'694'
p232
aS'980'
p233
ag101
aa(lp234
g101
aS'2344'
p235
aS'10678'
p236
aS'3828'
p237
aS'1439'
p238
aS'1566'
p239
aS'490'
p240
ag101
aa(lp241
g101
aS'25962'
p242
aS'1780'
p243
aS'3838'
p244
aS'638'
p245
aS'284'
p246
aS'834'
p247
ag101
aa(lp248
g101
aS'964'
p249
aS'4984'
p250
aS'3316'
p251
aS'937'
p252
aS'409'
p253
aS'7'
p254
ag101
aa(lp255
g101
aS'15603'
p256
aS'2703'
p257
aS'3833'
p258
aS'4260'
p259
aS'325'
p260
aS'2563'
p261
ag101
aa(lp262
g101
aS'1838'
p263
aS'6380'
p264
aS'2824'
p265
aS'1218'
p266
aS'1216'
p267
aS'295'
p268
ag101
aa(lp269
g101
aS'8635'
p270
aS'820'
p271
aS'3047'
p272
aS'2312'
p273
aS'415'
p274
aS'225'
p275
ag101
aa(lp276
g101
aS'18692'
p277
aS'3838'
p278
aS'593'
p279
aS'4634'
p280
aS'28'
p281
aS'1215'
p282
ag101
aa(lp283
g101
aS'7363'
p284
aS'475'
p285
aS'585'
p286
aS'1112'
p287
aS'72'
p288
aS'216'
p289
ag101
aa(lp290
g101
aS'47493'
p291
aS'2567'
p292
aS'3779'
p293
aS'5243'
p294
aS'828'
p295
aS'2253'
p296
ag101
aa(lp297
g101
aS'22096'
p298
aS'3575'
p299
aS'7041'
p300
aS'11422'
p301
aS'343'
p302
aS'2564'
p303
ag101
aa(lp304
g101
aS'24929'
p305
aS'1801'
p306
aS'2475'
p307
aS'2216'
p308
aS'412'
p309
aS'1047'
p310
ag101
aa.