(lp0
(lp1
S'3'
p2
aS'12669'
p3
aS'9656'
p4
aS'7561'
p5
aS'214'
p6
aS'2674'
p7
aS'1338'
p8
aS'2'
p9
aa(lp10
g2
aS'7057'
p11
aS'9810'
p12
aS'9568'
p13
aS'1762'
p14
aS'3293'
p15
aS'1776'
p16
ag9
aa(lp17
g2
aS'6353'
p18
aS'8808'
p19
aS'7684'
p20
aS'2405'
p21
aS'3516'
p22
aS'7844'
p23
ag9
aa(lp24
g2
aS'13265'
p25
aS'1196'
p26
aS'4221'
p27
aS'6404'
p28
aS'507'
p29
aS'1788'
p30
aS'1'
p31
aa(lp32
g2
aS'22615'
p33
aS'5410'
p34
aS'7198'
p35
aS'3915'
p36
aS'1777'
p37
aS'5185'
p38
ag9
aa(lp39
g2
aS'9413'
p40
aS'8259'
p41
aS'5126'
p42
aS'666'
p43
aS'1795'
p44
aS'1451'
p45
ag9
aa(lp46
g2
aS'12126'
p47
aS'3199'
p48
aS'6975'
p49
aS'480'
p50
aS'3140'
p51
aS'545'
p52
ag9
aa(lp53
g2
aS'7579'
p54
aS'4956'
p55
aS'9426'
p56
aS'1669'
p57
aS'3321'
p58
aS'2566'
p59
ag9
aa(lp60
g2
aS'5963'
p61
aS'3648'
p62
aS'6192'
p63
aS'425'
p64
aS'1716'
p65
aS'750'
p66
ag31
aa(lp67
g2
aS'6006'
p68
aS'11093'
p69
aS'18881'
p70
aS'1159'
p71
aS'7425'
p72
aS'2098'
p73
ag9
aa(lp74
g2
aS'3366'
p75
aS'5403'
p76
aS'12974'
p77
aS'4400'
p78
aS'5977'
p79
aS'1744'
p80
ag9
aa(lp81
g2
aS'13146'
p82
aS'1124'
p83
aS'4523'
p84
aS'1420'
p85
aS'549'
p86
aS'497'
p87
ag9
aa(lp88
g2
aS'31714'
p89
aS'12319'
p90
aS'11757'
p91
aS'287'
p92
aS'3881'
p93
aS'2931'
p94
ag9
aa(lp95
g2
aS'21217'
p96
aS'6208'
p97
aS'14982'
p98
aS'3095'
p99
aS'6707'
p100
aS'602'
p101
ag9
aa(lp102
g2
aS'24653'
p103
aS'9465'
p104
aS'12091'
p105
aS'294'
p106
aS'5058'
p107
aS'2168'
p108
ag9
aa(lp109
g2
aS'10253'
p110
aS'1114'
p111
aS'3821'
p112
aS'397'
p113
aS'964'
p114
aS'412'
p115
ag31
aa(lp116
g2
aS'1020'
p117
aS'8816'
p118
aS'12121'
p119
aS'134'
p120
aS'4508'
p121
aS'1080'
p122
ag9
aa(lp123
g2
aS'5876'
p124
aS'6157'
p125
aS'2933'
p126
aS'839'
p127
aS'370'
p128
aS'4478'
p129
ag31
aa(lp130
g2
aS'18601'
p131
aS'6327'
p132
aS'10099'
p133
aS'2205'
p134
aS'2767'
p135
aS'3181'
p136
ag9
aa(lp137
g2
aS'7780'
p138
aS'2495'
p139
aS'9464'
p140
aS'669'
p141
aS'2518'
p142
aS'501'
p143
ag31
aa(lp144
g2
aS'5567'
p145
aS'871'
p146
aS'2010'
p147
aS'3383'
p148
aS'375'
p149
aS'569'
p150
ag31
aa(lp151
g2
aS'31276'
p152
aS'1917'
p153
aS'4469'
p154
aS'9408'
p155
aS'2381'
p156
aS'4334'
p157
ag31
aa(lp158
g2
aS'9898'
p159
aS'961'
p160
aS'2861'
p161
aS'3151'
p162
aS'242'
p163
aS'833'
p164
ag31
aa(lp165
g2
aS'14276'
p166
aS'803'
p167
aS'3045'
p168
aS'485'
p169
aS'100'
p170
aS'518'
p171
ag31
aa(lp172
g2
aS'43088'
p173
aS'2100'
p174
aS'2609'
p175
aS'1200'
p176
aS'1107'
p177
aS'823'
p178
ag31
aa(lp179
g2
aS'18815'
p180
aS'3610'
p181
aS'11107'
p182
aS'1148'
p183
aS'2134'
p184
aS'2963'
p185
ag31
aa(lp186
g2
aS'2612'
p187
aS'4339'
p188
aS'3133'
p189
aS'2088'
p190
aS'820'
p191
aS'985'
p192
ag31
aa(lp193
g2
aS'21632'
p194
aS'1318'
p195
aS'2886'
p196
aS'266'
p197
aS'918'
p198
aS'405'
p199
ag31
aa(lp200
g2
aS'29729'
p201
aS'4786'
p202
aS'7326'
p203
aS'6130'
p204
aS'361'
p205
aS'1083'
p206
ag31
aa(lp207
g2
aS'1502'
p208
aS'1979'
p209
aS'2262'
p210
aS'425'
p211
aS'483'
p212
aS'395'
p213
ag31
aa(lp214
g2
aS'29955'
p215
aS'4362'
p216
aS'5428'
p217
aS'1729'
p218
aS'862'
p219
aS'4626'
p220
ag31
aa(lp221
g2
aS'56159'
p222
aS'555'
p223
aS'902'
p224
aS'10002'
p225
aS'212'
p226
aS'2916'
p227
ag31
aa(lp228
g2
aS'24025'
p229
aS'4332'
p230
aS'4757'
p231
aS'9510'
p232
aS'1145'
p233
aS'5864'
p234
ag31
aa(lp235
g2
aS'19176'
p236
aS'3065'
p237
aS'5956'
p238
aS'2033'
p239
aS'2575'
p240
aS'2802'
p241
ag31
aa(lp242
g2
aS'6269'
p243
aS'1095'
p244
aS'1980'
p245
aS'3860'
p246
aS'609'
p247
aS'2162'
p248
ag31
aa(lp249
g2
aS'3347'
p250
aS'4051'
p251
aS'6996'
p252
aS'239'
p253
aS'1538'
p254
aS'301'
p255
ag31
aa(lp256
g2
aS'27329'
p257
aS'1449'
p258
aS'1947'
p259
aS'2436'
p260
aS'204'
p261
aS'1333'
p262
ag31
aa(lp263
g2
aS'5264'
p264
aS'3683'
p265
aS'5005'
p266
aS'1057'
p267
aS'2024'
p268
aS'1130'
p269
ag31
aa(lp270
g2
aS'13779'
p271
aS'1970'
p272
aS'1648'
p273
aS'596'
p274
aS'227'
p275
aS'436'
p276
ag31
aa(lp277
g2
aS'6137'
p278
aS'5360'
p279
aS'8040'
p280
aS'129'
p281
aS'3084'
p282
aS'1603'
p283
ag31
aa(lp284
g2
aS'4760'
p285
aS'1227'
p286
aS'3250'
p287
aS'3724'
p288
aS'1247'
p289
aS'1145'
p290
ag31
aa(lp291
g2
aS'9'
p292
aS'1534'
p293
aS'7417'
p294
aS'175'
p295
aS'3468'
p296
aS'27'
p297
ag31
aa(lp298
g2
aS'2446'
p299
aS'7260'
p300
aS'3993'
p301
aS'5870'
p302
aS'788'
p303
aS'3095'
p304
ag31
aa(lp305
g2
aS'8352'
p306
aS'2820'
p307
aS'1293'
p308
aS'779'
p309
aS'656'
p310
aS'144'
p311
ag31
aa(lp312
g2
aS'16705'
p313
aS'2037'
p314
aS'3202'
p315
aS'10643'
p316
aS'116'
p317
aS'1365'
p318
ag31
aa.