(lp0
(lp1
S'3'
p2
aS'12669'
p3
aS'9656'
p4
aS'7561'
p5
aS'214'
p6
aS'2674'
p7
aS'1338'
p8
aS'2'
p9
aa(lp10
g2
aS'7057'
p11
aS'9810'
p12
aS'9568'
p13
aS'1762'
p14
aS'3293'
p15
aS'1776'
p16
ag9
aa(lp17
g2
aS'6353'
p18
aS'8808'
p19
aS'7684'
p20
aS'2405'
p21
aS'3516'
p22
aS'7844'
p23
ag9
aa(lp24
g2
aS'13265'
p25
aS'1196'
p26
aS'4221'
p27
aS'6404'
p28
aS'507'
p29
aS'1788'
p30
aS'1'
p31
aa(lp32
g2
aS'22615'
p33
aS'5410'
p34
aS'7198'
p35
aS'3915'
p36
aS'1777'
p37
aS'5185'
p38
ag9
aa(lp39
g2
aS'9413'
p40
aS'8259'
p41
aS'5126'
p42
aS'666'
p43
aS'1795'
p44
aS'1451'
p45
ag9
aa(lp46
g2
aS'12126'
p47
aS'3199'
p48
aS'6975'
p49
aS'480'
p50
aS'3140'
p51
aS'545'
p52
ag9
aa(lp53
g2
aS'7579'
p54
aS'4956'
p55
aS'9426'
p56
aS'1669'
p57
aS'3321'
p58
aS'2566'
p59
ag9
aa(lp60
g2
aS'5963'
p61
aS'3648'
p62
aS'6192'
p63
aS'425'
p64
aS'1716'
p65
aS'750'
p66
ag31
aa(lp67
g2
aS'6006'
p68
aS'11093'
p69
aS'18881'
p70
aS'1159'
p71
aS'7425'
p72
aS'2098'
p73
ag9
aa(lp74
g2
aS'3366'
p75
aS'5403'
p76
aS'12974'
p77
aS'4400'
p78
aS'5977'
p79
aS'1744'
p80
ag9
aa(lp81
g2
aS'13146'
p82
aS'1124'
p83
aS'4523'
p84
aS'1420'
p85
aS'549'
p86
aS'497'
p87
ag9
aa(lp88
g2
aS'31714'
p89
aS'12319'
p90
aS'11757'
p91
aS'287'
p92
aS'3881'
p93
aS'2931'
p94
ag9
aa(lp95
g2
aS'21217'
p96
aS'6208'
p97
aS'14982'
p98
aS'3095'
p99
aS'6707'
p100
aS'602'
p101
ag9
aa(lp102
g2
aS'24653'
p103
aS'9465'
p104
aS'12091'
p105
aS'294'
p106
aS'5058'
p107
aS'2168'
p108
ag9
aa(lp109
g2
aS'10253'
p110
aS'1114'
p111
aS'3821'
p112
aS'397'
p113
aS'964'
p114
aS'412'
p115
ag31
aa(lp116
g2
aS'1020'
p117
aS'8816'
p118
aS'12121'
p119
aS'134'
p120
aS'4508'
p121
aS'1080'
p122
ag9
aa(lp123
g2
aS'5876'
p124
aS'6157'
p125
aS'2933'
p126
aS'839'
p127
aS'370'
p128
aS'4478'
p129
ag31
aa(lp130
g2
aS'18601'
p131
aS'6327'
p132
aS'10099'
p133
aS'2205'
p134
aS'2767'
p135
aS'3181'
p136
ag9
aa(lp137
g2
aS'7780'
p138
aS'2495'
p139
aS'9464'
p140
aS'669'
p141
aS'2518'
p142
aS'501'
p143
ag31
aa(lp144
g2
aS'17546'
p145
aS'4519'
p146
aS'4602'
p147
aS'1066'
p148
aS'2259'
p149
aS'2124'
p150
ag9
aa(lp151
g2
aS'5567'
p152
aS'871'
p153
aS'2010'
p154
aS'3383'
p155
aS'375'
p156
aS'569'
p157
ag31
aa(lp158
g2
aS'31276'
p159
aS'1917'
p160
aS'4469'
p161
aS'9408'
p162
aS'2381'
p163
aS'4334'
p164
ag31
aa(lp165
g2
aS'26373'
p166
aS'36423'
p167
aS'22019'
p168
aS'5154'
p169
aS'4337'
p170
aS'16523'
p171
ag9
aa(lp172
g2
aS'22647'
p173
aS'9776'
p174
aS'13792'
p175
aS'2915'
p176
aS'4482'
p177
aS'5778'
p178
ag9
aa(lp179
g2
aS'16165'
p180
aS'4230'
p181
aS'7595'
p182
aS'201'
p183
aS'4003'
p184
aS'57'
p185
ag9
aa(lp186
g2
aS'9898'
p187
aS'961'
p188
aS'2861'
p189
aS'3151'
p190
aS'242'
p191
aS'833'
p192
ag31
aa(lp193
g2
aS'14276'
p194
aS'803'
p195
aS'3045'
p196
aS'485'
p197
aS'100'
p198
aS'518'
p199
ag31
aa(lp200
g2
aS'4113'
p201
aS'20484'
p202
aS'25957'
p203
aS'1158'
p204
aS'8604'
p205
aS'5206'
p206
ag9
aa(lp207
g2
aS'43088'
p208
aS'2100'
p209
aS'2609'
p210
aS'1200'
p211
aS'1107'
p212
aS'823'
p213
ag31
aa(lp214
g2
aS'18815'
p215
aS'3610'
p216
aS'11107'
p217
aS'1148'
p218
aS'2134'
p219
aS'2963'
p220
ag31
aa(lp221
g2
aS'2612'
p222
aS'4339'
p223
aS'3133'
p224
aS'2088'
p225
aS'820'
p226
aS'985'
p227
ag31
aa(lp228
g2
aS'21632'
p229
aS'1318'
p230
aS'2886'
p231
aS'266'
p232
aS'918'
p233
aS'405'
p234
ag31
aa(lp235
g2
aS'29729'
p236
aS'4786'
p237
aS'7326'
p238
aS'6130'
p239
aS'361'
p240
aS'1083'
p241
ag31
aa(lp242
g2
aS'1502'
p243
aS'1979'
p244
aS'2262'
p245
aS'425'
p246
aS'483'
p247
aS'395'
p248
ag31
aa(lp249
g2
aS'688'
p250
aS'5491'
p251
aS'11091'
p252
aS'833'
p253
aS'4239'
p254
aS'436'
p255
ag9
aa(lp256
g2
aS'29955'
p257
aS'4362'
p258
aS'5428'
p259
aS'1729'
p260
aS'862'
p261
aS'4626'
p262
ag31
aa(lp263
g2
aS'15168'
p264
aS'10556'
p265
aS'12477'
p266
aS'1920'
p267
aS'6506'
p268
aS'714'
p269
ag9
aa(lp270
g2
aS'4591'
p271
aS'15729'
p272
aS'16709'
p273
aS'33'
p274
aS'6956'
p275
aS'433'
p276
ag9
aa(lp277
g2
aS'56159'
p278
aS'555'
p279
aS'902'
p280
aS'10002'
p281
aS'212'
p282
aS'2916'
p283
ag31
aa(lp284
g2
aS'24025'
p285
aS'4332'
p286
aS'4757'
p287
aS'9510'
p288
aS'1145'
p289
aS'5864'
p290
ag31
aa(lp291
g2
aS'19176'
p292
aS'3065'
p293
aS'5956'
p294
aS'2033'
p295
aS'2575'
p296
aS'2802'
p297
ag31
aa(lp298
g2
aS'10850'
p299
aS'7555'
p300
aS'14961'
p301
aS'188'
p302
aS'6899'
p303
aS'46'
p304
ag9
aa(lp305
g2
aS'630'
p306
aS'11095'
p307
aS'23998'
p308
aS'787'
p309
aS'9529'
p310
aS'72'
p311
ag9
aa(lp312
g2
aS'9670'
p313
aS'7027'
p314
aS'10471'
p315
aS'541'
p316
aS'4618'
p317
aS'65'
p318
ag9
aa(lp319
g2
aS'5181'
p320
aS'22044'
p321
aS'21531'
p322
aS'1740'
p323
aS'7353'
p324
aS'4985'
p325
ag9
aa(lp326
g2
aS'3103'
p327
aS'14069'
p328
aS'21955'
p329
aS'1668'
p330
aS'6792'
p331
aS'1452'
p332
ag9
aa(lp333
g2
aS'44466'
p334
aS'54259'
p335
aS'55571'
p336
aS'7782'
p337
aS'24171'
p338
aS'6465'
p339
ag9
aa(lp340
g2
aS'11519'
p341
aS'6152'
p342
aS'10868'
p343
aS'584'
p344
aS'5121'
p345
aS'1476'
p346
ag9
aa(lp347
g2
aS'4967'
p348
aS'21412'
p349
aS'28921'
p350
aS'1798'
p351
aS'13583'
p352
aS'1163'
p353
ag9
aa(lp354
g2
aS'6269'
p355
aS'1095'
p356
aS'1980'
p357
aS'3860'
p358
aS'609'
p359
aS'2162'
p360
ag31
aa(lp361
g2
aS'3347'
p362
aS'4051'
p363
aS'6996'
p364
aS'239'
p365
aS'1538'
p366
aS'301'
p367
ag31
aa(lp368
g2
aS'40721'
p369
aS'3916'
p370
aS'5876'
p371
aS'532'
p372
aS'2587'
p373
aS'1278'
p374
ag9
aa(lp375
g2
aS'491'
p376
aS'10473'
p377
aS'11532'
p378
aS'744'
p379
aS'5611'
p380
aS'224'
p381
ag9
aa(lp382
g2
aS'27329'
p383
aS'1449'
p384
aS'1947'
p385
aS'2436'
p386
aS'204'
p387
aS'1333'
p388
ag31
aa(lp389
g2
aS'5264'
p390
aS'3683'
p391
aS'5005'
p392
aS'1057'
p393
aS'2024'
p394
aS'1130'
p395
ag31
aa(lp396
g2
aS'4098'
p397
aS'29892'
p398
aS'26866'
p399
aS'2616'
p400
aS'17740'
p401
aS'1340'
p402
ag9
aa(lp403
g2
aS'5417'
p404
aS'9933'
p405
aS'10487'
p406
aS'38'
p407
aS'7572'
p408
aS'1282'
p409
ag9
aa(lp410
g2
aS'13779'
p411
aS'1970'
p412
aS'1648'
p413
aS'596'
p414
aS'227'
p415
aS'436'
p416
ag31
aa(lp417
g2
aS'6137'
p418
aS'5360'
p419
aS'8040'
p420
aS'129'
p421
aS'3084'
p422
aS'1603'
p423
ag31
aa(lp424
g2
aS'8590'
p425
aS'3045'
p426
aS'7854'
p427
aS'96'
p428
aS'4095'
p429
aS'225'
p430
ag9
aa(lp431
g2
aS'35942'
p432
aS'38369'
p433
aS'59598'
p434
aS'3254'
p435
aS'26701'
p436
aS'2017'
p437
ag9
aa(lp438
g2
aS'7823'
p439
aS'6245'
p440
aS'6544'
p441
aS'4154'
p442
aS'4074'
p443
aS'964'
p444
ag9
aa(lp445
g2
aS'9396'
p446
aS'11601'
p447
aS'15775'
p448
aS'2896'
p449
aS'7677'
p450
aS'1295'
p451
ag9
aa(lp452
g2
aS'4760'
p453
aS'1227'
p454
aS'3250'
p455
aS'3724'
p456
aS'1247'
p457
aS'1145'
p458
ag31
aa(lp459
g2
aS'85'
p460
aS'20959'
p461
aS'45828'
p462
aS'36'
p463
aS'24231'
p464
aS'1423'
p465
ag9
aa(lp466
g2
aS'9'
p467
aS'1534'
p468
aS'7417'
p469
aS'175'
p470
aS'3468'
p471
aS'27'
p472
ag31
aa(lp473
g2
aS'19913'
p474
aS'6759'
p475
aS'13462'
p476
aS'1256'
p477
aS'5141'
p478
aS'834'
p479
ag9
aa(lp480
g2
aS'2446'
p481
aS'7260'
p482
aS'3993'
p483
aS'5870'
p484
aS'788'
p485
aS'3095'
p486
ag31
aa(lp487
g2
aS'8352'
p488
aS'2820'
p489
aS'1293'
p490
aS'779'
p491
aS'656'
p492
aS'144'
p493
ag31
aa(lp494
g2
aS'16705'
p495
aS'2037'
p496
aS'3202'
p497
aS'10643'
p498
aS'116'
p499
aS'1365'
p500
ag31
aa(lp501
g2
aS'18291'
p502
aS'1266'
p503
aS'21042'
p504
aS'5373'
p505
aS'4173'
p506
aS'14472'
p507
ag31
aa(lp508
g2
aS'4420'
p509
aS'5139'
p510
aS'2661'
p511
aS'8872'
p512
aS'1321'
p513
aS'181'
p514
ag31
aa(lp515
g2
aS'19899'
p516
aS'5332'
p517
aS'8713'
p518
aS'8132'
p519
aS'764'
p520
aS'648'
p521
ag9
aa(lp522
g2
aS'8190'
p523
aS'6343'
p524
aS'9794'
p525
aS'1285'
p526
aS'1901'
p527
aS'1780'
p528
ag9
aa(lp529
g2
aS'20398'
p530
aS'1137'
p531
ag2
aS'4407'
p532
ag2
aS'975'
p533
ag31
aa(lp534
g2
aS'717'
p535
aS'3587'
p536
aS'6532'
p537
aS'7530'
p538
aS'529'
p539
aS'894'
p540
ag31
aa(lp541
g2
aS'12205'
p542
aS'12697'
p543
aS'28540'
p544
aS'869'
p545
aS'12034'
p546
aS'1009'
p547
ag9
aa(lp548
g2
aS'10766'
p549
aS'1175'
p550
aS'2067'
p551
aS'2096'
p552
aS'301'
p553
aS'167'
p554
ag31
aa(lp555
g2
aS'1640'
p556
aS'3259'
p557
aS'3655'
p558
aS'868'
p559
aS'1202'
p560
aS'1653'
p561
ag31
aa(lp562
g2
aS'7005'
p563
aS'829'
p564
aS'3009'
p565
aS'430'
p566
aS'610'
p567
aS'529'
p568
ag31
aa(lp569
g2
aS'219'
p570
aS'9540'
p571
aS'14403'
p572
aS'283'
p573
aS'7818'
p574
aS'156'
p575
ag9
aa(lp576
g2
aS'10362'
p577
aS'9232'
p578
aS'11009'
p579
aS'737'
p580
aS'3537'
p581
aS'2342'
p582
ag9
aa(lp583
g2
aS'20874'
p584
aS'1563'
p585
aS'1783'
p586
aS'2320'
p587
aS'550'
p588
aS'772'
p589
ag31
aa(lp590
g2
aS'11867'
p591
aS'3327'
p592
aS'4814'
p593
aS'1178'
p594
aS'3837'
p595
aS'120'
p596
ag9
aa(lp597
g2
aS'16117'
p598
aS'46197'
p599
aS'92780'
p600
aS'1026'
p601
aS'40827'
p602
aS'2944'
p603
ag9
aa(lp604
g2
aS'22925'
p605
aS'73498'
p606
aS'32114'
p607
aS'987'
p608
aS'20070'
p609
aS'903'
p610
ag9
aa(lp611
g2
aS'43265'
p612
aS'5025'
p613
aS'8117'
p614
aS'6312'
p615
aS'1579'
p616
aS'14351'
p617
ag31
aa(lp618
g2
aS'7864'
p619
aS'542'
p620
aS'4042'
p621
aS'9735'
p622
aS'165'
p623
aS'46'
p624
ag31
aa(lp625
g2
aS'24904'
p626
aS'3836'
p627
aS'5330'
p628
aS'3443'
p629
aS'454'
p630
aS'3178'
p631
ag31
aa(lp632
g2
aS'11405'
p633
aS'596'
p634
aS'1638'
p635
aS'3347'
p636
aS'69'
p637
aS'360'
p638
ag31
aa(lp639
g2
aS'12754'
p640
aS'2762'
p641
aS'2530'
p642
aS'8693'
p643
aS'627'
p644
aS'1117'
p645
ag31
aa(lp646
g2
aS'9198'
p647
aS'27472'
p648
aS'32034'
p649
aS'3232'
p650
aS'18906'
p651
aS'5130'
p652
ag9
aa(lp653
g2
aS'11314'
p654
aS'3090'
p655
aS'2062'
p656
aS'35009'
p657
aS'71'
p658
aS'2698'
p659
ag31
aa(lp660
g2
aS'5626'
p661
aS'12220'
p662
aS'11323'
p663
aS'206'
p664
aS'5038'
p665
aS'244'
p666
ag9
aa(lp667
g2
ag2
aS'2920'
p668
aS'6252'
p669
aS'440'
p670
aS'223'
p671
aS'709'
p672
ag31
aa(lp673
g2
aS'23'
p674
aS'2616'
p675
aS'8118'
p676
aS'145'
p677
aS'3874'
p678
aS'217'
p679
ag9
aa(lp680
g2
aS'403'
p681
aS'254'
p682
aS'610'
p683
aS'774'
p684
aS'54'
p685
aS'63'
p686
ag31
aa(lp687
g2
aS'503'
p688
aS'112'
p689
aS'778'
p690
aS'895'
p691
aS'56'
p692
aS'132'
p693
ag31
aa(lp694
g2
aS'9658'
p695
aS'2182'
p696
aS'1909'
p697
aS'5639'
p698
aS'215'
p699
aS'323'
p700
ag31
aa(lp701
g2
aS'11594'
p702
aS'7779'
p703
aS'12144'
p704
aS'3252'
p705
aS'8035'
p706
aS'3029'
p707
ag9
aa(lp708
g2
aS'1420'
p709
aS'10810'
p710
aS'16267'
p711
aS'1593'
p712
aS'6766'
p713
aS'1838'
p714
ag9
aa(lp715
g2
aS'2932'
p716
aS'6459'
p717
aS'7677'
p718
aS'2561'
p719
aS'4573'
p720
aS'1386'
p721
ag9
aa(lp722
g2
aS'56082'
p723
aS'3504'
p724
aS'8906'
p725
aS'18028'
p726
aS'1480'
p727
aS'2498'
p728
ag31
aa(lp729
g2
aS'14100'
p730
aS'2132'
p731
aS'3445'
p732
aS'1336'
p733
aS'1491'
p734
aS'548'
p735
ag31
aa(lp736
g2
aS'15587'
p737
aS'1014'
p738
aS'3970'
p739
aS'910'
p740
aS'139'
p741
aS'1378'
p742
ag31
aa(lp743
g2
aS'1454'
p744
aS'6337'
p745
aS'10704'
p746
aS'133'
p747
aS'6830'
p748
aS'1831'
p749
ag9
aa(lp750
g2
aS'8797'
p751
aS'10646'
p752
aS'14886'
p753
aS'2471'
p754
aS'8969'
p755
aS'1438'
p756
ag9
aa(lp757
g2
aS'1531'
p758
aS'8397'
p759
aS'6981'
p760
aS'247'
p761
aS'2505'
p762
aS'1236'
p763
ag9
aa(lp764
g2
aS'1406'
p765
aS'16729'
p766
aS'28986'
p767
aS'673'
p768
aS'836'
p769
ag2
ag9
aa(lp770
g2
aS'11818'
p771
aS'1648'
p772
aS'1694'
p773
aS'2276'
p774
aS'169'
p775
aS'1647'
p776
ag31
aa(lp777
g2
aS'12579'
p778
aS'11114'
p779
aS'17569'
p780
aS'805'
p781
aS'6457'
p782
aS'1519'
p783
ag9
aa(lp784
g2
aS'19046'
p785
aS'2770'
p786
aS'2469'
p787
aS'8853'
p788
aS'483'
p789
aS'2708'
p790
ag31
aa(lp791
g2
aS'14438'
p792
aS'2295'
p793
aS'1733'
p794
aS'3220'
p795
aS'585'
p796
aS'1561'
p797
ag31
aa(lp798
g2
aS'18044'
p799
aS'1080'
p800
aS'2000'
p801
aS'2555'
p802
aS'118'
p803
aS'1266'
p804
ag31
aa(lp805
g2
aS'11134'
p806
aS'793'
p807
aS'2988'
p808
aS'2715'
p809
aS'276'
p810
aS'610'
p811
ag31
aa(lp812
g2
aS'11173'
p813
aS'2521'
p814
aS'3355'
p815
aS'1517'
p816
aS'310'
p817
aS'222'
p818
ag31
aa(lp819
g2
aS'6990'
p820
aS'3880'
p821
aS'5380'
p822
aS'1647'
p823
aS'319'
p824
aS'1160'
p825
ag31
aa(lp826
g2
aS'20049'
p827
aS'1891'
p828
aS'2362'
p829
aS'5343'
p830
aS'411'
p831
aS'933'
p832
ag31
aa(lp833
g2
aS'8258'
p834
aS'2344'
p835
aS'2147'
p836
aS'3896'
p837
aS'266'
p838
aS'635'
p839
ag31
aa(lp840
g2
aS'17160'
p841
aS'1200'
p842
aS'3412'
p843
aS'2417'
p844
aS'174'
p845
aS'1136'
p846
ag31
aa(lp847
g2
aS'4020'
p848
aS'3234'
p849
aS'1498'
p850
aS'2395'
p851
aS'264'
p852
aS'255'
p853
ag31
aa(lp854
g2
aS'12212'
p855
aS'201'
p856
aS'245'
p857
aS'1991'
p858
aS'25'
p859
aS'860'
p860
ag31
aa(lp861
g2
aS'11170'
p862
aS'10769'
p863
aS'8814'
p864
aS'2194'
p865
aS'1976'
p866
aS'143'
p867
ag9
aa(lp868
g2
aS'36050'
p869
aS'1642'
p870
aS'2961'
p871
aS'4787'
p872
aS'500'
p873
aS'1621'
p874
ag31
aa(lp875
g2
aS'76237'
p876
aS'3473'
p877
aS'7102'
p878
aS'16538'
p879
aS'778'
p880
aS'918'
p881
ag31
aa(lp882
g2
aS'19219'
p883
aS'1840'
p884
aS'1658'
p885
aS'8195'
p886
aS'349'
p887
aS'483'
p888
ag31
aa(lp889
g2
aS'21465'
p890
aS'7243'
p891
aS'10685'
p892
aS'880'
p893
aS'2386'
p894
aS'2749'
p895
ag9
aa(lp896
g2
aS'140'
p897
aS'8847'
p898
aS'3823'
p899
aS'142'
p900
aS'1062'
p901
ag2
ag31
aa(lp902
g2
aS'42312'
p903
aS'926'
p904
aS'1510'
p905
aS'1718'
p906
aS'410'
p907
aS'1819'
p908
ag31
aa(lp909
g2
aS'7149'
p910
aS'2428'
p911
aS'699'
p912
aS'6316'
p913
aS'395'
p914
aS'911'
p915
ag31
aa(lp916
g2
aS'2101'
p917
aS'589'
p918
aS'314'
p919
aS'346'
p920
aS'70'
p921
aS'310'
p922
ag31
aa(lp923
g2
aS'14903'
p924
aS'2032'
p925
aS'2479'
p926
aS'576'
p927
aS'955'
p928
aS'328'
p929
ag31
aa(lp930
g2
aS'9434'
p931
aS'1042'
p932
aS'1235'
p933
aS'436'
p934
aS'256'
p935
aS'396'
p936
ag31
aa(lp937
g2
aS'7388'
p938
aS'1882'
p939
aS'2174'
p940
aS'720'
p941
aS'47'
p942
aS'537'
p943
ag31
aa(lp944
g2
aS'6300'
p945
aS'1289'
p946
aS'2591'
p947
aS'1170'
p948
aS'199'
p949
aS'326'
p950
ag31
aa(lp951
g2
aS'4625'
p952
aS'8579'
p953
aS'7030'
p954
aS'4575'
p955
aS'2447'
p956
aS'1542'
p957
ag31
aa(lp958
g2
aS'3087'
p959
aS'8080'
p960
aS'8282'
p961
aS'661'
p962
aS'721'
p963
aS'36'
p964
ag31
aa(lp965
g2
aS'13537'
p966
aS'4257'
p967
aS'5034'
p968
aS'155'
p969
aS'249'
p970
aS'3271'
p971
ag31
aa(lp972
g2
aS'5387'
p973
aS'4979'
p974
aS'3343'
p975
aS'825'
p976
aS'637'
p977
aS'929'
p978
ag31
aa(lp979
g2
aS'17623'
p980
aS'4280'
p981
aS'7305'
p982
aS'2279'
p983
aS'960'
p984
aS'2616'
p985
ag31
aa(lp986
g2
aS'30379'
p987
aS'13252'
p988
aS'5189'
p989
aS'321'
p990
aS'51'
p991
aS'1450'
p992
ag31
aa(lp993
g2
aS'37036'
p994
aS'7152'
p995
aS'8253'
p996
aS'2995'
p997
aS'20'
p998
ag2
ag31
aa(lp999
g2
aS'10405'
p1000
aS'1596'
p1001
aS'1096'
p1002
aS'8425'
p1003
aS'399'
p1004
aS'318'
p1005
ag31
aa(lp1006
g2
aS'18827'
p1007
aS'3677'
p1008
aS'1988'
p1009
aS'118'
p1010
aS'516'
p1011
aS'201'
p1012
ag31
aa(lp1013
g2
aS'22039'
p1014
aS'8384'
p1015
aS'34792'
p1016
aS'42'
p1017
aS'12591'
p1018
aS'4430'
p1019
ag9
aa(lp1020
g2
aS'7769'
p1021
aS'1936'
p1022
aS'2177'
p1023
aS'926'
p1024
aS'73'
p1025
aS'520'
p1026
ag31
aa(lp1027
g2
aS'9203'
p1028
aS'3373'
p1029
aS'2707'
p1030
aS'1286'
p1031
aS'1082'
p1032
aS'526'
p1033
ag31
aa(lp1034
g2
aS'5924'
p1035
aS'584'
p1036
aS'542'
p1037
aS'4052'
p1038
aS'283'
p1039
aS'434'
p1040
ag31
aa(lp1041
g2
aS'31812'
p1042
aS'1433'
p1043
aS'1651'
p1044
aS'800'
p1045
aS'113'
p1046
aS'1440'
p1047
ag31
aa(lp1048
g2
aS'16225'
p1049
aS'1825'
p1050
aS'1765'
p1051
aS'853'
p1052
aS'170'
p1053
aS'1067'
p1054
ag31
aa(lp1055
g2
aS'1289'
p1056
aS'3328'
p1057
aS'2022'
p1058
aS'531'
p1059
aS'255'
p1060
aS'1774'
p1061
ag31
aa(lp1062
g2
aS'18840'
p1063
aS'1371'
p1064
aS'3135'
p1065
aS'3001'
p1066
aS'352'
p1067
aS'184'
p1068
ag31
aa(lp1069
g2
aS'3463'
p1070
aS'9250'
p1071
aS'2368'
p1072
aS'779'
p1073
aS'302'
p1074
aS'1627'
p1075
ag31
aa(lp1076
g2
aS'622'
p1077
aS'55'
p1078
aS'137'
p1079
aS'75'
p1080
aS'7'
p1081
aS'8'
p1082
ag31
aa(lp1083
g2
aS'1989'
p1084
aS'10690'
p1085
aS'19460'
p1086
aS'233'
p1087
aS'11577'
p1088
aS'2153'
p1089
ag9
aa(lp1090
g2
aS'3830'
p1091
aS'5291'
p1092
aS'14855'
p1093
aS'317'
p1094
aS'6694'
p1095
aS'3182'
p1096
ag9
aa(lp1097
g2
aS'17773'
p1098
aS'1366'
p1099
aS'2474'
p1100
aS'3378'
p1101
aS'811'
p1102
aS'418'
p1103
ag31
aa(lp1104
g2
aS'2861'
p1105
aS'6570'
p1106
aS'9618'
p1107
aS'930'
p1108
aS'4004'
p1109
aS'1682'
p1110
ag9
aa(lp1111
g2
aS'355'
p1112
aS'7704'
p1113
aS'14682'
p1114
aS'398'
p1115
aS'8077'
p1116
aS'303'
p1117
ag9
aa(lp1118
g2
aS'1725'
p1119
aS'3651'
p1120
aS'12822'
p1121
aS'824'
p1122
aS'4424'
p1123
aS'2157'
p1124
ag9
aa(lp1125
g2
aS'12434'
p1126
aS'540'
p1127
aS'283'
p1128
aS'1092'
p1129
ag2
aS'2233'
p1130
ag31
aa(lp1131
g2
aS'15177'
p1132
aS'2024'
p1133
aS'3810'
p1134
aS'2665'
p1135
aS'232'
p1136
aS'610'
p1137
ag31
aa(lp1138
g2
aS'5531'
p1139
aS'15726'
p1140
aS'26870'
p1141
aS'2367'
p1142
aS'13726'
p1143
aS'446'
p1144
ag9
aa(lp1145
g2
aS'5224'
p1146
aS'7603'
p1147
aS'8584'
p1148
aS'2540'
p1149
aS'3674'
p1150
aS'238'
p1151
ag9
aa(lp1152
g2
aS'15615'
p1153
aS'12653'
p1154
aS'19858'
p1155
aS'4425'
p1156
aS'7108'
p1157
aS'2379'
p1158
ag9
aa(lp1159
g2
aS'4822'
p1160
aS'6721'
p1161
aS'9170'
p1162
aS'993'
p1163
aS'4973'
p1164
aS'3637'
p1165
ag9
aa(lp1166
g2
aS'2926'
p1167
aS'3195'
p1168
aS'3268'
p1169
aS'405'
p1170
aS'1680'
p1171
aS'693'
p1172
ag31
aa(lp1173
g2
aS'5809'
p1174
aS'735'
p1175
aS'803'
p1176
aS'1393'
p1177
aS'79'
p1178
aS'429'
p1179
ag31
aa(lp1180
g2
aS'5414'
p1181
aS'717'
p1182
aS'2155'
p1183
aS'2399'
p1184
aS'69'
p1185
aS'750'
p1186
ag31
aa(lp1187
g2
aS'955'
p1188
aS'5479'
p1189
aS'6536'
p1190
aS'333'
p1191
aS'2840'
p1192
aS'707'
p1193
ag31
aa(lp1194
g2
aS'286'
p1195
aS'1208'
p1196
aS'5241'
p1197
aS'2515'
p1198
aS'153'
p1199
aS'1442'
p1200
ag31
aa(lp1201
g2
aS'45640'
p1202
aS'6958'
p1203
aS'6536'
p1204
aS'7368'
p1205
aS'1532'
p1206
aS'230'
p1207
ag31
aa(lp1208
g2
aS'12759'
p1209
aS'7330'
p1210
aS'4533'
p1211
aS'1752'
p1212
aS'20'
p1213
aS'2631'
p1214
ag31
aa(lp1215
g2
aS'11002'
p1216
aS'7075'
p1217
aS'4945'
p1218
aS'1152'
p1219
aS'120'
p1220
aS'395'
p1221
ag31
aa(lp1222
g2
aS'3157'
p1223
aS'4888'
p1224
aS'2500'
p1225
aS'4477'
p1226
aS'273'
p1227
aS'2165'
p1228
ag31
aa(lp1229
g2
aS'12356'
p1230
aS'6036'
p1231
aS'8887'
p1232
aS'402'
p1233
aS'1382'
p1234
aS'2794'
p1235
ag31
aa(lp1236
g2
aS'112151'
p1237
aS'29627'
p1238
aS'18148'
p1239
aS'16745'
p1240
aS'4948'
p1241
aS'8550'
p1242
ag31
aa(lp1243
g2
aS'694'
p1244
aS'8533'
p1245
aS'10518'
p1246
aS'443'
p1247
aS'6907'
p1248
aS'156'
p1249
ag31
aa(lp1250
g2
aS'36847'
p1251
aS'43950'
p1252
aS'20170'
p1253
aS'36534'
p1254
aS'239'
p1255
aS'47943'
p1256
ag31
aa(lp1257
g2
aS'327'
p1258
aS'918'
p1259
aS'4710'
p1260
aS'74'
p1261
aS'334'
p1262
aS'11'
p1263
ag31
aa(lp1264
g2
aS'8170'
p1265
aS'6448'
p1266
aS'1139'
p1267
aS'2181'
p1268
aS'58'
p1269
aS'247'
p1270
ag31
aa(lp1271
g2
aS'3009'
p1272
aS'521'
p1273
aS'854'
p1274
aS'3470'
p1275
aS'949'
p1276
aS'727'
p1277
ag31
aa(lp1278
g2
aS'2438'
p1279
aS'8002'
p1280
aS'9819'
p1281
aS'6269'
p1282
aS'3459'
p1283
ag2
ag31
aa(lp1284
g2
aS'16936'
p1285
aS'6250'
p1286
aS'1981'
p1287
aS'7332'
p1288
aS'118'
p1289
aS'64'
p1290
ag31
aa(lp1291
g2
aS'13624'
p1292
aS'295'
p1293
aS'1381'
p1294
aS'890'
p1295
aS'43'
p1296
aS'84'
p1297
ag31
aa(lp1298
g2
aS'5509'
p1299
aS'1461'
p1300
aS'2251'
p1301
aS'547'
p1302
aS'187'
p1303
aS'409'
p1304
ag31
aa(lp1305
g2
aS'7107'
p1306
aS'1012'
p1307
aS'2974'
p1308
aS'806'
p1309
aS'355'
p1310
aS'1142'
p1311
ag31
aa(lp1312
g2
aS'17023'
p1313
aS'5139'
p1314
aS'5230'
p1315
aS'7888'
p1316
aS'330'
p1317
aS'1755'
p1318
ag31
aa(lp1319
g31
aS'30624'
p1320
aS'7209'
p1321
aS'4897'
p1322
aS'18711'
p1323
aS'763'
p1324
aS'2876'
p1325
ag31
aa(lp1326
g31
aS'11686'
p1327
aS'2154'
p1328
aS'6824'
p1329
aS'3527'
p1330
aS'592'
p1331
aS'697'
p1332
ag31
aa(lp1333
g31
aS'9670'
p1334
aS'2280'
p1335
aS'2112'
p1336
aS'520'
p1337
aS'402'
p1338
aS'347'
p1339
ag31
aa(lp1340
g31
aS'25203'
p1341
aS'11487'
p1342
aS'9490'
p1343
aS'5065'
p1344
aS'284'
p1345
aS'6854'
p1346
ag31
aa(lp1347
g31
aS'583'
p1348
aS'685'
p1349
aS'2216'
p1350
aS'469'
p1351
aS'954'
p1352
aS'18'
p1353
ag31
aa(lp1354
g31
aS'1956'
p1355
aS'891'
p1356
aS'5226'
p1357
aS'1383'
p1358
aS'5'
p1359
aS'1328'
p1360
ag31
aa(lp1361
g31
aS'6373'
p1362
aS'780'
p1363
aS'950'
p1364
aS'878'
p1365
aS'288'
p1366
aS'285'
p1367
ag31
aa(lp1368
g31
aS'1537'
p1369
aS'3748'
p1370
aS'5838'
p1371
aS'1859'
p1372
aS'3381'
p1373
aS'806'
p1374
ag31
aa(lp1375
g31
aS'18567'
p1376
aS'1895'
p1377
aS'1393'
p1378
aS'1801'
p1379
aS'244'
p1380
aS'2100'
p1381
ag31
aa(lp1382
g31
aS'7291'
p1383
aS'1012'
p1384
aS'2062'
p1385
aS'1291'
p1386
aS'240'
p1387
aS'1775'
p1388
ag31
aa(lp1389
g31
aS'3317'
p1390
aS'6602'
p1391
aS'6861'
p1392
aS'1329'
p1393
aS'3961'
p1394
aS'1215'
p1395
ag31
aa(lp1396
g31
aS'2362'
p1397
aS'6551'
p1398
aS'11364'
p1399
aS'913'
p1400
aS'5957'
p1401
aS'791'
p1402
ag9
aa(lp1403
g31
aS'2806'
p1404
aS'10765'
p1405
aS'15538'
p1406
aS'1374'
p1407
aS'5828'
p1408
aS'2388'
p1409
ag31
aa(lp1410
g31
aS'2532'
p1411
aS'16599'
p1412
aS'36486'
p1413
aS'179'
p1414
aS'13308'
p1415
aS'674'
p1416
ag9
aa(lp1417
g31
aS'18044'
p1418
aS'1475'
p1419
aS'2046'
p1420
aS'2532'
p1421
aS'130'
p1422
aS'1158'
p1423
ag31
aa(lp1424
g31
aS'18'
p1425
aS'7504'
p1426
aS'15205'
p1427
aS'1285'
p1428
aS'4797'
p1429
aS'6372'
p1430
ag9
aa(lp1431
g31
aS'4155'
p1432
aS'367'
p1433
aS'1390'
p1434
aS'2306'
p1435
aS'86'
p1436
aS'130'
p1437
ag31
aa(lp1438
g31
aS'14755'
p1439
aS'899'
p1440
aS'1382'
p1441
aS'1765'
p1442
aS'56'
p1443
aS'749'
p1444
ag31
aa(lp1445
g31
aS'5396'
p1446
aS'7503'
p1447
aS'10646'
p1448
aS'91'
p1449
aS'4167'
p1450
aS'239'
p1451
ag31
aa(lp1452
g31
aS'5041'
p1453
aS'1115'
p1454
aS'2856'
p1455
aS'7496'
p1456
aS'256'
p1457
aS'375'
p1458
ag31
aa(lp1459
g31
aS'2790'
p1460
aS'2527'
p1461
aS'5265'
p1462
aS'5612'
p1463
aS'788'
p1464
aS'1360'
p1465
ag9
aa(lp1466
g31
aS'7274'
p1467
aS'659'
p1468
aS'1499'
p1469
aS'784'
p1470
aS'70'
p1471
aS'659'
p1472
ag31
aa(lp1473
g31
aS'12680'
p1474
aS'3243'
p1475
aS'4157'
p1476
aS'660'
p1477
aS'761'
p1478
aS'786'
p1479
ag31
aa(lp1480
g31
aS'20782'
p1481
aS'5921'
p1482
aS'9212'
p1483
aS'1759'
p1484
aS'2568'
p1485
aS'1553'
p1486
ag9
aa(lp1487
g31
aS'4042'
p1488
aS'2204'
p1489
aS'1563'
p1490
aS'2286'
p1491
aS'263'
p1492
aS'689'
p1493
ag31
aa(lp1494
g31
aS'1869'
p1495
aS'577'
p1496
aS'572'
p1497
aS'950'
p1498
aS'4762'
p1499
aS'203'
p1500
ag31
aa(lp1501
g31
aS'8656'
p1502
aS'2746'
p1503
aS'2501'
p1504
aS'6845'
p1505
aS'694'
p1506
aS'980'
p1507
ag31
aa(lp1508
g31
aS'11072'
p1509
aS'5989'
p1510
aS'5615'
p1511
aS'8321'
p1512
aS'955'
p1513
aS'2137'
p1514
ag9
aa(lp1515
g31
aS'2344'
p1516
aS'10678'
p1517
aS'3828'
p1518
aS'1439'
p1519
aS'1566'
p1520
aS'490'
p1521
ag31
aa(lp1522
g31
aS'25962'
p1523
aS'1780'
p1524
aS'3838'
p1525
aS'638'
p1526
aS'284'
p1527
aS'834'
p1528
ag31
aa(lp1529
g31
aS'964'
p1530
aS'4984'
p1531
aS'3316'
p1532
aS'937'
p1533
aS'409'
p1534
ag1081
ag31
aa(lp1535
g31
aS'15603'
p1536
aS'2703'
p1537
aS'3833'
p1538
aS'4260'
p1539
aS'325'
p1540
aS'2563'
p1541
ag31
aa(lp1542
g31
aS'1838'
p1543
aS'6380'
p1544
aS'2824'
p1545
aS'1218'
p1546
aS'1216'
p1547
aS'295'
p1548
ag31
aa(lp1549
g31
aS'8635'
p1550
aS'820'
p1551
aS'3047'
p1552
aS'2312'
p1553
aS'415'
p1554
aS'225'
p1555
ag31
aa(lp1556
g31
aS'18692'
p1557
aS'3838'
p1558
aS'593'
p1559
aS'4634'
p1560
aS'28'
p1561
aS'1215'
p1562
ag31
aa(lp1563
g31
aS'7363'
p1564
aS'475'
p1565
aS'585'
p1566
aS'1112'
p1567
aS'72'
p1568
aS'216'
p1569
ag31
aa(lp1570
g31
aS'47493'
p1571
aS'2567'
p1572
aS'3779'
p1573
aS'5243'
p1574
aS'828'
p1575
aS'2253'
p1576
ag31
aa(lp1577
g31
aS'22096'
p1578
aS'3575'
p1579
aS'7041'
p1580
aS'11422'
p1581
aS'343'
p1582
aS'2564'
p1583
ag31
aa(lp1584
g31
aS'24929'
p1585
aS'1801'
p1586
aS'2475'
p1587
aS'2216'
p1588
aS'412'
p1589
aS'1047'
p1590
ag31
aa(lp1591
g31
aS'3062'
p1592
aS'6154'
p1593
aS'13916'
p1594
aS'230'
p1595
aS'8933'
p1596
aS'2784'
p1597
ag9
aa(lp1598
g31
aS'6134'
p1599
aS'23133'
p1600
aS'33586'
p1601
aS'6746'
p1602
aS'18594'
p1603
aS'5121'
p1604
ag9
aa(lp1605
g31
aS'1073'
p1606
aS'9679'
p1607
aS'15445'
p1608
aS'61'
p1609
aS'5980'
p1610
aS'1265'
p1611
ag9
aa(lp1612
g31
aS'572'
p1613
aS'9763'
p1614
aS'22182'
p1615
aS'2221'
p1616
aS'4882'
p1617
aS'2563'
p1618
ag9
aa(lp1619
g31
aS'11908'
p1620
aS'8053'
p1621
aS'19847'
p1622
aS'1069'
p1623
aS'6374'
p1624
aS'698'
p1625
ag9
aa(lp1626
g2
aS'9061'
p1627
aS'829'
p1628
aS'683'
p1629
aS'16919'
p1630
aS'621'
p1631
aS'139'
p1632
ag31
aa(lp1633
g2
aS'11693'
p1634
aS'2317'
p1635
aS'2543'
p1636
aS'5845'
p1637
aS'274'
p1638
aS'1409'
p1639
ag31
aa(lp1640
g2
aS'17360'
p1641
aS'6200'
p1642
aS'9694'
p1643
aS'1293'
p1644
aS'3620'
p1645
aS'1721'
p1646
ag9
aa(lp1647
g2
aS'3366'
p1648
aS'2884'
p1649
aS'2431'
p1650
aS'977'
p1651
aS'167'
p1652
aS'1104'
p1653
ag31
aa(lp1654
g2
aS'12238'
p1655
aS'7108'
p1656
aS'6235'
p1657
aS'1093'
p1658
aS'2328'
p1659
aS'2079'
p1660
ag9
aa(lp1661
g2
aS'49063'
p1662
aS'3965'
p1663
aS'4252'
p1664
aS'5970'
p1665
aS'1041'
p1666
aS'1404'
p1667
ag31
aa(lp1668
g2
aS'25767'
p1669
aS'3613'
p1670
aS'2013'
p1671
aS'10303'
p1672
aS'314'
p1673
aS'1384'
p1674
ag31
aa(lp1675
g2
aS'68951'
p1676
aS'4411'
p1677
aS'12609'
p1678
aS'8692'
p1679
aS'751'
p1680
aS'2406'
p1681
ag31
aa(lp1682
g2
aS'40254'
p1683
aS'640'
p1684
aS'3600'
p1685
aS'1042'
p1686
aS'436'
p1687
aS'18'
p1688
ag31
aa(lp1689
g2
aS'7149'
p1690
aS'2247'
p1691
aS'1242'
p1692
aS'1619'
p1693
aS'1226'
p1694
aS'128'
p1695
ag31
aa(lp1696
g2
aS'15354'
p1697
aS'2102'
p1698
aS'2828'
p1699
aS'8366'
p1700
aS'386'
p1701
aS'1027'
p1702
ag31
aa(lp1703
g2
aS'16260'
p1704
aS'594'
p1705
aS'1296'
p1706
aS'848'
p1707
aS'445'
p1708
aS'258'
p1709
ag31
aa(lp1710
g2
aS'42786'
p1711
aS'286'
p1712
aS'471'
p1713
aS'1388'
p1714
aS'32'
p1715
aS'22'
p1716
ag31
aa(lp1717
g2
aS'2708'
p1718
aS'2160'
p1719
aS'2642'
p1720
aS'502'
p1721
aS'965'
p1722
aS'1522'
p1723
ag31
aa(lp1724
g2
aS'6022'
p1725
aS'3354'
p1726
aS'3261'
p1727
aS'2507'
p1728
aS'212'
p1729
aS'686'
p1730
ag31
aa(lp1731
g2
aS'2838'
p1732
aS'3086'
p1733
aS'4329'
p1734
aS'3838'
p1735
aS'825'
p1736
aS'1060'
p1737
ag31
aa(lp1738
g9
aS'3996'
p1739
aS'11103'
p1740
aS'12469'
p1741
aS'902'
p1742
aS'5952'
p1743
aS'741'
p1744
ag9
aa(lp1745
g9
aS'21273'
p1746
aS'2013'
p1747
aS'6550'
p1748
aS'909'
p1749
aS'811'
p1750
aS'1854'
p1751
ag31
aa(lp1752
g9
aS'7588'
p1753
aS'1897'
p1754
aS'5234'
p1755
aS'417'
p1756
aS'2208'
p1757
aS'254'
p1758
ag9
aa(lp1759
g9
aS'19087'
p1760
aS'1304'
p1761
aS'3643'
p1762
aS'3045'
p1763
aS'710'
p1764
aS'898'
p1765
ag31
aa(lp1766
g9
aS'8090'
p1767
aS'3199'
p1768
aS'6986'
p1769
aS'1455'
p1770
aS'3712'
p1771
aS'531'
p1772
ag9
aa(lp1773
g9
aS'6758'
p1774
aS'4560'
p1775
aS'9965'
p1776
aS'934'
p1777
aS'4538'
p1778
aS'1037'
p1779
ag9
aa(lp1780
g9
aS'444'
p1781
aS'879'
p1782
aS'2060'
p1783
aS'264'
p1784
aS'290'
p1785
aS'259'
p1786
ag31
aa(lp1787
g9
aS'16448'
p1788
aS'6243'
p1789
aS'6360'
p1790
aS'824'
p1791
aS'2662'
p1792
aS'2005'
p1793
ag9
aa(lp1794
g9
aS'5283'
p1795
aS'13316'
p1796
aS'20399'
p1797
aS'1809'
p1798
aS'8752'
p1799
aS'172'
p1800
ag9
aa(lp1801
g9
aS'2886'
p1802
aS'5302'
p1803
aS'9785'
p1804
aS'364'
p1805
aS'6236'
p1806
aS'555'
p1807
ag9
aa(lp1808
g9
aS'2599'
p1809
aS'3688'
p1810
aS'13829'
p1811
aS'492'
p1812
aS'10069'
p1813
aS'59'
p1814
ag9
aa(lp1815
g9
aS'161'
p1816
aS'7460'
p1817
aS'24773'
p1818
aS'617'
p1819
aS'11783'
p1820
aS'2410'
p1821
ag9
aa(lp1822
g9
aS'243'
p1823
aS'12939'
p1824
aS'8852'
p1825
aS'799'
p1826
aS'3909'
p1827
aS'211'
p1828
ag9
aa(lp1829
g9
aS'6468'
p1830
aS'12867'
p1831
aS'21570'
p1832
aS'1840'
p1833
aS'7558'
p1834
aS'1543'
p1835
ag9
aa(lp1836
g9
aS'17327'
p1837
aS'2374'
p1838
aS'2842'
p1839
aS'1149'
p1840
aS'351'
p1841
aS'925'
p1842
ag31
aa(lp1843
g9
aS'6987'
p1844
aS'1020'
p1845
aS'3007'
p1846
aS'416'
p1847
aS'257'
p1848
aS'656'
p1849
ag31
aa(lp1850
g9
aS'918'
p1851
aS'20655'
p1852
aS'13567'
p1853
aS'1465'
p1854
aS'6846'
p1855
aS'806'
p1856
ag9
aa(lp1857
g9
aS'7034'
p1858
aS'1492'
p1859
aS'2405'
p1860
aS'12569'
p1861
aS'299'
p1862
aS'1117'
p1863
ag31
aa(lp1864
g9
aS'29635'
p1865
aS'2335'
p1866
aS'8280'
p1867
aS'3046'
p1868
aS'371'
p1869
aS'117'
p1870
ag31
aa(lp1871
g9
aS'2137'
p1872
aS'3737'
p1873
aS'19172'
p1874
aS'1274'
p1875
aS'17120'
p1876
aS'142'
p1877
ag9
aa(lp1878
g9
aS'9784'
p1879
aS'925'
p1880
aS'2405'
p1881
aS'4447'
p1882
aS'183'
p1883
aS'297'
p1884
ag31
aa(lp1885
g9
aS'10617'
p1886
aS'1795'
p1887
aS'7647'
p1888
aS'1483'
p1889
aS'857'
p1890
aS'1233'
p1891
ag31
aa(lp1892
g9
aS'1479'
p1893
aS'14982'
p1894
aS'11924'
p1895
aS'662'
p1896
aS'3891'
p1897
aS'3508'
p1898
ag9
aa(lp1899
g9
aS'7127'
p1900
aS'1375'
p1901
aS'2201'
p1902
aS'2679'
p1903
aS'83'
p1904
aS'1059'
p1905
ag31
aa(lp1906
g9
aS'1182'
p1907
aS'3088'
p1908
aS'6114'
p1909
aS'978'
p1910
aS'821'
p1911
aS'1637'
p1912
ag31
aa(lp1913
g9
aS'11800'
p1914
aS'2713'
p1915
aS'3558'
p1916
aS'2121'
p1917
aS'706'
p1918
aS'51'
p1919
ag31
aa(lp1920
g9
aS'9759'
p1921
aS'25071'
p1922
aS'17645'
p1923
aS'1128'
p1924
aS'12408'
p1925
aS'1625'
p1926
ag9
aa(lp1927
g9
aS'1774'
p1928
aS'3696'
p1929
aS'2280'
p1930
aS'514'
p1931
aS'275'
p1932
aS'834'
p1933
ag31
aa(lp1934
g9
aS'9155'
p1935
aS'1897'
p1936
aS'5167'
p1937
aS'2714'
p1938
aS'228'
p1939
aS'1113'
p1940
ag31
aa(lp1941
g9
aS'15881'
p1942
aS'713'
p1943
aS'3315'
p1944
aS'3703'
p1945
aS'1470'
p1946
aS'229'
p1947
ag31
aa(lp1948
g9
aS'13360'
p1949
aS'944'
p1950
aS'11593'
p1951
aS'915'
p1952
aS'1679'
p1953
aS'573'
p1954
ag31
aa(lp1955
g9
aS'25977'
p1956
aS'3587'
p1957
aS'2464'
p1958
aS'2369'
p1959
aS'140'
p1960
aS'1092'
p1961
ag31
aa(lp1962
g9
aS'32717'
p1963
aS'16784'
p1964
aS'13626'
p1965
aS'60869'
p1966
aS'1272'
p1967
aS'5609'
p1968
ag31
aa(lp1969
g9
aS'4414'
p1970
aS'1610'
p1971
aS'1431'
p1972
aS'3498'
p1973
aS'387'
p1974
aS'834'
p1975
ag31
aa(lp1976
g9
aS'542'
p1977
aS'899'
p1978
aS'1664'
p1979
aS'414'
p1980
aS'88'
p1981
aS'522'
p1982
ag31
aa(lp1983
g9
aS'16933'
p1984
aS'2209'
p1985
aS'3389'
p1986
aS'7849'
p1987
aS'210'
p1988
aS'1534'
p1989
ag31
aa(lp1990
g9
aS'5113'
p1991
aS'1486'
p1992
aS'4583'
p1993
aS'5127'
p1994
aS'492'
p1995
aS'739'
p1996
ag31
aa(lp1997
g9
aS'9790'
p1998
aS'1786'
p1999
aS'5109'
p2000
aS'3570'
p2001
aS'182'
p2002
aS'1043'
p2003
ag31
aa(lp2004
g9
aS'11223'
p2005
aS'14881'
p2006
aS'26839'
p2007
aS'1234'
p2008
aS'9606'
p2009
aS'1102'
p2010
ag9
aa(lp2011
g9
aS'22321'
p2012
aS'3216'
p2013
aS'1447'
p2014
aS'2208'
p2015
aS'178'
p2016
aS'2602'
p2017
ag31
aa(lp2018
g9
aS'8565'
p2019
aS'4980'
p2020
aS'67298'
p2021
aS'131'
p2022
aS'38102'
p2023
aS'1215'
p2024
ag9
aa(lp2025
g9
aS'16823'
p2026
aS'928'
p2027
aS'2743'
p2028
aS'11559'
p2029
aS'332'
p2030
aS'3486'
p2031
ag9
aa(lp2032
g9
aS'27082'
p2033
aS'6817'
p2034
aS'10790'
p2035
aS'1365'
p2036
aS'4111'
p2037
aS'2139'
p2038
ag9
aa(lp2039
g9
aS'13970'
p2040
aS'1511'
p2041
aS'1330'
p2042
aS'650'
p2043
aS'146'
p2044
aS'778'
p2045
ag31
aa(lp2046
g9
aS'9351'
p2047
aS'1347'
p2048
aS'2611'
p2049
aS'8170'
p2050
aS'442'
p2051
aS'868'
p2052
ag31
aa(lp2053
g9
ag2
aS'333'
p2054
aS'7021'
p2055
aS'15601'
p2056
aS'15'
p2057
aS'550'
p2058
ag31
aa(lp2059
g9
aS'2617'
p2060
aS'1188'
p2061
aS'5332'
p2062
aS'9584'
p2063
aS'573'
p2064
aS'1942'
p2065
ag31
aa(lp2066
g2
aS'381'
p2067
aS'4025'
p2068
aS'9670'
p2069
aS'388'
p2070
aS'7271'
p2071
aS'1371'
p2072
ag9
aa(lp2073
g2
aS'2320'
p2074
aS'5763'
p2075
aS'11238'
p2076
aS'767'
p2077
aS'5162'
p2078
aS'2158'
p2079
ag9
aa(lp2080
g2
aS'255'
p2081
aS'5758'
p2082
aS'5923'
p2083
aS'349'
p2084
aS'4595'
p2085
aS'1328'
p2086
ag31
aa(lp2087
g2
aS'1689'
p2088
aS'6964'
p2089
aS'26316'
p2090
aS'1456'
p2091
aS'15469'
p2092
aS'37'
p2093
ag9
aa(lp2094
g2
aS'3043'
p2095
aS'1172'
p2096
aS'1763'
p2097
aS'2234'
p2098
aS'217'
p2099
aS'379'
p2100
ag31
aa(lp2101
g2
aS'1198'
p2102
aS'2602'
p2103
aS'8335'
p2104
aS'402'
p2105
aS'3843'
p2106
aS'303'
p2107
ag31
aa(lp2108
g2
aS'2771'
p2109
aS'6939'
p2110
aS'15541'
p2111
aS'2693'
p2112
aS'6600'
p2113
aS'1115'
p2114
ag9
aa(lp2115
g2
aS'27380'
p2116
aS'7184'
p2117
aS'12311'
p2118
aS'2809'
p2119
aS'4621'
p2120
aS'1022'
p2121
ag9
aa(lp2122
g2
aS'3428'
p2123
aS'2380'
p2124
aS'2028'
p2125
aS'1341'
p2126
aS'1184'
p2127
aS'665'
p2128
ag31
aa(lp2129
g2
aS'5981'
p2130
aS'14641'
p2131
aS'20521'
p2132
aS'2005'
p2133
aS'12218'
p2134
aS'445'
p2135
ag9
aa(lp2136
g2
aS'3521'
p2137
aS'1099'
p2138
aS'1997'
p2139
aS'1796'
p2140
aS'173'
p2141
aS'995'
p2142
ag31
aa(lp2143
g2
aS'1210'
p2144
aS'10044'
p2145
aS'22294'
p2146
aS'1741'
p2147
aS'12638'
p2148
aS'3137'
p2149
ag9
aa(lp2150
g2
aS'608'
p2151
aS'1106'
p2152
aS'1533'
p2153
aS'830'
p2154
aS'90'
p2155
aS'195'
p2156
ag31
aa(lp2157
g2
aS'117'
p2158
aS'6264'
p2159
aS'21203'
p2160
aS'228'
p2161
aS'8682'
p2162
aS'1111'
p2163
ag9
aa(lp2164
g2
aS'14039'
p2165
aS'7393'
p2166
aS'2548'
p2167
aS'6386'
p2168
aS'1333'
p2169
aS'2341'
p2170
ag31
aa(lp2171
g2
aS'190'
p2172
aS'727'
p2173
aS'2012'
p2174
aS'245'
p2175
aS'184'
p2176
aS'127'
p2177
ag31
aa(lp2178
g2
aS'22686'
p2179
aS'134'
p2180
aS'218'
p2181
aS'3157'
p2182
ag467
aS'548'
p2183
ag31
aa(lp2184
g2
aS'37'
p2185
aS'1275'
p2186
aS'22272'
p2187
aS'137'
p2188
aS'6747'
p2189
aS'110'
p2190
ag9
aa(lp2191
g2
aS'759'
p2192
aS'18664'
p2193
aS'1660'
p2194
aS'6114'
p2195
aS'536'
p2196
aS'4100'
p2197
ag31
aa(lp2198
g2
aS'796'
p2199
aS'5878'
p2200
aS'2109'
p2201
aS'340'
p2202
aS'232'
p2203
aS'776'
p2204
ag31
aa(lp2205
g2
aS'19746'
p2206
aS'2872'
p2207
aS'2006'
p2208
aS'2601'
p2209
aS'468'
p2210
aS'503'
p2211
ag31
aa(lp2212
g2
aS'4734'
p2213
aS'607'
p2214
aS'864'
p2215
aS'1206'
p2216
aS'159'
p2217
aS'405'
p2218
ag31
aa(lp2219
g2
aS'2121'
p2220
aS'1601'
p2221
aS'2453'
p2222
aS'560'
p2223
aS'179'
p2224
aS'712'
p2225
ag31
aa(lp2226
g2
aS'4627'
p2227
aS'997'
p2228
aS'4438'
p2229
aS'191'
p2230
aS'1335'
p2231
aS'314'
p2232
ag31
aa(lp2233
g2
aS'2615'
p2234
aS'873'
p2235
aS'1524'
p2236
aS'1103'
p2237
aS'514'
p2238
aS'468'
p2239
ag31
aa(lp2240
g2
aS'4692'
p2241
aS'6128'
p2242
aS'8025'
p2243
aS'1619'
p2244
aS'4515'
p2245
aS'3105'
p2246
ag9
aa(lp2247
g2
aS'9561'
p2248
aS'2217'
p2249
aS'1664'
p2250
aS'1173'
p2251
aS'222'
p2252
aS'447'
p2253
ag31
aa(lp2254
g2
aS'3477'
p2255
aS'894'
p2256
aS'534'
p2257
aS'1457'
p2258
aS'252'
p2259
aS'342'
p2260
ag31
aa(lp2261
g2
aS'22335'
p2262
aS'1196'
p2263
aS'2406'
p2264
aS'2046'
p2265
aS'101'
p2266
aS'558'
p2267
ag31
aa(lp2268
g2
aS'6211'
p2269
aS'337'
p2270
aS'683'
p2271
aS'1089'
p2272
aS'41'
p2273
aS'296'
p2274
ag31
aa(lp2275
g2
aS'39679'
p2276
aS'3944'
p2277
aS'4955'
p2278
aS'1364'
p2279
aS'523'
p2280
aS'2235'
p2281
ag9
aa(lp2282
g2
aS'20105'
p2283
aS'1887'
p2284
aS'1939'
p2285
aS'8164'
p2286
aS'716'
p2287
aS'790'
p2288
ag31
aa(lp2289
g2
aS'3884'
p2290
aS'3801'
p2291
aS'1641'
p2292
aS'876'
p2293
aS'397'
p2294
aS'4829'
p2295
ag31
aa(lp2296
g2
aS'15076'
p2297
aS'6257'
p2298
aS'7398'
p2299
aS'1504'
p2300
aS'1916'
p2301
aS'3113'
p2302
ag9
aa(lp2303
g2
aS'6338'
p2304
aS'2256'
p2305
aS'1668'
p2306
aS'1492'
p2307
aS'311'
p2308
aS'686'
p2309
ag31
aa(lp2310
g2
aS'5841'
p2311
aS'1450'
p2312
aS'1162'
p2313
aS'597'
p2314
aS'476'
p2315
aS'70'
p2316
ag31
aa(lp2317
g2
aS'3136'
p2318
aS'8630'
p2319
aS'13586'
p2320
aS'5641'
p2321
aS'4666'
p2322
aS'1426'
p2323
ag9
aa(lp2324
g2
aS'38793'
p2325
aS'3154'
p2326
aS'2648'
p2327
aS'1034'
p2328
aS'96'
p2329
aS'1242'
p2330
ag31
aa(lp2331
g2
aS'3225'
p2332
aS'3294'
p2333
aS'1902'
p2334
aS'282'
p2335
aS'68'
p2336
aS'1114'
p2337
ag31
aa(lp2338
g2
aS'4048'
p2339
aS'5164'
p2340
aS'10391'
p2341
aS'130'
p2342
aS'813'
p2343
aS'179'
p2344
ag9
aa(lp2345
g2
aS'28257'
p2346
aS'944'
p2347
aS'2146'
p2348
aS'3881'
p2349
aS'600'
p2350
aS'270'
p2351
ag31
aa(lp2352
g2
aS'17770'
p2353
aS'4591'
p2354
aS'1617'
p2355
aS'9927'
p2356
aS'246'
p2357
aS'532'
p2358
ag31
aa(lp2359
g2
aS'34454'
p2360
aS'7435'
p2361
aS'8469'
p2362
aS'2540'
p2363
aS'1711'
p2364
aS'2893'
p2365
ag31
aa(lp2366
g2
aS'1821'
p2367
aS'1364'
p2368
aS'3450'
p2369
aS'4006'
p2370
aS'397'
p2371
aS'361'
p2372
ag31
aa(lp2373
g2
aS'10683'
p2374
aS'21858'
p2375
aS'15400'
p2376
aS'3635'
p2377
aS'282'
p2378
aS'5120'
p2379
ag31
aa(lp2380
g2
aS'11635'
p2381
aS'922'
p2382
aS'1614'
p2383
aS'2583'
p2384
aS'192'
p2385
aS'1068'
p2386
ag31
aa(lp2387
g2
aS'1206'
p2388
aS'3620'
p2389
aS'2857'
p2390
aS'1945'
p2391
aS'353'
p2392
aS'967'
p2393
ag31
aa(lp2394
g2
aS'20918'
p2395
aS'1916'
p2396
aS'1573'
p2397
aS'1960'
p2398
aS'231'
p2399
aS'961'
p2400
ag31
aa(lp2401
g2
aS'9785'
p2402
aS'848'
p2403
aS'1172'
p2404
aS'1677'
p2405
aS'200'
p2406
aS'406'
p2407
ag31
aa(lp2408
g2
aS'9385'
p2409
aS'1530'
p2410
aS'1422'
p2411
aS'3019'
p2412
aS'227'
p2413
aS'684'
p2414
ag31
aa(lp2415
g2
aS'3352'
p2416
aS'1181'
p2417
aS'1328'
p2418
aS'5502'
p2419
aS'311'
p2420
aS'1000'
p2421
ag31
aa(lp2422
g2
aS'2647'
p2423
aS'2761'
p2424
aS'2313'
p2425
aS'907'
p2426
aS'95'
p2427
aS'1827'
p2428
ag31
aa(lp2429
g2
aS'518'
p2430
aS'4180'
p2431
aS'3600'
p2432
aS'659'
p2433
aS'122'
p2434
aS'654'
p2435
ag31
aa(lp2436
g2
aS'23632'
p2437
aS'6730'
p2438
aS'3842'
p2439
aS'8620'
p2440
aS'385'
p2441
aS'819'
p2442
ag31
aa(lp2443
g2
aS'12377'
p2444
aS'865'
p2445
aS'3204'
p2446
aS'1398'
p2447
aS'149'
p2448
aS'452'
p2449
ag31
aa(lp2450
g2
aS'9602'
p2451
aS'1316'
p2452
aS'1263'
p2453
aS'2921'
p2454
aS'841'
p2455
aS'290'
p2456
ag31
aa(lp2457
g2
aS'4515'
p2458
aS'11991'
p2459
aS'9345'
p2460
aS'2644'
p2461
aS'3378'
p2462
aS'2213'
p2463
ag9
aa(lp2464
g2
aS'11535'
p2465
aS'1666'
p2466
aS'1428'
p2467
aS'6838'
p2468
aS'64'
p2469
aS'743'
p2470
ag31
aa(lp2471
g2
aS'11442'
p2472
aS'1032'
p2473
aS'582'
p2474
aS'5390'
p2475
aS'74'
p2476
aS'247'
p2477
ag31
aa(lp2478
g2
aS'9612'
p2479
aS'577'
p2480
aS'935'
p2481
aS'1601'
p2482
aS'469'
p2483
aS'375'
p2484
ag31
aa(lp2485
g2
aS'4446'
p2486
aS'906'
p2487
aS'1238'
p2488
aS'3576'
p2489
aS'153'
p2490
aS'1014'
p2491
ag31
aa(lp2492
g2
aS'27167'
p2493
aS'2801'
p2494
aS'2128'
p2495
aS'13223'
p2496
aS'92'
p2497
aS'1902'
p2498
ag31
aa(lp2499
g2
aS'26539'
p2500
aS'4753'
p2501
aS'5091'
p2502
aS'220'
p2503
aS'10'
p2504
aS'340'
p2505
ag31
aa(lp2506
g2
aS'25606'
p2507
aS'11006'
p2508
aS'4604'
p2509
aS'127'
p2510
aS'632'
p2511
aS'288'
p2512
ag31
aa(lp2513
g2
aS'18073'
p2514
aS'4613'
p2515
aS'3444'
p2516
aS'4324'
p2517
aS'914'
p2518
aS'715'
p2519
ag31
aa(lp2520
g2
aS'6884'
p2521
aS'1046'
p2522
aS'1167'
p2523
aS'2069'
p2524
aS'593'
p2525
aS'378'
p2526
ag31
aa(lp2527
g2
aS'25066'
p2528
aS'5010'
p2529
aS'5026'
p2530
aS'9806'
p2531
aS'1092'
p2532
aS'960'
p2533
ag31
aa(lp2534
g2
aS'7362'
p2535
aS'12844'
p2536
aS'18683'
p2537
aS'2854'
p2538
aS'7883'
p2539
aS'553'
p2540
ag9
aa(lp2541
g2
aS'8257'
p2542
aS'3880'
p2543
aS'6407'
p2544
aS'1646'
p2545
aS'2730'
p2546
aS'344'
p2547
ag9
aa(lp2548
g2
aS'8708'
p2549
aS'3634'
p2550
aS'6100'
p2551
aS'2349'
p2552
aS'2123'
p2553
aS'5137'
p2554
ag31
aa(lp2555
g2
aS'6633'
p2556
aS'2096'
p2557
aS'4563'
p2558
aS'1389'
p2559
aS'1860'
p2560
aS'1892'
p2561
ag31
aa(lp2562
g2
aS'2126'
p2563
aS'3289'
p2564
aS'3281'
p2565
aS'1535'
p2566
aS'235'
p2567
aS'4365'
p2568
ag31
aa(lp2569
g2
aS'97'
p2570
aS'3605'
p2571
aS'12400'
p2572
aS'98'
p2573
aS'2970'
p2574
aS'62'
p2575
ag31
aa(lp2576
g2
aS'4983'
p2577
aS'4859'
p2578
aS'6633'
p2579
aS'17866'
p2580
aS'912'
p2581
aS'2435'
p2582
ag31
aa(lp2583
g2
aS'5969'
p2584
aS'1990'
p2585
aS'3417'
p2586
aS'5679'
p2587
aS'1135'
p2588
aS'290'
p2589
ag31
aa(lp2590
g2
aS'7842'
p2591
aS'6046'
p2592
aS'8552'
p2593
aS'1691'
p2594
aS'3540'
p2595
aS'1874'
p2596
ag9
aa(lp2597
g2
aS'4389'
p2598
aS'10940'
p2599
aS'10908'
p2600
aS'848'
p2601
aS'6728'
p2602
aS'993'
p2603
ag9
aa(lp2604
g2
aS'5065'
p2605
aS'5499'
p2606
aS'11055'
p2607
aS'364'
p2608
aS'3485'
p2609
aS'1063'
p2610
ag31
aa(lp2611
g2
aS'660'
p2612
aS'8494'
p2613
aS'18622'
p2614
aS'133'
p2615
aS'6740'
p2616
aS'776'
p2617
ag9
aa(lp2618
g2
aS'8861'
p2619
aS'3783'
p2620
aS'2223'
p2621
aS'633'
p2622
aS'1580'
p2623
aS'1521'
p2624
ag31
aa(lp2625
g2
aS'4456'
p2626
aS'5266'
p2627
aS'13227'
p2628
aS'25'
p2629
aS'6818'
p2630
aS'1393'
p2631
ag31
aa(lp2632
g2
aS'17063'
p2633
aS'4847'
p2634
aS'9053'
p2635
aS'1031'
p2636
aS'3415'
p2637
aS'1784'
p2638
ag9
aa(lp2639
g2
aS'26400'
p2640
aS'1377'
p2641
aS'4172'
p2642
aS'830'
p2643
aS'948'
p2644
aS'1218'
p2645
ag31
aa(lp2646
g2
aS'17565'
p2647
aS'3686'
p2648
aS'4657'
p2649
aS'1059'
p2650
aS'1803'
p2651
aS'668'
p2652
ag9
aa(lp2653
g2
aS'16980'
p2654
aS'2884'
p2655
aS'12232'
p2656
aS'874'
p2657
aS'3213'
p2658
aS'249'
p2659
ag9
aa(lp2660
g2
aS'11243'
p2661
aS'2408'
p2662
aS'2593'
p2663
aS'15348'
p2664
aS'108'
p2665
aS'1886'
p2666
ag31
aa(lp2667
g2
aS'13134'
p2668
aS'9347'
p2669
aS'14316'
p2670
aS'3141'
p2671
aS'5079'
p2672
aS'1894'
p2673
ag31
aa(lp2674
g2
aS'31012'
p2675
aS'16687'
p2676
aS'5429'
p2677
aS'15082'
p2678
aS'439'
p2679
aS'1163'
p2680
ag31
aa(lp2681
g2
aS'3047'
p2682
aS'5970'
p2683
aS'4910'
p2684
aS'2198'
p2685
aS'850'
p2686
aS'317'
p2687
ag31
aa(lp2688
g2
aS'8607'
p2689
aS'1750'
p2690
aS'3580'
p2691
aS'47'
p2692
aS'84'
p2693
aS'2501'
p2694
ag31
aa(lp2695
g2
aS'3097'
p2696
aS'4230'
p2697
aS'16483'
p2698
aS'575'
p2699
aS'241'
p2700
aS'2080'
p2701
ag31
aa(lp2702
g2
aS'8533'
p2703
aS'5506'
p2704
aS'5160'
p2705
aS'13486'
p2706
aS'1377'
p2707
aS'1498'
p2708
ag31
aa(lp2709
g2
aS'21117'
p2710
aS'1162'
p2711
aS'4754'
p2712
aS'269'
p2713
aS'1328'
p2714
aS'395'
p2715
ag31
aa(lp2716
g2
aS'1982'
p2717
aS'3218'
p2718
aS'1493'
p2719
aS'1541'
p2720
aS'356'
p2721
aS'1449'
p2722
ag31
aa(lp2723
g2
aS'16731'
p2724
aS'3922'
p2725
aS'7994'
p2726
aS'688'
p2727
aS'2371'
p2728
aS'838'
p2729
ag31
aa(lp2730
g2
aS'29703'
p2731
aS'12051'
p2732
aS'16027'
p2733
aS'13135'
p2734
aS'182'
p2735
aS'2204'
p2736
ag31
aa(lp2737
g2
aS'39228'
p2738
aS'1431'
p2739
aS'764'
p2740
aS'4510'
p2741
aS'93'
p2742
aS'2346'
p2743
ag31
aa(lp2744
g2
aS'14531'
p2745
aS'15488'
p2746
aS'30243'
p2747
aS'437'
p2748
aS'14841'
p2749
aS'1867'
p2750
ag9
aa(lp2751
g2
aS'10290'
p2752
aS'1981'
p2753
aS'2232'
p2754
aS'1038'
p2755
aS'168'
p2756
aS'2125'
p2757
ag31
aa(lp2758
g2
aS'2787'
p2759
aS'1698'
p2760
aS'2510'
p2761
aS'65'
p2762
aS'477'
p2763
aS'52'
p2764
ag31
aa.