(lp0
(lp1
S'3'
p2
aS'17546'
p3
aS'4519'
p4
aS'4602'
p5
aS'1066'
p6
aS'2259'
p7
aS'2124'
p8
aS'2'
p9
aa(lp10
g2
aS'26373'
p11
aS'36423'
p12
aS'22019'
p13
aS'5154'
p14
aS'4337'
p15
aS'16523'
p16
ag9
aa(lp17
g2
aS'22647'
p18
aS'9776'
p19
aS'13792'
p20
aS'2915'
p21
aS'4482'
p22
aS'5778'
p23
ag9
aa(lp24
g2
aS'16165'
p25
aS'4230'
p26
aS'7595'
p27
aS'201'
p28
aS'4003'
p29
aS'57'
p30
ag9
aa(lp31
g2
aS'4113'
p32
aS'20484'
p33
aS'25957'
p34
aS'1158'
p35
aS'8604'
p36
aS'5206'
p37
ag9
aa(lp38
g2
aS'688'
p39
aS'5491'
p40
aS'11091'
p41
aS'833'
p42
aS'4239'
p43
aS'436'
p44
ag9
aa(lp45
g2
aS'15168'
p46
aS'10556'
p47
aS'12477'
p48
aS'1920'
p49
aS'6506'
p50
aS'714'
p51
ag9
aa(lp52
g2
aS'4591'
p53
aS'15729'
p54
aS'16709'
p55
aS'33'
p56
aS'6956'
p57
aS'433'
p58
ag9
aa(lp59
g2
aS'10850'
p60
aS'7555'
p61
aS'14961'
p62
aS'188'
p63
aS'6899'
p64
aS'46'
p65
ag9
aa(lp66
g2
aS'630'
p67
aS'11095'
p68
aS'23998'
p69
aS'787'
p70
aS'9529'
p71
aS'72'
p72
ag9
aa(lp73
g2
aS'9670'
p74
aS'7027'
p75
aS'10471'
p76
aS'541'
p77
aS'4618'
p78
aS'65'
p79
ag9
aa(lp80
g2
aS'5181'
p81
aS'22044'
p82
aS'21531'
p83
aS'1740'
p84
aS'7353'
p85
aS'4985'
p86
ag9
aa(lp87
g2
aS'3103'
p88
aS'14069'
p89
aS'21955'
p90
aS'1668'
p91
aS'6792'
p92
aS'1452'
p93
ag9
aa(lp94
g2
aS'44466'
p95
aS'54259'
p96
aS'55571'
p97
aS'7782'
p98
aS'24171'
p99
aS'6465'
p100
ag9
aa(lp101
g2
aS'11519'
p102
aS'6152'
p103
aS'10868'
p104
aS'584'
p105
aS'5121'
p106
aS'1476'
p107
ag9
aa(lp108
g2
aS'4967'
p109
aS'21412'
p110
aS'28921'
p111
aS'1798'
p112
aS'13583'
p113
aS'1163'
p114
ag9
aa(lp115
g2
aS'40721'
p116
aS'3916'
p117
aS'5876'
p118
aS'532'
p119
aS'2587'
p120
aS'1278'
p121
ag9
aa(lp122
g2
aS'491'
p123
aS'10473'
p124
aS'11532'
p125
aS'744'
p126
aS'5611'
p127
aS'224'
p128
ag9
aa(lp129
g2
aS'4098'
p130
aS'29892'
p131
aS'26866'
p132
aS'2616'
p133
aS'17740'
p134
aS'1340'
p135
ag9
aa(lp136
g2
aS'5417'
p137
aS'9933'
p138
aS'10487'
p139
aS'38'
p140
aS'7572'
p141
aS'1282'
p142
ag9
aa(lp143
g2
aS'8590'
p144
aS'3045'
p145
aS'7854'
p146
aS'96'
p147
aS'4095'
p148
aS'225'
p149
ag9
aa(lp150
g2
aS'35942'
p151
aS'38369'
p152
aS'59598'
p153
aS'3254'
p154
aS'26701'
p155
aS'2017'
p156
ag9
aa(lp157
g2
aS'7823'
p158
aS'6245'
p159
aS'6544'
p160
aS'4154'
p161
aS'4074'
p162
aS'964'
p163
ag9
aa(lp164
g2
aS'9396'
p165
aS'11601'
p166
aS'15775'
p167
aS'2896'
p168
aS'7677'
p169
aS'1295'
p170
ag9
aa(lp171
g2
aS'85'
p172
aS'20959'
p173
aS'45828'
p174
aS'36'
p175
aS'24231'
p176
aS'1423'
p177
ag9
aa(lp178
g2
aS'19913'
p179
aS'6759'
p180
aS'13462'
p181
aS'1256'
p182
aS'5141'
p183
aS'834'
p184
ag9
aa(lp185
g2
aS'18291'
p186
aS'1266'
p187
aS'21042'
p188
aS'5373'
p189
aS'4173'
p190
aS'14472'
p191
aS'1'
p192
aa(lp193
g2
aS'4420'
p194
aS'5139'
p195
aS'2661'
p196
aS'8872'
p197
aS'1321'
p198
aS'181'
p199
ag192
aa(lp200
g2
aS'19899'
p201
aS'5332'
p202
aS'8713'
p203
aS'8132'
p204
aS'764'
p205
aS'648'
p206
ag9
aa(lp207
g2
aS'8190'
p208
aS'6343'
p209
aS'9794'
p210
aS'1285'
p211
aS'1901'
p212
aS'1780'
p213
ag9
aa(lp214
g2
aS'20398'
p215
aS'1137'
p216
ag2
aS'4407'
p217
ag2
aS'975'
p218
ag192
aa(lp219
g2
aS'717'
p220
aS'3587'
p221
aS'6532'
p222
aS'7530'
p223
aS'529'
p224
aS'894'
p225
ag192
aa(lp226
g2
aS'12205'
p227
aS'12697'
p228
aS'28540'
p229
aS'869'
p230
aS'12034'
p231
aS'1009'
p232
ag9
aa(lp233
g2
aS'10766'
p234
aS'1175'
p235
aS'2067'
p236
aS'2096'
p237
aS'301'
p238
aS'167'
p239
ag192
aa(lp240
g2
aS'1640'
p241
aS'3259'
p242
aS'3655'
p243
aS'868'
p244
aS'1202'
p245
aS'1653'
p246
ag192
aa(lp247
g2
aS'7005'
p248
aS'829'
p249
aS'3009'
p250
aS'430'
p251
aS'610'
p252
aS'529'
p253
ag192
aa(lp254
g2
aS'219'
p255
aS'9540'
p256
aS'14403'
p257
aS'283'
p258
aS'7818'
p259
aS'156'
p260
ag9
aa(lp261
g2
aS'10362'
p262
aS'9232'
p263
aS'11009'
p264
aS'737'
p265
aS'3537'
p266
aS'2342'
p267
ag9
aa(lp268
g2
aS'20874'
p269
aS'1563'
p270
aS'1783'
p271
aS'2320'
p272
aS'550'
p273
aS'772'
p274
ag192
aa(lp275
g2
aS'11867'
p276
aS'3327'
p277
aS'4814'
p278
aS'1178'
p279
aS'3837'
p280
aS'120'
p281
ag9
aa(lp282
g2
aS'16117'
p283
aS'46197'
p284
aS'92780'
p285
aS'1026'
p286
aS'40827'
p287
aS'2944'
p288
ag9
aa(lp289
g2
aS'22925'
p290
aS'73498'
p291
aS'32114'
p292
aS'987'
p293
aS'20070'
p294
aS'903'
p295
ag9
aa(lp296
g2
aS'43265'
p297
aS'5025'
p298
aS'8117'
p299
aS'6312'
p300
aS'1579'
p301
aS'14351'
p302
ag192
aa(lp303
g2
aS'7864'
p304
aS'542'
p305
aS'4042'
p306
aS'9735'
p307
aS'165'
p308
aS'46'
p309
ag192
aa(lp310
g2
aS'24904'
p311
aS'3836'
p312
aS'5330'
p313
aS'3443'
p314
aS'454'
p315
aS'3178'
p316
ag192
aa(lp317
g2
aS'11405'
p318
aS'596'
p319
aS'1638'
p320
aS'3347'
p321
aS'69'
p322
aS'360'
p323
ag192
aa(lp324
g2
aS'12754'
p325
aS'2762'
p326
aS'2530'
p327
aS'8693'
p328
aS'627'
p329
aS'1117'
p330
ag192
aa(lp331
g2
aS'9198'
p332
aS'27472'
p333
aS'32034'
p334
aS'3232'
p335
aS'18906'
p336
aS'5130'
p337
ag9
aa(lp338
g2
aS'11314'
p339
aS'3090'
p340
aS'2062'
p341
aS'35009'
p342
aS'71'
p343
aS'2698'
p344
ag192
aa(lp345
g2
aS'5626'
p346
aS'12220'
p347
aS'11323'
p348
aS'206'
p349
aS'5038'
p350
aS'244'
p351
ag9
aa(lp352
g2
ag2
aS'2920'
p353
aS'6252'
p354
aS'440'
p355
aS'223'
p356
aS'709'
p357
ag192
aa(lp358
g2
aS'23'
p359
aS'2616'
p360
aS'8118'
p361
aS'145'
p362
aS'3874'
p363
aS'217'
p364
ag9
aa(lp365
g2
aS'403'
p366
aS'254'
p367
aS'610'
p368
aS'774'
p369
aS'54'
p370
aS'63'
p371
ag192
aa(lp372
g2
aS'503'
p373
aS'112'
p374
aS'778'
p375
aS'895'
p376
aS'56'
p377
aS'132'
p378
ag192
aa(lp379
g2
aS'9658'
p380
aS'2182'
p381
aS'1909'
p382
aS'5639'
p383
aS'215'
p384
aS'323'
p385
ag192
aa(lp386
g2
aS'11594'
p387
aS'7779'
p388
aS'12144'
p389
aS'3252'
p390
aS'8035'
p391
aS'3029'
p392
ag9
aa(lp393
g2
aS'1420'
p394
aS'10810'
p395
aS'16267'
p396
aS'1593'
p397
aS'6766'
p398
aS'1838'
p399
ag9
aa(lp400
g2
aS'2932'
p401
aS'6459'
p402
aS'7677'
p403
aS'2561'
p404
aS'4573'
p405
aS'1386'
p406
ag9
aa(lp407
g2
aS'56082'
p408
aS'3504'
p409
aS'8906'
p410
aS'18028'
p411
aS'1480'
p412
aS'2498'
p413
ag192
aa(lp414
g2
aS'14100'
p415
aS'2132'
p416
aS'3445'
p417
aS'1336'
p418
aS'1491'
p419
aS'548'
p420
ag192
aa(lp421
g2
aS'15587'
p422
aS'1014'
p423
aS'3970'
p424
aS'910'
p425
aS'139'
p426
aS'1378'
p427
ag192
aa(lp428
g2
aS'1454'
p429
aS'6337'
p430
aS'10704'
p431
aS'133'
p432
aS'6830'
p433
aS'1831'
p434
ag9
aa(lp435
g2
aS'8797'
p436
aS'10646'
p437
aS'14886'
p438
aS'2471'
p439
aS'8969'
p440
aS'1438'
p441
ag9
aa(lp442
g2
aS'1531'
p443
aS'8397'
p444
aS'6981'
p445
aS'247'
p446
aS'2505'
p447
aS'1236'
p448
ag9
aa(lp449
g2
aS'1406'
p450
aS'16729'
p451
aS'28986'
p452
aS'673'
p453
aS'836'
p454
ag2
ag9
aa(lp455
g2
aS'11818'
p456
aS'1648'
p457
aS'1694'
p458
aS'2276'
p459
aS'169'
p460
aS'1647'
p461
ag192
aa(lp462
g2
aS'12579'
p463
aS'11114'
p464
aS'17569'
p465
aS'805'
p466
aS'6457'
p467
aS'1519'
p468
ag9
aa(lp469
g2
aS'19046'
p470
aS'2770'
p471
aS'2469'
p472
aS'8853'
p473
aS'483'
p474
aS'2708'
p475
ag192
aa(lp476
g2
aS'14438'
p477
aS'2295'
p478
aS'1733'
p479
aS'3220'
p480
aS'585'
p481
aS'1561'
p482
ag192
aa(lp483
g2
aS'18044'
p484
aS'1080'
p485
aS'2000'
p486
aS'2555'
p487
aS'118'
p488
aS'1266'
p489
ag192
aa(lp490
g2
aS'11134'
p491
aS'793'
p492
aS'2988'
p493
aS'2715'
p494
aS'276'
p495
aS'610'
p496
ag192
aa(lp497
g2
aS'11173'
p498
aS'2521'
p499
aS'3355'
p500
aS'1517'
p501
aS'310'
p502
aS'222'
p503
ag192
aa(lp504
g2
aS'6990'
p505
aS'3880'
p506
aS'5380'
p507
aS'1647'
p508
aS'319'
p509
aS'1160'
p510
ag192
aa(lp511
g2
aS'20049'
p512
aS'1891'
p513
aS'2362'
p514
aS'5343'
p515
aS'411'
p516
aS'933'
p517
ag192
aa(lp518
g2
aS'8258'
p519
aS'2344'
p520
aS'2147'
p521
aS'3896'
p522
aS'266'
p523
aS'635'
p524
ag192
aa(lp525
g2
aS'17160'
p526
aS'1200'
p527
aS'3412'
p528
aS'2417'
p529
aS'174'
p530
aS'1136'
p531
ag192
aa(lp532
g2
aS'4020'
p533
aS'3234'
p534
aS'1498'
p535
aS'2395'
p536
aS'264'
p537
aS'255'
p538
ag192
aa(lp539
g2
aS'12212'
p540
aS'201'
p541
aS'245'
p542
aS'1991'
p543
aS'25'
p544
aS'860'
p545
ag192
aa(lp546
g2
aS'11170'
p547
aS'10769'
p548
aS'8814'
p549
aS'2194'
p550
aS'1976'
p551
aS'143'
p552
ag9
aa(lp553
g2
aS'36050'
p554
aS'1642'
p555
aS'2961'
p556
aS'4787'
p557
aS'500'
p558
aS'1621'
p559
ag192
aa(lp560
g2
aS'76237'
p561
aS'3473'
p562
aS'7102'
p563
aS'16538'
p564
aS'778'
p565
aS'918'
p566
ag192
aa(lp567
g2
aS'19219'
p568
aS'1840'
p569
aS'1658'
p570
aS'8195'
p571
aS'349'
p572
aS'483'
p573
ag192
aa(lp574
g2
aS'21465'
p575
aS'7243'
p576
aS'10685'
p577
aS'880'
p578
aS'2386'
p579
aS'2749'
p580
ag9
aa(lp581
g2
aS'140'
p582
aS'8847'
p583
aS'3823'
p584
aS'142'
p585
aS'1062'
p586
ag2
ag192
aa(lp587
g2
aS'42312'
p588
aS'926'
p589
aS'1510'
p590
aS'1718'
p591
aS'410'
p592
aS'1819'
p593
ag192
aa(lp594
g2
aS'7149'
p595
aS'2428'
p596
aS'699'
p597
aS'6316'
p598
aS'395'
p599
aS'911'
p600
ag192
aa(lp601
g2
aS'2101'
p602
aS'589'
p603
aS'314'
p604
aS'346'
p605
aS'70'
p606
aS'310'
p607
ag192
aa(lp608
g2
aS'14903'
p609
aS'2032'
p610
aS'2479'
p611
aS'576'
p612
aS'955'
p613
aS'328'
p614
ag192
aa(lp615
g2
aS'9434'
p616
aS'1042'
p617
aS'1235'
p618
aS'436'
p619
aS'256'
p620
aS'396'
p621
ag192
aa(lp622
g2
aS'7388'
p623
aS'1882'
p624
aS'2174'
p625
aS'720'
p626
aS'47'
p627
aS'537'
p628
ag192
aa(lp629
g2
aS'6300'
p630
aS'1289'
p631
aS'2591'
p632
aS'1170'
p633
aS'199'
p634
aS'326'
p635
ag192
aa(lp636
g2
aS'4625'
p637
aS'8579'
p638
aS'7030'
p639
aS'4575'
p640
aS'2447'
p641
aS'1542'
p642
ag192
aa(lp643
g2
aS'3087'
p644
aS'8080'
p645
aS'8282'
p646
aS'661'
p647
aS'721'
p648
aS'36'
p649
ag192
aa(lp650
g2
aS'13537'
p651
aS'4257'
p652
aS'5034'
p653
aS'155'
p654
aS'249'
p655
aS'3271'
p656
ag192
aa(lp657
g2
aS'5387'
p658
aS'4979'
p659
aS'3343'
p660
aS'825'
p661
aS'637'
p662
aS'929'
p663
ag192
aa(lp664
g2
aS'17623'
p665
aS'4280'
p666
aS'7305'
p667
aS'2279'
p668
aS'960'
p669
aS'2616'
p670
ag192
aa(lp671
g2
aS'30379'
p672
aS'13252'
p673
aS'5189'
p674
aS'321'
p675
aS'51'
p676
aS'1450'
p677
ag192
aa(lp678
g2
aS'37036'
p679
aS'7152'
p680
aS'8253'
p681
aS'2995'
p682
aS'20'
p683
ag2
ag192
aa(lp684
g2
aS'10405'
p685
aS'1596'
p686
aS'1096'
p687
aS'8425'
p688
aS'399'
p689
aS'318'
p690
ag192
aa(lp691
g2
aS'18827'
p692
aS'3677'
p693
aS'1988'
p694
aS'118'
p695
aS'516'
p696
aS'201'
p697
ag192
aa(lp698
g2
aS'22039'
p699
aS'8384'
p700
aS'34792'
p701
aS'42'
p702
aS'12591'
p703
aS'4430'
p704
ag9
aa(lp705
g2
aS'7769'
p706
aS'1936'
p707
aS'2177'
p708
aS'926'
p709
aS'73'
p710
aS'520'
p711
ag192
aa(lp712
g2
aS'9203'
p713
aS'3373'
p714
aS'2707'
p715
aS'1286'
p716
aS'1082'
p717
aS'526'
p718
ag192
aa(lp719
g2
aS'5924'
p720
aS'584'
p721
aS'542'
p722
aS'4052'
p723
aS'283'
p724
aS'434'
p725
ag192
aa(lp726
g2
aS'31812'
p727
aS'1433'
p728
aS'1651'
p729
aS'800'
p730
aS'113'
p731
aS'1440'
p732
ag192
aa(lp733
g2
aS'16225'
p734
aS'1825'
p735
aS'1765'
p736
aS'853'
p737
aS'170'
p738
aS'1067'
p739
ag192
aa(lp740
g2
aS'1289'
p741
aS'3328'
p742
aS'2022'
p743
aS'531'
p744
aS'255'
p745
aS'1774'
p746
ag192
aa(lp747
g2
aS'18840'
p748
aS'1371'
p749
aS'3135'
p750
aS'3001'
p751
aS'352'
p752
aS'184'
p753
ag192
aa(lp754
g2
aS'3463'
p755
aS'9250'
p756
aS'2368'
p757
aS'779'
p758
aS'302'
p759
aS'1627'
p760
ag192
aa(lp761
g2
aS'622'
p762
aS'55'
p763
aS'137'
p764
aS'75'
p765
aS'7'
p766
aS'8'
p767
ag192
aa(lp768
g2
aS'1989'
p769
aS'10690'
p770
aS'19460'
p771
aS'233'
p772
aS'11577'
p773
aS'2153'
p774
ag9
aa(lp775
g2
aS'3830'
p776
aS'5291'
p777
aS'14855'
p778
aS'317'
p779
aS'6694'
p780
aS'3182'
p781
ag9
aa(lp782
g2
aS'17773'
p783
aS'1366'
p784
aS'2474'
p785
aS'3378'
p786
aS'811'
p787
aS'418'
p788
ag192
aa(lp789
g2
aS'2861'
p790
aS'6570'
p791
aS'9618'
p792
aS'930'
p793
aS'4004'
p794
aS'1682'
p795
ag9
aa(lp796
g2
aS'355'
p797
aS'7704'
p798
aS'14682'
p799
aS'398'
p800
aS'8077'
p801
aS'303'
p802
ag9
aa(lp803
g2
aS'1725'
p804
aS'3651'
p805
aS'12822'
p806
aS'824'
p807
aS'4424'
p808
aS'2157'
p809
ag9
aa(lp810
g2
aS'12434'
p811
aS'540'
p812
aS'283'
p813
aS'1092'
p814
ag2
aS'2233'
p815
ag192
aa(lp816
g2
aS'15177'
p817
aS'2024'
p818
aS'3810'
p819
aS'2665'
p820
aS'232'
p821
aS'610'
p822
ag192
aa(lp823
g2
aS'5531'
p824
aS'15726'
p825
aS'26870'
p826
aS'2367'
p827
aS'13726'
p828
aS'446'
p829
ag9
aa(lp830
g2
aS'5224'
p831
aS'7603'
p832
aS'8584'
p833
aS'2540'
p834
aS'3674'
p835
aS'238'
p836
ag9
aa(lp837
g2
aS'15615'
p838
aS'12653'
p839
aS'19858'
p840
aS'4425'
p841
aS'7108'
p842
aS'2379'
p843
ag9
aa(lp844
g2
aS'4822'
p845
aS'6721'
p846
aS'9170'
p847
aS'993'
p848
aS'4973'
p849
aS'3637'
p850
ag9
aa(lp851
g2
aS'2926'
p852
aS'3195'
p853
aS'3268'
p854
aS'405'
p855
aS'1680'
p856
aS'693'
p857
ag192
aa(lp858
g2
aS'5809'
p859
aS'735'
p860
aS'803'
p861
aS'1393'
p862
aS'79'
p863
aS'429'
p864
ag192
aa(lp865
g2
aS'5414'
p866
aS'717'
p867
aS'2155'
p868
aS'2399'
p869
aS'69'
p870
aS'750'
p871
ag192
aa(lp872
g2
aS'260'
p873
aS'8675'
p874
aS'13430'
p875
aS'1116'
p876
aS'7015'
p877
aS'323'
p878
ag9
aa(lp879
g2
aS'200'
p880
aS'25862'
p881
aS'19816'
p882
aS'651'
p883
aS'8773'
p884
aS'6250'
p885
ag9
aa(lp886
g2
aS'955'
p887
aS'5479'
p888
aS'6536'
p889
aS'333'
p890
aS'2840'
p891
aS'707'
p892
ag192
aa(lp893
g2
aS'514'
p894
aS'7677'
p895
aS'19805'
p896
aS'937'
p897
aS'9836'
p898
aS'716'
p899
ag9
aa(lp900
g2
aS'286'
p901
aS'1208'
p902
aS'5241'
p903
aS'2515'
p904
aS'153'
p905
aS'1442'
p906
ag192
aa(lp907
g2
aS'2343'
p908
aS'7845'
p909
aS'11874'
p910
aS'52'
p911
aS'4196'
p912
aS'1697'
p913
ag9
aa(lp914
g2
aS'45640'
p915
aS'6958'
p916
aS'6536'
p917
aS'7368'
p918
aS'1532'
p919
aS'230'
p920
ag192
aa(lp921
g2
aS'12759'
p922
aS'7330'
p923
aS'4533'
p924
aS'1752'
p925
aS'20'
p926
aS'2631'
p927
ag192
aa(lp928
g2
aS'11002'
p929
aS'7075'
p930
aS'4945'
p931
aS'1152'
p932
aS'120'
p933
aS'395'
p934
ag192
aa(lp935
g2
aS'3157'
p936
aS'4888'
p937
aS'2500'
p938
aS'4477'
p939
aS'273'
p940
aS'2165'
p941
ag192
aa(lp942
g2
aS'12356'
p943
aS'6036'
p944
aS'8887'
p945
aS'402'
p946
aS'1382'
p947
aS'2794'
p948
ag192
aa(lp949
g2
aS'112151'
p950
aS'29627'
p951
aS'18148'
p952
aS'16745'
p953
aS'4948'
p954
aS'8550'
p955
ag192
aa(lp956
g2
aS'694'
p957
aS'8533'
p958
aS'10518'
p959
aS'443'
p960
aS'6907'
p961
aS'156'
p962
ag192
aa(lp963
g2
aS'36847'
p964
aS'43950'
p965
aS'20170'
p966
aS'36534'
p967
aS'239'
p968
aS'47943'
p969
ag192
aa(lp970
g2
aS'327'
p971
aS'918'
p972
aS'4710'
p973
aS'74'
p974
aS'334'
p975
aS'11'
p976
ag192
aa(lp977
g2
aS'8170'
p978
aS'6448'
p979
aS'1139'
p980
aS'2181'
p981
aS'58'
p982
aS'247'
p983
ag192
aa(lp984
g2
aS'3009'
p985
aS'521'
p986
aS'854'
p987
aS'3470'
p988
aS'949'
p989
aS'727'
p990
ag192
aa(lp991
g2
aS'2438'
p992
aS'8002'
p993
aS'9819'
p994
aS'6269'
p995
aS'3459'
p996
ag2
ag192
aa(lp997
g2
aS'8040'
p998
aS'7639'
p999
aS'11687'
p1000
aS'2758'
p1001
aS'6839'
p1002
aS'404'
p1003
ag9
aa(lp1004
g2
aS'834'
p1005
aS'11577'
p1006
aS'11522'
p1007
aS'275'
p1008
aS'4027'
p1009
aS'1856'
p1010
ag9
aa(lp1011
g2
aS'16936'
p1012
aS'6250'
p1013
aS'1981'
p1014
aS'7332'
p1015
aS'118'
p1016
aS'64'
p1017
ag192
aa(lp1018
g2
aS'13624'
p1019
aS'295'
p1020
aS'1381'
p1021
aS'890'
p1022
aS'43'
p1023
aS'84'
p1024
ag192
aa(lp1025
g2
aS'5509'
p1026
aS'1461'
p1027
aS'2251'
p1028
aS'547'
p1029
aS'187'
p1030
aS'409'
p1031
ag192
aa(lp1032
g2
aS'180'
p1033
aS'3485'
p1034
aS'20292'
p1035
aS'959'
p1036
aS'5618'
p1037
aS'666'
p1038
ag9
aa(lp1039
g2
aS'7107'
p1040
aS'1012'
p1041
aS'2974'
p1042
aS'806'
p1043
aS'355'
p1044
aS'1142'
p1045
ag192
aa(lp1046
g2
aS'17023'
p1047
aS'5139'
p1048
aS'5230'
p1049
aS'7888'
p1050
aS'330'
p1051
aS'1755'
p1052
ag192
aa(lp1053
g192
aS'30624'
p1054
aS'7209'
p1055
aS'4897'
p1056
aS'18711'
p1057
aS'763'
p1058
aS'2876'
p1059
ag192
aa(lp1060
g192
aS'2427'
p1061
aS'7097'
p1062
aS'10391'
p1063
aS'1127'
p1064
aS'4314'
p1065
aS'1468'
p1066
ag9
aa(lp1067
g192
aS'11686'
p1068
aS'2154'
p1069
aS'6824'
p1070
aS'3527'
p1071
aS'592'
p1072
aS'697'
p1073
ag192
aa(lp1074
g192
aS'9670'
p1075
aS'2280'
p1076
aS'2112'
p1077
aS'520'
p1078
aS'402'
p1079
aS'347'
p1080
ag192
aa(lp1081
g192
aS'3067'
p1082
aS'13240'
p1083
aS'23127'
p1084
aS'3941'
p1085
aS'9959'
p1086
aS'731'
p1087
ag9
aa(lp1088
g192
aS'4484'
p1089
aS'14399'
p1090
aS'24708'
p1091
aS'3549'
p1092
aS'14235'
p1093
aS'1681'
p1094
ag9
aa(lp1095
g192
aS'25203'
p1096
aS'11487'
p1097
aS'9490'
p1098
aS'5065'
p1099
aS'284'
p1100
aS'6854'
p1101
ag192
aa(lp1102
g192
aS'583'
p1103
aS'685'
p1104
aS'2216'
p1105
aS'469'
p1106
aS'954'
p1107
aS'18'
p1108
ag192
aa(lp1109
g192
aS'1956'
p1110
aS'891'
p1111
aS'5226'
p1112
aS'1383'
p1113
aS'5'
p1114
aS'1328'
p1115
ag192
aa(lp1116
g192
aS'1107'
p1117
aS'11711'
p1118
aS'23596'
p1119
aS'955'
p1120
aS'9265'
p1121
aS'710'
p1122
ag9
aa(lp1123
g192
aS'6373'
p1124
aS'780'
p1125
aS'950'
p1126
aS'878'
p1127
aS'288'
p1128
aS'285'
p1129
ag192
aa(lp1130
g192
aS'2541'
p1131
aS'4737'
p1132
aS'6089'
p1133
aS'2946'
p1134
aS'5316'
p1135
aS'120'
p1136
ag9
aa(lp1137
g192
aS'1537'
p1138
aS'3748'
p1139
aS'5838'
p1140
aS'1859'
p1141
aS'3381'
p1142
aS'806'
p1143
ag192
aa(lp1144
g192
aS'5550'
p1145
aS'12729'
p1146
aS'16767'
p1147
aS'864'
p1148
aS'12420'
p1149
aS'797'
p1150
ag9
aa(lp1151
g192
aS'18567'
p1152
aS'1895'
p1153
aS'1393'
p1154
aS'1801'
p1155
aS'244'
p1156
aS'2100'
p1157
ag192
aa(lp1158
g192
aS'12119'
p1159
aS'28326'
p1160
aS'39694'
p1161
aS'4736'
p1162
aS'19410'
p1163
aS'2870'
p1164
ag9
aa(lp1165
g192
aS'7291'
p1166
aS'1012'
p1167
aS'2062'
p1168
aS'1291'
p1169
aS'240'
p1170
aS'1775'
p1171
ag192
aa(lp1172
g192
aS'3317'
p1173
aS'6602'
p1174
aS'6861'
p1175
aS'1329'
p1176
aS'3961'
p1177
aS'1215'
p1178
ag192
aa(lp1179
g192
aS'2362'
p1180
aS'6551'
p1181
aS'11364'
p1182
aS'913'
p1183
aS'5957'
p1184
aS'791'
p1185
ag9
aa(lp1186
g192
aS'2806'
p1187
aS'10765'
p1188
aS'15538'
p1189
aS'1374'
p1190
aS'5828'
p1191
aS'2388'
p1192
ag192
aa(lp1193
g192
aS'2532'
p1194
aS'16599'
p1195
aS'36486'
p1196
aS'179'
p1197
aS'13308'
p1198
aS'674'
p1199
ag9
aa(lp1200
g192
aS'18044'
p1201
aS'1475'
p1202
aS'2046'
p1203
aS'2532'
p1204
aS'130'
p1205
aS'1158'
p1206
ag192
aa(lp1207
g192
aS'18'
p1208
aS'7504'
p1209
aS'15205'
p1210
aS'1285'
p1211
aS'4797'
p1212
aS'6372'
p1213
ag9
aa(lp1214
g192
aS'4155'
p1215
aS'367'
p1216
aS'1390'
p1217
aS'2306'
p1218
aS'86'
p1219
aS'130'
p1220
ag192
aa(lp1221
g192
aS'14755'
p1222
aS'899'
p1223
aS'1382'
p1224
aS'1765'
p1225
aS'56'
p1226
aS'749'
p1227
ag192
aa(lp1228
g192
aS'5396'
p1229
aS'7503'
p1230
aS'10646'
p1231
aS'91'
p1232
aS'4167'
p1233
aS'239'
p1234
ag192
aa(lp1235
g192
aS'5041'
p1236
aS'1115'
p1237
aS'2856'
p1238
aS'7496'
p1239
aS'256'
p1240
aS'375'
p1241
ag192
aa(lp1242
g192
aS'2790'
p1243
aS'2527'
p1244
aS'5265'
p1245
aS'5612'
p1246
aS'788'
p1247
aS'1360'
p1248
ag9
aa(lp1249
g192
aS'7274'
p1250
aS'659'
p1251
aS'1499'
p1252
aS'784'
p1253
aS'70'
p1254
aS'659'
p1255
ag192
aa(lp1256
g192
aS'12680'
p1257
aS'3243'
p1258
aS'4157'
p1259
aS'660'
p1260
aS'761'
p1261
aS'786'
p1262
ag192
aa(lp1263
g192
aS'20782'
p1264
aS'5921'
p1265
aS'9212'
p1266
aS'1759'
p1267
aS'2568'
p1268
aS'1553'
p1269
ag9
aa(lp1270
g192
aS'4042'
p1271
aS'2204'
p1272
aS'1563'
p1273
aS'2286'
p1274
aS'263'
p1275
aS'689'
p1276
ag192
aa(lp1277
g192
aS'1869'
p1278
aS'577'
p1279
aS'572'
p1280
aS'950'
p1281
aS'4762'
p1282
aS'203'
p1283
ag192
aa(lp1284
g192
aS'8656'
p1285
aS'2746'
p1286
aS'2501'
p1287
aS'6845'
p1288
aS'694'
p1289
aS'980'
p1290
ag192
aa(lp1291
g192
aS'11072'
p1292
aS'5989'
p1293
aS'5615'
p1294
aS'8321'
p1295
aS'955'
p1296
aS'2137'
p1297
ag9
aa(lp1298
g192
aS'2344'
p1299
aS'10678'
p1300
aS'3828'
p1301
aS'1439'
p1302
aS'1566'
p1303
aS'490'
p1304
ag192
aa(lp1305
g192
aS'25962'
p1306
aS'1780'
p1307
aS'3838'
p1308
aS'638'
p1309
aS'284'
p1310
aS'834'
p1311
ag192
aa(lp1312
g192
aS'964'
p1313
aS'4984'
p1314
aS'3316'
p1315
aS'937'
p1316
aS'409'
p1317
ag766
ag192
aa(lp1318
g192
aS'15603'
p1319
aS'2703'
p1320
aS'3833'
p1321
aS'4260'
p1322
aS'325'
p1323
aS'2563'
p1324
ag192
aa(lp1325
g192
aS'1838'
p1326
aS'6380'
p1327
aS'2824'
p1328
aS'1218'
p1329
aS'1216'
p1330
aS'295'
p1331
ag192
aa(lp1332
g192
aS'8635'
p1333
aS'820'
p1334
aS'3047'
p1335
aS'2312'
p1336
aS'415'
p1337
aS'225'
p1338
ag192
aa(lp1339
g192
aS'18692'
p1340
aS'3838'
p1341
aS'593'
p1342
aS'4634'
p1343
aS'28'
p1344
aS'1215'
p1345
ag192
aa(lp1346
g192
aS'7363'
p1347
aS'475'
p1348
aS'585'
p1349
aS'1112'
p1350
aS'72'
p1351
aS'216'
p1352
ag192
aa(lp1353
g192
aS'47493'
p1354
aS'2567'
p1355
aS'3779'
p1356
aS'5243'
p1357
aS'828'
p1358
aS'2253'
p1359
ag192
aa(lp1360
g192
aS'22096'
p1361
aS'3575'
p1362
aS'7041'
p1363
aS'11422'
p1364
aS'343'
p1365
aS'2564'
p1366
ag192
aa(lp1367
g192
aS'24929'
p1368
aS'1801'
p1369
aS'2475'
p1370
aS'2216'
p1371
aS'412'
p1372
aS'1047'
p1373
ag192
aa(lp1374
g192
aS'18226'
p1375
aS'659'
p1376
aS'2914'
p1377
aS'3752'
p1378
aS'586'
p1379
aS'578'
p1380
ag192
aa(lp1381
g192
aS'11210'
p1382
aS'3576'
p1383
aS'5119'
p1384
aS'561'
p1385
aS'1682'
p1386
aS'2398'
p1387
ag192
aa(lp1388
g192
aS'6202'
p1389
aS'7775'
p1390
aS'10817'
p1391
aS'1183'
p1392
aS'3143'
p1393
aS'1970'
p1394
ag192
aa(lp1395
g192
aS'3062'
p1396
aS'6154'
p1397
aS'13916'
p1398
aS'230'
p1399
aS'8933'
p1400
aS'2784'
p1401
ag9
aa(lp1402
g192
aS'8885'
p1403
aS'2428'
p1404
aS'1777'
p1405
aS'1777'
p1406
aS'430'
p1407
aS'610'
p1408
ag192
aa(lp1409
g192
aS'13569'
p1410
aS'346'
p1411
aS'489'
p1412
aS'2077'
p1413
aS'44'
p1414
aS'659'
p1415
ag192
aa(lp1416
g192
aS'15671'
p1417
aS'5279'
p1418
aS'2406'
p1419
aS'559'
p1420
aS'562'
p1421
aS'572'
p1422
ag192
aa(lp1423
g192
aS'8040'
p1424
aS'3795'
p1425
aS'2070'
p1426
aS'6340'
p1427
aS'918'
p1428
aS'291'
p1429
ag192
aa(lp1430
g192
aS'3191'
p1431
aS'1993'
p1432
aS'1799'
p1433
aS'1730'
p1434
aS'234'
p1435
aS'710'
p1436
ag192
aa(lp1437
g192
aS'6134'
p1438
aS'23133'
p1439
aS'33586'
p1440
aS'6746'
p1441
aS'18594'
p1442
aS'5121'
p1443
ag9
aa(lp1444
g192
aS'6623'
p1445
aS'1860'
p1446
aS'4740'
p1447
aS'7683'
p1448
aS'205'
p1449
aS'1693'
p1450
ag192
aa(lp1451
g192
aS'29526'
p1452
aS'7961'
p1453
aS'16966'
p1454
aS'432'
p1455
aS'363'
p1456
aS'1391'
p1457
ag192
aa(lp1458
g192
aS'10379'
p1459
aS'17972'
p1460
aS'4748'
p1461
aS'4686'
p1462
aS'1547'
p1463
aS'3265'
p1464
ag192
aa(lp1465
g192
aS'31614'
p1466
aS'489'
p1467
aS'1495'
p1468
aS'3242'
p1469
aS'111'
p1470
aS'615'
p1471
ag192
aa(lp1472
g192
aS'11092'
p1473
aS'5008'
p1474
aS'5249'
p1475
aS'453'
p1476
aS'392'
p1477
aS'373'
p1478
ag192
aa(lp1479
g192
aS'8475'
p1480
aS'1931'
p1481
aS'1883'
p1482
aS'5004'
p1483
aS'3593'
p1484
aS'987'
p1485
ag192
aa(lp1486
g192
aS'56083'
p1487
aS'4563'
p1488
aS'2124'
p1489
aS'6422'
p1490
aS'730'
p1491
aS'3321'
p1492
ag192
aa(lp1493
g192
aS'53205'
p1494
aS'4959'
p1495
aS'7336'
p1496
aS'3012'
p1497
aS'967'
p1498
aS'818'
p1499
ag192
aa(lp1500
g192
aS'9193'
p1501
aS'4885'
p1502
aS'2157'
p1503
aS'327'
p1504
aS'780'
p1505
aS'548'
p1506
ag192
aa(lp1507
g192
aS'7858'
p1508
aS'1110'
p1509
aS'1094'
p1510
aS'6818'
p1511
aS'49'
p1512
aS'287'
p1513
ag192
aa(lp1514
g192
aS'23257'
p1515
aS'1372'
p1516
aS'1677'
p1517
aS'982'
p1518
aS'429'
p1519
aS'655'
p1520
ag192
aa(lp1521
g192
aS'2153'
p1522
aS'1115'
p1523
aS'6684'
p1524
aS'4324'
p1525
aS'2894'
p1526
aS'411'
p1527
ag192
aa(lp1528
g192
aS'1073'
p1529
aS'9679'
p1530
aS'15445'
p1531
aS'61'
p1532
aS'5980'
p1533
aS'1265'
p1534
ag9
aa(lp1535
g192
aS'5909'
p1536
aS'23527'
p1537
aS'13699'
p1538
aS'10155'
p1539
aS'830'
p1540
aS'3636'
p1541
ag192
aa(lp1542
g192
aS'572'
p1543
aS'9763'
p1544
aS'22182'
p1545
aS'2221'
p1546
aS'4882'
p1547
aS'2563'
p1548
ag9
aa(lp1549
g192
aS'20893'
p1550
aS'1222'
p1551
aS'2576'
p1552
aS'3975'
p1553
aS'737'
p1554
aS'3628'
p1555
ag192
aa(lp1556
g192
aS'11908'
p1557
aS'8053'
p1558
aS'19847'
p1559
aS'1069'
p1560
aS'6374'
p1561
aS'698'
p1562
ag9
aa(lp1563
g192
aS'15218'
p1564
aS'258'
p1565
aS'1138'
p1566
aS'2516'
p1567
aS'333'
p1568
aS'204'
p1569
ag192
aa(lp1570
g192
aS'4720'
p1571
aS'1032'
p1572
aS'975'
p1573
aS'5500'
p1574
aS'197'
p1575
aS'56'
p1576
ag192
aa(lp1577
g192
aS'2083'
p1578
aS'5007'
p1579
aS'1563'
p1580
aS'1120'
p1581
aS'147'
p1582
aS'1550'
p1583
ag192
aa(lp1584
g192
aS'514'
p1585
aS'8323'
p1586
aS'6869'
p1587
aS'529'
p1588
aS'93'
p1589
aS'1040'
p1590
ag192
aa(lp1591
g2
aS'36817'
p1592
aS'3045'
p1593
aS'1493'
p1594
aS'4802'
p1595
aS'210'
p1596
aS'1824'
p1597
ag192
aa(lp1598
g2
aS'894'
p1599
aS'1703'
p1600
aS'1841'
p1601
aS'744'
p1602
aS'759'
p1603
aS'1153'
p1604
ag192
aa(lp1605
g2
aS'680'
p1606
aS'1610'
p1607
aS'223'
p1608
aS'862'
p1609
aS'96'
p1610
aS'379'
p1611
ag192
aa(lp1612
g2
aS'27901'
p1613
aS'3749'
p1614
aS'6964'
p1615
aS'4479'
p1616
aS'603'
p1617
aS'2503'
p1618
ag192
aa(lp1619
g2
aS'9061'
p1620
aS'829'
p1621
aS'683'
p1622
aS'16919'
p1623
aS'621'
p1624
aS'139'
p1625
ag192
aa(lp1626
g2
aS'11693'
p1627
aS'2317'
p1628
aS'2543'
p1629
aS'5845'
p1630
aS'274'
p1631
aS'1409'
p1632
ag192
aa(lp1633
g2
aS'17360'
p1634
aS'6200'
p1635
aS'9694'
p1636
aS'1293'
p1637
aS'3620'
p1638
aS'1721'
p1639
ag9
aa(lp1640
g2
aS'3366'
p1641
aS'2884'
p1642
aS'2431'
p1643
aS'977'
p1644
aS'167'
p1645
aS'1104'
p1646
ag192
aa(lp1647
g2
aS'12238'
p1648
aS'7108'
p1649
aS'6235'
p1650
aS'1093'
p1651
aS'2328'
p1652
aS'2079'
p1653
ag9
aa(lp1654
g2
aS'49063'
p1655
aS'3965'
p1656
aS'4252'
p1657
aS'5970'
p1658
aS'1041'
p1659
aS'1404'
p1660
ag192
aa(lp1661
g2
aS'25767'
p1662
aS'3613'
p1663
aS'2013'
p1664
aS'10303'
p1665
aS'314'
p1666
aS'1384'
p1667
ag192
aa(lp1668
g2
aS'68951'
p1669
aS'4411'
p1670
aS'12609'
p1671
aS'8692'
p1672
aS'751'
p1673
aS'2406'
p1674
ag192
aa(lp1675
g2
aS'40254'
p1676
aS'640'
p1677
aS'3600'
p1678
aS'1042'
p1679
aS'436'
p1680
aS'18'
p1681
ag192
aa(lp1682
g2
aS'7149'
p1683
aS'2247'
p1684
aS'1242'
p1685
aS'1619'
p1686
aS'1226'
p1687
aS'128'
p1688
ag192
aa(lp1689
g2
aS'15354'
p1690
aS'2102'
p1691
aS'2828'
p1692
aS'8366'
p1693
aS'386'
p1694
aS'1027'
p1695
ag192
aa(lp1696
g2
aS'16260'
p1697
aS'594'
p1698
aS'1296'
p1699
aS'848'
p1700
aS'445'
p1701
aS'258'
p1702
ag192
aa(lp1703
g2
aS'42786'
p1704
aS'286'
p1705
aS'471'
p1706
aS'1388'
p1707
aS'32'
p1708
aS'22'
p1709
ag192
aa(lp1710
g2
aS'2708'
p1711
aS'2160'
p1712
aS'2642'
p1713
aS'502'
p1714
aS'965'
p1715
aS'1522'
p1716
ag192
aa(lp1717
g2
aS'6022'
p1718
aS'3354'
p1719
aS'3261'
p1720
aS'2507'
p1721
aS'212'
p1722
aS'686'
p1723
ag192
aa(lp1724
g2
aS'2838'
p1725
aS'3086'
p1726
aS'4329'
p1727
aS'3838'
p1728
aS'825'
p1729
aS'1060'
p1730
ag192
aa(lp1731
g9
aS'3996'
p1732
aS'11103'
p1733
aS'12469'
p1734
aS'902'
p1735
aS'5952'
p1736
aS'741'
p1737
ag9
aa(lp1738
g9
aS'21273'
p1739
aS'2013'
p1740
aS'6550'
p1741
aS'909'
p1742
aS'811'
p1743
aS'1854'
p1744
ag192
aa(lp1745
g9
aS'7588'
p1746
aS'1897'
p1747
aS'5234'
p1748
aS'417'
p1749
aS'2208'
p1750
aS'254'
p1751
ag9
aa(lp1752
g9
aS'19087'
p1753
aS'1304'
p1754
aS'3643'
p1755
aS'3045'
p1756
aS'710'
p1757
aS'898'
p1758
ag192
aa(lp1759
g9
aS'8090'
p1760
aS'3199'
p1761
aS'6986'
p1762
aS'1455'
p1763
aS'3712'
p1764
aS'531'
p1765
ag9
aa(lp1766
g9
aS'6758'
p1767
aS'4560'
p1768
aS'9965'
p1769
aS'934'
p1770
aS'4538'
p1771
aS'1037'
p1772
ag9
aa(lp1773
g9
aS'444'
p1774
aS'879'
p1775
aS'2060'
p1776
aS'264'
p1777
aS'290'
p1778
aS'259'
p1779
ag192
aa(lp1780
g9
aS'16448'
p1781
aS'6243'
p1782
aS'6360'
p1783
aS'824'
p1784
aS'2662'
p1785
aS'2005'
p1786
ag9
aa(lp1787
g9
aS'5283'
p1788
aS'13316'
p1789
aS'20399'
p1790
aS'1809'
p1791
aS'8752'
p1792
aS'172'
p1793
ag9
aa(lp1794
g9
aS'2886'
p1795
aS'5302'
p1796
aS'9785'
p1797
aS'364'
p1798
aS'6236'
p1799
aS'555'
p1800
ag9
aa(lp1801
g9
aS'2599'
p1802
aS'3688'
p1803
aS'13829'
p1804
aS'492'
p1805
aS'10069'
p1806
aS'59'
p1807
ag9
aa(lp1808
g9
aS'161'
p1809
aS'7460'
p1810
aS'24773'
p1811
aS'617'
p1812
aS'11783'
p1813
aS'2410'
p1814
ag9
aa(lp1815
g9
aS'243'
p1816
aS'12939'
p1817
aS'8852'
p1818
aS'799'
p1819
aS'3909'
p1820
aS'211'
p1821
ag9
aa(lp1822
g9
aS'6468'
p1823
aS'12867'
p1824
aS'21570'
p1825
aS'1840'
p1826
aS'7558'
p1827
aS'1543'
p1828
ag9
aa(lp1829
g9
aS'17327'
p1830
aS'2374'
p1831
aS'2842'
p1832
aS'1149'
p1833
aS'351'
p1834
aS'925'
p1835
ag192
aa(lp1836
g9
aS'6987'
p1837
aS'1020'
p1838
aS'3007'
p1839
aS'416'
p1840
aS'257'
p1841
aS'656'
p1842
ag192
aa(lp1843
g9
aS'918'
p1844
aS'20655'
p1845
aS'13567'
p1846
aS'1465'
p1847
aS'6846'
p1848
aS'806'
p1849
ag9
aa(lp1850
g9
aS'7034'
p1851
aS'1492'
p1852
aS'2405'
p1853
aS'12569'
p1854
aS'299'
p1855
aS'1117'
p1856
ag192
aa(lp1857
g9
aS'29635'
p1858
aS'2335'
p1859
aS'8280'
p1860
aS'3046'
p1861
aS'371'
p1862
aS'117'
p1863
ag192
aa(lp1864
g9
aS'2137'
p1865
aS'3737'
p1866
aS'19172'
p1867
aS'1274'
p1868
aS'17120'
p1869
aS'142'
p1870
ag9
aa(lp1871
g9
aS'9784'
p1872
aS'925'
p1873
aS'2405'
p1874
aS'4447'
p1875
aS'183'
p1876
aS'297'
p1877
ag192
aa(lp1878
g9
aS'10617'
p1879
aS'1795'
p1880
aS'7647'
p1881
aS'1483'
p1882
aS'857'
p1883
aS'1233'
p1884
ag192
aa(lp1885
g9
aS'1479'
p1886
aS'14982'
p1887
aS'11924'
p1888
aS'662'
p1889
aS'3891'
p1890
aS'3508'
p1891
ag9
aa(lp1892
g9
aS'7127'
p1893
aS'1375'
p1894
aS'2201'
p1895
aS'2679'
p1896
aS'83'
p1897
aS'1059'
p1898
ag192
aa(lp1899
g9
aS'1182'
p1900
aS'3088'
p1901
aS'6114'
p1902
aS'978'
p1903
aS'821'
p1904
aS'1637'
p1905
ag192
aa(lp1906
g9
aS'11800'
p1907
aS'2713'
p1908
aS'3558'
p1909
aS'2121'
p1910
aS'706'
p1911
aS'51'
p1912
ag192
aa(lp1913
g9
aS'9759'
p1914
aS'25071'
p1915
aS'17645'
p1916
aS'1128'
p1917
aS'12408'
p1918
aS'1625'
p1919
ag9
aa(lp1920
g9
aS'1774'
p1921
aS'3696'
p1922
aS'2280'
p1923
aS'514'
p1924
aS'275'
p1925
aS'834'
p1926
ag192
aa(lp1927
g9
aS'9155'
p1928
aS'1897'
p1929
aS'5167'
p1930
aS'2714'
p1931
aS'228'
p1932
aS'1113'
p1933
ag192
aa(lp1934
g9
aS'15881'
p1935
aS'713'
p1936
aS'3315'
p1937
aS'3703'
p1938
aS'1470'
p1939
aS'229'
p1940
ag192
aa(lp1941
g9
aS'13360'
p1942
aS'944'
p1943
aS'11593'
p1944
aS'915'
p1945
aS'1679'
p1946
aS'573'
p1947
ag192
aa(lp1948
g9
aS'25977'
p1949
aS'3587'
p1950
aS'2464'
p1951
aS'2369'
p1952
aS'140'
p1953
aS'1092'
p1954
ag192
aa(lp1955
g9
aS'32717'
p1956
aS'16784'
p1957
aS'13626'
p1958
aS'60869'
p1959
aS'1272'
p1960
aS'5609'
p1961
ag192
aa(lp1962
g9
aS'4414'
p1963
aS'1610'
p1964
aS'1431'
p1965
aS'3498'
p1966
aS'387'
p1967
aS'834'
p1968
ag192
aa(lp1969
g9
aS'542'
p1970
aS'899'
p1971
aS'1664'
p1972
aS'414'
p1973
aS'88'
p1974
aS'522'
p1975
ag192
aa(lp1976
g9
aS'16933'
p1977
aS'2209'
p1978
aS'3389'
p1979
aS'7849'
p1980
aS'210'
p1981
aS'1534'
p1982
ag192
aa(lp1983
g9
aS'5113'
p1984
aS'1486'
p1985
aS'4583'
p1986
aS'5127'
p1987
aS'492'
p1988
aS'739'
p1989
ag192
aa(lp1990
g9
aS'9790'
p1991
aS'1786'
p1992
aS'5109'
p1993
aS'3570'
p1994
aS'182'
p1995
aS'1043'
p1996
ag192
aa(lp1997
g9
aS'11223'
p1998
aS'14881'
p1999
aS'26839'
p2000
aS'1234'
p2001
aS'9606'
p2002
aS'1102'
p2003
ag9
aa(lp2004
g9
aS'22321'
p2005
aS'3216'
p2006
aS'1447'
p2007
aS'2208'
p2008
aS'178'
p2009
aS'2602'
p2010
ag192
aa(lp2011
g9
aS'8565'
p2012
aS'4980'
p2013
aS'67298'
p2014
aS'131'
p2015
aS'38102'
p2016
aS'1215'
p2017
ag9
aa(lp2018
g9
aS'16823'
p2019
aS'928'
p2020
aS'2743'
p2021
aS'11559'
p2022
aS'332'
p2023
aS'3486'
p2024
ag9
aa(lp2025
g9
aS'27082'
p2026
aS'6817'
p2027
aS'10790'
p2028
aS'1365'
p2029
aS'4111'
p2030
aS'2139'
p2031
ag9
aa(lp2032
g9
aS'13970'
p2033
aS'1511'
p2034
aS'1330'
p2035
aS'650'
p2036
aS'146'
p2037
aS'778'
p2038
ag192
aa(lp2039
g9
aS'9351'
p2040
aS'1347'
p2041
aS'2611'
p2042
aS'8170'
p2043
aS'442'
p2044
aS'868'
p2045
ag192
aa(lp2046
g9
ag2
aS'333'
p2047
aS'7021'
p2048
aS'15601'
p2049
aS'15'
p2050
aS'550'
p2051
ag192
aa(lp2052
g9
aS'2617'
p2053
aS'1188'
p2054
aS'5332'
p2055
aS'9584'
p2056
aS'573'
p2057
aS'1942'
p2058
ag192
aa(lp2059
g2
aS'381'
p2060
aS'4025'
p2061
aS'9670'
p2062
aS'388'
p2063
aS'7271'
p2064
aS'1371'
p2065
ag9
aa(lp2066
g2
aS'2320'
p2067
aS'5763'
p2068
aS'11238'
p2069
aS'767'
p2070
aS'5162'
p2071
aS'2158'
p2072
ag9
aa(lp2073
g2
aS'255'
p2074
aS'5758'
p2075
aS'5923'
p2076
aS'349'
p2077
aS'4595'
p2078
aS'1328'
p2079
ag192
aa(lp2080
g2
aS'1689'
p2081
aS'6964'
p2082
aS'26316'
p2083
aS'1456'
p2084
aS'15469'
p2085
aS'37'
p2086
ag9
aa(lp2087
g2
aS'3043'
p2088
aS'1172'
p2089
aS'1763'
p2090
aS'2234'
p2091
aS'217'
p2092
aS'379'
p2093
ag192
aa(lp2094
g2
aS'1198'
p2095
aS'2602'
p2096
aS'8335'
p2097
aS'402'
p2098
aS'3843'
p2099
aS'303'
p2100
ag192
aa(lp2101
g2
aS'2771'
p2102
aS'6939'
p2103
aS'15541'
p2104
aS'2693'
p2105
aS'6600'
p2106
aS'1115'
p2107
ag9
aa(lp2108
g2
aS'27380'
p2109
aS'7184'
p2110
aS'12311'
p2111
aS'2809'
p2112
aS'4621'
p2113
aS'1022'
p2114
ag9
aa(lp2115
g2
aS'3428'
p2116
aS'2380'
p2117
aS'2028'
p2118
aS'1341'
p2119
aS'1184'
p2120
aS'665'
p2121
ag192
aa(lp2122
g2
aS'5981'
p2123
aS'14641'
p2124
aS'20521'
p2125
aS'2005'
p2126
aS'12218'
p2127
aS'445'
p2128
ag9
aa(lp2129
g2
aS'3521'
p2130
aS'1099'
p2131
aS'1997'
p2132
aS'1796'
p2133
aS'173'
p2134
aS'995'
p2135
ag192
aa(lp2136
g2
aS'1210'
p2137
aS'10044'
p2138
aS'22294'
p2139
aS'1741'
p2140
aS'12638'
p2141
aS'3137'
p2142
ag9
aa(lp2143
g2
aS'608'
p2144
aS'1106'
p2145
aS'1533'
p2146
aS'830'
p2147
aS'90'
p2148
aS'195'
p2149
ag192
aa(lp2150
g2
aS'117'
p2151
aS'6264'
p2152
aS'21203'
p2153
aS'228'
p2154
aS'8682'
p2155
aS'1111'
p2156
ag9
aa(lp2157
g2
aS'14039'
p2158
aS'7393'
p2159
aS'2548'
p2160
aS'6386'
p2161
aS'1333'
p2162
aS'2341'
p2163
ag192
aa(lp2164
g2
aS'190'
p2165
aS'727'
p2166
aS'2012'
p2167
aS'245'
p2168
aS'184'
p2169
aS'127'
p2170
ag192
aa(lp2171
g2
aS'22686'
p2172
aS'134'
p2173
aS'218'
p2174
aS'3157'
p2175
aS'9'
p2176
aS'548'
p2177
ag192
aa(lp2178
g2
aS'37'
p2179
aS'1275'
p2180
aS'22272'
p2181
aS'137'
p2182
aS'6747'
p2183
aS'110'
p2184
ag9
aa(lp2185
g2
aS'759'
p2186
aS'18664'
p2187
aS'1660'
p2188
aS'6114'
p2189
aS'536'
p2190
aS'4100'
p2191
ag192
aa(lp2192
g2
aS'796'
p2193
aS'5878'
p2194
aS'2109'
p2195
aS'340'
p2196
aS'232'
p2197
aS'776'
p2198
ag192
aa(lp2199
g2
aS'19746'
p2200
aS'2872'
p2201
aS'2006'
p2202
aS'2601'
p2203
aS'468'
p2204
aS'503'
p2205
ag192
aa(lp2206
g2
aS'4734'
p2207
aS'607'
p2208
aS'864'
p2209
aS'1206'
p2210
aS'159'
p2211
aS'405'
p2212
ag192
aa(lp2213
g2
aS'2121'
p2214
aS'1601'
p2215
aS'2453'
p2216
aS'560'
p2217
aS'179'
p2218
aS'712'
p2219
ag192
aa(lp2220
g2
aS'4627'
p2221
aS'997'
p2222
aS'4438'
p2223
aS'191'
p2224
aS'1335'
p2225
aS'314'
p2226
ag192
aa(lp2227
g2
aS'2615'
p2228
aS'873'
p2229
aS'1524'
p2230
aS'1103'
p2231
aS'514'
p2232
aS'468'
p2233
ag192
aa(lp2234
g2
aS'4692'
p2235
aS'6128'
p2236
aS'8025'
p2237
aS'1619'
p2238
aS'4515'
p2239
aS'3105'
p2240
ag9
aa(lp2241
g2
aS'9561'
p2242
aS'2217'
p2243
aS'1664'
p2244
aS'1173'
p2245
aS'222'
p2246
aS'447'
p2247
ag192
aa(lp2248
g2
aS'3477'
p2249
aS'894'
p2250
aS'534'
p2251
aS'1457'
p2252
aS'252'
p2253
aS'342'
p2254
ag192
aa(lp2255
g2
aS'22335'
p2256
aS'1196'
p2257
aS'2406'
p2258
aS'2046'
p2259
aS'101'
p2260
aS'558'
p2261
ag192
aa(lp2262
g2
aS'6211'
p2263
aS'337'
p2264
aS'683'
p2265
aS'1089'
p2266
aS'41'
p2267
aS'296'
p2268
ag192
aa(lp2269
g2
aS'39679'
p2270
aS'3944'
p2271
aS'4955'
p2272
aS'1364'
p2273
aS'523'
p2274
aS'2235'
p2275
ag9
aa(lp2276
g2
aS'20105'
p2277
aS'1887'
p2278
aS'1939'
p2279
aS'8164'
p2280
aS'716'
p2281
aS'790'
p2282
ag192
aa(lp2283
g2
aS'3884'
p2284
aS'3801'
p2285
aS'1641'
p2286
aS'876'
p2287
aS'397'
p2288
aS'4829'
p2289
ag192
aa(lp2290
g2
aS'15076'
p2291
aS'6257'
p2292
aS'7398'
p2293
aS'1504'
p2294
aS'1916'
p2295
aS'3113'
p2296
ag9
aa(lp2297
g2
aS'6338'
p2298
aS'2256'
p2299
aS'1668'
p2300
aS'1492'
p2301
aS'311'
p2302
aS'686'
p2303
ag192
aa(lp2304
g2
aS'5841'
p2305
aS'1450'
p2306
aS'1162'
p2307
aS'597'
p2308
aS'476'
p2309
aS'70'
p2310
ag192
aa(lp2311
g2
aS'3136'
p2312
aS'8630'
p2313
aS'13586'
p2314
aS'5641'
p2315
aS'4666'
p2316
aS'1426'
p2317
ag9
aa(lp2318
g2
aS'38793'
p2319
aS'3154'
p2320
aS'2648'
p2321
aS'1034'
p2322
aS'96'
p2323
aS'1242'
p2324
ag192
aa(lp2325
g2
aS'3225'
p2326
aS'3294'
p2327
aS'1902'
p2328
aS'282'
p2329
aS'68'
p2330
aS'1114'
p2331
ag192
aa(lp2332
g2
aS'4048'
p2333
aS'5164'
p2334
aS'10391'
p2335
aS'130'
p2336
aS'813'
p2337
aS'179'
p2338
ag9
aa(lp2339
g2
aS'28257'
p2340
aS'944'
p2341
aS'2146'
p2342
aS'3881'
p2343
aS'600'
p2344
aS'270'
p2345
ag192
aa(lp2346
g2
aS'17770'
p2347
aS'4591'
p2348
aS'1617'
p2349
aS'9927'
p2350
aS'246'
p2351
aS'532'
p2352
ag192
aa(lp2353
g2
aS'34454'
p2354
aS'7435'
p2355
aS'8469'
p2356
aS'2540'
p2357
aS'1711'
p2358
aS'2893'
p2359
ag192
aa(lp2360
g2
aS'1821'
p2361
aS'1364'
p2362
aS'3450'
p2363
aS'4006'
p2364
aS'397'
p2365
aS'361'
p2366
ag192
aa(lp2367
g2
aS'10683'
p2368
aS'21858'
p2369
aS'15400'
p2370
aS'3635'
p2371
aS'282'
p2372
aS'5120'
p2373
ag192
aa(lp2374
g2
aS'11635'
p2375
aS'922'
p2376
aS'1614'
p2377
aS'2583'
p2378
aS'192'
p2379
aS'1068'
p2380
ag192
aa(lp2381
g2
aS'1206'
p2382
aS'3620'
p2383
aS'2857'
p2384
aS'1945'
p2385
aS'353'
p2386
aS'967'
p2387
ag192
aa(lp2388
g2
aS'20918'
p2389
aS'1916'
p2390
aS'1573'
p2391
aS'1960'
p2392
aS'231'
p2393
aS'961'
p2394
ag192
aa(lp2395
g2
aS'9785'
p2396
aS'848'
p2397
aS'1172'
p2398
aS'1677'
p2399
aS'200'
p2400
aS'406'
p2401
ag192
aa(lp2402
g2
aS'9385'
p2403
aS'1530'
p2404
aS'1422'
p2405
aS'3019'
p2406
aS'227'
p2407
aS'684'
p2408
ag192
aa(lp2409
g2
aS'3352'
p2410
aS'1181'
p2411
aS'1328'
p2412
aS'5502'
p2413
aS'311'
p2414
aS'1000'
p2415
ag192
aa(lp2416
g2
aS'2647'
p2417
aS'2761'
p2418
aS'2313'
p2419
aS'907'
p2420
aS'95'
p2421
aS'1827'
p2422
ag192
aa(lp2423
g2
aS'518'
p2424
aS'4180'
p2425
aS'3600'
p2426
aS'659'
p2427
aS'122'
p2428
aS'654'
p2429
ag192
aa(lp2430
g2
aS'23632'
p2431
aS'6730'
p2432
aS'3842'
p2433
aS'8620'
p2434
aS'385'
p2435
aS'819'
p2436
ag192
aa(lp2437
g2
aS'12377'
p2438
aS'865'
p2439
aS'3204'
p2440
aS'1398'
p2441
aS'149'
p2442
aS'452'
p2443
ag192
aa(lp2444
g2
aS'9602'
p2445
aS'1316'
p2446
aS'1263'
p2447
aS'2921'
p2448
aS'841'
p2449
aS'290'
p2450
ag192
aa(lp2451
g2
aS'4515'
p2452
aS'11991'
p2453
aS'9345'
p2454
aS'2644'
p2455
aS'3378'
p2456
aS'2213'
p2457
ag9
aa(lp2458
g2
aS'11535'
p2459
aS'1666'
p2460
aS'1428'
p2461
aS'6838'
p2462
aS'64'
p2463
aS'743'
p2464
ag192
aa(lp2465
g2
aS'11442'
p2466
aS'1032'
p2467
aS'582'
p2468
aS'5390'
p2469
aS'74'
p2470
aS'247'
p2471
ag192
aa(lp2472
g2
aS'9612'
p2473
aS'577'
p2474
aS'935'
p2475
aS'1601'
p2476
aS'469'
p2477
aS'375'
p2478
ag192
aa(lp2479
g2
aS'4446'
p2480
aS'906'
p2481
aS'1238'
p2482
aS'3576'
p2483
aS'153'
p2484
aS'1014'
p2485
ag192
aa(lp2486
g2
aS'27167'
p2487
aS'2801'
p2488
aS'2128'
p2489
aS'13223'
p2490
aS'92'
p2491
aS'1902'
p2492
ag192
aa(lp2493
g2
aS'26539'
p2494
aS'4753'
p2495
aS'5091'
p2496
aS'220'
p2497
aS'10'
p2498
aS'340'
p2499
ag192
aa(lp2500
g2
aS'25606'
p2501
aS'11006'
p2502
aS'4604'
p2503
aS'127'
p2504
aS'632'
p2505
aS'288'
p2506
ag192
aa(lp2507
g2
aS'18073'
p2508
aS'4613'
p2509
aS'3444'
p2510
aS'4324'
p2511
aS'914'
p2512
aS'715'
p2513
ag192
aa(lp2514
g2
aS'6884'
p2515
aS'1046'
p2516
aS'1167'
p2517
aS'2069'
p2518
aS'593'
p2519
aS'378'
p2520
ag192
aa(lp2521
g2
aS'25066'
p2522
aS'5010'
p2523
aS'5026'
p2524
aS'9806'
p2525
aS'1092'
p2526
aS'960'
p2527
ag192
aa(lp2528
g2
aS'7362'
p2529
aS'12844'
p2530
aS'18683'
p2531
aS'2854'
p2532
aS'7883'
p2533
aS'553'
p2534
ag9
aa(lp2535
g2
aS'8257'
p2536
aS'3880'
p2537
aS'6407'
p2538
aS'1646'
p2539
aS'2730'
p2540
aS'344'
p2541
ag9
aa(lp2542
g2
aS'8708'
p2543
aS'3634'
p2544
aS'6100'
p2545
aS'2349'
p2546
aS'2123'
p2547
aS'5137'
p2548
ag192
aa(lp2549
g2
aS'6633'
p2550
aS'2096'
p2551
aS'4563'
p2552
aS'1389'
p2553
aS'1860'
p2554
aS'1892'
p2555
ag192
aa(lp2556
g2
aS'2126'
p2557
aS'3289'
p2558
aS'3281'
p2559
aS'1535'
p2560
aS'235'
p2561
aS'4365'
p2562
ag192
aa(lp2563
g2
aS'97'
p2564
aS'3605'
p2565
aS'12400'
p2566
aS'98'
p2567
aS'2970'
p2568
aS'62'
p2569
ag192
aa(lp2570
g2
aS'4983'
p2571
aS'4859'
p2572
aS'6633'
p2573
aS'17866'
p2574
aS'912'
p2575
aS'2435'
p2576
ag192
aa(lp2577
g2
aS'5969'
p2578
aS'1990'
p2579
aS'3417'
p2580
aS'5679'
p2581
aS'1135'
p2582
aS'290'
p2583
ag192
aa(lp2584
g2
aS'7842'
p2585
aS'6046'
p2586
aS'8552'
p2587
aS'1691'
p2588
aS'3540'
p2589
aS'1874'
p2590
ag9
aa(lp2591
g2
aS'4389'
p2592
aS'10940'
p2593
aS'10908'
p2594
aS'848'
p2595
aS'6728'
p2596
aS'993'
p2597
ag9
aa(lp2598
g2
aS'5065'
p2599
aS'5499'
p2600
aS'11055'
p2601
aS'364'
p2602
aS'3485'
p2603
aS'1063'
p2604
ag192
aa(lp2605
g2
aS'660'
p2606
aS'8494'
p2607
aS'18622'
p2608
aS'133'
p2609
aS'6740'
p2610
aS'776'
p2611
ag9
aa(lp2612
g2
aS'8861'
p2613
aS'3783'
p2614
aS'2223'
p2615
aS'633'
p2616
aS'1580'
p2617
aS'1521'
p2618
ag192
aa(lp2619
g2
aS'4456'
p2620
aS'5266'
p2621
aS'13227'
p2622
aS'25'
p2623
aS'6818'
p2624
aS'1393'
p2625
ag192
aa(lp2626
g2
aS'17063'
p2627
aS'4847'
p2628
aS'9053'
p2629
aS'1031'
p2630
aS'3415'
p2631
aS'1784'
p2632
ag9
aa(lp2633
g2
aS'26400'
p2634
aS'1377'
p2635
aS'4172'
p2636
aS'830'
p2637
aS'948'
p2638
aS'1218'
p2639
ag192
aa(lp2640
g2
aS'17565'
p2641
aS'3686'
p2642
aS'4657'
p2643
aS'1059'
p2644
aS'1803'
p2645
aS'668'
p2646
ag9
aa(lp2647
g2
aS'16980'
p2648
aS'2884'
p2649
aS'12232'
p2650
aS'874'
p2651
aS'3213'
p2652
aS'249'
p2653
ag9
aa(lp2654
g2
aS'11243'
p2655
aS'2408'
p2656
aS'2593'
p2657
aS'15348'
p2658
aS'108'
p2659
aS'1886'
p2660
ag192
aa(lp2661
g2
aS'13134'
p2662
aS'9347'
p2663
aS'14316'
p2664
aS'3141'
p2665
aS'5079'
p2666
aS'1894'
p2667
ag192
aa(lp2668
g2
aS'31012'
p2669
aS'16687'
p2670
aS'5429'
p2671
aS'15082'
p2672
aS'439'
p2673
aS'1163'
p2674
ag192
aa(lp2675
g2
aS'3047'
p2676
aS'5970'
p2677
aS'4910'
p2678
aS'2198'
p2679
aS'850'
p2680
aS'317'
p2681
ag192
aa(lp2682
g2
aS'8607'
p2683
aS'1750'
p2684
aS'3580'
p2685
aS'47'
p2686
aS'84'
p2687
aS'2501'
p2688
ag192
aa(lp2689
g2
aS'3097'
p2690
aS'4230'
p2691
aS'16483'
p2692
aS'575'
p2693
aS'241'
p2694
aS'2080'
p2695
ag192
aa(lp2696
g2
aS'8533'
p2697
aS'5506'
p2698
aS'5160'
p2699
aS'13486'
p2700
aS'1377'
p2701
aS'1498'
p2702
ag192
aa(lp2703
g2
aS'21117'
p2704
aS'1162'
p2705
aS'4754'
p2706
aS'269'
p2707
aS'1328'
p2708
aS'395'
p2709
ag192
aa(lp2710
g2
aS'1982'
p2711
aS'3218'
p2712
aS'1493'
p2713
aS'1541'
p2714
aS'356'
p2715
aS'1449'
p2716
ag192
aa(lp2717
g2
aS'16731'
p2718
aS'3922'
p2719
aS'7994'
p2720
aS'688'
p2721
aS'2371'
p2722
aS'838'
p2723
ag192
aa(lp2724
g2
aS'29703'
p2725
aS'12051'
p2726
aS'16027'
p2727
aS'13135'
p2728
aS'182'
p2729
aS'2204'
p2730
ag192
aa(lp2731
g2
aS'39228'
p2732
aS'1431'
p2733
aS'764'
p2734
aS'4510'
p2735
aS'93'
p2736
aS'2346'
p2737
ag192
aa(lp2738
g2
aS'14531'
p2739
aS'15488'
p2740
aS'30243'
p2741
aS'437'
p2742
aS'14841'
p2743
aS'1867'
p2744
ag9
aa(lp2745
g2
aS'10290'
p2746
aS'1981'
p2747
aS'2232'
p2748
aS'1038'
p2749
aS'168'
p2750
aS'2125'
p2751
ag192
aa(lp2752
g2
aS'2787'
p2753
aS'1698'
p2754
aS'2510'
p2755
aS'65'
p2756
aS'477'
p2757
aS'52'
p2758
ag192
aa.