(lp0
(lp1
S'3'
p2
aS'12669'
p3
aS'9656'
p4
aS'7561'
p5
aS'214'
p6
aS'2674'
p7
aS'1338'
p8
aS'2'
p9
aa(lp10
g2
aS'7057'
p11
aS'9810'
p12
aS'9568'
p13
aS'1762'
p14
aS'3293'
p15
aS'1776'
p16
ag9
aa(lp17
g2
aS'6353'
p18
aS'8808'
p19
aS'7684'
p20
aS'2405'
p21
aS'3516'
p22
aS'7844'
p23
ag9
aa(lp24
g2
aS'13265'
p25
aS'1196'
p26
aS'4221'
p27
aS'6404'
p28
aS'507'
p29
aS'1788'
p30
aS'1'
p31
aa(lp32
g2
aS'22615'
p33
aS'5410'
p34
aS'7198'
p35
aS'3915'
p36
aS'1777'
p37
aS'5185'
p38
ag9
aa(lp39
g2
aS'9413'
p40
aS'8259'
p41
aS'5126'
p42
aS'666'
p43
aS'1795'
p44
aS'1451'
p45
ag9
aa(lp46
g2
aS'12126'
p47
aS'3199'
p48
aS'6975'
p49
aS'480'
p50
aS'3140'
p51
aS'545'
p52
ag9
aa(lp53
g2
aS'7579'
p54
aS'4956'
p55
aS'9426'
p56
aS'1669'
p57
aS'3321'
p58
aS'2566'
p59
ag9
aa(lp60
g2
aS'5963'
p61
aS'3648'
p62
aS'6192'
p63
aS'425'
p64
aS'1716'
p65
aS'750'
p66
ag31
aa(lp67
g2
aS'6006'
p68
aS'11093'
p69
aS'18881'
p70
aS'1159'
p71
aS'7425'
p72
aS'2098'
p73
ag9
aa(lp74
g2
aS'3366'
p75
aS'5403'
p76
aS'12974'
p77
aS'4400'
p78
aS'5977'
p79
aS'1744'
p80
ag9
aa(lp81
g2
aS'13146'
p82
aS'1124'
p83
aS'4523'
p84
aS'1420'
p85
aS'549'
p86
aS'497'
p87
ag9
aa(lp88
g2
aS'31714'
p89
aS'12319'
p90
aS'11757'
p91
aS'287'
p92
aS'3881'
p93
aS'2931'
p94
ag9
aa(lp95
g2
aS'21217'
p96
aS'6208'
p97
aS'14982'
p98
aS'3095'
p99
aS'6707'
p100
aS'602'
p101
ag9
aa(lp102
g2
aS'24653'
p103
aS'9465'
p104
aS'12091'
p105
aS'294'
p106
aS'5058'
p107
aS'2168'
p108
ag9
aa(lp109
g2
aS'10253'
p110
aS'1114'
p111
aS'3821'
p112
aS'397'
p113
aS'964'
p114
aS'412'
p115
ag31
aa(lp116
g2
aS'1020'
p117
aS'8816'
p118
aS'12121'
p119
aS'134'
p120
aS'4508'
p121
aS'1080'
p122
ag9
aa(lp123
g2
aS'5876'
p124
aS'6157'
p125
aS'2933'
p126
aS'839'
p127
aS'370'
p128
aS'4478'
p129
ag31
aa(lp130
g2
aS'18601'
p131
aS'6327'
p132
aS'10099'
p133
aS'2205'
p134
aS'2767'
p135
aS'3181'
p136
ag9
aa(lp137
g2
aS'7780'
p138
aS'2495'
p139
aS'9464'
p140
aS'669'
p141
aS'2518'
p142
aS'501'
p143
ag31
aa(lp144
g2
aS'17546'
p145
aS'4519'
p146
aS'4602'
p147
aS'1066'
p148
aS'2259'
p149
aS'2124'
p150
ag9
aa(lp151
g2
aS'5567'
p152
aS'871'
p153
aS'2010'
p154
aS'3383'
p155
aS'375'
p156
aS'569'
p157
ag31
aa(lp158
g2
aS'31276'
p159
aS'1917'
p160
aS'4469'
p161
aS'9408'
p162
aS'2381'
p163
aS'4334'
p164
ag31
aa(lp165
g2
aS'26373'
p166
aS'36423'
p167
aS'22019'
p168
aS'5154'
p169
aS'4337'
p170
aS'16523'
p171
ag9
aa(lp172
g2
aS'22647'
p173
aS'9776'
p174
aS'13792'
p175
aS'2915'
p176
aS'4482'
p177
aS'5778'
p178
ag9
aa(lp179
g2
aS'16165'
p180
aS'4230'
p181
aS'7595'
p182
aS'201'
p183
aS'4003'
p184
aS'57'
p185
ag9
aa(lp186
g2
aS'9898'
p187
aS'961'
p188
aS'2861'
p189
aS'3151'
p190
aS'242'
p191
aS'833'
p192
ag31
aa(lp193
g2
aS'14276'
p194
aS'803'
p195
aS'3045'
p196
aS'485'
p197
aS'100'
p198
aS'518'
p199
ag31
aa(lp200
g2
aS'4113'
p201
aS'20484'
p202
aS'25957'
p203
aS'1158'
p204
aS'8604'
p205
aS'5206'
p206
ag9
aa(lp207
g2
aS'43088'
p208
aS'2100'
p209
aS'2609'
p210
aS'1200'
p211
aS'1107'
p212
aS'823'
p213
ag31
aa(lp214
g2
aS'18815'
p215
aS'3610'
p216
aS'11107'
p217
aS'1148'
p218
aS'2134'
p219
aS'2963'
p220
ag31
aa(lp221
g2
aS'2612'
p222
aS'4339'
p223
aS'3133'
p224
aS'2088'
p225
aS'820'
p226
aS'985'
p227
ag31
aa(lp228
g2
aS'21632'
p229
aS'1318'
p230
aS'2886'
p231
aS'266'
p232
aS'918'
p233
aS'405'
p234
ag31
aa(lp235
g2
aS'29729'
p236
aS'4786'
p237
aS'7326'
p238
aS'6130'
p239
aS'361'
p240
aS'1083'
p241
ag31
aa(lp242
g2
aS'1502'
p243
aS'1979'
p244
aS'2262'
p245
aS'425'
p246
aS'483'
p247
aS'395'
p248
ag31
aa(lp249
g2
aS'688'
p250
aS'5491'
p251
aS'11091'
p252
aS'833'
p253
aS'4239'
p254
aS'436'
p255
ag9
aa(lp256
g2
aS'29955'
p257
aS'4362'
p258
aS'5428'
p259
aS'1729'
p260
aS'862'
p261
aS'4626'
p262
ag31
aa(lp263
g2
aS'15168'
p264
aS'10556'
p265
aS'12477'
p266
aS'1920'
p267
aS'6506'
p268
aS'714'
p269
ag9
aa(lp270
g2
aS'4591'
p271
aS'15729'
p272
aS'16709'
p273
aS'33'
p274
aS'6956'
p275
aS'433'
p276
ag9
aa(lp277
g2
aS'56159'
p278
aS'555'
p279
aS'902'
p280
aS'10002'
p281
aS'212'
p282
aS'2916'
p283
ag31
aa(lp284
g2
aS'24025'
p285
aS'4332'
p286
aS'4757'
p287
aS'9510'
p288
aS'1145'
p289
aS'5864'
p290
ag31
aa(lp291
g2
aS'19176'
p292
aS'3065'
p293
aS'5956'
p294
aS'2033'
p295
aS'2575'
p296
aS'2802'
p297
ag31
aa(lp298
g2
aS'10850'
p299
aS'7555'
p300
aS'14961'
p301
aS'188'
p302
aS'6899'
p303
aS'46'
p304
ag9
aa(lp305
g2
aS'630'
p306
aS'11095'
p307
aS'23998'
p308
aS'787'
p309
aS'9529'
p310
aS'72'
p311
ag9
aa(lp312
g2
aS'9670'
p313
aS'7027'
p314
aS'10471'
p315
aS'541'
p316
aS'4618'
p317
aS'65'
p318
ag9
aa(lp319
g2
aS'5181'
p320
aS'22044'
p321
aS'21531'
p322
aS'1740'
p323
aS'7353'
p324
aS'4985'
p325
ag9
aa(lp326
g2
aS'3103'
p327
aS'14069'
p328
aS'21955'
p329
aS'1668'
p330
aS'6792'
p331
aS'1452'
p332
ag9
aa(lp333
g2
aS'44466'
p334
aS'54259'
p335
aS'55571'
p336
aS'7782'
p337
aS'24171'
p338
aS'6465'
p339
ag9
aa(lp340
g2
aS'11519'
p341
aS'6152'
p342
aS'10868'
p343
aS'584'
p344
aS'5121'
p345
aS'1476'
p346
ag9
aa(lp347
g2
aS'4967'
p348
aS'21412'
p349
aS'28921'
p350
aS'1798'
p351
aS'13583'
p352
aS'1163'
p353
ag9
aa(lp354
g2
aS'6269'
p355
aS'1095'
p356
aS'1980'
p357
aS'3860'
p358
aS'609'
p359
aS'2162'
p360
ag31
aa(lp361
g2
aS'3347'
p362
aS'4051'
p363
aS'6996'
p364
aS'239'
p365
aS'1538'
p366
aS'301'
p367
ag31
aa(lp368
g2
aS'40721'
p369
aS'3916'
p370
aS'5876'
p371
aS'532'
p372
aS'2587'
p373
aS'1278'
p374
ag9
aa(lp375
g2
aS'491'
p376
aS'10473'
p377
aS'11532'
p378
aS'744'
p379
aS'5611'
p380
aS'224'
p381
ag9
aa(lp382
g2
aS'27329'
p383
aS'1449'
p384
aS'1947'
p385
aS'2436'
p386
aS'204'
p387
aS'1333'
p388
ag31
aa(lp389
g2
aS'5264'
p390
aS'3683'
p391
aS'5005'
p392
aS'1057'
p393
aS'2024'
p394
aS'1130'
p395
ag31
aa(lp396
g2
aS'4098'
p397
aS'29892'
p398
aS'26866'
p399
aS'2616'
p400
aS'17740'
p401
aS'1340'
p402
ag9
aa(lp403
g2
aS'5417'
p404
aS'9933'
p405
aS'10487'
p406
aS'38'
p407
aS'7572'
p408
aS'1282'
p409
ag9
aa(lp410
g2
aS'13779'
p411
aS'1970'
p412
aS'1648'
p413
aS'596'
p414
aS'227'
p415
aS'436'
p416
ag31
aa(lp417
g2
aS'6137'
p418
aS'5360'
p419
aS'8040'
p420
aS'129'
p421
aS'3084'
p422
aS'1603'
p423
ag31
aa(lp424
g2
aS'8590'
p425
aS'3045'
p426
aS'7854'
p427
aS'96'
p428
aS'4095'
p429
aS'225'
p430
ag9
aa(lp431
g2
aS'35942'
p432
aS'38369'
p433
aS'59598'
p434
aS'3254'
p435
aS'26701'
p436
aS'2017'
p437
ag9
aa(lp438
g2
aS'7823'
p439
aS'6245'
p440
aS'6544'
p441
aS'4154'
p442
aS'4074'
p443
aS'964'
p444
ag9
aa(lp445
g2
aS'9396'
p446
aS'11601'
p447
aS'15775'
p448
aS'2896'
p449
aS'7677'
p450
aS'1295'
p451
ag9
aa(lp452
g2
aS'4760'
p453
aS'1227'
p454
aS'3250'
p455
aS'3724'
p456
aS'1247'
p457
aS'1145'
p458
ag31
aa(lp459
g2
aS'85'
p460
aS'20959'
p461
aS'45828'
p462
aS'36'
p463
aS'24231'
p464
aS'1423'
p465
ag9
aa(lp466
g2
aS'9'
p467
aS'1534'
p468
aS'7417'
p469
aS'175'
p470
aS'3468'
p471
aS'27'
p472
ag31
aa(lp473
g2
aS'19913'
p474
aS'6759'
p475
aS'13462'
p476
aS'1256'
p477
aS'5141'
p478
aS'834'
p479
ag9
aa(lp480
g2
aS'2446'
p481
aS'7260'
p482
aS'3993'
p483
aS'5870'
p484
aS'788'
p485
aS'3095'
p486
ag31
aa(lp487
g2
aS'8352'
p488
aS'2820'
p489
aS'1293'
p490
aS'779'
p491
aS'656'
p492
aS'144'
p493
ag31
aa(lp494
g2
aS'16705'
p495
aS'2037'
p496
aS'3202'
p497
aS'10643'
p498
aS'116'
p499
aS'1365'
p500
ag31
aa(lp501
g2
aS'18291'
p502
aS'1266'
p503
aS'21042'
p504
aS'5373'
p505
aS'4173'
p506
aS'14472'
p507
ag31
aa(lp508
g2
aS'4420'
p509
aS'5139'
p510
aS'2661'
p511
aS'8872'
p512
aS'1321'
p513
aS'181'
p514
ag31
aa(lp515
g2
aS'19899'
p516
aS'5332'
p517
aS'8713'
p518
aS'8132'
p519
aS'764'
p520
aS'648'
p521
ag9
aa(lp522
g2
aS'8190'
p523
aS'6343'
p524
aS'9794'
p525
aS'1285'
p526
aS'1901'
p527
aS'1780'
p528
ag9
aa(lp529
g2
aS'20398'
p530
aS'1137'
p531
ag2
aS'4407'
p532
ag2
aS'975'
p533
ag31
aa(lp534
g2
aS'717'
p535
aS'3587'
p536
aS'6532'
p537
aS'7530'
p538
aS'529'
p539
aS'894'
p540
ag31
aa(lp541
g2
aS'12205'
p542
aS'12697'
p543
aS'28540'
p544
aS'869'
p545
aS'12034'
p546
aS'1009'
p547
ag9
aa(lp548
g2
aS'10766'
p549
aS'1175'
p550
aS'2067'
p551
aS'2096'
p552
aS'301'
p553
aS'167'
p554
ag31
aa(lp555
g2
aS'1640'
p556
aS'3259'
p557
aS'3655'
p558
aS'868'
p559
aS'1202'
p560
aS'1653'
p561
ag31
aa(lp562
g2
aS'7005'
p563
aS'829'
p564
aS'3009'
p565
aS'430'
p566
aS'610'
p567
aS'529'
p568
ag31
aa(lp569
g2
aS'20874'
p570
aS'1563'
p571
aS'1783'
p572
aS'2320'
p573
aS'550'
p574
aS'772'
p575
ag31
aa(lp576
g2
aS'43265'
p577
aS'5025'
p578
aS'8117'
p579
aS'6312'
p580
aS'1579'
p581
aS'14351'
p582
ag31
aa(lp583
g2
aS'7864'
p584
aS'542'
p585
aS'4042'
p586
aS'9735'
p587
aS'165'
p588
aS'46'
p589
ag31
aa(lp590
g2
aS'24904'
p591
aS'3836'
p592
aS'5330'
p593
aS'3443'
p594
aS'454'
p595
aS'3178'
p596
ag31
aa(lp597
g2
aS'11405'
p598
aS'596'
p599
aS'1638'
p600
aS'3347'
p601
aS'69'
p602
aS'360'
p603
ag31
aa(lp604
g2
aS'12754'
p605
aS'2762'
p606
aS'2530'
p607
aS'8693'
p608
aS'627'
p609
aS'1117'
p610
ag31
aa(lp611
g2
aS'11314'
p612
aS'3090'
p613
aS'2062'
p614
aS'35009'
p615
aS'71'
p616
aS'2698'
p617
ag31
aa(lp618
g2
ag2
aS'2920'
p619
aS'6252'
p620
aS'440'
p621
aS'223'
p622
aS'709'
p623
ag31
aa(lp624
g2
aS'403'
p625
aS'254'
p626
aS'610'
p627
aS'774'
p628
aS'54'
p629
aS'63'
p630
ag31
aa(lp631
g2
aS'503'
p632
aS'112'
p633
aS'778'
p634
aS'895'
p635
aS'56'
p636
aS'132'
p637
ag31
aa(lp638
g2
aS'9658'
p639
aS'2182'
p640
aS'1909'
p641
aS'5639'
p642
aS'215'
p643
aS'323'
p644
ag31
aa(lp645
g2
aS'56082'
p646
aS'3504'
p647
aS'8906'
p648
aS'18028'
p649
aS'1480'
p650
aS'2498'
p651
ag31
aa(lp652
g2
aS'14100'
p653
aS'2132'
p654
aS'3445'
p655
aS'1336'
p656
aS'1491'
p657
aS'548'
p658
ag31
aa(lp659
g2
aS'15587'
p660
aS'1014'
p661
aS'3970'
p662
aS'910'
p663
aS'139'
p664
aS'1378'
p665
ag31
aa(lp666
g2
aS'1406'
p667
aS'16729'
p668
aS'28986'
p669
aS'673'
p670
aS'836'
p671
ag2
ag9
aa(lp672
g2
aS'11818'
p673
aS'1648'
p674
aS'1694'
p675
aS'2276'
p676
aS'169'
p677
aS'1647'
p678
ag31
aa(lp679
g2
aS'12579'
p680
aS'11114'
p681
aS'17569'
p682
aS'805'
p683
aS'6457'
p684
aS'1519'
p685
ag9
aa(lp686
g2
aS'19046'
p687
aS'2770'
p688
aS'2469'
p689
aS'8853'
p690
aS'483'
p691
aS'2708'
p692
ag31
aa(lp693
g2
aS'14438'
p694
aS'2295'
p695
aS'1733'
p696
aS'3220'
p697
aS'585'
p698
aS'1561'
p699
ag31
aa(lp700
g2
aS'18044'
p701
aS'1080'
p702
aS'2000'
p703
aS'2555'
p704
aS'118'
p705
aS'1266'
p706
ag31
aa(lp707
g2
aS'11134'
p708
aS'793'
p709
aS'2988'
p710
aS'2715'
p711
aS'276'
p712
aS'610'
p713
ag31
aa(lp714
g2
aS'11173'
p715
aS'2521'
p716
aS'3355'
p717
aS'1517'
p718
aS'310'
p719
aS'222'
p720
ag31
aa(lp721
g2
aS'6990'
p722
aS'3880'
p723
aS'5380'
p724
aS'1647'
p725
aS'319'
p726
aS'1160'
p727
ag31
aa(lp728
g2
aS'20049'
p729
aS'1891'
p730
aS'2362'
p731
aS'5343'
p732
aS'411'
p733
aS'933'
p734
ag31
aa(lp735
g2
aS'8258'
p736
aS'2344'
p737
aS'2147'
p738
aS'3896'
p739
aS'266'
p740
aS'635'
p741
ag31
aa(lp742
g2
aS'17160'
p743
aS'1200'
p744
aS'3412'
p745
aS'2417'
p746
aS'174'
p747
aS'1136'
p748
ag31
aa(lp749
g2
aS'4020'
p750
aS'3234'
p751
aS'1498'
p752
aS'2395'
p753
aS'264'
p754
aS'255'
p755
ag31
aa(lp756
g2
aS'12212'
p757
aS'201'
p758
aS'245'
p759
aS'1991'
p760
aS'25'
p761
aS'860'
p762
ag31
aa(lp763
g2
aS'11170'
p764
aS'10769'
p765
aS'8814'
p766
aS'2194'
p767
aS'1976'
p768
aS'143'
p769
ag9
aa(lp770
g2
aS'36050'
p771
aS'1642'
p772
aS'2961'
p773
aS'4787'
p774
aS'500'
p775
aS'1621'
p776
ag31
aa(lp777
g2
aS'76237'
p778
aS'3473'
p779
aS'7102'
p780
aS'16538'
p781
aS'778'
p782
aS'918'
p783
ag31
aa(lp784
g2
aS'19219'
p785
aS'1840'
p786
aS'1658'
p787
aS'8195'
p788
aS'349'
p789
aS'483'
p790
ag31
aa(lp791
g2
aS'21465'
p792
aS'7243'
p793
aS'10685'
p794
aS'880'
p795
aS'2386'
p796
aS'2749'
p797
ag9
aa(lp798
g2
aS'140'
p799
aS'8847'
p800
aS'3823'
p801
aS'142'
p802
aS'1062'
p803
ag2
ag31
aa(lp804
g2
aS'42312'
p805
aS'926'
p806
aS'1510'
p807
aS'1718'
p808
aS'410'
p809
aS'1819'
p810
ag31
aa(lp811
g2
aS'7149'
p812
aS'2428'
p813
aS'699'
p814
aS'6316'
p815
aS'395'
p816
aS'911'
p817
ag31
aa(lp818
g2
aS'2101'
p819
aS'589'
p820
aS'314'
p821
aS'346'
p822
aS'70'
p823
aS'310'
p824
ag31
aa(lp825
g2
aS'14903'
p826
aS'2032'
p827
aS'2479'
p828
aS'576'
p829
aS'955'
p830
aS'328'
p831
ag31
aa(lp832
g2
aS'9434'
p833
aS'1042'
p834
aS'1235'
p835
aS'436'
p836
aS'256'
p837
aS'396'
p838
ag31
aa(lp839
g2
aS'7388'
p840
aS'1882'
p841
aS'2174'
p842
aS'720'
p843
aS'47'
p844
aS'537'
p845
ag31
aa(lp846
g2
aS'6300'
p847
aS'1289'
p848
aS'2591'
p849
aS'1170'
p850
aS'199'
p851
aS'326'
p852
ag31
aa(lp853
g2
aS'4625'
p854
aS'8579'
p855
aS'7030'
p856
aS'4575'
p857
aS'2447'
p858
aS'1542'
p859
ag31
aa(lp860
g2
aS'3087'
p861
aS'8080'
p862
aS'8282'
p863
aS'661'
p864
aS'721'
p865
aS'36'
p866
ag31
aa(lp867
g2
aS'13537'
p868
aS'4257'
p869
aS'5034'
p870
aS'155'
p871
aS'249'
p872
aS'3271'
p873
ag31
aa(lp874
g2
aS'5387'
p875
aS'4979'
p876
aS'3343'
p877
aS'825'
p878
aS'637'
p879
aS'929'
p880
ag31
aa(lp881
g2
aS'17623'
p882
aS'4280'
p883
aS'7305'
p884
aS'2279'
p885
aS'960'
p886
aS'2616'
p887
ag31
aa(lp888
g2
aS'30379'
p889
aS'13252'
p890
aS'5189'
p891
aS'321'
p892
aS'51'
p893
aS'1450'
p894
ag31
aa(lp895
g2
aS'37036'
p896
aS'7152'
p897
aS'8253'
p898
aS'2995'
p899
aS'20'
p900
ag2
ag31
aa(lp901
g2
aS'10405'
p902
aS'1596'
p903
aS'1096'
p904
aS'8425'
p905
aS'399'
p906
aS'318'
p907
ag31
aa(lp908
g2
aS'18827'
p909
aS'3677'
p910
aS'1988'
p911
aS'118'
p912
aS'516'
p913
aS'201'
p914
ag31
aa(lp915
g2
aS'22039'
p916
aS'8384'
p917
aS'34792'
p918
aS'42'
p919
aS'12591'
p920
aS'4430'
p921
ag9
aa(lp922
g2
aS'7769'
p923
aS'1936'
p924
aS'2177'
p925
aS'926'
p926
aS'73'
p927
aS'520'
p928
ag31
aa(lp929
g2
aS'9203'
p930
aS'3373'
p931
aS'2707'
p932
aS'1286'
p933
aS'1082'
p934
aS'526'
p935
ag31
aa(lp936
g2
aS'5924'
p937
aS'584'
p938
aS'542'
p939
aS'4052'
p940
aS'283'
p941
aS'434'
p942
ag31
aa(lp943
g2
aS'31812'
p944
aS'1433'
p945
aS'1651'
p946
aS'800'
p947
aS'113'
p948
aS'1440'
p949
ag31
aa(lp950
g2
aS'16225'
p951
aS'1825'
p952
aS'1765'
p953
aS'853'
p954
aS'170'
p955
aS'1067'
p956
ag31
aa(lp957
g2
aS'1289'
p958
aS'3328'
p959
aS'2022'
p960
aS'531'
p961
aS'255'
p962
aS'1774'
p963
ag31
aa(lp964
g2
aS'18840'
p965
aS'1371'
p966
aS'3135'
p967
aS'3001'
p968
aS'352'
p969
aS'184'
p970
ag31
aa(lp971
g2
aS'1989'
p972
aS'10690'
p973
aS'19460'
p974
aS'233'
p975
aS'11577'
p976
aS'2153'
p977
ag9
aa(lp978
g2
aS'3830'
p979
aS'5291'
p980
aS'14855'
p981
aS'317'
p982
aS'6694'
p983
aS'3182'
p984
ag9
aa(lp985
g2
aS'2861'
p986
aS'6570'
p987
aS'9618'
p988
aS'930'
p989
aS'4004'
p990
aS'1682'
p991
ag9
aa(lp992
g2
aS'355'
p993
aS'7704'
p994
aS'14682'
p995
aS'398'
p996
aS'8077'
p997
aS'303'
p998
ag9
aa(lp999
g2
aS'1725'
p1000
aS'3651'
p1001
aS'12822'
p1002
aS'824'
p1003
aS'4424'
p1004
aS'2157'
p1005
ag9
aa(lp1006
g2
aS'5531'
p1007
aS'15726'
p1008
aS'26870'
p1009
aS'2367'
p1010
aS'13726'
p1011
aS'446'
p1012
ag9
aa(lp1013
g2
aS'5224'
p1014
aS'7603'
p1015
aS'8584'
p1016
aS'2540'
p1017
aS'3674'
p1018
aS'238'
p1019
ag9
aa(lp1020
g2
aS'15615'
p1021
aS'12653'
p1022
aS'19858'
p1023
aS'4425'
p1024
aS'7108'
p1025
aS'2379'
p1026
ag9
aa(lp1027
g2
aS'4822'
p1028
aS'6721'
p1029
aS'9170'
p1030
aS'993'
p1031
aS'4973'
p1032
aS'3637'
p1033
ag9
aa(lp1034
g2
aS'260'
p1035
aS'8675'
p1036
aS'13430'
p1037
aS'1116'
p1038
aS'7015'
p1039
aS'323'
p1040
ag9
aa(lp1041
g2
aS'200'
p1042
aS'25862'
p1043
aS'19816'
p1044
aS'651'
p1045
aS'8773'
p1046
aS'6250'
p1047
ag9
aa(lp1048
g2
aS'514'
p1049
aS'7677'
p1050
aS'19805'
p1051
aS'937'
p1052
aS'9836'
p1053
aS'716'
p1054
ag9
aa(lp1055
g2
aS'2343'
p1056
aS'7845'
p1057
aS'11874'
p1058
aS'52'
p1059
aS'4196'
p1060
aS'1697'
p1061
ag9
aa(lp1062
g2
aS'8040'
p1063
aS'7639'
p1064
aS'11687'
p1065
aS'2758'
p1066
aS'6839'
p1067
aS'404'
p1068
ag9
aa(lp1069
g2
aS'834'
p1070
aS'11577'
p1071
aS'11522'
p1072
aS'275'
p1073
aS'4027'
p1074
aS'1856'
p1075
ag9
aa(lp1076
g2
aS'180'
p1077
aS'3485'
p1078
aS'20292'
p1079
aS'959'
p1080
aS'5618'
p1081
aS'666'
p1082
ag9
aa(lp1083
g31
aS'2427'
p1084
aS'7097'
p1085
aS'10391'
p1086
aS'1127'
p1087
aS'4314'
p1088
aS'1468'
p1089
ag9
aa(lp1090
g31
aS'3067'
p1091
aS'13240'
p1092
aS'23127'
p1093
aS'3941'
p1094
aS'9959'
p1095
aS'731'
p1096
ag9
aa(lp1097
g31
aS'4484'
p1098
aS'14399'
p1099
aS'24708'
p1100
aS'3549'
p1101
aS'14235'
p1102
aS'1681'
p1103
ag9
aa(lp1104
g31
aS'25203'
p1105
aS'11487'
p1106
aS'9490'
p1107
aS'5065'
p1108
aS'284'
p1109
aS'6854'
p1110
ag31
aa(lp1111
g31
aS'583'
p1112
aS'685'
p1113
aS'2216'
p1114
aS'469'
p1115
aS'954'
p1116
aS'18'
p1117
ag31
aa(lp1118
g31
aS'1956'
p1119
aS'891'
p1120
aS'5226'
p1121
aS'1383'
p1122
aS'5'
p1123
aS'1328'
p1124
ag31
aa(lp1125
g31
aS'1107'
p1126
aS'11711'
p1127
aS'23596'
p1128
aS'955'
p1129
aS'9265'
p1130
aS'710'
p1131
ag9
aa(lp1132
g31
aS'6373'
p1133
aS'780'
p1134
aS'950'
p1135
aS'878'
p1136
aS'288'
p1137
aS'285'
p1138
ag31
aa(lp1139
g31
aS'2541'
p1140
aS'4737'
p1141
aS'6089'
p1142
aS'2946'
p1143
aS'5316'
p1144
aS'120'
p1145
ag9
aa(lp1146
g31
aS'1537'
p1147
aS'3748'
p1148
aS'5838'
p1149
aS'1859'
p1150
aS'3381'
p1151
aS'806'
p1152
ag31
aa(lp1153
g31
aS'5550'
p1154
aS'12729'
p1155
aS'16767'
p1156
aS'864'
p1157
aS'12420'
p1158
aS'797'
p1159
ag9
aa(lp1160
g31
aS'18567'
p1161
aS'1895'
p1162
aS'1393'
p1163
aS'1801'
p1164
aS'244'
p1165
aS'2100'
p1166
ag31
aa(lp1167
g31
aS'12119'
p1168
aS'28326'
p1169
aS'39694'
p1170
aS'4736'
p1171
aS'19410'
p1172
aS'2870'
p1173
ag9
aa(lp1174
g31
aS'7291'
p1175
aS'1012'
p1176
aS'2062'
p1177
aS'1291'
p1178
aS'240'
p1179
aS'1775'
p1180
ag31
aa(lp1181
g31
aS'3317'
p1182
aS'6602'
p1183
aS'6861'
p1184
aS'1329'
p1185
aS'3961'
p1186
aS'1215'
p1187
ag31
aa(lp1188
g31
aS'2362'
p1189
aS'6551'
p1190
aS'11364'
p1191
aS'913'
p1192
aS'5957'
p1193
aS'791'
p1194
ag9
aa(lp1195
g31
aS'2806'
p1196
aS'10765'
p1197
aS'15538'
p1198
aS'1374'
p1199
aS'5828'
p1200
aS'2388'
p1201
ag31
aa(lp1202
g31
aS'2532'
p1203
aS'16599'
p1204
aS'36486'
p1205
aS'179'
p1206
aS'13308'
p1207
aS'674'
p1208
ag9
aa(lp1209
g31
aS'18044'
p1210
aS'1475'
p1211
aS'2046'
p1212
aS'2532'
p1213
aS'130'
p1214
aS'1158'
p1215
ag31
aa(lp1216
g31
aS'18'
p1217
aS'7504'
p1218
aS'15205'
p1219
aS'1285'
p1220
aS'4797'
p1221
aS'6372'
p1222
ag9
aa(lp1223
g31
aS'4155'
p1224
aS'367'
p1225
aS'1390'
p1226
aS'2306'
p1227
aS'86'
p1228
aS'130'
p1229
ag31
aa(lp1230
g31
aS'14755'
p1231
aS'899'
p1232
aS'1382'
p1233
aS'1765'
p1234
aS'56'
p1235
aS'749'
p1236
ag31
aa(lp1237
g31
aS'5396'
p1238
aS'7503'
p1239
aS'10646'
p1240
aS'91'
p1241
aS'4167'
p1242
aS'239'
p1243
ag31
aa(lp1244
g31
aS'5041'
p1245
aS'1115'
p1246
aS'2856'
p1247
aS'7496'
p1248
aS'256'
p1249
aS'375'
p1250
ag31
aa(lp1251
g31
aS'2790'
p1252
aS'2527'
p1253
aS'5265'
p1254
aS'5612'
p1255
aS'788'
p1256
aS'1360'
p1257
ag9
aa(lp1258
g31
aS'7274'
p1259
aS'659'
p1260
aS'1499'
p1261
aS'784'
p1262
aS'70'
p1263
aS'659'
p1264
ag31
aa(lp1265
g31
aS'12680'
p1266
aS'3243'
p1267
aS'4157'
p1268
aS'660'
p1269
aS'761'
p1270
aS'786'
p1271
ag31
aa(lp1272
g31
aS'20782'
p1273
aS'5921'
p1274
aS'9212'
p1275
aS'1759'
p1276
aS'2568'
p1277
aS'1553'
p1278
ag9
aa(lp1279
g31
aS'4042'
p1280
aS'2204'
p1281
aS'1563'
p1282
aS'2286'
p1283
aS'263'
p1284
aS'689'
p1285
ag31
aa(lp1286
g31
aS'1869'
p1287
aS'577'
p1288
aS'572'
p1289
aS'950'
p1290
aS'4762'
p1291
aS'203'
p1292
ag31
aa(lp1293
g31
aS'8656'
p1294
aS'2746'
p1295
aS'2501'
p1296
aS'6845'
p1297
aS'694'
p1298
aS'980'
p1299
ag31
aa(lp1300
g31
aS'11072'
p1301
aS'5989'
p1302
aS'5615'
p1303
aS'8321'
p1304
aS'955'
p1305
aS'2137'
p1306
ag9
aa(lp1307
g31
aS'2344'
p1308
aS'10678'
p1309
aS'3828'
p1310
aS'1439'
p1311
aS'1566'
p1312
aS'490'
p1313
ag31
aa(lp1314
g31
aS'25962'
p1315
aS'1780'
p1316
aS'3838'
p1317
aS'638'
p1318
aS'284'
p1319
aS'834'
p1320
ag31
aa(lp1321
g31
aS'964'
p1322
aS'4984'
p1323
aS'3316'
p1324
aS'937'
p1325
aS'409'
p1326
aS'7'
p1327
ag31
aa(lp1328
g31
aS'15603'
p1329
aS'2703'
p1330
aS'3833'
p1331
aS'4260'
p1332
aS'325'
p1333
aS'2563'
p1334
ag31
aa(lp1335
g31
aS'1838'
p1336
aS'6380'
p1337
aS'2824'
p1338
aS'1218'
p1339
aS'1216'
p1340
aS'295'
p1341
ag31
aa(lp1342
g31
aS'8635'
p1343
aS'820'
p1344
aS'3047'
p1345
aS'2312'
p1346
aS'415'
p1347
aS'225'
p1348
ag31
aa(lp1349
g31
aS'18692'
p1350
aS'3838'
p1351
aS'593'
p1352
aS'4634'
p1353
aS'28'
p1354
aS'1215'
p1355
ag31
aa(lp1356
g31
aS'7363'
p1357
aS'475'
p1358
aS'585'
p1359
aS'1112'
p1360
aS'72'
p1361
aS'216'
p1362
ag31
aa(lp1363
g31
aS'47493'
p1364
aS'2567'
p1365
aS'3779'
p1366
aS'5243'
p1367
aS'828'
p1368
aS'2253'
p1369
ag31
aa(lp1370
g31
aS'22096'
p1371
aS'3575'
p1372
aS'7041'
p1373
aS'11422'
p1374
aS'343'
p1375
aS'2564'
p1376
ag31
aa(lp1377
g31
aS'24929'
p1378
aS'1801'
p1379
aS'2475'
p1380
aS'2216'
p1381
aS'412'
p1382
aS'1047'
p1383
ag31
aa(lp1384
g31
aS'18226'
p1385
aS'659'
p1386
aS'2914'
p1387
aS'3752'
p1388
aS'586'
p1389
aS'578'
p1390
ag31
aa(lp1391
g31
aS'11210'
p1392
aS'3576'
p1393
aS'5119'
p1394
aS'561'
p1395
aS'1682'
p1396
aS'2398'
p1397
ag31
aa(lp1398
g31
aS'6202'
p1399
aS'7775'
p1400
aS'10817'
p1401
aS'1183'
p1402
aS'3143'
p1403
aS'1970'
p1404
ag31
aa(lp1405
g31
aS'3062'
p1406
aS'6154'
p1407
aS'13916'
p1408
aS'230'
p1409
aS'8933'
p1410
aS'2784'
p1411
ag9
aa(lp1412
g31
aS'8885'
p1413
aS'2428'
p1414
aS'1777'
p1415
aS'1777'
p1416
aS'430'
p1417
aS'610'
p1418
ag31
aa(lp1419
g31
aS'13569'
p1420
aS'346'
p1421
aS'489'
p1422
aS'2077'
p1423
aS'44'
p1424
aS'659'
p1425
ag31
aa(lp1426
g31
aS'15671'
p1427
aS'5279'
p1428
aS'2406'
p1429
aS'559'
p1430
aS'562'
p1431
aS'572'
p1432
ag31
aa(lp1433
g31
aS'8040'
p1434
aS'3795'
p1435
aS'2070'
p1436
aS'6340'
p1437
aS'918'
p1438
aS'291'
p1439
ag31
aa(lp1440
g31
aS'3191'
p1441
aS'1993'
p1442
aS'1799'
p1443
aS'1730'
p1444
aS'234'
p1445
aS'710'
p1446
ag31
aa(lp1447
g31
aS'6134'
p1448
aS'23133'
p1449
aS'33586'
p1450
aS'6746'
p1451
aS'18594'
p1452
aS'5121'
p1453
ag9
aa(lp1454
g31
aS'6623'
p1455
aS'1860'
p1456
aS'4740'
p1457
aS'7683'
p1458
aS'205'
p1459
aS'1693'
p1460
ag31
aa(lp1461
g31
aS'29526'
p1462
aS'7961'
p1463
aS'16966'
p1464
aS'432'
p1465
aS'363'
p1466
aS'1391'
p1467
ag31
aa(lp1468
g31
aS'10379'
p1469
aS'17972'
p1470
aS'4748'
p1471
aS'4686'
p1472
aS'1547'
p1473
aS'3265'
p1474
ag31
aa(lp1475
g31
aS'31614'
p1476
aS'489'
p1477
aS'1495'
p1478
aS'3242'
p1479
aS'111'
p1480
aS'615'
p1481
ag31
aa(lp1482
g31
aS'11092'
p1483
aS'5008'
p1484
aS'5249'
p1485
aS'453'
p1486
aS'392'
p1487
aS'373'
p1488
ag31
aa(lp1489
g31
aS'8475'
p1490
aS'1931'
p1491
aS'1883'
p1492
aS'5004'
p1493
aS'3593'
p1494
aS'987'
p1495
ag31
aa(lp1496
g31
aS'56083'
p1497
aS'4563'
p1498
aS'2124'
p1499
aS'6422'
p1500
aS'730'
p1501
aS'3321'
p1502
ag31
aa(lp1503
g31
aS'53205'
p1504
aS'4959'
p1505
aS'7336'
p1506
aS'3012'
p1507
aS'967'
p1508
aS'818'
p1509
ag31
aa(lp1510
g31
aS'9193'
p1511
aS'4885'
p1512
aS'2157'
p1513
aS'327'
p1514
aS'780'
p1515
aS'548'
p1516
ag31
aa(lp1517
g31
aS'7858'
p1518
aS'1110'
p1519
aS'1094'
p1520
aS'6818'
p1521
aS'49'
p1522
aS'287'
p1523
ag31
aa(lp1524
g31
aS'23257'
p1525
aS'1372'
p1526
aS'1677'
p1527
aS'982'
p1528
aS'429'
p1529
aS'655'
p1530
ag31
aa(lp1531
g31
aS'2153'
p1532
aS'1115'
p1533
aS'6684'
p1534
aS'4324'
p1535
aS'2894'
p1536
aS'411'
p1537
ag31
aa(lp1538
g31
aS'1073'
p1539
aS'9679'
p1540
aS'15445'
p1541
aS'61'
p1542
aS'5980'
p1543
aS'1265'
p1544
ag9
aa(lp1545
g31
aS'5909'
p1546
aS'23527'
p1547
aS'13699'
p1548
aS'10155'
p1549
aS'830'
p1550
aS'3636'
p1551
ag31
aa(lp1552
g31
aS'572'
p1553
aS'9763'
p1554
aS'22182'
p1555
aS'2221'
p1556
aS'4882'
p1557
aS'2563'
p1558
ag9
aa(lp1559
g31
aS'20893'
p1560
aS'1222'
p1561
aS'2576'
p1562
aS'3975'
p1563
aS'737'
p1564
aS'3628'
p1565
ag31
aa(lp1566
g31
aS'11908'
p1567
aS'8053'
p1568
aS'19847'
p1569
aS'1069'
p1570
aS'6374'
p1571
aS'698'
p1572
ag9
aa(lp1573
g31
aS'15218'
p1574
aS'258'
p1575
aS'1138'
p1576
aS'2516'
p1577
aS'333'
p1578
aS'204'
p1579
ag31
aa(lp1580
g31
aS'4720'
p1581
aS'1032'
p1582
aS'975'
p1583
aS'5500'
p1584
aS'197'
p1585
aS'56'
p1586
ag31
aa(lp1587
g31
aS'2083'
p1588
aS'5007'
p1589
aS'1563'
p1590
aS'1120'
p1591
aS'147'
p1592
aS'1550'
p1593
ag31
aa(lp1594
g31
aS'514'
p1595
aS'8323'
p1596
aS'6869'
p1597
aS'529'
p1598
aS'93'
p1599
aS'1040'
p1600
ag31
aa(lp1601
g2
aS'36817'
p1602
aS'3045'
p1603
aS'1493'
p1604
aS'4802'
p1605
aS'210'
p1606
aS'1824'
p1607
ag31
aa(lp1608
g2
aS'894'
p1609
aS'1703'
p1610
aS'1841'
p1611
aS'744'
p1612
aS'759'
p1613
aS'1153'
p1614
ag31
aa(lp1615
g2
aS'680'
p1616
aS'1610'
p1617
aS'223'
p1618
aS'862'
p1619
aS'96'
p1620
aS'379'
p1621
ag31
aa(lp1622
g2
aS'27901'
p1623
aS'3749'
p1624
aS'6964'
p1625
aS'4479'
p1626
aS'603'
p1627
aS'2503'
p1628
ag31
aa(lp1629
g2
aS'9061'
p1630
aS'829'
p1631
aS'683'
p1632
aS'16919'
p1633
aS'621'
p1634
aS'139'
p1635
ag31
aa(lp1636
g2
aS'11693'
p1637
aS'2317'
p1638
aS'2543'
p1639
aS'5845'
p1640
aS'274'
p1641
aS'1409'
p1642
ag31
aa(lp1643
g2
aS'17360'
p1644
aS'6200'
p1645
aS'9694'
p1646
aS'1293'
p1647
aS'3620'
p1648
aS'1721'
p1649
ag9
aa(lp1650
g2
aS'3366'
p1651
aS'2884'
p1652
aS'2431'
p1653
aS'977'
p1654
aS'167'
p1655
aS'1104'
p1656
ag31
aa(lp1657
g2
aS'12238'
p1658
aS'7108'
p1659
aS'6235'
p1660
aS'1093'
p1661
aS'2328'
p1662
aS'2079'
p1663
ag9
aa(lp1664
g2
aS'49063'
p1665
aS'3965'
p1666
aS'4252'
p1667
aS'5970'
p1668
aS'1041'
p1669
aS'1404'
p1670
ag31
aa(lp1671
g2
aS'25767'
p1672
aS'3613'
p1673
aS'2013'
p1674
aS'10303'
p1675
aS'314'
p1676
aS'1384'
p1677
ag31
aa(lp1678
g2
aS'68951'
p1679
aS'4411'
p1680
aS'12609'
p1681
aS'8692'
p1682
aS'751'
p1683
aS'2406'
p1684
ag31
aa(lp1685
g2
aS'40254'
p1686
aS'640'
p1687
aS'3600'
p1688
aS'1042'
p1689
aS'436'
p1690
aS'18'
p1691
ag31
aa(lp1692
g2
aS'7149'
p1693
aS'2247'
p1694
aS'1242'
p1695
aS'1619'
p1696
aS'1226'
p1697
aS'128'
p1698
ag31
aa(lp1699
g2
aS'15354'
p1700
aS'2102'
p1701
aS'2828'
p1702
aS'8366'
p1703
aS'386'
p1704
aS'1027'
p1705
ag31
aa(lp1706
g2
aS'16260'
p1707
aS'594'
p1708
aS'1296'
p1709
aS'848'
p1710
aS'445'
p1711
aS'258'
p1712
ag31
aa(lp1713
g2
aS'42786'
p1714
aS'286'
p1715
aS'471'
p1716
aS'1388'
p1717
aS'32'
p1718
aS'22'
p1719
ag31
aa(lp1720
g2
aS'2708'
p1721
aS'2160'
p1722
aS'2642'
p1723
aS'502'
p1724
aS'965'
p1725
aS'1522'
p1726
ag31
aa(lp1727
g2
aS'6022'
p1728
aS'3354'
p1729
aS'3261'
p1730
aS'2507'
p1731
aS'212'
p1732
aS'686'
p1733
ag31
aa(lp1734
g2
aS'2838'
p1735
aS'3086'
p1736
aS'4329'
p1737
aS'3838'
p1738
aS'825'
p1739
aS'1060'
p1740
ag31
aa(lp1741
g9
aS'3996'
p1742
aS'11103'
p1743
aS'12469'
p1744
aS'902'
p1745
aS'5952'
p1746
aS'741'
p1747
ag9
aa(lp1748
g9
aS'21273'
p1749
aS'2013'
p1750
aS'6550'
p1751
aS'909'
p1752
aS'811'
p1753
aS'1854'
p1754
ag31
aa(lp1755
g9
aS'7588'
p1756
aS'1897'
p1757
aS'5234'
p1758
aS'417'
p1759
aS'2208'
p1760
aS'254'
p1761
ag9
aa(lp1762
g9
aS'19087'
p1763
aS'1304'
p1764
aS'3643'
p1765
aS'3045'
p1766
aS'710'
p1767
aS'898'
p1768
ag31
aa(lp1769
g9
aS'8090'
p1770
aS'3199'
p1771
aS'6986'
p1772
aS'1455'
p1773
aS'3712'
p1774
aS'531'
p1775
ag9
aa(lp1776
g9
aS'6758'
p1777
aS'4560'
p1778
aS'9965'
p1779
aS'934'
p1780
aS'4538'
p1781
aS'1037'
p1782
ag9
aa(lp1783
g9
aS'444'
p1784
aS'879'
p1785
aS'2060'
p1786
aS'264'
p1787
aS'290'
p1788
aS'259'
p1789
ag31
aa(lp1790
g9
aS'16448'
p1791
aS'6243'
p1792
aS'6360'
p1793
aS'824'
p1794
aS'2662'
p1795
aS'2005'
p1796
ag9
aa(lp1797
g9
aS'5283'
p1798
aS'13316'
p1799
aS'20399'
p1800
aS'1809'
p1801
aS'8752'
p1802
aS'172'
p1803
ag9
aa(lp1804
g9
aS'2886'
p1805
aS'5302'
p1806
aS'9785'
p1807
aS'364'
p1808
aS'6236'
p1809
aS'555'
p1810
ag9
aa(lp1811
g9
aS'2599'
p1812
aS'3688'
p1813
aS'13829'
p1814
aS'492'
p1815
aS'10069'
p1816
aS'59'
p1817
ag9
aa(lp1818
g9
aS'161'
p1819
aS'7460'
p1820
aS'24773'
p1821
aS'617'
p1822
aS'11783'
p1823
aS'2410'
p1824
ag9
aa(lp1825
g9
aS'243'
p1826
aS'12939'
p1827
aS'8852'
p1828
aS'799'
p1829
aS'3909'
p1830
aS'211'
p1831
ag9
aa(lp1832
g9
aS'6468'
p1833
aS'12867'
p1834
aS'21570'
p1835
aS'1840'
p1836
aS'7558'
p1837
aS'1543'
p1838
ag9
aa(lp1839
g9
aS'17327'
p1840
aS'2374'
p1841
aS'2842'
p1842
aS'1149'
p1843
aS'351'
p1844
aS'925'
p1845
ag31
aa(lp1846
g9
aS'6987'
p1847
aS'1020'
p1848
aS'3007'
p1849
aS'416'
p1850
aS'257'
p1851
aS'656'
p1852
ag31
aa(lp1853
g9
aS'918'
p1854
aS'20655'
p1855
aS'13567'
p1856
aS'1465'
p1857
aS'6846'
p1858
aS'806'
p1859
ag9
aa(lp1860
g9
aS'7034'
p1861
aS'1492'
p1862
aS'2405'
p1863
aS'12569'
p1864
aS'299'
p1865
aS'1117'
p1866
ag31
aa(lp1867
g9
aS'29635'
p1868
aS'2335'
p1869
aS'8280'
p1870
aS'3046'
p1871
aS'371'
p1872
aS'117'
p1873
ag31
aa(lp1874
g9
aS'2137'
p1875
aS'3737'
p1876
aS'19172'
p1877
aS'1274'
p1878
aS'17120'
p1879
aS'142'
p1880
ag9
aa(lp1881
g9
aS'9784'
p1882
aS'925'
p1883
aS'2405'
p1884
aS'4447'
p1885
aS'183'
p1886
aS'297'
p1887
ag31
aa(lp1888
g9
aS'10617'
p1889
aS'1795'
p1890
aS'7647'
p1891
aS'1483'
p1892
aS'857'
p1893
aS'1233'
p1894
ag31
aa(lp1895
g9
aS'1479'
p1896
aS'14982'
p1897
aS'11924'
p1898
aS'662'
p1899
aS'3891'
p1900
aS'3508'
p1901
ag9
aa(lp1902
g9
aS'7127'
p1903
aS'1375'
p1904
aS'2201'
p1905
aS'2679'
p1906
aS'83'
p1907
aS'1059'
p1908
ag31
aa(lp1909
g9
aS'1182'
p1910
aS'3088'
p1911
aS'6114'
p1912
aS'978'
p1913
aS'821'
p1914
aS'1637'
p1915
ag31
aa(lp1916
g9
aS'11800'
p1917
aS'2713'
p1918
aS'3558'
p1919
aS'2121'
p1920
aS'706'
p1921
aS'51'
p1922
ag31
aa(lp1923
g9
aS'9759'
p1924
aS'25071'
p1925
aS'17645'
p1926
aS'1128'
p1927
aS'12408'
p1928
aS'1625'
p1929
ag9
aa(lp1930
g9
aS'1774'
p1931
aS'3696'
p1932
aS'2280'
p1933
aS'514'
p1934
aS'275'
p1935
aS'834'
p1936
ag31
aa(lp1937
g9
aS'9155'
p1938
aS'1897'
p1939
aS'5167'
p1940
aS'2714'
p1941
aS'228'
p1942
aS'1113'
p1943
ag31
aa(lp1944
g9
aS'15881'
p1945
aS'713'
p1946
aS'3315'
p1947
aS'3703'
p1948
aS'1470'
p1949
aS'229'
p1950
ag31
aa(lp1951
g9
aS'13360'
p1952
aS'944'
p1953
aS'11593'
p1954
aS'915'
p1955
aS'1679'
p1956
aS'573'
p1957
ag31
aa(lp1958
g9
aS'25977'
p1959
aS'3587'
p1960
aS'2464'
p1961
aS'2369'
p1962
aS'140'
p1963
aS'1092'
p1964
ag31
aa(lp1965
g9
aS'32717'
p1966
aS'16784'
p1967
aS'13626'
p1968
aS'60869'
p1969
aS'1272'
p1970
aS'5609'
p1971
ag31
aa(lp1972
g9
aS'4414'
p1973
aS'1610'
p1974
aS'1431'
p1975
aS'3498'
p1976
aS'387'
p1977
aS'834'
p1978
ag31
aa(lp1979
g9
aS'542'
p1980
aS'899'
p1981
aS'1664'
p1982
aS'414'
p1983
aS'88'
p1984
aS'522'
p1985
ag31
aa(lp1986
g9
aS'16933'
p1987
aS'2209'
p1988
aS'3389'
p1989
aS'7849'
p1990
aS'210'
p1991
aS'1534'
p1992
ag31
aa(lp1993
g9
aS'5113'
p1994
aS'1486'
p1995
aS'4583'
p1996
aS'5127'
p1997
aS'492'
p1998
aS'739'
p1999
ag31
aa(lp2000
g9
aS'9790'
p2001
aS'1786'
p2002
aS'5109'
p2003
aS'3570'
p2004
aS'182'
p2005
aS'1043'
p2006
ag31
aa(lp2007
g9
aS'11223'
p2008
aS'14881'
p2009
aS'26839'
p2010
aS'1234'
p2011
aS'9606'
p2012
aS'1102'
p2013
ag9
aa(lp2014
g9
aS'22321'
p2015
aS'3216'
p2016
aS'1447'
p2017
aS'2208'
p2018
aS'178'
p2019
aS'2602'
p2020
ag31
aa(lp2021
g9
aS'8565'
p2022
aS'4980'
p2023
aS'67298'
p2024
aS'131'
p2025
aS'38102'
p2026
aS'1215'
p2027
ag9
aa(lp2028
g9
aS'16823'
p2029
aS'928'
p2030
aS'2743'
p2031
aS'11559'
p2032
aS'332'
p2033
aS'3486'
p2034
ag9
aa(lp2035
g9
aS'27082'
p2036
aS'6817'
p2037
aS'10790'
p2038
aS'1365'
p2039
aS'4111'
p2040
aS'2139'
p2041
ag9
aa(lp2042
g9
aS'13970'
p2043
aS'1511'
p2044
aS'1330'
p2045
aS'650'
p2046
aS'146'
p2047
aS'778'
p2048
ag31
aa(lp2049
g9
aS'9351'
p2050
aS'1347'
p2051
aS'2611'
p2052
aS'8170'
p2053
aS'442'
p2054
aS'868'
p2055
ag31
aa(lp2056
g9
ag2
aS'333'
p2057
aS'7021'
p2058
aS'15601'
p2059
aS'15'
p2060
aS'550'
p2061
ag31
aa(lp2062
g9
aS'2617'
p2063
aS'1188'
p2064
aS'5332'
p2065
aS'9584'
p2066
aS'573'
p2067
aS'1942'
p2068
ag31
aa(lp2069
g2
aS'381'
p2070
aS'4025'
p2071
aS'9670'
p2072
aS'388'
p2073
aS'7271'
p2074
aS'1371'
p2075
ag9
aa(lp2076
g2
aS'2320'
p2077
aS'5763'
p2078
aS'11238'
p2079
aS'767'
p2080
aS'5162'
p2081
aS'2158'
p2082
ag9
aa(lp2083
g2
aS'255'
p2084
aS'5758'
p2085
aS'5923'
p2086
aS'349'
p2087
aS'4595'
p2088
aS'1328'
p2089
ag31
aa(lp2090
g2
aS'1689'
p2091
aS'6964'
p2092
aS'26316'
p2093
aS'1456'
p2094
aS'15469'
p2095
aS'37'
p2096
ag9
aa(lp2097
g2
aS'3043'
p2098
aS'1172'
p2099
aS'1763'
p2100
aS'2234'
p2101
aS'217'
p2102
aS'379'
p2103
ag31
aa(lp2104
g2
aS'1198'
p2105
aS'2602'
p2106
aS'8335'
p2107
aS'402'
p2108
aS'3843'
p2109
aS'303'
p2110
ag31
aa(lp2111
g2
aS'2771'
p2112
aS'6939'
p2113
aS'15541'
p2114
aS'2693'
p2115
aS'6600'
p2116
aS'1115'
p2117
ag9
aa(lp2118
g2
aS'27380'
p2119
aS'7184'
p2120
aS'12311'
p2121
aS'2809'
p2122
aS'4621'
p2123
aS'1022'
p2124
ag9
aa(lp2125
g2
aS'3428'
p2126
aS'2380'
p2127
aS'2028'
p2128
aS'1341'
p2129
aS'1184'
p2130
aS'665'
p2131
ag31
aa(lp2132
g2
aS'5981'
p2133
aS'14641'
p2134
aS'20521'
p2135
aS'2005'
p2136
aS'12218'
p2137
aS'445'
p2138
ag9
aa(lp2139
g2
aS'3521'
p2140
aS'1099'
p2141
aS'1997'
p2142
aS'1796'
p2143
aS'173'
p2144
aS'995'
p2145
ag31
aa(lp2146
g2
aS'1210'
p2147
aS'10044'
p2148
aS'22294'
p2149
aS'1741'
p2150
aS'12638'
p2151
aS'3137'
p2152
ag9
aa(lp2153
g2
aS'608'
p2154
aS'1106'
p2155
aS'1533'
p2156
aS'830'
p2157
aS'90'
p2158
aS'195'
p2159
ag31
aa(lp2160
g2
aS'117'
p2161
aS'6264'
p2162
aS'21203'
p2163
aS'228'
p2164
aS'8682'
p2165
aS'1111'
p2166
ag9
aa(lp2167
g2
aS'14039'
p2168
aS'7393'
p2169
aS'2548'
p2170
aS'6386'
p2171
aS'1333'
p2172
aS'2341'
p2173
ag31
aa(lp2174
g2
aS'190'
p2175
aS'727'
p2176
aS'2012'
p2177
aS'245'
p2178
aS'184'
p2179
aS'127'
p2180
ag31
aa(lp2181
g2
aS'22686'
p2182
aS'134'
p2183
aS'218'
p2184
aS'3157'
p2185
ag467
aS'548'
p2186
ag31
aa(lp2187
g2
aS'37'
p2188
aS'1275'
p2189
aS'22272'
p2190
aS'137'
p2191
aS'6747'
p2192
aS'110'
p2193
ag9
aa(lp2194
g2
aS'759'
p2195
aS'18664'
p2196
aS'1660'
p2197
aS'6114'
p2198
aS'536'
p2199
aS'4100'
p2200
ag31
aa(lp2201
g2
aS'796'
p2202
aS'5878'
p2203
aS'2109'
p2204
aS'340'
p2205
aS'232'
p2206
aS'776'
p2207
ag31
aa(lp2208
g2
aS'19746'
p2209
aS'2872'
p2210
aS'2006'
p2211
aS'2601'
p2212
aS'468'
p2213
aS'503'
p2214
ag31
aa(lp2215
g2
aS'4734'
p2216
aS'607'
p2217
aS'864'
p2218
aS'1206'
p2219
aS'159'
p2220
aS'405'
p2221
ag31
aa(lp2222
g2
aS'2121'
p2223
aS'1601'
p2224
aS'2453'
p2225
aS'560'
p2226
aS'179'
p2227
aS'712'
p2228
ag31
aa(lp2229
g2
aS'4627'
p2230
aS'997'
p2231
aS'4438'
p2232
aS'191'
p2233
aS'1335'
p2234
aS'314'
p2235
ag31
aa(lp2236
g2
aS'2615'
p2237
aS'873'
p2238
aS'1524'
p2239
aS'1103'
p2240
aS'514'
p2241
aS'468'
p2242
ag31
aa(lp2243
g2
aS'4692'
p2244
aS'6128'
p2245
aS'8025'
p2246
aS'1619'
p2247
aS'4515'
p2248
aS'3105'
p2249
ag9
aa(lp2250
g2
aS'9561'
p2251
aS'2217'
p2252
aS'1664'
p2253
aS'1173'
p2254
aS'222'
p2255
aS'447'
p2256
ag31
aa(lp2257
g2
aS'3477'
p2258
aS'894'
p2259
aS'534'
p2260
aS'1457'
p2261
aS'252'
p2262
aS'342'
p2263
ag31
aa(lp2264
g2
aS'22335'
p2265
aS'1196'
p2266
aS'2406'
p2267
aS'2046'
p2268
aS'101'
p2269
aS'558'
p2270
ag31
aa(lp2271
g2
aS'6211'
p2272
aS'337'
p2273
aS'683'
p2274
aS'1089'
p2275
aS'41'
p2276
aS'296'
p2277
ag31
aa(lp2278
g2
aS'39679'
p2279
aS'3944'
p2280
aS'4955'
p2281
aS'1364'
p2282
aS'523'
p2283
aS'2235'
p2284
ag9
aa(lp2285
g2
aS'20105'
p2286
aS'1887'
p2287
aS'1939'
p2288
aS'8164'
p2289
aS'716'
p2290
aS'790'
p2291
ag31
aa(lp2292
g2
aS'3884'
p2293
aS'3801'
p2294
aS'1641'
p2295
aS'876'
p2296
aS'397'
p2297
aS'4829'
p2298
ag31
aa(lp2299
g2
aS'15076'
p2300
aS'6257'
p2301
aS'7398'
p2302
aS'1504'
p2303
aS'1916'
p2304
aS'3113'
p2305
ag9
aa(lp2306
g2
aS'6338'
p2307
aS'2256'
p2308
aS'1668'
p2309
aS'1492'
p2310
aS'311'
p2311
aS'686'
p2312
ag31
aa(lp2313
g2
aS'5841'
p2314
aS'1450'
p2315
aS'1162'
p2316
aS'597'
p2317
aS'476'
p2318
aS'70'
p2319
ag31
aa(lp2320
g2
aS'3136'
p2321
aS'8630'
p2322
aS'13586'
p2323
aS'5641'
p2324
aS'4666'
p2325
aS'1426'
p2326
ag9
aa(lp2327
g2
aS'38793'
p2328
aS'3154'
p2329
aS'2648'
p2330
aS'1034'
p2331
aS'96'
p2332
aS'1242'
p2333
ag31
aa(lp2334
g2
aS'3225'
p2335
aS'3294'
p2336
aS'1902'
p2337
aS'282'
p2338
aS'68'
p2339
aS'1114'
p2340
ag31
aa(lp2341
g2
aS'4048'
p2342
aS'5164'
p2343
aS'10391'
p2344
aS'130'
p2345
aS'813'
p2346
aS'179'
p2347
ag9
aa(lp2348
g2
aS'28257'
p2349
aS'944'
p2350
aS'2146'
p2351
aS'3881'
p2352
aS'600'
p2353
aS'270'
p2354
ag31
aa(lp2355
g2
aS'17770'
p2356
aS'4591'
p2357
aS'1617'
p2358
aS'9927'
p2359
aS'246'
p2360
aS'532'
p2361
ag31
aa(lp2362
g2
aS'34454'
p2363
aS'7435'
p2364
aS'8469'
p2365
aS'2540'
p2366
aS'1711'
p2367
aS'2893'
p2368
ag31
aa(lp2369
g2
aS'1821'
p2370
aS'1364'
p2371
aS'3450'
p2372
aS'4006'
p2373
aS'397'
p2374
aS'361'
p2375
ag31
aa(lp2376
g2
aS'10683'
p2377
aS'21858'
p2378
aS'15400'
p2379
aS'3635'
p2380
aS'282'
p2381
aS'5120'
p2382
ag31
aa(lp2383
g2
aS'11635'
p2384
aS'922'
p2385
aS'1614'
p2386
aS'2583'
p2387
aS'192'
p2388
aS'1068'
p2389
ag31
aa(lp2390
g2
aS'1206'
p2391
aS'3620'
p2392
aS'2857'
p2393
aS'1945'
p2394
aS'353'
p2395
aS'967'
p2396
ag31
aa(lp2397
g2
aS'20918'
p2398
aS'1916'
p2399
aS'1573'
p2400
aS'1960'
p2401
aS'231'
p2402
aS'961'
p2403
ag31
aa(lp2404
g2
aS'9785'
p2405
aS'848'
p2406
aS'1172'
p2407
aS'1677'
p2408
aS'200'
p2409
aS'406'
p2410
ag31
aa(lp2411
g2
aS'9385'
p2412
aS'1530'
p2413
aS'1422'
p2414
aS'3019'
p2415
aS'227'
p2416
aS'684'
p2417
ag31
aa(lp2418
g2
aS'3352'
p2419
aS'1181'
p2420
aS'1328'
p2421
aS'5502'
p2422
aS'311'
p2423
aS'1000'
p2424
ag31
aa(lp2425
g2
aS'2647'
p2426
aS'2761'
p2427
aS'2313'
p2428
aS'907'
p2429
aS'95'
p2430
aS'1827'
p2431
ag31
aa(lp2432
g2
aS'518'
p2433
aS'4180'
p2434
aS'3600'
p2435
aS'659'
p2436
aS'122'
p2437
aS'654'
p2438
ag31
aa(lp2439
g2
aS'23632'
p2440
aS'6730'
p2441
aS'3842'
p2442
aS'8620'
p2443
aS'385'
p2444
aS'819'
p2445
ag31
aa(lp2446
g2
aS'12377'
p2447
aS'865'
p2448
aS'3204'
p2449
aS'1398'
p2450
aS'149'
p2451
aS'452'
p2452
ag31
aa(lp2453
g2
aS'9602'
p2454
aS'1316'
p2455
aS'1263'
p2456
aS'2921'
p2457
aS'841'
p2458
aS'290'
p2459
ag31
aa(lp2460
g2
aS'4515'
p2461
aS'11991'
p2462
aS'9345'
p2463
aS'2644'
p2464
aS'3378'
p2465
aS'2213'
p2466
ag9
aa(lp2467
g2
aS'11535'
p2468
aS'1666'
p2469
aS'1428'
p2470
aS'6838'
p2471
aS'64'
p2472
aS'743'
p2473
ag31
aa(lp2474
g2
aS'11442'
p2475
aS'1032'
p2476
aS'582'
p2477
aS'5390'
p2478
aS'74'
p2479
aS'247'
p2480
ag31
aa(lp2481
g2
aS'9612'
p2482
aS'577'
p2483
aS'935'
p2484
aS'1601'
p2485
aS'469'
p2486
aS'375'
p2487
ag31
aa(lp2488
g2
aS'4446'
p2489
aS'906'
p2490
aS'1238'
p2491
aS'3576'
p2492
aS'153'
p2493
aS'1014'
p2494
ag31
aa(lp2495
g2
aS'27167'
p2496
aS'2801'
p2497
aS'2128'
p2498
aS'13223'
p2499
aS'92'
p2500
aS'1902'
p2501
ag31
aa(lp2502
g2
aS'26539'
p2503
aS'4753'
p2504
aS'5091'
p2505
aS'220'
p2506
aS'10'
p2507
aS'340'
p2508
ag31
aa(lp2509
g2
aS'25606'
p2510
aS'11006'
p2511
aS'4604'
p2512
aS'127'
p2513
aS'632'
p2514
aS'288'
p2515
ag31
aa(lp2516
g2
aS'18073'
p2517
aS'4613'
p2518
aS'3444'
p2519
aS'4324'
p2520
aS'914'
p2521
aS'715'
p2522
ag31
aa(lp2523
g2
aS'6884'
p2524
aS'1046'
p2525
aS'1167'
p2526
aS'2069'
p2527
aS'593'
p2528
aS'378'
p2529
ag31
aa(lp2530
g2
aS'25066'
p2531
aS'5010'
p2532
aS'5026'
p2533
aS'9806'
p2534
aS'1092'
p2535
aS'960'
p2536
ag31
aa(lp2537
g2
aS'7362'
p2538
aS'12844'
p2539
aS'18683'
p2540
aS'2854'
p2541
aS'7883'
p2542
aS'553'
p2543
ag9
aa(lp2544
g2
aS'8257'
p2545
aS'3880'
p2546
aS'6407'
p2547
aS'1646'
p2548
aS'2730'
p2549
aS'344'
p2550
ag9
aa(lp2551
g2
aS'8708'
p2552
aS'3634'
p2553
aS'6100'
p2554
aS'2349'
p2555
aS'2123'
p2556
aS'5137'
p2557
ag31
aa(lp2558
g2
aS'6633'
p2559
aS'2096'
p2560
aS'4563'
p2561
aS'1389'
p2562
aS'1860'
p2563
aS'1892'
p2564
ag31
aa(lp2565
g2
aS'2126'
p2566
aS'3289'
p2567
aS'3281'
p2568
aS'1535'
p2569
aS'235'
p2570
aS'4365'
p2571
ag31
aa(lp2572
g2
aS'97'
p2573
aS'3605'
p2574
aS'12400'
p2575
aS'98'
p2576
aS'2970'
p2577
aS'62'
p2578
ag31
aa(lp2579
g2
aS'4983'
p2580
aS'4859'
p2581
aS'6633'
p2582
aS'17866'
p2583
aS'912'
p2584
aS'2435'
p2585
ag31
aa(lp2586
g2
aS'5969'
p2587
aS'1990'
p2588
aS'3417'
p2589
aS'5679'
p2590
aS'1135'
p2591
aS'290'
p2592
ag31
aa(lp2593
g2
aS'7842'
p2594
aS'6046'
p2595
aS'8552'
p2596
aS'1691'
p2597
aS'3540'
p2598
aS'1874'
p2599
ag9
aa(lp2600
g2
aS'4389'
p2601
aS'10940'
p2602
aS'10908'
p2603
aS'848'
p2604
aS'6728'
p2605
aS'993'
p2606
ag9
aa(lp2607
g2
aS'5065'
p2608
aS'5499'
p2609
aS'11055'
p2610
aS'364'
p2611
aS'3485'
p2612
aS'1063'
p2613
ag31
aa(lp2614
g2
aS'660'
p2615
aS'8494'
p2616
aS'18622'
p2617
aS'133'
p2618
aS'6740'
p2619
aS'776'
p2620
ag9
aa(lp2621
g2
aS'8861'
p2622
aS'3783'
p2623
aS'2223'
p2624
aS'633'
p2625
aS'1580'
p2626
aS'1521'
p2627
ag31
aa(lp2628
g2
aS'4456'
p2629
aS'5266'
p2630
aS'13227'
p2631
aS'25'
p2632
aS'6818'
p2633
aS'1393'
p2634
ag31
aa(lp2635
g2
aS'17063'
p2636
aS'4847'
p2637
aS'9053'
p2638
aS'1031'
p2639
aS'3415'
p2640
aS'1784'
p2641
ag9
aa(lp2642
g2
aS'26400'
p2643
aS'1377'
p2644
aS'4172'
p2645
aS'830'
p2646
aS'948'
p2647
aS'1218'
p2648
ag31
aa(lp2649
g2
aS'17565'
p2650
aS'3686'
p2651
aS'4657'
p2652
aS'1059'
p2653
aS'1803'
p2654
aS'668'
p2655
ag9
aa(lp2656
g2
aS'16980'
p2657
aS'2884'
p2658
aS'12232'
p2659
aS'874'
p2660
aS'3213'
p2661
aS'249'
p2662
ag9
aa(lp2663
g2
aS'11243'
p2664
aS'2408'
p2665
aS'2593'
p2666
aS'15348'
p2667
aS'108'
p2668
aS'1886'
p2669
ag31
aa(lp2670
g2
aS'13134'
p2671
aS'9347'
p2672
aS'14316'
p2673
aS'3141'
p2674
aS'5079'
p2675
aS'1894'
p2676
ag31
aa(lp2677
g2
aS'31012'
p2678
aS'16687'
p2679
aS'5429'
p2680
aS'15082'
p2681
aS'439'
p2682
aS'1163'
p2683
ag31
aa(lp2684
g2
aS'3047'
p2685
aS'5970'
p2686
aS'4910'
p2687
aS'2198'
p2688
aS'850'
p2689
aS'317'
p2690
ag31
aa(lp2691
g2
aS'8607'
p2692
aS'1750'
p2693
aS'3580'
p2694
aS'47'
p2695
aS'84'
p2696
aS'2501'
p2697
ag31
aa(lp2698
g2
aS'3097'
p2699
aS'4230'
p2700
aS'16483'
p2701
aS'575'
p2702
aS'241'
p2703
aS'2080'
p2704
ag31
aa(lp2705
g2
aS'8533'
p2706
aS'5506'
p2707
aS'5160'
p2708
aS'13486'
p2709
aS'1377'
p2710
aS'1498'
p2711
ag31
aa(lp2712
g2
aS'21117'
p2713
aS'1162'
p2714
aS'4754'
p2715
aS'269'
p2716
aS'1328'
p2717
aS'395'
p2718
ag31
aa(lp2719
g2
aS'1982'
p2720
aS'3218'
p2721
aS'1493'
p2722
aS'1541'
p2723
aS'356'
p2724
aS'1449'
p2725
ag31
aa(lp2726
g2
aS'16731'
p2727
aS'3922'
p2728
aS'7994'
p2729
aS'688'
p2730
aS'2371'
p2731
aS'838'
p2732
ag31
aa(lp2733
g2
aS'29703'
p2734
aS'12051'
p2735
aS'16027'
p2736
aS'13135'
p2737
aS'182'
p2738
aS'2204'
p2739
ag31
aa(lp2740
g2
aS'39228'
p2741
aS'1431'
p2742
aS'764'
p2743
aS'4510'
p2744
aS'93'
p2745
aS'2346'
p2746
ag31
aa(lp2747
g2
aS'14531'
p2748
aS'15488'
p2749
aS'30243'
p2750
aS'437'
p2751
aS'14841'
p2752
aS'1867'
p2753
ag9
aa(lp2754
g2
aS'10290'
p2755
aS'1981'
p2756
aS'2232'
p2757
aS'1038'
p2758
aS'168'
p2759
aS'2125'
p2760
ag31
aa(lp2761
g2
aS'2787'
p2762
aS'1698'
p2763
aS'2510'
p2764
aS'65'
p2765
aS'477'
p2766
aS'52'
p2767
ag31
aa.