(lp0
(lp1
S'1295529'
p2
aS'2'
p3
aS'5'
p4
aS'7'
p5
aS'6'
p6
aS'4'
p7
aS'10'
p8
ag5
ag6
aS'1'
p9
ag7
aa(lp10
S'1298484'
p11
aS'10'
p12
aS'3'
p13
ag7
ag4
ag13
aS'10'
p14
ag7
ag9
ag9
ag7
aa(lp15
S'1315506'
p16
ag7
aS'8'
p17
ag6
ag13
ag7
aS'10'
p18
ag5
ag9
ag9
ag7
aa(lp19
S'1352663'
p20
ag4
ag7
ag6
ag17
ag7
ag9
ag17
aS'10'
p21
ag9
ag7
aa(lp22
S'188336'
p23
ag4
ag13
ag3
ag17
ag4
aS'10'
p24
ag17
ag9
ag3
ag7
aa(lp25
S'352431'
p26
aS'10'
p27
ag4
aS'10'
p28
ag13
ag4
ag17
ag5
ag17
ag13
ag7
aa(lp29
S'557583'
p30
ag4
aS'10'
p31
aS'10'
p32
aS'10'
p33
aS'10'
p34
aS'10'
p35
aS'10'
p36
ag9
ag9
ag7
aa(lp37
S'736150'
p38
aS'10'
p39
ag7
ag13
aS'10'
p40
ag13
aS'10'
p41
ag5
ag9
ag3
ag7
aa(lp42
S'803531'
p43
ag4
aS'10'
p44
aS'10'
p45
aS'10'
p46
ag4
ag3
ag17
ag4
ag9
ag7
aa(lp47
S'822829'
p48
ag17
aS'10'
p49
aS'10'
p50
aS'10'
p51
ag6
aS'10'
p52
aS'10'
p53
aS'10'
p54
aS'10'
p55
ag7
aa(lp56
S'1190386'
p57
ag7
ag6
ag6
ag4
ag5
ag6
ag5
ag5
ag13
ag7
aa(lp58
S'1253955'
p59
ag17
ag5
ag7
ag7
ag4
ag13
ag4
aS'10'
p60
ag9
ag7
aa(lp61
S'1268952'
p62
aS'10'
p63
aS'10'
p64
ag5
ag17
ag5
ag9
aS'10'
p65
aS'10'
p66
ag13
ag7
aa(lp67
S'1294413'
p68
ag9
ag9
ag9
ag9
ag3
ag9
ag9
ag9
ag9
ag3
aa(lp69
S'1299596'
p70
ag3
ag9
ag9
ag9
ag3
ag9
ag9
ag9
ag9
ag3
aa(lp71
S'1303489'
p72
ag13
ag9
ag9
ag9
ag3
ag9
ag3
ag9
ag9
ag3
aa(lp73
S'1311033'
p74
ag9
ag3
ag3
ag9
ag3
ag9
ag9
ag9
ag9
ag3
aa(lp75
S'1311108'
p76
ag9
ag9
ag9
ag13
ag3
ag9
ag9
ag9
ag9
ag3
aa(lp77
S'1315807'
p78
ag4
aS'10'
p79
aS'10'
p80
aS'10'
p81
aS'10'
p82
ag3
aS'10'
p83
aS'10'
p84
aS'10'
p85
ag7
aa(lp86
S'1318671'
p87
ag13
ag9
ag9
ag9
ag3
ag9
ag3
ag9
ag9
ag3
aa(lp88
S'1319609'
p89
ag13
ag9
ag9
ag3
ag13
ag7
ag9
ag9
ag9
ag3
aa(lp90
S'1323477'
p91
ag9
ag3
ag9
ag13
ag3
ag9
ag3
ag9
ag9
ag3
aa(lp92
S'1324572'
p93
ag4
ag9
ag9
ag9
ag3
ag9
ag3
ag3
ag9
ag3
aa(lp94
S'1324681'
p95
ag7
ag9
ag9
ag9
ag3
ag9
ag3
ag9
ag9
ag3
aa(lp96
S'1325159'
p97
ag13
ag9
ag9
ag9
ag3
ag9
ag13
ag9
ag9
ag3
aa(lp98
S'1326892'
p99
ag13
ag9
ag9
ag9
ag3
ag9
ag3
ag9
ag9
ag3
aa(lp100
S'1330361'
p101
ag4
ag9
ag9
ag9
ag3
ag9
ag3
ag9
ag9
ag3
aa(lp102
S'1333877'
p103
ag4
ag7
ag4
ag9
ag17
ag9
ag13
ag6
ag9
ag3
aa(lp104
S'1334015'
p105
ag5
ag17
ag17
ag5
ag13
aS'10'
p106
ag5
ag3
ag13
ag7
aa(lp107
S'1334667'
p108
ag9
ag9
ag9
ag9
ag3
ag9
ag9
ag9
ag9
ag3
aa(lp109
S'1339781'
p110
ag9
ag9
ag9
ag9
ag3
ag9
ag3
ag9
ag9
ag3
aa(lp111
S'1339781'
p112
ag7
ag9
ag9
ag9
ag3
ag9
ag13
ag9
ag9
ag3
aa(lp113
S'13454352'
p114
ag9
ag9
ag13
ag9
ag3
ag9
ag3
ag9
ag9
ag3
aa(lp115
S'1345452'
p116
ag9
ag9
ag13
ag9
ag3
ag9
ag3
ag9
ag9
ag3
aa(lp117
S'1345593'
p118
ag13
ag9
ag9
ag13
ag3
ag9
ag3
ag9
ag9
ag3
aa(lp119
S'1347749'
p120
ag9
ag9
ag9
ag9
ag3
ag9
ag9
ag9
ag9
ag3
aa(lp121
S'1347943'
p122
ag4
ag3
ag3
ag3
ag3
ag9
ag9
ag9
ag3
ag3
aa(lp123
S'1348851'
p124
ag13
ag9
ag9
ag9
ag3
ag9
ag13
ag9
ag9
ag3
aa(lp125
S'1350319'
p126
ag4
ag5
ag7
ag9
ag6
ag9
ag5
aS'10'
p127
ag13
ag7
aa(lp128
S'1350423'
p129
ag4
aS'10'
p130
aS'10'
p131
ag17
ag4
ag4
ag5
aS'10'
p132
ag9
ag7
aa(lp133
S'1352848'
p134
ag13
aS'10'
p135
ag5
ag17
ag4
ag17
ag5
ag7
ag9
ag7
aa(lp136
S'1353092'
p137
ag13
ag3
ag9
ag3
ag3
ag9
ag13
ag9
ag9
ag3
aa(lp138
S'1354840'
p139
ag3
ag9
ag9
ag9
ag3
ag9
ag13
ag9
ag9
ag3
aa(lp140
S'1354840'
p141
ag4
ag13
ag3
ag9
ag13
ag9
ag9
ag9
ag9
ag3
aa(lp142
S'1355260'
p143
ag9
ag9
ag9
ag9
ag3
ag9
ag3
ag9
ag9
ag3
aa(lp144
S'1365075'
p145
ag7
ag9
ag7
ag9
ag3
ag9
ag9
ag9
ag9
ag3
aa(lp146
S'1365328'
p147
ag9
ag9
ag3
ag9
ag3
ag9
ag3
ag9
ag9
ag3
aa(lp148
S'1368267'
p149
ag4
ag9
ag9
ag9
ag3
ag9
ag9
ag9
ag9
ag3
aa(lp150
S'1368273'
p151
ag9
ag9
ag9
ag9
ag3
ag9
ag9
ag9
ag9
ag3
aa(lp152
S'1368882'
p153
ag3
ag9
ag9
ag9
ag3
ag9
ag9
ag9
ag9
ag3
aa(lp154
S'1369821'
p155
aS'10'
p156
aS'10'
p157
aS'10'
p158
aS'10'
p159
ag4
aS'10'
p160
aS'10'
p161
aS'10'
p162
ag5
ag7
aa(lp163
S'1371026'
p164
ag4
aS'10'
p165
aS'10'
p166
aS'10'
p167
ag7
aS'10'
p168
ag4
ag6
ag13
ag7
aa(lp169
S'1371920'
p170
ag4
ag9
ag9
ag9
ag3
ag9
ag13
ag3
ag9
ag3
aa(lp171
S'466906'
p172
ag9
ag9
ag9
ag9
ag3
ag9
ag9
ag9
ag9
ag3
aa(lp173
S'466906'
p174
ag9
ag9
ag9
ag9
ag3
ag9
ag9
ag9
ag9
ag3
aa(lp175
S'534555'
p176
ag9
ag9
ag9
ag9
ag3
ag9
ag9
ag9
ag9
ag3
aa(lp177
S'536708'
p178
ag9
ag9
ag9
ag9
ag3
ag9
ag9
ag9
ag9
ag3
aa(lp179
S'566346'
p180
ag13
ag9
ag9
ag9
ag3
ag9
ag3
ag13
ag9
ag3
aa(lp181
S'603148'
p182
ag7
ag9
ag9
ag9
ag3
ag9
ag9
ag9
ag9
ag3
aa(lp183
S'654546'
p184
ag9
ag9
ag9
ag9
ag3
ag9
ag9
ag9
ag17
ag3
aa(lp185
S'654546'
p186
ag9
ag9
ag9
ag13
ag3
ag9
ag9
ag9
ag9
ag3
aa(lp187
S'695091'
p188
ag4
aS'10'
p189
aS'10'
p190
ag4
ag7
ag4
ag7
ag7
ag9
ag7
aa(lp191
S'714039'
p192
ag13
ag9
ag9
ag9
ag3
ag9
ag9
ag9
ag9
ag3
aa(lp193
S'763235'
p194
ag13
ag9
ag9
ag9
ag3
ag9
ag3
ag9
ag3
ag3
aa(lp195
S'776715'
p196
ag13
ag9
ag9
ag9
ag13
ag3
ag9
ag9
ag9
ag3
aa(lp197
S'841769'
p198
ag3
ag9
ag9
ag9
ag3
ag9
ag9
ag9
ag9
ag3
aa(lp199
S'888820'
p200
ag4
aS'10'
p201
aS'10'
p202
ag13
ag5
ag13
ag17
aS'10'
p203
ag3
ag7
aa(lp204
S'897471'
p205
ag7
ag17
ag6
ag7
ag13
ag7
aS'10'
p206
ag6
ag9
ag7
aa(lp207
S'897471'
p208
ag7
ag17
ag17
ag4
ag7
ag4
aS'10'
p209
ag7
ag9
ag7
aa.