(lp0
(lp1
S'1227210'
p2
aS'10'
p3
aS'5'
p4
ag4
aS'6'
p5
aS'3'
p6
aS'10'
p7
aS'7'
p8
aS'9'
p9
aS'2'
p10
aS'4'
p11
aa(lp12
S'1227481'
p13
aS'10'
p14
ag4
ag8
ag11
ag11
aS'10'
p15
aS'8'
p16
ag9
aS'1'
p17
ag11
aa(lp18
S'1228152'
p19
ag16
ag9
ag9
ag4
ag6
ag4
ag8
ag8
ag17
ag11
aa(lp20
S'1230175'
p21
aS'10'
p22
aS'10'
p23
aS'10'
p24
ag6
aS'10'
p25
aS'10'
p26
ag9
aS'10'
p27
ag17
ag11
aa(lp28
S'1230688'
p29
ag8
ag11
ag8
ag11
ag6
ag8
ag8
ag5
ag17
ag11
aa(lp30
S'1231387'
p31
ag5
ag16
ag8
ag4
ag5
ag16
ag16
ag9
ag10
ag11
aa(lp32
S'1232225'
p33
aS'10'
p34
ag11
ag4
ag4
ag4
aS'10'
p35
ag11
ag17
ag17
ag11
aa(lp36
S'1241559'
p37
aS'10'
p38
ag16
ag16
ag10
ag16
aS'10'
p39
ag11
ag16
aS'10'
p40
ag11
aa(lp41
S'1241679'
p42
ag9
ag16
ag16
ag4
ag5
ag10
ag11
aS'10'
p43
ag11
ag11
aa(lp44
S'1242364'
p45
ag16
aS'10'
p46
aS'10'
p47
ag16
ag5
ag9
ag6
aS'10'
p48
aS'10'
p49
ag11
aa(lp50
S'1243256'
p51
aS'10'
p52
ag11
ag6
ag10
ag6
aS'10'
p53
ag4
ag6
ag10
ag11
aa(lp54
S'144888'
p55
ag16
aS'10'
p56
aS'10'
p57
ag16
ag4
aS'10'
p58
ag8
ag16
ag17
ag11
aa(lp59
S'145447'
p60
ag16
ag11
ag11
ag17
ag10
ag9
ag6
ag6
ag17
ag11
aa(lp61
S'191250'
p62
aS'10'
p63
ag11
ag11
aS'10'
p64
ag10
aS'10'
p65
ag4
ag6
ag6
ag11
aa(lp66
S'1100524'
p67
ag5
aS'10'
p68
aS'10'
p69
ag10
ag16
aS'10'
p70
ag8
ag6
ag6
ag11
aa(lp71
S'1116116'
p72
ag9
aS'10'
p73
aS'10'
p74
ag17
aS'10'
p75
ag16
ag6
ag6
ag17
ag11
aa(lp76
S'1168736'
p77
ag4
ag5
ag5
ag10
ag11
aS'10'
p78
ag6
ag5
ag17
ag11
aa(lp79
S'255644'
p80
aS'10'
p81
ag4
ag16
aS'10'
p82
ag6
aS'10'
p83
ag4
ag17
ag6
ag11
aa(lp84
S'263538'
p85
ag4
aS'10'
p86
aS'10'
p87
ag5
aS'10'
p88
aS'10'
p89
aS'10'
p90
ag5
ag4
ag11
aa(lp91
S'274137'
p92
ag16
ag16
ag9
ag11
ag4
aS'10'
p93
ag8
ag16
ag17
ag11
aa(lp94
S'303213'
p95
aS'10'
p96
ag11
ag11
aS'10'
p97
ag5
aS'10'
p98
ag4
ag4
ag17
ag11
aa(lp99
S'314428'
p100
ag8
ag9
ag11
aS'10'
p101
aS'10'
p102
ag6
ag4
ag6
ag6
ag11
aa(lp103
S'1198641'
p104
aS'10'
p105
aS'10'
p106
ag5
ag6
ag6
aS'10'
p107
ag11
ag6
ag10
ag11
aa(lp108
S'320675'
p109
ag6
ag6
ag4
ag10
ag6
aS'10'
p110
ag8
ag17
ag17
ag11
aa(lp111
S'704097'
p112
ag17
ag17
ag17
ag17
ag17
ag17
ag10
ag17
ag17
ag10
aa(lp113
S'810104'
p114
ag17
ag17
ag17
ag17
ag10
ag17
ag6
ag17
ag17
ag10
aa(lp115
S'814265'
p116
ag10
ag17
ag17
ag17
ag10
ag17
ag17
ag17
ag17
ag10
aa(lp117
S'814911'
p118
ag17
ag17
ag17
ag17
ag10
ag17
ag17
ag17
ag17
ag10
aa(lp119
S'826923'
p120
ag17
ag17
ag17
ag17
ag10
ag17
ag17
ag17
ag17
ag10
aa(lp121
S'830690'
p122
ag4
ag10
ag10
ag10
ag6
ag17
ag17
ag6
ag17
ag10
aa(lp123
S'831268'
p124
ag17
ag17
ag17
ag17
ag17
ag17
ag17
ag6
ag17
ag10
aa(lp125
S'836433'
p126
ag4
ag17
ag17
ag6
ag10
ag17
ag17
ag17
ag17
ag10
aa(lp127
S'837082'
p128
ag10
ag17
ag17
ag17
ag10
ag17
ag6
ag17
ag17
ag10
aa(lp129
S'846832'
p130
ag6
ag11
ag4
ag6
ag8
ag6
ag11
ag5
ag17
ag10
aa(lp131
S'855524'
p132
ag17
ag17
ag17
ag17
ag10
ag17
ag10
ag17
ag17
ag10
aa(lp133
S'857774'
p134
ag11
ag17
ag17
ag17
ag6
ag17
ag10
ag10
ag17
ag10
aa(lp135
S'888169'
p136
ag6
ag10
ag10
ag17
ag11
ag6
ag10
ag17
ag17
ag10
aa(lp137
S'888523'
p138
ag11
ag11
ag11
ag10
ag10
ag6
ag10
ag17
ag17
ag10
aa(lp139
S'896404'
p140
ag10
ag17
ag17
ag17
ag10
ag17
ag6
ag17
ag17
ag10
aa(lp141
S'897172'
p142
ag10
ag17
ag17
ag17
ag10
ag17
ag10
ag17
ag17
ag10
aa(lp143
S'342245'
p144
ag17
ag17
ag6
ag17
ag10
ag17
ag17
ag17
ag17
ag10
aa(lp145
S'428598'
p146
ag17
ag17
ag6
ag17
ag17
ag17
ag10
ag17
ag17
ag10
aa(lp147
S'492561'
p148
ag11
ag6
ag10
ag17
ag6
ag17
ag10
ag17
ag17
ag10
aa(lp149
S'493452'
p150
ag17
ag17
ag6
ag17
ag10
ag17
ag17
ag17
ag17
ag10
aa(lp151
S'493452'
p152
ag11
ag17
ag10
ag17
ag10
ag17
ag10
ag17
ag17
ag10
aa(lp153
S'521441'
p154
ag4
ag17
ag17
ag10
ag10
ag17
ag10
ag17
ag17
ag10
aa(lp155
S'560680'
p156
ag6
ag17
ag10
ag17
ag10
ag17
ag10
ag17
ag17
ag10
aa(lp157
S'636437'
p158
ag17
ag17
ag17
ag17
ag10
ag17
ag17
ag17
ag17
ag10
aa(lp159
S'640712'
p160
ag17
ag17
ag17
ag17
ag10
ag17
ag10
ag17
ag17
ag10
aa(lp161
S'654244'
p162
ag17
ag17
ag17
ag17
ag17
ag17
ag10
ag17
ag17
ag10
aa(lp163
S'657753'
p164
ag6
ag17
ag17
ag11
ag6
ag17
ag10
ag10
ag17
ag10
aa(lp165
S'685977'
p166
ag4
ag6
ag11
ag17
ag11
ag17
ag6
ag17
ag17
ag10
aa(lp167
S'805448'
p168
ag17
ag17
ag17
ag17
ag10
ag17
ag17
ag17
ag17
ag10
aa(lp169
S'1002504'
p170
ag6
ag10
ag10
ag10
ag10
ag17
ag6
ag10
ag17
ag10
aa(lp171
S'1022257'
p172
ag10
ag17
ag17
ag17
ag10
ag17
ag17
ag17
ag17
ag10
aa(lp173
S'1026122'
p174
ag10
ag17
ag17
ag17
ag10
ag17
ag17
ag17
ag17
ag10
aa(lp175
S'1071084'
p176
ag6
ag6
ag10
ag10
ag6
ag17
ag17
ag10
ag6
ag10
aa(lp177
S'1114570'
p178
ag4
ag6
ag6
ag10
ag6
ag17
ag6
ag17
ag17
ag10
aa(lp179
S'1114570'
p180
ag10
ag17
ag17
ag17
ag10
ag17
ag10
ag10
ag17
ag10
aa(lp181
S'1116715'
p182
ag4
ag17
ag17
ag17
ag6
ag10
ag10
ag10
ag17
ag10
aa(lp183
S'1131411'
p184
ag17
ag17
ag17
ag10
ag10
ag17
ag10
ag17
ag17
ag10
aa(lp185
S'1156017'
p186
ag6
ag17
ag17
ag17
ag10
ag17
ag10
ag17
ag17
ag10
aa(lp187
S'1158247'
p188
ag17
ag17
ag17
ag17
ag17
ag17
ag17
ag17
ag17
ag10
aa(lp189
S'1158405'
p190
ag17
ag10
ag6
ag17
ag10
ag17
ag10
ag17
ag17
ag10
aa(lp191
S'1168278'
p192
ag6
ag17
ag17
ag17
ag10
ag17
ag10
ag17
ag17
ag10
aa(lp193
S'1176187'
p194
ag6
ag17
ag17
ag17
ag10
ag17
ag6
ag17
ag17
ag10
aa(lp195
S'1196263'
p196
ag11
ag17
ag17
ag17
ag10
ag17
ag17
ag17
ag17
ag10
aa(lp197
S'1196475'
p198
ag6
ag10
ag17
ag17
ag10
ag17
ag10
ag10
ag17
ag10
aa(lp199
S'1206314'
p200
ag17
ag10
ag6
ag17
ag10
ag17
ag17
ag17
ag17
ag10
aa(lp201
S'1213784'
p202
ag6
ag17
ag17
ag17
ag10
ag17
ag17
ag17
ag17
ag10
aa.