(lp0
(lp1
S'324427'
p2
aS'10'
p3
aS'8'
p4
ag4
aS'2'
p5
aS'3'
p6
aS'4'
p7
ag4
aS'7'
p8
ag4
ag7
aa(lp9
S'390840'
p10
ag4
ag7
ag8
aS'1'
p11
ag6
aS'10'
p12
ag6
aS'9'
p13
ag5
ag7
aa(lp14
S'320675'
p15
ag6
ag6
aS'5'
p16
ag5
ag6
aS'10'
p17
ag8
ag11
ag11
ag7
aa(lp18
S'428903'
p19
ag8
ag5
ag7
ag11
ag6
ag7
ag6
ag6
ag11
ag7
aa(lp20
S'476903'
p21
aS'10'
p22
ag16
ag8
ag6
ag6
ag8
ag6
ag6
ag4
ag7
aa(lp23
S'488173'
p24
ag11
ag7
ag6
aS'10'
p25
ag7
aS'10'
p26
ag16
aS'6'
p27
ag11
ag7
aa(lp28
S'492268'
p29
aS'10'
p30
ag7
ag27
ag11
ag5
aS'10'
p31
ag16
ag6
ag11
ag7
aa(lp32
S'508234'
p33
ag8
ag7
ag16
aS'10'
p34
ag5
aS'10'
p35
ag6
ag4
ag5
ag7
aa(lp36
S'527363'
p37
ag4
aS'10'
p38
aS'10'
p39
aS'10'
p40
ag4
aS'10'
p41
aS'10'
p42
ag8
ag6
ag7
aa(lp43
S'529329'
p44
aS'10'
p45
aS'10'
p46
aS'10'
p47
aS'10'
p48
aS'10'
p49
aS'10'
p50
ag7
aS'10'
p51
aS'10'
p52
ag7
aa(lp53
S'543558'
p54
ag27
ag11
ag6
ag11
ag7
ag16
ag16
aS'10'
p55
ag11
ag7
aa(lp56
S'555977'
p57
ag16
ag27
ag27
ag4
ag27
aS'10'
p58
ag7
aS'10'
p59
ag7
ag7
aa(lp60
S'563649'
p61
ag4
ag4
ag4
ag11
ag5
aS'?'
p62
ag27
aS'10'
p63
ag11
ag7
aa(lp64
S'601265'
p65
aS'10'
p66
ag7
ag7
ag27
ag5
aS'10'
p67
ag5
ag6
ag11
ag7
aa(lp68
S'606722'
p69
ag16
ag16
ag8
ag4
ag27
aS'10'
p70
ag8
ag7
ag11
ag7
aa(lp71
S'63375'
p72
ag13
ag11
ag5
ag27
ag7
aS'10'
p73
ag8
ag8
ag5
ag7
aa(lp74
S'635844'
p75
ag4
ag7
aS'10'
p76
ag16
ag7
ag7
ag8
aS'10'
p77
ag11
ag7
aa(lp78
S'640744'
p79
aS'10'
p80
aS'10'
p81
aS'10'
p82
ag8
ag13
aS'10'
p83
ag8
aS'10'
p84
aS'10'
p85
ag7
aa(lp86
S'653777'
p87
ag4
ag6
ag7
ag13
ag6
aS'10'
p88
ag6
ag6
ag11
ag7
aa(lp89
S'659642'
p90
aS'10'
p91
ag4
ag7
ag7
ag7
aS'10'
p92
ag6
aS'10'
p93
ag7
ag7
aa(lp94
S'667204'
p95
ag8
ag4
ag8
ag27
ag7
ag6
ag4
ag4
ag7
ag7
aa(lp96
S'691628'
p97
ag4
ag27
ag7
aS'10'
p98
aS'10'
p99
ag11
ag6
ag16
ag11
ag7
aa(lp100
S'706426'
p101
ag16
ag16
ag16
ag5
ag16
aS'10'
p102
ag7
ag6
ag11
ag7
aa(lp103
S'709287'
p104
ag27
ag4
ag8
ag4
ag27
ag4
ag4
ag13
ag11
ag7
aa(lp105
S'1223003'
p106
ag16
ag6
ag6
ag11
ag5
ag11
ag5
ag11
ag11
ag5
aa(lp107
S'1223306'
p108
ag6
ag11
ag11
ag11
ag5
ag7
ag11
ag11
ag11
ag5
aa(lp109
S'1223543'
p110
ag11
ag5
ag11
ag6
ag5
ag11
ag11
ag5
ag11
ag5
aa(lp111
S'1229929'
p112
ag11
ag11
ag11
ag11
ag5
ag11
ag5
ag11
ag11
ag5
aa(lp113
S'1231853'
p114
ag7
ag5
ag5
ag11
ag5
ag11
ag5
ag11
ag11
ag5
aa(lp115
S'1234554'
p116
ag11
ag11
ag11
ag11
ag5
ag11
ag5
ag11
ag11
ag5
aa(lp117
S'1236837'
p118
ag5
ag6
ag5
ag5
ag5
ag5
ag6
ag11
ag11
ag5
aa(lp119
S'1237674'
p120
ag6
ag11
ag5
ag11
ag5
ag11
ag5
ag11
ag11
ag5
aa(lp121
S'1238021'
p122
ag11
ag11
ag11
ag11
ag5
ag11
ag5
ag11
ag11
ag5
aa(lp123
S'1238464'
p124
ag11
ag11
ag11
ag11
ag11
ag62
ag5
ag11
ag11
ag5
aa(lp125
S'1238915'
p126
ag16
ag11
ag5
ag11
ag5
ag11
ag6
ag11
ag11
ag5
aa(lp127
S'1239232'
p128
ag6
ag6
ag5
ag27
ag6
ag6
ag6
ag16
ag11
ag5
aa(lp129
S'1239967'
p130
ag11
ag11
ag11
ag11
ag5
ag11
ag5
ag11
ag11
ag5
aa(lp131
S'1240337'
p132
ag16
ag5
ag5
ag5
ag5
ag5
ag6
ag5
ag5
ag5
aa(lp133
S'1253505'
p134
ag5
ag6
ag11
ag11
ag16
ag11
ag11
ag11
ag11
ag5
aa(lp135
S'1255384'
p136
ag6
ag5
ag5
ag6
ag5
ag6
ag6
ag11
ag11
ag5
aa(lp137
S'1257648'
p138
ag7
ag6
ag6
ag11
ag5
ag11
ag6
ag6
ag11
ag5
aa(lp139
S'1257815'
p140
ag16
ag11
ag6
ag11
ag5
ag11
ag5
ag11
ag11
ag5
aa(lp141
S'1257938'
p142
ag6
ag11
ag11
ag11
ag5
ag11
ag11
ag11
ag11
ag5
aa(lp143
S'1258556'
p144
ag16
ag6
ag27
ag11
ag5
ag11
ag11
ag11
ag11
ag5
aa(lp145
S'1272039'
p146
ag11
ag11
ag11
ag11
ag5
ag11
ag5
ag11
ag11
ag5
aa(lp147
S'1276091'
p148
ag5
ag11
ag11
ag11
ag5
ag11
ag5
ag11
ag11
ag5
aa(lp149
S'1276091'
p150
ag11
ag6
ag11
ag11
ag5
ag11
ag5
ag5
ag11
ag5
aa(lp151
S'1276091'
p152
ag16
ag11
ag11
ag6
ag7
ag11
ag6
ag5
ag11
ag5
aa(lp153
S'1277629'
p154
ag16
ag11
ag11
ag11
ag5
ag11
ag5
ag5
ag11
ag5
aa(lp155
S'1293439'
p156
ag6
ag5
ag5
ag6
ag5
ag11
ag11
ag11
ag11
ag5
aa(lp157
S'1293439'
p158
ag27
ag13
ag8
ag16
ag16
ag4
ag7
ag5
ag11
ag5
aa(lp159
S'527337'
p160
ag7
ag11
ag11
ag11
ag5
ag11
ag11
ag11
ag11
ag5
aa(lp161
S'558538'
p162
ag7
ag11
ag6
ag6
ag5
ag11
ag11
ag11
ag11
ag5
aa(lp163
S'566509'
p164
ag16
ag11
ag11
ag11
ag5
ag11
ag11
ag11
ag11
ag5
aa(lp165
S'677910'
p166
ag16
ag5
ag5
ag7
ag5
ag7
ag11
ag11
ag11
ag5
aa(lp167
S'734111'
p168
ag11
ag11
ag11
ag6
ag5
ag6
ag11
ag11
ag11
ag5
aa(lp169
S'734111'
p170
ag11
ag11
ag11
ag11
ag5
ag5
ag11
ag11
ag11
ag5
aa(lp171
S'780555'
p172
ag16
ag11
ag11
ag27
ag6
ag11
ag5
ag11
ag11
ag5
aa(lp173
S'827627'
p174
ag5
ag11
ag11
ag11
ag5
ag11
ag11
ag11
ag11
ag5
aa(lp175
S'1049837'
p176
ag11
ag11
ag11
ag11
ag5
ag11
ag11
ag11
ag11
ag5
aa(lp177
S'1058849'
p178
ag16
ag11
ag11
ag11
ag5
ag11
ag11
ag11
ag11
ag5
aa(lp179
S'1182404'
p180
ag11
ag11
ag11
ag11
ag11
ag11
ag11
ag11
ag11
ag5
aa(lp181
S'1201870'
p182
ag7
ag11
ag11
ag6
ag11
ag11
ag5
ag11
ag11
ag5
aa(lp183
S'1202253'
p184
ag16
ag11
ag11
ag11
ag5
ag11
ag11
ag11
ag11
ag5
aa(lp185
S'1227081'
p186
ag6
ag11
ag11
ag6
ag5
ag11
ag11
ag11
ag11
ag5
aa(lp187
S'1238410'
p188
ag5
ag6
ag11
ag11
ag6
ag11
ag11
ag11
ag11
ag5
aa(lp189
S'1266124'
p190
ag16
ag11
ag5
ag11
ag5
ag11
ag11
ag11
ag11
ag5
aa(lp191
S'1267898'
p192
ag16
ag11
ag6
ag11
ag5
ag11
ag11
ag11
ag11
ag5
aa(lp193
S'1268313'
p194
ag16
ag11
ag11
ag6
ag5
ag11
ag11
ag11
ag11
ag5
aa(lp195
S'1268804'
p196
ag6
ag11
ag11
ag11
ag5
ag16
ag11
ag11
ag11
ag5
aa.