(lp0
(lp1
S'1000025'
p2
aS'5'
p3
aS'1'
p4
ag4
ag4
aS'2'
p5
ag4
aS'3'
p6
ag4
ag4
ag5
aa(lp7
S'1002945'
p8
ag3
aS'4'
p9
ag9
ag3
aS'7'
p10
aS'10'
p11
ag6
ag5
ag4
ag5
aa(lp12
S'1015425'
p13
ag6
ag4
ag4
ag4
ag5
ag5
ag6
ag4
ag4
ag5
aa(lp14
S'1016277'
p15
aS'6'
p16
aS'8'
p17
ag17
ag4
ag6
ag9
ag6
ag10
ag4
ag5
aa(lp18
S'1017023'
p19
ag9
ag4
ag4
ag6
ag5
ag4
ag6
ag4
ag4
ag5
aa(lp20
S'1017122'
p21
ag17
aS'10'
p22
aS'10'
p23
ag17
ag10
aS'10'
p24
aS'9'
p25
ag10
ag4
ag9
aa(lp26
S'1018099'
p27
ag4
ag4
ag4
ag4
ag5
aS'10'
p28
ag6
ag4
ag4
ag5
aa(lp29
S'1018561'
p30
ag5
ag4
ag5
ag4
ag5
ag4
ag6
ag4
ag4
ag5
aa(lp31
S'1033078'
p32
ag5
ag4
ag4
ag4
ag5
ag4
ag4
ag4
ag3
ag5
aa(lp33
S'1033078'
p34
ag9
ag5
ag4
ag4
ag5
ag4
ag5
ag4
ag4
ag5
aa(lp35
S'1035283'
p36
ag4
ag4
ag4
ag4
ag4
ag4
ag6
ag4
ag4
ag5
aa(lp37
S'1036172'
p38
ag5
ag4
ag4
ag4
ag5
ag4
ag5
ag4
ag4
ag5
aa(lp39
S'1041801'
p40
ag3
ag6
ag6
ag6
ag5
ag6
ag9
ag9
ag4
ag9
aa(lp41
S'1043999'
p42
ag4
ag4
ag4
ag4
ag5
ag6
ag6
ag4
ag4
ag5
aa(lp43
S'1044572'
p44
ag17
ag10
ag3
aS'10'
p45
ag10
ag25
ag3
ag3
ag9
ag9
aa(lp46
S'1047630'
p47
ag10
ag9
ag16
ag9
ag16
ag4
ag9
ag6
ag4
ag9
aa(lp48
S'1048672'
p49
ag9
ag4
ag4
ag4
ag5
ag4
ag5
ag4
ag4
ag5
aa(lp50
S'1049815'
p51
ag9
ag4
ag4
ag4
ag5
ag4
ag6
ag4
ag4
ag5
aa(lp52
S'1050670'
p53
aS'10'
p54
ag10
ag10
ag16
ag9
aS'10'
p55
ag9
ag4
ag5
ag9
aa(lp56
S'1050718'
p57
ag16
ag4
ag4
ag4
ag5
ag4
ag6
ag4
ag4
ag5
aa(lp58
S'1054590'
p59
ag10
ag6
ag5
aS'10'
p60
ag3
aS'10'
p61
ag3
ag9
ag9
ag9
aa(lp62
S'1054593'
p63
aS'10'
p64
ag3
ag3
ag6
ag16
ag10
ag10
aS'10'
p65
ag4
ag9
aa(lp66
S'1056784'
p67
ag6
ag4
ag4
ag4
ag5
ag4
ag5
ag4
ag4
ag5
aa(lp68
S'1057013'
p69
ag17
ag9
ag3
ag4
ag5
aS'?'
p70
ag10
ag6
ag4
ag9
aa(lp71
S'1059552'
p72
ag4
ag4
ag4
ag4
ag5
ag4
ag6
ag4
ag4
ag5
aa(lp73
S'1065726'
p74
ag3
ag5
ag6
ag9
ag5
ag10
ag6
ag16
ag4
ag9
aa(lp75
S'1066373'
p76
ag6
ag5
ag4
ag4
ag4
ag4
ag5
ag4
ag4
ag5
aa(lp77
S'1066979'
p78
ag3
ag4
ag4
ag4
ag5
ag4
ag5
ag4
ag4
ag5
aa(lp79
S'1067444'
p80
ag5
ag4
ag4
ag4
ag5
ag4
ag5
ag4
ag4
ag5
aa(lp81
S'1070935'
p82
ag4
ag4
ag6
ag4
ag5
ag4
ag4
ag4
ag4
ag5
aa(lp83
S'1070935'
p84
ag6
ag4
ag4
ag4
ag4
ag4
ag5
ag4
ag4
ag5
aa(lp85
S'1071760'
p86
ag5
ag4
ag4
ag4
ag5
ag4
ag6
ag4
ag4
ag5
aa(lp87
S'1072179'
p88
aS'10'
p89
ag10
ag10
ag6
ag17
ag3
ag10
ag9
ag6
ag9
aa(lp90
S'1074610'
p91
ag5
ag4
ag4
ag5
ag5
ag4
ag6
ag4
ag4
ag5
aa(lp92
S'1075123'
p93
ag6
ag4
ag5
ag4
ag5
ag4
ag5
ag4
ag4
ag5
aa(lp94
S'1079304'
p95
ag5
ag4
ag4
ag4
ag5
ag4
ag5
ag4
ag4
ag5
aa(lp96
S'1080185'
p97
aS'10'
p98
aS'10'
p99
aS'10'
p100
ag17
ag16
ag4
ag17
ag25
ag4
ag9
aa(lp101
S'1081791'
p102
ag16
ag5
ag4
ag4
ag4
ag4
ag10
ag4
ag4
ag5
aa(lp103
S'1084584'
p104
ag3
ag9
ag9
ag25
ag5
aS'10'
p105
ag3
ag16
ag4
ag9
aa(lp106
S'1091262'
p107
ag5
ag3
ag6
ag6
ag16
ag10
ag10
ag3
ag4
ag9
aa(lp108
S'1096800'
p109
ag16
ag16
ag16
ag25
ag16
ag70
ag10
ag17
ag4
ag5
aa(lp110
S'1099510'
p111
aS'10'
p112
ag9
ag6
ag4
ag6
ag6
ag16
ag3
ag5
ag9
aa(lp113
S'1100524'
p114
ag16
aS'10'
p115
aS'10'
p116
ag5
ag17
aS'10'
p117
ag10
ag6
ag6
ag9
aa(lp118
S'1102573'
p119
ag3
ag16
ag3
ag16
aS'10'
p120
ag4
ag6
ag4
ag4
ag9
aa(lp121
S'1103608'
p122
aS'10'
p123
aS'10'
p124
aS'10'
p125
ag9
ag17
ag4
ag17
aS'10'
p126
ag4
ag9
aa(lp127
S'1103722'
p128
ag4
ag4
ag4
ag4
ag5
ag4
ag5
ag4
ag5
ag5
aa(lp129
S'1105257'
p130
ag6
ag10
ag10
ag9
ag9
ag25
ag9
ag17
ag4
ag9
aa(lp131
S'1105524'
p132
ag4
ag4
ag4
ag4
ag5
ag4
ag5
ag4
ag4
ag5
aa(lp133
S'1106095'
p134
ag9
ag4
ag4
ag6
ag5
ag4
ag6
ag4
ag4
ag5
aa(lp135
S'1106829'
p136
ag10
ag17
ag10
ag5
ag9
ag17
ag6
ag17
ag5
ag9
aa(lp137
S'1108370'
p138
ag25
ag3
ag17
ag4
ag5
ag6
ag5
ag4
ag3
ag9
aa(lp139
S'1108449'
p140
ag3
ag6
ag6
ag9
ag5
ag9
ag6
ag9
ag4
ag9
aa(lp141
S'1110102'
p142
aS'10'
p143
ag6
ag16
ag5
ag6
ag3
ag9
aS'10'
p144
ag5
ag9
aa(lp145
S'1110503'
p146
ag3
ag3
ag3
ag17
aS'10'
p147
ag17
ag10
ag6
ag10
ag9
aa(lp148
S'1110524'
p149
aS'10'
p150
ag3
ag3
ag16
ag17
ag17
ag10
ag4
ag4
ag9
aa(lp151
S'1111249'
p152
aS'10'
p153
ag16
ag16
ag6
ag9
ag3
ag6
ag16
ag4
ag9
aa(lp154
S'1115293'
p155
ag4
ag4
ag4
ag4
ag5
ag5
ag5
ag4
ag4
ag5
aa(lp156
S'1116192'
p157
ag4
ag4
ag4
ag4
ag5
ag4
ag5
ag4
ag4
ag5
aa(lp158
S'1117152'
p159
ag9
ag4
ag4
ag4
ag5
ag4
ag6
ag4
ag4
ag5
aa(lp160
S'1121732'
p161
ag4
ag4
ag4
ag4
ag5
ag4
ag6
ag5
ag4
ag5
aa(lp162
S'1121919'
p163
ag3
ag4
ag6
ag4
ag5
ag4
ag5
ag4
ag4
ag5
aa(lp164
S'1124651'
p165
ag4
ag6
ag6
ag5
ag5
ag4
ag10
ag5
ag4
ag5
aa(lp166
S'1131294'
p167
ag4
ag4
ag5
ag4
ag5
ag5
ag9
ag5
ag4
ag5
aa(lp168
S'1132347'
p169
ag4
ag4
ag9
ag4
ag5
ag4
ag5
ag4
ag4
ag5
aa(lp170
S'1133041'
p171
ag3
ag6
ag4
ag5
ag5
ag4
ag5
ag4
ag4
ag5
aa(lp172
S'1133136'
p173
ag6
ag4
ag4
ag4
ag5
ag6
ag6
ag4
ag4
ag5
aa(lp174
S'1136142'
p175
ag5
ag4
ag4
ag4
ag6
ag4
ag5
ag4
ag4
ag5
aa(lp176
S'1137156'
p177
ag5
ag5
ag5
ag4
ag4
ag4
ag10
ag4
ag4
ag5
aa(lp178
S'1143978'
p179
ag9
ag4
ag4
ag5
ag5
ag4
ag5
ag4
ag4
ag5
aa(lp180
S'1143978'
p181
ag3
ag5
ag4
ag4
ag5
ag4
ag6
ag4
ag4
ag5
aa(lp182
S'1147044'
p183
ag6
ag4
ag4
ag4
ag5
ag5
ag10
ag4
ag4
ag5
aa.