(lp0
(lp1
S'730881'
p2
aS'7'
p3
aS'6'
p4
aS'3'
p5
aS'2'
p6
aS'5'
p7
aS'10'
p8
ag3
aS'4'
p9
ag4
ag9
aa(lp10
S'733823'
p11
ag7
ag9
ag4
aS'10'
p12
ag6
aS'10'
p13
ag9
aS'1'
p14
ag14
ag9
aa(lp15
S'752904'
p16
aS'10'
p17
ag14
ag14
ag14
ag6
aS'10'
p18
ag7
ag9
ag14
ag9
aa(lp19
S'760001'
p20
aS'8'
p21
aS'10'
p22
ag5
ag6
ag4
ag9
ag5
aS'10'
p23
ag14
ag9
aa(lp24
S'760239'
p25
aS'10'
p26
ag9
ag4
ag9
ag7
aS'10'
p27
ag3
ag14
ag14
ag9
aa(lp28
S'76389'
p29
aS'10'
p30
ag9
ag3
ag6
ag6
ag21
ag4
ag14
ag14
ag9
aa(lp31
S'785208'
p32
ag7
ag9
ag4
ag4
ag9
aS'10'
p33
ag9
ag5
ag14
ag9
aa(lp34
S'785615'
p35
ag21
ag4
ag3
ag5
ag5
aS'10'
p36
ag5
ag9
ag6
ag9
aa(lp37
S'797327'
p38
ag4
ag7
ag7
ag21
ag9
aS'10'
p39
ag5
ag9
ag14
ag9
aa(lp40
S'806423'
p41
ag21
ag7
ag7
ag7
ag6
aS'10'
p42
ag9
ag5
ag14
ag9
aa(lp43
S'809912'
p44
aS'10'
p45
ag5
ag5
ag14
ag6
aS'10'
p46
ag3
ag4
ag14
ag9
aa(lp47
S'822829'
p48
ag3
ag4
ag9
ag21
aS'10'
p49
aS'10'
p50
aS'9'
p51
ag7
ag5
ag9
aa(lp52
S'832226'
p53
ag5
ag9
ag9
aS'10'
p54
ag7
ag14
ag5
ag5
ag14
ag9
aa(lp55
S'832567'
p56
ag9
ag6
ag5
ag7
ag5
ag21
ag3
ag4
ag14
ag9
aa(lp57
S'850831'
p58
ag6
ag3
aS'10'
p59
aS'10'
p60
ag3
aS'10'
p61
ag9
ag51
ag9
ag9
aa(lp62
S'859164'
p63
ag7
ag5
ag5
ag14
ag5
ag5
ag5
ag5
ag5
ag9
aa(lp64
S'859350'
p65
ag21
aS'10'
p66
aS'10'
p67
ag3
aS'10'
p68
aS'10'
p69
ag3
ag5
ag21
ag9
aa(lp70
S'866325'
p71
ag21
aS'10'
p72
ag7
ag5
ag21
ag9
ag9
aS'10'
p73
ag5
ag9
aa(lp74
S'873549'
p75
aS'10'
p76
ag5
ag7
ag9
ag5
ag3
ag5
ag7
ag5
ag9
aa(lp77
S'877291'
p78
ag4
aS'10'
p79
aS'10'
p80
aS'10'
p81
aS'10'
p82
aS'10'
p83
ag21
aS'10'
p84
aS'10'
p85
ag9
aa(lp86
S'877943'
p87
ag5
aS'10'
p88
ag5
aS'10'
p89
ag4
aS'10'
p90
ag7
ag14
ag9
ag9
aa(lp91
S'95719'
p92
ag4
aS'10'
p93
aS'10'
p94
aS'10'
p95
ag21
aS'10'
p96
ag3
aS'10'
p97
ag3
ag9
aa(lp98
S'160296'
p99
ag7
ag21
ag21
aS'10'
p100
ag7
aS'10'
p101
ag21
aS'10'
p102
ag5
ag9
aa(lp103
S'846423'
p104
aS'10'
p105
ag4
ag5
ag4
ag9
aS'10'
p106
ag3
ag21
ag9
ag9
aa(lp107
S'1276091'
p108
ag4
ag14
ag14
ag5
ag6
ag14
ag14
ag14
ag14
ag6
aa(lp109
S'1280258'
p110
ag9
ag14
ag14
ag14
ag6
ag14
ag14
ag6
ag14
ag6
aa(lp111
S'1293966'
p112
ag9
ag14
ag14
ag14
ag6
ag14
ag14
ag14
ag14
ag6
aa(lp113
S'1105524'
p114
ag9
ag14
ag14
ag14
ag6
ag14
ag14
ag14
ag14
ag6
aa(lp115
S'1181685'
p116
ag14
ag14
ag6
ag14
ag6
ag14
ag6
ag14
ag14
ag6
aa(lp117
S'1211594'
p118
ag5
ag14
ag14
ag14
ag14
ag14
ag6
ag14
ag14
ag6
aa(lp119
S'1238777'
p120
ag4
ag14
ag14
ag5
ag6
ag14
ag14
ag14
ag14
ag6
aa(lp121
S'1257608'
p122
ag4
ag14
ag14
ag14
ag14
ag14
ag14
ag14
ag14
ag6
aa(lp123
S'1269574'
p124
ag9
ag14
ag14
ag14
ag6
ag14
ag14
ag14
ag14
ag6
aa(lp125
S'1277145'
p126
ag7
ag14
ag14
ag14
ag6
ag14
ag14
ag14
ag14
ag6
aa(lp127
S'1287282'
p128
ag5
ag14
ag14
ag14
ag6
ag14
ag14
ag14
ag14
ag6
aa(lp129
S'1296025'
p130
ag9
ag14
ag6
ag14
ag6
ag14
ag14
ag14
ag14
ag6
aa(lp131
S'1296263'
p132
ag9
ag14
ag14
ag14
ag6
ag14
ag14
ag14
ag14
ag6
aa(lp133
S'1296593'
p134
ag7
ag6
ag14
ag14
ag6
ag14
ag14
ag14
ag14
ag6
aa(lp135
S'1301945'
p136
ag7
ag14
ag14
ag14
ag14
ag14
ag14
ag14
ag14
ag6
aa(lp137
S'1302428'
p138
ag7
ag5
ag6
ag9
ag6
ag14
ag14
ag14
ag14
ag6
aa(lp139
S'787451'
p140
ag7
ag14
ag6
ag14
ag6
ag14
ag14
ag14
ag14
ag6
aa(lp141
S'1002025'
p142
ag14
ag14
ag14
ag5
ag14
ag5
ag14
ag14
ag14
ag6
aa(lp143
S'1070522'
p144
ag5
ag14
ag14
ag14
ag14
ag14
ag6
ag14
ag14
ag6
aa(lp145
S'1115293'
p146
ag14
ag14
ag14
ag14
ag6
ag14
ag14
ag14
ag14
ag6
aa(lp147
S'1133991'
p148
ag9
ag14
ag14
ag14
ag14
ag14
ag6
ag14
ag14
ag6
aa(lp149
S'1155967'
p150
ag7
ag14
ag6
aS'10'
p151
ag9
ag7
ag6
ag14
ag14
ag6
aa(lp152
S'1170945'
p153
ag5
ag14
ag14
ag14
ag14
ag14
ag6
ag14
ag14
ag6
aa(lp154
S'1181567'
p155
ag14
ag14
ag14
ag14
ag14
ag14
ag14
ag14
ag14
ag6
aa(lp156
S'1182404'
p157
ag9
ag6
ag14
ag14
ag6
ag14
ag14
ag14
ag14
ag6
aa(lp158
S'1204558'
p159
ag9
ag14
ag14
ag14
ag6
ag14
ag6
ag14
ag14
ag6
aa(lp160
S'1217952'
p161
ag9
ag14
ag14
ag14
ag6
ag14
ag6
ag14
ag14
ag6
aa(lp162
S'1224565'
p163
ag4
ag14
ag14
ag14
ag6
ag14
ag5
ag14
ag14
ag6
aa(lp164
S'1238186'
p165
ag9
ag14
ag14
ag14
ag6
ag14
ag6
ag14
ag14
ag6
aa(lp166
S'1253917'
p167
ag9
ag14
ag14
ag6
ag6
ag14
ag6
ag14
ag14
ag6
aa(lp168
S'1265899'
p169
ag9
ag14
ag14
ag14
ag6
ag14
ag5
ag14
ag14
ag6
aa(lp170
S'1268766'
p171
ag14
ag14
ag14
ag14
ag6
ag14
ag14
ag14
ag14
ag6
aa(lp172
S'1277268'
p173
ag5
ag5
ag14
ag14
ag6
ag14
ag14
ag14
ag14
ag6
aa(lp174
S'1295508'
p175
ag14
ag14
ag14
ag14
ag6
ag9
ag14
ag14
ag14
ag6
aa(lp176
S'1297327'
p177
ag7
ag14
ag14
ag14
ag6
ag14
ag14
ag14
ag14
ag6
aa(lp178
S'1297522'
p179
ag6
ag14
ag14
ag14
ag6
ag14
ag14
ag14
ag14
ag6
aa(lp180
S'1298360'
p181
ag14
ag14
ag14
ag14
ag6
ag14
ag14
ag14
ag14
ag6
aa(lp182
S'1299924'
p183
ag7
ag14
ag14
ag14
ag6
ag14
ag6
ag14
ag14
ag6
aa(lp184
S'1299994'
p185
ag7
ag14
ag14
ag14
ag6
ag14
ag14
ag14
ag14
ag6
aa(lp186
S'1304595'
p187
ag5
ag14
ag14
ag14
ag14
ag14
ag6
ag14
ag14
ag6
aa(lp188
S'1320077'
p189
ag14
ag14
ag14
ag14
ag14
ag14
ag14
ag14
ag14
ag6
aa(lp190
S'1320077'
p191
ag14
ag14
ag14
ag14
ag14
ag14
ag6
ag14
ag14
ag6
aa(lp192
S'1320304'
p193
ag5
ag14
ag6
ag6
ag6
ag14
ag14
ag14
ag14
ag6
aa(lp194
S'333093'
p195
ag14
ag14
ag14
ag14
ag5
ag14
ag14
ag14
ag14
ag6
aa(lp196
S'369565'
p197
ag9
ag14
ag14
ag14
ag5
ag14
ag14
ag14
ag14
ag6
aa(lp198
S'749653'
p199
ag5
ag14
ag14
ag14
ag6
ag14
ag6
ag14
ag14
ag6
aa.