(lp0
(lp1
S'1000025'
p2
aS'5'
p3
aS'1'
p4
ag4
ag4
aS'2'
p5
ag4
aS'3'
p6
ag4
ag4
ag5
aa(lp7
S'1002945'
p8
ag3
aS'4'
p9
ag9
ag3
aS'7'
p10
aS'10'
p11
ag6
ag5
ag4
ag5
aa(lp12
S'1015425'
p13
ag6
ag4
ag4
ag4
ag5
ag5
ag6
ag4
ag4
ag5
aa(lp14
S'1016277'
p15
aS'6'
p16
aS'8'
p17
ag17
ag4
ag6
ag9
ag6
ag10
ag4
ag5
aa(lp18
S'1017023'
p19
ag9
ag4
ag4
ag6
ag5
ag4
ag6
ag4
ag4
ag5
aa(lp20
S'1017122'
p21
ag17
aS'10'
p22
aS'10'
p23
ag17
ag10
aS'10'
p24
aS'9'
p25
ag10
ag4
ag9
aa(lp26
S'1018099'
p27
ag4
ag4
ag4
ag4
ag5
aS'10'
p28
ag6
ag4
ag4
ag5
aa(lp29
S'1018561'
p30
ag5
ag4
ag5
ag4
ag5
ag4
ag6
ag4
ag4
ag5
aa(lp31
S'1033078'
p32
ag5
ag4
ag4
ag4
ag5
ag4
ag4
ag4
ag3
ag5
aa(lp33
S'1033078'
p34
ag9
ag5
ag4
ag4
ag5
ag4
ag5
ag4
ag4
ag5
aa(lp35
S'1035283'
p36
ag4
ag4
ag4
ag4
ag4
ag4
ag6
ag4
ag4
ag5
aa(lp37
S'1036172'
p38
ag5
ag4
ag4
ag4
ag5
ag4
ag5
ag4
ag4
ag5
aa(lp39
S'1041801'
p40
ag3
ag6
ag6
ag6
ag5
ag6
ag9
ag9
ag4
ag9
aa(lp41
S'1043999'
p42
ag4
ag4
ag4
ag4
ag5
ag6
ag6
ag4
ag4
ag5
aa(lp43
S'1044572'
p44
ag17
ag10
ag3
aS'10'
p45
ag10
ag25
ag3
ag3
ag9
ag9
aa(lp46
S'1047630'
p47
ag10
ag9
ag16
ag9
ag16
ag4
ag9
ag6
ag4
ag9
aa(lp48
S'1048672'
p49
ag9
ag4
ag4
ag4
ag5
ag4
ag5
ag4
ag4
ag5
aa(lp50
S'1049815'
p51
ag9
ag4
ag4
ag4
ag5
ag4
ag6
ag4
ag4
ag5
aa(lp52
S'1050670'
p53
aS'10'
p54
ag10
ag10
ag16
ag9
aS'10'
p55
ag9
ag4
ag5
ag9
aa(lp56
S'1050718'
p57
ag16
ag4
ag4
ag4
ag5
ag4
ag6
ag4
ag4
ag5
aa(lp58
S'1054590'
p59
ag10
ag6
ag5
aS'10'
p60
ag3
aS'10'
p61
ag3
ag9
ag9
ag9
aa(lp62
S'1054593'
p63
aS'10'
p64
ag3
ag3
ag6
ag16
ag10
ag10
aS'10'
p65
ag4
ag9
aa(lp66
S'1056784'
p67
ag6
ag4
ag4
ag4
ag5
ag4
ag5
ag4
ag4
ag5
aa(lp68
S'1057013'
p69
ag17
ag9
ag3
ag4
ag5
aS'?'
p70
ag10
ag6
ag4
ag9
aa(lp71
S'1059552'
p72
ag4
ag4
ag4
ag4
ag5
ag4
ag6
ag4
ag4
ag5
aa(lp73
S'1065726'
p74
ag3
ag5
ag6
ag9
ag5
ag10
ag6
ag16
ag4
ag9
aa(lp75
S'1066373'
p76
ag6
ag5
ag4
ag4
ag4
ag4
ag5
ag4
ag4
ag5
aa(lp77
S'1066979'
p78
ag3
ag4
ag4
ag4
ag5
ag4
ag5
ag4
ag4
ag5
aa(lp79
S'1067444'
p80
ag5
ag4
ag4
ag4
ag5
ag4
ag5
ag4
ag4
ag5
aa(lp81
S'1070935'
p82
ag4
ag4
ag6
ag4
ag5
ag4
ag4
ag4
ag4
ag5
aa(lp83
S'1070935'
p84
ag6
ag4
ag4
ag4
ag4
ag4
ag5
ag4
ag4
ag5
aa(lp85
S'1071760'
p86
ag5
ag4
ag4
ag4
ag5
ag4
ag6
ag4
ag4
ag5
aa(lp87
S'1072179'
p88
aS'10'
p89
ag10
ag10
ag6
ag17
ag3
ag10
ag9
ag6
ag9
aa(lp90
S'1074610'
p91
ag5
ag4
ag4
ag5
ag5
ag4
ag6
ag4
ag4
ag5
aa(lp92
S'1075123'
p93
ag6
ag4
ag5
ag4
ag5
ag4
ag5
ag4
ag4
ag5
aa(lp94
S'1079304'
p95
ag5
ag4
ag4
ag4
ag5
ag4
ag5
ag4
ag4
ag5
aa(lp96
S'1080185'
p97
aS'10'
p98
aS'10'
p99
aS'10'
p100
ag17
ag16
ag4
ag17
ag25
ag4
ag9
aa(lp101
S'1081791'
p102
ag16
ag5
ag4
ag4
ag4
ag4
ag10
ag4
ag4
ag5
aa(lp103
S'1084584'
p104
ag3
ag9
ag9
ag25
ag5
aS'10'
p105
ag3
ag16
ag4
ag9
aa(lp106
S'1091262'
p107
ag5
ag3
ag6
ag6
ag16
ag10
ag10
ag3
ag4
ag9
aa(lp108
S'1096800'
p109
ag16
ag16
ag16
ag25
ag16
ag70
ag10
ag17
ag4
ag5
aa(lp110
S'1099510'
p111
aS'10'
p112
ag9
ag6
ag4
ag6
ag6
ag16
ag3
ag5
ag9
aa(lp113
S'1100524'
p114
ag16
aS'10'
p115
aS'10'
p116
ag5
ag17
aS'10'
p117
ag10
ag6
ag6
ag9
aa(lp118
S'1102573'
p119
ag3
ag16
ag3
ag16
aS'10'
p120
ag4
ag6
ag4
ag4
ag9
aa(lp121
S'1103608'
p122
aS'10'
p123
aS'10'
p124
aS'10'
p125
ag9
ag17
ag4
ag17
aS'10'
p126
ag4
ag9
aa(lp127
S'1103722'
p128
ag4
ag4
ag4
ag4
ag5
ag4
ag5
ag4
ag5
ag5
aa(lp129
S'1105257'
p130
ag6
ag10
ag10
ag9
ag9
ag25
ag9
ag17
ag4
ag9
aa(lp131
S'1105524'
p132
ag4
ag4
ag4
ag4
ag5
ag4
ag5
ag4
ag4
ag5
aa(lp133
S'1106095'
p134
ag9
ag4
ag4
ag6
ag5
ag4
ag6
ag4
ag4
ag5
aa(lp135
S'1106829'
p136
ag10
ag17
ag10
ag5
ag9
ag17
ag6
ag17
ag5
ag9
aa(lp137
S'1108370'
p138
ag25
ag3
ag17
ag4
ag5
ag6
ag5
ag4
ag3
ag9
aa(lp139
S'1108449'
p140
ag3
ag6
ag6
ag9
ag5
ag9
ag6
ag9
ag4
ag9
aa(lp141
S'1110102'
p142
aS'10'
p143
ag6
ag16
ag5
ag6
ag3
ag9
aS'10'
p144
ag5
ag9
aa(lp145
S'1110503'
p146
ag3
ag3
ag3
ag17
aS'10'
p147
ag17
ag10
ag6
ag10
ag9
aa(lp148
S'1110524'
p149
aS'10'
p150
ag3
ag3
ag16
ag17
ag17
ag10
ag4
ag4
ag9
aa(lp151
S'1111249'
p152
aS'10'
p153
ag16
ag16
ag6
ag9
ag3
ag6
ag16
ag4
ag9
aa(lp154
S'1112209'
p155
ag17
aS'10'
p156
aS'10'
p157
ag4
ag6
ag16
ag6
ag25
ag4
ag9
aa(lp158
S'1113038'
p159
ag17
ag5
ag9
ag4
ag3
ag4
ag3
ag9
ag9
ag9
aa(lp160
S'1113483'
p161
ag3
ag5
ag6
ag4
ag16
aS'10'
p162
ag3
ag4
ag4
ag9
aa(lp163
S'1113906'
p164
ag25
ag3
ag3
ag5
ag5
ag5
ag3
ag4
ag4
ag9
aa(lp165
S'1115282'
p166
ag3
ag6
ag3
ag3
ag6
ag6
ag9
aS'10'
p167
ag4
ag9
aa(lp168
S'1115293'
p169
ag4
ag4
ag4
ag4
ag5
ag5
ag5
ag4
ag4
ag5
aa(lp170
S'1116116'
p171
ag25
aS'10'
p172
aS'10'
p173
ag4
aS'10'
p174
ag17
ag6
ag6
ag4
ag9
aa(lp175
S'1116132'
p176
ag16
ag6
ag9
ag4
ag3
ag5
ag6
ag25
ag4
ag9
aa(lp177
S'1116192'
p178
ag4
ag4
ag4
ag4
ag5
ag4
ag5
ag4
ag4
ag5
aa(lp179
S'1116998'
p180
aS'10'
p181
ag9
ag5
ag4
ag6
ag5
ag9
ag6
aS'10'
p182
ag9
aa(lp183
S'1117152'
p184
ag9
ag4
ag4
ag4
ag5
ag4
ag6
ag4
ag4
ag5
aa(lp185
S'1118039'
p186
ag3
ag6
ag9
ag4
ag17
aS'10'
p187
ag9
ag25
ag4
ag9
aa(lp188
S'1120559'
p189
ag17
ag6
ag17
ag6
ag9
ag25
ag17
ag25
ag17
ag9
aa(lp190
S'1121732'
p191
ag4
ag4
ag4
ag4
ag5
ag4
ag6
ag5
ag4
ag5
aa(lp192
S'1121919'
p193
ag3
ag4
ag6
ag4
ag5
ag4
ag5
ag4
ag4
ag5
aa(lp194
S'1123061'
p195
ag16
aS'10'
p196
ag5
ag17
aS'10'
p197
ag5
ag10
ag17
aS'10'
p198
ag9
aa(lp199
S'1124651'
p200
ag4
ag6
ag6
ag5
ag5
ag4
ag10
ag5
ag4
ag5
aa(lp201
S'1125035'
p202
ag25
ag9
ag3
aS'10'
p203
ag16
aS'10'
p204
ag9
ag17
ag4
ag9
aa(lp205
S'1126417'
p206
aS'10'
p207
ag16
ag9
ag4
ag6
ag9
ag6
ag5
ag6
ag9
aa(lp208
S'1131294'
p209
ag4
ag4
ag5
ag4
ag5
ag5
ag9
ag5
ag4
ag5
aa(lp210
S'1132347'
p211
ag4
ag4
ag9
ag4
ag5
ag4
ag5
ag4
ag4
ag5
aa(lp212
S'1133041'
p213
ag3
ag6
ag4
ag5
ag5
ag4
ag5
ag4
ag4
ag5
aa(lp214
S'1133136'
p215
ag6
ag4
ag4
ag4
ag5
ag6
ag6
ag4
ag4
ag5
aa(lp216
S'1136142'
p217
ag5
ag4
ag4
ag4
ag6
ag4
ag5
ag4
ag4
ag5
aa(lp218
S'1137156'
p219
ag5
ag5
ag5
ag4
ag4
ag4
ag10
ag4
ag4
ag5
aa(lp220
S'1143978'
p221
ag9
ag4
ag4
ag5
ag5
ag4
ag5
ag4
ag4
ag5
aa(lp222
S'1143978'
p223
ag3
ag5
ag4
ag4
ag5
ag4
ag6
ag4
ag4
ag5
aa(lp224
S'1147044'
p225
ag6
ag4
ag4
ag4
ag5
ag5
ag10
ag4
ag4
ag5
aa(lp226
S'1147699'
p227
ag6
ag3
ag10
ag17
ag17
ag25
ag10
aS'10'
p228
ag10
ag9
aa(lp229
S'1147748'
p230
ag3
aS'10'
p231
ag16
ag4
aS'10'
p232
ag9
ag9
aS'10'
p233
aS'10'
p234
ag9
aa(lp235
S'1148278'
p236
ag6
ag6
ag16
ag9
ag3
ag17
ag9
ag9
ag4
ag9
aa(lp237
S'1148873'
p238
ag6
ag16
ag16
ag16
ag3
aS'10'
p239
ag16
ag17
ag6
ag9
aa(lp240
S'1152331'
p241
ag9
ag4
ag4
ag4
ag5
ag4
ag6
ag4
ag4
ag5
aa(lp242
S'1155546'
p243
ag5
ag4
ag4
ag5
ag6
ag4
ag5
ag4
ag4
ag5
aa(lp244
S'1156272'
p245
ag4
ag4
ag4
ag4
ag5
ag4
ag6
ag4
ag4
ag5
aa(lp246
S'1156948'
p247
ag6
ag4
ag4
ag5
ag5
ag4
ag4
ag4
ag4
ag5
aa(lp248
S'1157734'
p249
ag9
ag4
ag4
ag4
ag5
ag4
ag6
ag4
ag4
ag5
aa(lp250
S'1158247'
p251
ag4
ag4
ag4
ag4
ag5
ag4
ag5
ag4
ag4
ag5
aa(lp252
S'1160476'
p253
ag5
ag4
ag4
ag4
ag5
ag4
ag6
ag4
ag4
ag5
aa(lp254
S'1164066'
p255
ag4
ag4
ag4
ag4
ag5
ag4
ag6
ag4
ag4
ag5
aa(lp256
S'1165297'
p257
ag5
ag4
ag4
ag5
ag5
ag4
ag4
ag4
ag4
ag5
aa(lp258
S'1165790'
p259
ag3
ag4
ag4
ag4
ag5
ag4
ag6
ag4
ag4
ag5
aa(lp260
S'1165926'
p261
ag25
ag16
ag25
ag5
aS'10'
p262
ag16
ag5
ag25
aS'10'
p263
ag9
aa(lp264
S'1166630'
p265
ag10
ag3
ag16
aS'10'
p266
ag3
aS'10'
p267
ag10
ag25
ag9
ag9
aa(lp268
S'1166654'
p269
aS'10'
p270
ag6
ag3
ag4
aS'10'
p271
ag3
ag6
aS'10'
p272
ag5
ag9
aa(lp273
S'1167439'
p274
ag5
ag6
ag9
ag9
ag5
ag3
ag5
ag3
ag4
ag9
aa(lp275
S'1167471'
p276
ag9
ag4
ag5
ag4
ag5
ag4
ag6
ag4
ag4
ag5
aa(lp277
S'1168359'
p278
ag17
ag5
ag6
ag4
ag16
ag6
ag10
ag4
ag4
ag9
aa(lp279
S'1168736'
p280
aS'10'
p281
aS'10'
p282
aS'10'
p283
aS'10'
p284
aS'10'
p285
ag4
ag17
ag17
ag17
ag9
aa(lp286
S'1169049'
p287
ag10
ag6
ag9
ag9
ag6
ag6
ag6
ag5
ag10
ag9
aa(lp288
S'1170419'
p289
aS'10'
p290
aS'10'
p291
aS'10'
p292
ag17
ag5
aS'10'
p293
ag9
ag4
ag4
ag9
aa(lp294
S'1170420'
p295
ag4
ag16
ag17
aS'10'
p296
ag17
aS'10'
p297
ag3
ag10
ag4
ag9
aa(lp298
S'1171710'
p299
ag4
ag4
ag4
ag4
ag5
ag4
ag5
ag6
ag4
ag5
aa(lp300
S'1171710'
p301
ag16
ag3
ag9
ag9
ag6
ag25
ag10
ag17
ag6
ag9
aa(lp302
S'1171795'
p303
ag4
ag6
ag4
ag5
ag5
ag5
ag3
ag6
ag5
ag5
aa(lp304
S'1171845'
p305
ag17
ag16
ag9
ag6
ag3
ag25
ag6
ag4
ag4
ag9
aa(lp306
S'1172152'
p307
aS'10'
p308
ag6
ag6
aS'10'
p309
ag5
aS'10'
p310
ag10
ag6
ag6
ag9
aa(lp311
S'1173216'
p312
aS'10'
p313
aS'10'
p314
aS'10'
p315
ag6
aS'10'
p316
ag17
ag17
ag4
ag4
ag9
aa(lp317
S'1173235'
p318
ag6
ag6
ag5
ag4
ag5
ag6
ag6
ag4
ag4
ag5
aa(lp319
S'1173347'
p320
ag4
ag4
ag4
ag4
ag5
ag3
ag4
ag4
ag4
ag5
aa(lp321
S'1173347'
p322
ag17
ag6
ag6
ag4
ag5
ag5
ag6
ag5
ag4
ag5
aa(lp323
S'1173509'
p324
ag9
ag3
ag3
aS'10'
p325
ag9
aS'10'
p326
ag10
ag3
ag17
ag9
aa(lp327
S'1173514'
p328
ag4
ag4
ag4
ag4
ag9
ag6
ag4
ag4
ag4
ag5
aa(lp329
S'1173681'
p330
ag6
ag5
ag4
ag4
ag5
ag5
ag6
ag4
ag4
ag5
aa(lp331
S'1174057'
p332
ag4
ag4
ag5
ag5
ag5
ag4
ag6
ag4
ag4
ag5
aa(lp333
S'1174057'
p334
ag9
ag5
ag4
ag4
ag5
ag5
ag6
ag4
ag4
ag5
aa(lp335
S'1174131'
p336
aS'10'
p337
aS'10'
p338
aS'10'
p339
ag5
aS'10'
p340
aS'10'
p341
ag3
ag6
ag6
ag9
aa(lp342
S'1174428'
p343
ag3
ag6
ag3
ag4
ag17
aS'10'
p344
ag3
ag6
ag4
ag9
aa(lp345
S'1175937'
p346
ag3
ag9
ag16
ag10
ag25
ag10
ag17
aS'10'
p347
ag4
ag9
aa(lp348
S'1176406'
p349
ag4
ag4
ag4
ag4
ag5
ag4
ag5
ag4
ag4
ag5
aa(lp350
S'1176881'
p351
ag10
ag3
ag6
ag10
ag9
aS'10'
p352
ag10
ag3
ag3
ag9
aa(lp353
S'1177027'
p354
ag6
ag4
ag4
ag4
ag5
ag4
ag6
ag4
ag4
ag5
aa(lp355
S'1177399'
p356
ag17
ag6
ag3
ag9
ag3
aS'10'
p357
ag4
ag16
ag5
ag9
aa(lp358
S'1177512'
p359
ag4
ag4
ag4
ag4
aS'10'
p360
ag4
ag4
ag4
ag4
ag5
aa(lp361
S'1178580'
p362
ag3
ag4
ag6
ag4
ag5
ag4
ag5
ag4
ag4
ag5
aa(lp363
S'1179818'
p364
ag5
ag4
ag4
ag4
ag5
ag4
ag6
ag4
ag4
ag5
aa(lp365
S'1180194'
p366
ag3
aS'10'
p367
ag17
aS'10'
p368
ag17
aS'10'
p369
ag6
ag16
ag6
ag9
aa(lp370
S'1180523'
p371
ag6
ag4
ag4
ag4
ag5
ag4
ag5
ag5
ag4
ag5
aa(lp372
S'1180831'
p373
ag6
ag4
ag4
ag4
ag6
ag4
ag5
ag4
ag4
ag5
aa(lp374
S'1181356'
p375
ag3
ag4
ag4
ag4
ag5
ag5
ag6
ag6
ag4
ag5
aa(lp376
S'1182404'
p377
ag9
ag4
ag4
ag4
ag5
ag4
ag5
ag4
ag4
ag5
aa(lp378
S'1182410'
p379
ag6
ag4
ag4
ag4
ag5
ag4
ag4
ag4
ag4
ag5
aa(lp380
S'1183240'
p381
ag9
ag4
ag5
ag4
ag5
ag4
ag5
ag4
ag4
ag5
aa(lp382
S'1183246'
p383
ag4
ag4
ag4
ag4
ag4
ag70
ag5
ag4
ag4
ag5
aa(lp384
S'1183516'
p385
ag6
ag4
ag4
ag4
ag5
ag4
ag4
ag4
ag4
ag5
aa(lp386
S'1183911'
p387
ag5
ag4
ag4
ag4
ag5
ag4
ag4
ag4
ag4
ag5
aa(lp388
S'1183983'
p389
ag25
ag3
ag3
ag9
ag9
ag3
ag9
ag6
ag6
ag9
aa(lp390
S'1184184'
p391
ag4
ag4
ag4
ag4
ag5
ag3
ag4
ag4
ag4
ag5
aa(lp392
S'1184241'
p393
ag5
ag4
ag4
ag4
ag5
ag4
ag5
ag4
ag4
ag5
aa(lp394
S'1184840'
p395
ag4
ag4
ag6
ag4
ag5
ag70
ag5
ag4
ag4
ag5
aa(lp396
S'1185609'
p397
ag6
ag9
ag3
ag5
ag16
ag17
ag9
ag4
ag4
ag9
aa(lp398
S'1185610'
p399
ag4
ag4
ag4
ag4
ag6
ag5
ag5
ag4
ag4
ag5
aa(lp400
S'1187457'
p401
ag6
ag4
ag4
ag6
ag17
ag4
ag3
ag17
ag4
ag5
aa(lp402
S'1187805'
p403
ag17
ag17
ag10
ag9
aS'10'
p404
aS'10'
p405
ag10
ag17
ag10
ag9
aa(lp406
S'1188472'
p407
ag4
ag4
ag4
ag4
ag4
ag4
ag6
ag4
ag4
ag5
aa(lp408
S'1189266'
p409
ag10
ag5
ag9
ag4
ag16
aS'10'
p410
ag3
ag9
ag6
ag9
aa(lp411
S'1189286'
p412
aS'10'
p413
aS'10'
p414
ag17
ag16
ag9
ag3
ag17
aS'10'
p415
ag4
ag9
aa(lp416
S'1190394'
p417
ag9
ag4
ag4
ag4
ag5
ag6
ag4
ag4
ag4
ag5
aa(lp418
S'1190485'
p419
ag4
ag4
ag4
ag4
ag5
ag4
ag4
ag4
ag4
ag5
aa(lp420
S'1192325'
p421
ag3
ag3
ag3
ag16
ag6
aS'10'
p422
ag6
ag4
ag4
ag9
aa(lp423
S'1193091'
p424
ag4
ag5
ag5
ag4
ag5
ag4
ag5
ag4
ag4
ag5
aa(lp425
S'1193210'
p426
ag5
ag4
ag4
ag4
ag5
ag4
ag6
ag4
ag4
ag5
aa(lp427
S'1193683'
p428
ag4
ag4
ag5
ag4
ag6
ag70
ag4
ag4
ag4
ag5
aa(lp429
S'1196295'
p430
ag25
ag25
aS'10'
p431
ag6
ag16
aS'10'
p432
ag10
aS'10'
p433
ag16
ag9
aa(lp434
S'1196915'
p435
aS'10'
p436
ag10
ag10
ag9
ag3
aS'10'
p437
ag3
ag10
ag5
ag9
aa(lp438
S'1197080'
p439
ag9
ag4
ag4
ag4
ag5
ag4
ag6
ag5
ag4
ag5
aa(lp440
S'1197270'
p441
ag6
ag4
ag4
ag4
ag5
ag4
ag6
ag4
ag4
ag5
aa(lp442
S'1197440'
p443
ag4
ag4
ag4
ag5
ag4
ag6
ag4
ag4
ag10
ag5
aa(lp444
S'1197510'
p445
ag3
ag4
ag4
ag4
ag5
ag70
ag6
ag4
ag4
ag5
aa(lp446
S'1197979'
p447
ag9
ag4
ag4
ag4
ag5
ag5
ag6
ag5
ag4
ag5
aa(lp448
S'1197993'
p449
ag3
ag16
ag10
ag17
ag17
aS'10'
p450
ag6
aS'10'
p451
ag6
ag9
aa(lp452
S'1198128'
p453
aS'10'
p454
ag17
aS'10'
p455
aS'10'
p456
ag16
ag4
ag6
ag4
aS'10'
p457
ag9
aa(lp458
S'1198641'
p459
ag6
ag4
ag4
ag4
ag5
ag4
ag6
ag4
ag4
ag5
aa(lp460
S'1199219'
p461
ag4
ag4
ag4
ag5
ag4
ag4
ag4
ag4
ag4
ag5
aa(lp462
S'1199731'
p463
ag6
ag4
ag4
ag4
ag5
ag4
ag4
ag4
ag4
ag5
aa(lp464
S'1199983'
p465
ag4
ag4
ag4
ag4
ag5
ag4
ag6
ag4
ag4
ag5
aa(lp466
S'1200772'
p467
ag4
ag4
ag4
ag4
ag5
ag4
ag5
ag4
ag4
ag5
aa(lp468
S'1200847'
p469
ag16
aS'10'
p470
aS'10'
p471
aS'10'
p472
ag17
aS'10'
p473
aS'10'
p474
aS'10'
p475
ag10
ag9
aa(lp476
S'1200892'
p477
ag17
ag16
ag3
ag9
ag6
aS'10'
p478
ag16
ag4
ag4
ag9
aa(lp479
S'1200952'
p480
ag3
ag17
ag10
ag10
aS'10'
p481
aS'10'
p482
ag3
ag10
ag4
ag9
aa(lp483
S'1201834'
p484
ag5
ag4
ag4
ag4
ag5
ag4
ag6
ag4
ag4
ag5
aa(lp485
S'1201936'
p486
ag3
aS'10'
p487
aS'10'
p488
ag6
ag17
ag4
ag3
aS'10'
p489
ag6
ag9
aa(lp490
S'1202125'
p491
ag9
ag4
ag4
ag4
ag5
ag4
ag6
ag4
ag4
ag5
aa(lp492
S'1202812'
p493
ag3
ag6
ag6
ag6
ag16
aS'10'
p494
ag6
ag4
ag4
ag9
aa(lp495
S'1203096'
p496
ag4
ag4
ag4
ag4
ag4
ag4
ag6
ag4
ag4
ag5
aa(lp497
S'1204242'
p498
ag4
ag4
ag4
ag4
ag5
ag4
ag4
ag4
ag4
ag5
aa(lp499
S'1204898'
p500
ag16
ag4
ag4
ag4
ag5
ag4
ag6
ag4
ag4
ag5
aa(lp501
S'1205138'
p502
ag3
ag17
ag17
ag17
ag3
aS'10'
p503
ag10
ag17
ag4
ag9
aa(lp504
S'1205579'
p505
ag17
ag10
ag16
ag9
ag9
aS'10'
p506
ag3
ag4
ag4
ag9
aa(lp507
S'1206089'
p508
ag5
ag4
ag4
ag4
ag4
ag4
ag6
ag4
ag4
ag5
aa(lp509
S'1206695'
p510
ag4
ag3
ag17
ag16
ag3
ag17
ag10
aS'10'
p511
ag4
ag9
aa(lp512
S'1206841'
p513
aS'10'
p514
ag3
ag16
aS'10'
p515
ag16
aS'10'
p516
ag10
ag10
aS'10'
p517
ag9
aa(lp518
S'1207986'
p519
ag3
ag17
ag9
aS'10'
p520
ag3
ag17
ag25
aS'10'
p521
ag4
ag9
aa(lp522
S'1208301'
p523
ag4
ag5
ag6
ag4
ag5
ag4
ag6
ag4
ag4
ag5
aa(lp524
S'1210963'
p525
aS'10'
p526
aS'10'
p527
aS'10'
p528
ag17
ag16
ag17
ag10
aS'10'
p529
ag4
ag9
aa(lp530
S'1211202'
p531
ag10
ag3
aS'10'
p532
aS'10'
p533
aS'10'
p534
aS'10'
p535
ag9
aS'10'
p536
ag6
ag9
aa(lp537
S'1212232'
p538
ag3
ag4
ag4
ag4
ag5
ag4
ag5
ag4
ag4
ag5
aa(lp539
S'1212251'
p540
ag4
ag4
ag4
ag4
ag5
ag4
ag6
ag4
ag4
ag5
aa(lp541
S'1212422'
p542
ag6
ag4
ag4
ag4
ag5
ag4
ag6
ag4
ag4
ag5
aa(lp543
S'1212422'
p544
ag9
ag4
ag4
ag4
ag5
ag4
ag6
ag4
ag4
ag5
aa(lp545
S'1213375'
p546
ag17
ag9
ag9
ag3
ag9
ag10
ag10
ag17
ag5
ag5
aa(lp547
S'1213383'
p548
ag3
ag4
ag4
ag9
ag5
ag4
ag6
ag4
ag4
ag5
aa(lp549
S'1214092'
p550
ag4
ag4
ag4
ag4
ag5
ag4
ag4
ag4
ag4
ag5
aa(lp551
S'1214556'
p552
ag6
ag4
ag4
ag4
ag5
ag4
ag5
ag4
ag4
ag5
aa(lp553
S'1214966'
p554
ag25
ag10
ag10
ag3
ag3
aS'10'
p555
ag10
ag17
ag6
ag9
aa(lp556
S'1216694'
p557
aS'10'
p558
ag17
ag17
ag9
aS'10'
p559
aS'10'
p560
ag17
ag4
ag4
ag9
aa(lp561
S'1216947'
p562
ag4
ag4
ag4
ag4
ag5
ag4
ag6
ag4
ag4
ag5
aa(lp563
S'1217051'
p564
ag3
ag4
ag4
ag4
ag5
ag4
ag6
ag4
ag4
ag5
aa(lp565
S'1217264'
p566
ag4
ag4
ag4
ag4
ag5
ag4
ag6
ag4
ag4
ag5
aa(lp567
S'1218105'
p568
ag3
aS'10'
p569
aS'10'
p570
ag25
ag16
aS'10'
p571
ag10
aS'10'
p572
ag3
ag9
aa(lp573
S'1218741'
p574
aS'10'
p575
aS'10'
p576
ag25
ag6
ag10
ag3
ag6
ag3
ag4
ag9
aa(lp577
S'1218860'
p578
ag4
ag4
ag4
ag4
ag4
ag4
ag6
ag4
ag4
ag5
aa(lp579
S'1218860'
p580
ag4
ag4
ag4
ag4
ag4
ag4
ag6
ag4
ag4
ag5
aa(lp581
S'1219406'
p582
ag3
ag4
ag4
ag4
ag4
ag4
ag6
ag4
ag4
ag5
aa(lp583
S'1219525'
p584
ag17
aS'10'
p585
aS'10'
p586
aS'10'
p587
ag3
aS'10'
p588
ag17
aS'10'
p589
ag16
ag9
aa(lp590
S'1219859'
p591
ag17
aS'10'
p592
ag17
ag17
ag9
ag17
ag10
ag10
ag4
ag9
aa(lp593
S'1220330'
p594
ag4
ag4
ag4
ag4
ag5
ag4
ag6
ag4
ag4
ag5
aa(lp595
S'1221863'
p596
aS'10'
p597
aS'10'
p598
aS'10'
p599
aS'10'
p600
ag10
aS'10'
p601
ag10
aS'10'
p602
ag9
ag9
aa(lp603
S'1222047'
p604
aS'10'
p605
aS'10'
p606
aS'10'
p607
aS'10'
p608
ag6
aS'10'
p609
aS'10'
p610
ag16
ag4
ag9
aa(lp611
S'1222936'
p612
ag17
ag10
ag17
ag10
ag3
ag3
ag3
aS'10'
p613
ag5
ag9
aa(lp614
S'1223282'
p615
ag4
ag4
ag4
ag4
ag5
ag4
ag5
ag4
ag4
ag5
aa(lp616
S'1223426'
p617
ag4
ag4
ag4
ag4
ag5
ag4
ag6
ag4
ag4
ag5
aa(lp618
S'1223793'
p619
ag16
aS'10'
p620
ag10
ag10
ag16
ag9
ag17
aS'10'
p621
ag5
ag9
aa(lp622
S'1223967'
p623
ag16
ag4
ag6
ag4
ag5
ag4
ag6
ag4
ag4
ag5
aa(lp624
S'1224329'
p625
ag4
ag4
ag4
ag5
ag5
ag4
ag6
ag4
ag4
ag5
aa(lp626
S'1225799'
p627
aS'10'
p628
ag16
ag9
ag6
aS'10'
p629
aS'10'
p630
ag25
aS'10'
p631
ag4
ag9
aa(lp632
S'1226012'
p633
ag9
ag4
ag4
ag6
ag4
ag3
ag5
ag4
ag4
ag9
aa(lp634
S'1226612'
p635
ag10
ag3
ag16
ag6
ag6
ag17
ag10
ag9
ag4
ag9
aa(lp636
S'1227210'
p637
aS'10'
p638
ag3
ag3
ag16
ag6
aS'10'
p639
ag10
ag25
ag5
ag9
aa(lp640
S'1227244'
p641
ag4
ag4
ag4
ag4
ag5
ag4
ag5
ag4
ag4
ag5
aa(lp642
S'1227481'
p643
aS'10'
p644
ag3
ag10
ag9
ag9
aS'10'
p645
ag17
ag25
ag4
ag9
aa(lp646
S'1228152'
p647
ag17
ag25
ag25
ag3
ag6
ag3
ag10
ag10
ag4
ag9
aa(lp648
S'1228311'
p649
ag4
ag4
ag4
ag4
ag4
ag4
ag6
ag4
ag4
ag5
aa(lp650
S'1230175'
p651
aS'10'
p652
aS'10'
p653
aS'10'
p654
ag6
aS'10'
p655
aS'10'
p656
ag25
aS'10'
p657
ag4
ag9
aa(lp658
S'1230688'
p659
ag10
ag9
ag10
ag9
ag6
ag10
ag10
ag16
ag4
ag9
aa(lp660
S'1231387'
p661
ag16
ag17
ag10
ag3
ag16
ag17
ag17
ag25
ag5
ag9
aa(lp662
S'1231706'
p663
ag17
ag9
ag16
ag6
ag6
ag4
ag9
ag6
ag4
ag5
aa(lp664
S'1232225'
p665
aS'10'
p666
ag9
ag3
ag3
ag3
aS'10'
p667
ag9
ag4
ag4
ag9
aa(lp668
S'1236043'
p669
ag6
ag6
ag5
ag4
ag6
ag4
ag6
ag16
ag4
ag5
aa(lp670
S'1241232'
p671
ag6
ag4
ag9
ag4
ag5
ag70
ag6
ag4
ag4
ag5
aa(lp672
S'1241559'
p673
aS'10'
p674
ag17
ag17
ag5
ag17
aS'10'
p675
ag9
ag17
aS'10'
p676
ag9
aa(lp677
S'1241679'
p678
ag25
ag17
ag17
ag3
ag16
ag5
ag9
aS'10'
p679
ag9
ag9
aa(lp680
S'1242364'
p681
ag17
aS'10'
p682
aS'10'
p683
ag17
ag16
ag25
ag6
aS'10'
p684
aS'10'
p685
ag9
aa(lp686
S'1243256'
p687
aS'10'
p688
ag9
ag6
ag5
ag6
aS'10'
p689
ag3
ag6
ag5
ag9
aa(lp690
S'1270479'
p691
ag3
ag4
ag6
ag6
ag5
ag5
ag5
ag6
ag4
ag5
aa(lp692
S'1276091'
p693
ag6
ag4
ag4
ag6
ag4
ag4
ag6
ag4
ag4
ag5
aa(lp694
S'1277018'
p695
ag5
ag4
ag4
ag4
ag5
ag4
ag6
ag4
ag4
ag5
aa(lp696
S'128059'
p697
ag4
ag4
ag4
ag4
ag5
ag3
ag3
ag4
ag4
ag5
aa(lp698
S'1285531'
p699
ag4
ag4
ag4
ag4
ag5
ag4
ag6
ag4
ag4
ag5
aa(lp700
S'1287775'
p701
ag3
ag4
ag4
ag5
ag5
ag5
ag6
ag4
ag4
ag5
aa(lp702
S'144888'
p703
ag17
aS'10'
p704
aS'10'
p705
ag17
ag3
aS'10'
p706
ag10
ag17
ag4
ag9
aa(lp707
S'145447'
p708
ag17
ag9
ag9
ag4
ag5
ag25
ag6
ag6
ag4
ag9
aa(lp709
S'167528'
p710
ag9
ag4
ag4
ag4
ag5
ag4
ag6
ag16
ag4
ag5
aa(lp711
S'169356'
p712
ag6
ag4
ag4
ag4
ag5
ag70
ag6
ag4
ag4
ag5
aa(lp713
S'183913'
p714
ag4
ag5
ag5
ag4
ag5
ag4
ag4
ag4
ag4
ag5
aa(lp715
S'191250'
p716
aS'10'
p717
ag9
ag9
aS'10'
p718
ag5
aS'10'
p719
ag3
ag6
ag6
ag9
aa(lp720
S'1017023'
p721
ag16
ag6
ag6
ag3
ag6
aS'10'
p722
ag6
ag3
ag6
ag5
aa(lp723
S'1100524'
p724
ag16
aS'10'
p725
aS'10'
p726
ag5
ag17
aS'10'
p727
ag10
ag6
ag6
ag9
aa(lp728
S'1116116'
p729
ag25
aS'10'
p730
aS'10'
p731
ag4
aS'10'
p732
ag17
ag6
ag6
ag4
ag9
aa(lp733
S'1168736'
p734
ag3
ag16
ag16
ag5
ag9
aS'10'
p735
ag6
ag16
ag4
ag9
aa(lp736
S'1182404'
p737
ag6
ag4
ag4
ag4
ag5
ag4
ag4
ag4
ag4
ag5
aa(lp738
S'1182404'
p739
ag6
ag4
ag4
ag4
ag5
ag4
ag5
ag4
ag4
ag5
aa(lp740
S'1198641'
p741
ag6
ag4
ag4
ag4
ag5
ag4
ag6
ag4
ag4
ag5
aa(lp742
S'242970'
p743
ag3
ag10
ag10
ag4
ag3
ag17
ag6
ag9
ag4
ag5
aa(lp744
S'255644'
p745
aS'10'
p746
ag3
ag17
aS'10'
p747
ag6
aS'10'
p748
ag3
ag4
ag6
ag9
aa(lp749
S'263538'
p750
ag3
aS'10'
p751
aS'10'
p752
ag16
aS'10'
p753
aS'10'
p754
aS'10'
p755
ag16
ag3
ag9
aa(lp756
S'274137'
p757
ag17
ag17
ag25
ag9
ag3
aS'10'
p758
ag10
ag17
ag4
ag9
aa(lp759
S'303213'
p760
aS'10'
p761
ag9
ag9
aS'10'
p762
ag16
aS'10'
p763
ag3
ag3
ag4
ag9
aa(lp764
S'314428'
p765
ag10
ag25
ag9
aS'10'
p766
aS'10'
p767
ag6
ag3
ag6
ag6
ag9
aa(lp768
S'1182404'
p769
ag3
ag4
ag9
ag4
ag5
ag4
ag6
ag5
ag4
ag5
aa(lp770
S'1198641'
p771
aS'10'
p772
aS'10'
p773
ag16
ag6
ag6
aS'10'
p774
ag9
ag6
ag5
ag9
aa(lp775
S'320675'
p776
ag6
ag6
ag3
ag5
ag6
aS'10'
p777
ag10
ag4
ag4
ag9
aa(lp778
S'324427'
p779
aS'10'
p780
ag17
ag17
ag5
ag6
ag9
ag17
ag10
ag17
ag9
aa(lp781
S'385103'
p782
ag4
ag4
ag4
ag4
ag5
ag4
ag6
ag4
ag4
ag5
aa(lp783
S'390840'
p784
ag17
ag9
ag10
ag4
ag6
aS'10'
p785
ag6
ag25
ag5
ag9
aa(lp786
S'411453'
p787
ag3
ag4
ag4
ag4
ag5
ag4
ag6
ag4
ag4
ag5
aa(lp788
S'320675'
p789
ag6
ag6
ag3
ag5
ag6
aS'10'
p790
ag10
ag4
ag4
ag9
aa(lp791
S'428903'
p792
ag10
ag5
ag9
ag4
ag6
ag9
ag6
ag6
ag4
ag9
aa(lp793
S'431495'
p794
ag6
ag4
ag4
ag4
ag5
ag4
ag6
ag5
ag4
ag5
aa(lp795
S'432809'
p796
ag6
ag4
ag6
ag4
ag5
ag70
ag5
ag4
ag4
ag5
aa(lp797
S'434518'
p798
ag6
ag4
ag4
ag4
ag5
ag4
ag5
ag4
ag4
ag5
aa(lp799
S'452264'
p800
ag4
ag4
ag4
ag4
ag5
ag4
ag5
ag4
ag4
ag5
aa(lp801
S'456282'
p802
ag4
ag4
ag4
ag4
ag5
ag4
ag6
ag4
ag4
ag5
aa(lp803
S'476903'
p804
aS'10'
p805
ag3
ag10
ag6
ag6
ag10
ag6
ag6
ag17
ag9
aa(lp806
S'486283'
p807
ag6
ag4
ag4
ag4
ag5
ag4
ag6
ag4
ag4
ag5
aa(lp808
S'486662'
p809
ag5
ag4
ag4
ag5
ag5
ag4
ag6
ag4
ag4
ag5
aa(lp810
S'488173'
p811
ag4
ag9
ag6
aS'10'
p812
ag9
aS'10'
p813
ag3
ag16
ag4
ag9
aa(lp814
S'492268'
p815
aS'10'
p816
ag9
ag16
ag4
ag5
aS'10'
p817
ag3
ag6
ag4
ag9
aa(lp818
S'508234'
p819
ag10
ag9
ag3
aS'10'
p820
ag5
aS'10'
p821
ag6
ag17
ag5
ag9
aa(lp822
S'527363'
p823
ag17
aS'10'
p824
aS'10'
p825
aS'10'
p826
ag17
aS'10'
p827
aS'10'
p828
ag10
ag6
ag9
aa(lp829
S'529329'
p830
aS'10'
p831
aS'10'
p832
aS'10'
p833
aS'10'
p834
aS'10'
p835
aS'10'
p836
ag9
aS'10'
p837
aS'10'
p838
ag9
aa(lp839
S'535331'
p840
ag6
ag4
ag4
ag4
ag6
ag4
ag5
ag4
ag4
ag5
aa(lp841
S'543558'
p842
ag16
ag4
ag6
ag4
ag9
ag3
ag3
aS'10'
p843
ag4
ag9
aa(lp844
S'555977'
p845
ag3
ag16
ag16
ag17
ag16
aS'10'
p846
ag9
aS'10'
p847
ag9
ag9
aa(lp848
S'560680'
p849
ag4
ag4
ag4
ag4
ag5
ag4
ag4
ag4
ag4
ag5
aa(lp850
S'561477'
p851
ag4
ag4
ag4
ag4
ag5
ag4
ag6
ag4
ag4
ag5
aa(lp852
S'563649'
p853
ag17
ag17
ag17
ag4
ag5
ag70
ag16
aS'10'
p854
ag4
ag9
aa(lp855
S'601265'
p856
aS'10'
p857
ag9
ag9
ag16
ag5
aS'10'
p858
ag5
ag6
ag4
ag9
aa(lp859
S'606140'
p860
ag4
ag4
ag4
ag4
ag5
ag70
ag5
ag4
ag4
ag5
aa(lp861
S'606722'
p862
ag3
ag3
ag10
ag17
ag16
aS'10'
p863
ag10
ag9
ag4
ag9
aa(lp864
S'616240'
p865
ag3
ag6
ag9
ag6
ag9
ag3
ag9
ag10
ag4
ag5
aa(lp866
S'61634'
p867
ag3
ag9
ag6
ag4
ag5
ag70
ag5
ag6
ag4
ag5
aa(lp868
S'625201'
p869
ag17
ag5
ag4
ag4
ag3
ag4
ag4
ag4
ag4
ag5
aa(lp870
S'63375'
p871
ag25
ag4
ag5
ag16
ag9
aS'10'
p872
ag10
ag10
ag5
ag9
aa(lp873
S'635844'
p874
ag17
ag9
aS'10'
p875
ag3
ag9
ag9
ag10
aS'10'
p876
ag4
ag9
aa(lp877
S'636130'
p878
ag4
ag4
ag4
ag4
ag5
ag4
ag6
ag4
ag4
ag5
aa(lp879
S'640744'
p880
aS'10'
p881
aS'10'
p882
aS'10'
p883
ag10
ag25
aS'10'
p884
ag10
aS'10'
p885
aS'10'
p886
ag9
aa(lp887
S'646904'
p888
ag4
ag4
ag4
ag4
ag5
ag4
ag6
ag4
ag4
ag5
aa(lp889
S'653777'
p890
ag17
ag6
ag9
ag25
ag6
aS'10'
p891
ag6
ag6
ag4
ag9
aa(lp892
S'659642'
p893
aS'10'
p894
ag17
ag9
ag9
ag9
aS'10'
p895
ag6
aS'10'
p896
ag9
ag9
aa(lp897
S'666090'
p898
ag4
ag4
ag4
ag4
ag5
ag4
ag6
ag4
ag4
ag5
aa(lp899
S'666942'
p900
ag4
ag4
ag4
ag4
ag5
ag4
ag6
ag4
ag4
ag5
aa(lp901
S'667204'
p902
ag10
ag17
ag10
ag16
ag9
ag6
ag17
ag17
ag9
ag9
aa(lp903
S'673637'
p904
ag6
ag4
ag4
ag4
ag5
ag3
ag3
ag4
ag4
ag5
aa(lp905
S'684955'
p906
ag5
ag4
ag4
ag4
ag6
ag4
ag5
ag4
ag4
ag5
aa(lp907
S'688033'
p908
ag4
ag4
ag4
ag4
ag5
ag4
ag4
ag4
ag4
ag5
aa(lp909
S'691628'
p910
ag17
ag16
ag9
aS'10'
p911
aS'10'
p912
ag4
ag6
ag3
ag4
ag9
aa(lp913
S'693702'
p914
ag4
ag4
ag4
ag4
ag5
ag4
ag4
ag4
ag4
ag5
aa(lp915
S'704097'
p916
ag4
ag4
ag4
ag4
ag4
ag4
ag5
ag4
ag4
ag5
aa(lp917
S'704168'
p918
ag9
ag16
ag3
ag16
ag10
ag70
ag9
ag25
ag4
ag5
aa(lp919
S'706426'
p920
ag3
ag3
ag3
ag5
ag3
aS'10'
p921
ag9
ag6
ag4
ag9
aa(lp922
S'709287'
p923
ag16
ag17
ag10
ag17
ag16
ag17
ag17
ag25
ag4
ag9
aa(lp924
S'718641'
p925
ag4
ag4
ag4
ag4
ag3
ag4
ag6
ag4
ag4
ag5
aa(lp926
S'721482'
p927
ag9
ag9
ag9
ag9
ag16
ag3
ag10
ag6
ag4
ag5
aa(lp928
S'733639'
p929
ag6
ag4
ag4
ag4
ag5
ag70
ag6
ag4
ag4
ag5
aa(lp930
S'733639'
p931
ag6
ag4
ag4
ag4
ag5
ag4
ag6
ag4
ag4
ag5
aa(lp932
S'740492'
p933
ag4
ag4
ag4
ag4
ag5
ag4
ag6
ag4
ag4
ag5
aa(lp934
S'743348'
p935
ag6
ag5
ag5
ag4
ag5
ag4
ag5
ag6
ag4
ag5
aa(lp936
S'756136'
p937
ag4
ag4
ag4
ag4
ag5
ag4
ag5
ag4
ag4
ag5
aa(lp938
S'764974'
p939
ag3
ag4
ag4
ag4
ag5
ag4
ag6
ag4
ag5
ag5
aa(lp940
S'770066'
p941
ag3
ag5
ag5
ag5
ag5
ag4
ag5
ag5
ag4
ag5
aa(lp942
S'792744'
p943
ag4
ag4
ag4
ag4
ag5
ag4
ag4
ag4
ag4
ag5
aa(lp944
S'798429'
p945
ag4
ag4
ag4
ag4
ag5
ag4
ag6
ag4
ag4
ag5
aa(lp946
S'704097'
p947
ag4
ag4
ag4
ag4
ag4
ag4
ag5
ag4
ag4
ag5
aa(lp948
S'810104'
p949
ag4
ag4
ag4
ag4
ag5
ag4
ag6
ag4
ag4
ag5
aa(lp950
S'814265'
p951
ag5
ag4
ag4
ag4
ag5
ag4
ag4
ag4
ag4
ag5
aa(lp952
S'814911'
p953
ag4
ag4
ag4
ag4
ag5
ag4
ag4
ag4
ag4
ag5
aa(lp954
S'826923'
p955
ag4
ag4
ag4
ag4
ag5
ag4
ag4
ag4
ag4
ag5
aa(lp956
S'830690'
p957
ag3
ag5
ag5
ag5
ag6
ag4
ag4
ag6
ag4
ag5
aa(lp958
S'831268'
p959
ag4
ag4
ag4
ag4
ag4
ag4
ag4
ag6
ag4
ag5
aa(lp960
S'836433'
p961
ag3
ag4
ag4
ag6
ag5
ag4
ag4
ag4
ag4
ag5
aa(lp962
S'837082'
p963
ag5
ag4
ag4
ag4
ag5
ag4
ag6
ag4
ag4
ag5
aa(lp964
S'846832'
p965
ag6
ag9
ag3
ag6
ag10
ag6
ag9
ag16
ag4
ag5
aa(lp966
S'855524'
p967
ag4
ag4
ag4
ag4
ag5
ag4
ag5
ag4
ag4
ag5
aa(lp968
S'857774'
p969
ag9
ag4
ag4
ag4
ag6
ag4
ag5
ag5
ag4
ag5
aa(lp970
S'888169'
p971
ag6
ag5
ag5
ag4
ag9
ag6
ag5
ag4
ag4
ag5
aa(lp972
S'888523'
p973
ag9
ag9
ag9
ag5
ag5
ag6
ag5
ag4
ag4
ag5
aa(lp974
S'896404'
p975
ag5
ag4
ag4
ag4
ag5
ag4
ag6
ag4
ag4
ag5
aa(lp976
S'897172'
p977
ag5
ag4
ag4
ag4
ag5
ag4
ag5
ag4
ag4
ag5
aa(lp978
S'342245'
p979
ag4
ag4
ag6
ag4
ag5
ag4
ag4
ag4
ag4
ag5
aa(lp980
S'428598'
p981
ag4
ag4
ag6
ag4
ag4
ag4
ag5
ag4
ag4
ag5
aa(lp982
S'492561'
p983
ag9
ag6
ag5
ag4
ag6
ag4
ag5
ag4
ag4
ag5
aa(lp984
S'493452'
p985
ag4
ag4
ag6
ag4
ag5
ag4
ag4
ag4
ag4
ag5
aa(lp986
S'493452'
p987
ag9
ag4
ag5
ag4
ag5
ag4
ag5
ag4
ag4
ag5
aa(lp988
S'521441'
p989
ag3
ag4
ag4
ag5
ag5
ag4
ag5
ag4
ag4
ag5
aa(lp990
S'560680'
p991
ag6
ag4
ag5
ag4
ag5
ag4
ag5
ag4
ag4
ag5
aa(lp992
S'636437'
p993
ag4
ag4
ag4
ag4
ag5
ag4
ag4
ag4
ag4
ag5
aa(lp994
S'640712'
p995
ag4
ag4
ag4
ag4
ag5
ag4
ag5
ag4
ag4
ag5
aa(lp996
S'654244'
p997
ag4
ag4
ag4
ag4
ag4
ag4
ag5
ag4
ag4
ag5
aa(lp998
S'657753'
p999
ag6
ag4
ag4
ag9
ag6
ag4
ag5
ag5
ag4
ag5
aa(lp1000
S'685977'
p1001
ag3
ag6
ag9
ag4
ag9
ag4
ag6
ag4
ag4
ag5
aa(lp1002
S'805448'
p1003
ag4
ag4
ag4
ag4
ag5
ag4
ag4
ag4
ag4
ag5
aa(lp1004
S'1002504'
p1005
ag6
ag5
ag5
ag5
ag5
ag4
ag6
ag5
ag4
ag5
aa(lp1006
S'1022257'
p1007
ag5
ag4
ag4
ag4
ag5
ag4
ag4
ag4
ag4
ag5
aa(lp1008
S'1026122'
p1009
ag5
ag4
ag4
ag4
ag5
ag4
ag4
ag4
ag4
ag5
aa(lp1010
S'1071084'
p1011
ag6
ag6
ag5
ag5
ag6
ag4
ag4
ag5
ag6
ag5
aa(lp1012
S'1080233'
p1013
ag10
ag16
ag16
ag6
ag5
aS'10'
p1014
ag10
ag4
ag4
ag9
aa(lp1015
S'1114570'
p1016
ag3
ag6
ag6
ag5
ag6
ag4
ag6
ag4
ag4
ag5
aa(lp1017
S'1114570'
p1018
ag5
ag4
ag4
ag4
ag5
ag4
ag5
ag5
ag4
ag5
aa(lp1019
S'1116715'
p1020
ag3
ag4
ag4
ag4
ag6
ag5
ag5
ag5
ag4
ag5
aa(lp1021
S'1131411'
p1022
ag4
ag4
ag4
ag5
ag5
ag4
ag5
ag4
ag4
ag5
aa(lp1023
S'1151734'
p1024
aS'10'
p1025
ag17
ag10
ag9
ag6
aS'10'
p1026
ag10
ag25
ag4
ag9
aa(lp1027
S'1156017'
p1028
ag6
ag4
ag4
ag4
ag5
ag4
ag5
ag4
ag4
ag5
aa(lp1029
S'1158247'
p1030
ag4
ag4
ag4
ag4
ag4
ag4
ag4
ag4
ag4
ag5
aa(lp1031
S'1158405'
p1032
ag4
ag5
ag6
ag4
ag5
ag4
ag5
ag4
ag4
ag5
aa(lp1033
S'1168278'
p1034
ag6
ag4
ag4
ag4
ag5
ag4
ag5
ag4
ag4
ag5
aa(lp1035
S'1176187'
p1036
ag6
ag4
ag4
ag4
ag5
ag4
ag6
ag4
ag4
ag5
aa(lp1037
S'1196263'
p1038
ag9
ag4
ag4
ag4
ag5
ag4
ag4
ag4
ag4
ag5
aa(lp1039
S'1196475'
p1040
ag6
ag5
ag4
ag4
ag5
ag4
ag5
ag5
ag4
ag5
aa(lp1041
S'1206314'
p1042
ag4
ag5
ag6
ag4
ag5
ag4
ag4
ag4
ag4
ag5
aa(lp1043
S'1211265'
p1044
ag6
aS'10'
p1045
ag17
ag10
ag16
ag25
ag25
ag6
ag17
ag9
aa(lp1046
S'1213784'
p1047
ag6
ag4
ag4
ag4
ag5
ag4
ag4
ag4
ag4
ag5
aa(lp1048
S'1223003'
p1049
ag3
ag6
ag6
ag4
ag5
ag4
ag5
ag4
ag4
ag5
aa(lp1050
S'1223306'
p1051
ag6
ag4
ag4
ag4
ag5
ag9
ag4
ag4
ag4
ag5
aa(lp1052
S'1223543'
p1053
ag4
ag5
ag4
ag6
ag5
ag4
ag4
ag5
ag4
ag5
aa(lp1054
S'1229929'
p1055
ag4
ag4
ag4
ag4
ag5
ag4
ag5
ag4
ag4
ag5
aa(lp1056
S'1231853'
p1057
ag9
ag5
ag5
ag4
ag5
ag4
ag5
ag4
ag4
ag5
aa(lp1058
S'1234554'
p1059
ag4
ag4
ag4
ag4
ag5
ag4
ag5
ag4
ag4
ag5
aa(lp1060
S'1236837'
p1061
ag5
ag6
ag5
ag5
ag5
ag5
ag6
ag4
ag4
ag5
aa(lp1062
S'1237674'
p1063
ag6
ag4
ag5
ag4
ag5
ag4
ag5
ag4
ag4
ag5
aa(lp1064
S'1238021'
p1065
ag4
ag4
ag4
ag4
ag5
ag4
ag5
ag4
ag4
ag5
aa(lp1066
S'1238464'
p1067
ag4
ag4
ag4
ag4
ag4
ag70
ag5
ag4
ag4
ag5
aa(lp1068
S'1238633'
p1069
aS'10'
p1070
aS'10'
p1071
aS'10'
p1072
ag16
ag17
ag9
ag17
ag3
ag4
ag9
aa(lp1073
S'1238915'
p1074
ag3
ag4
ag5
ag4
ag5
ag4
ag6
ag4
ag4
ag5
aa(lp1075
S'1238948'
p1076
ag17
ag3
ag16
ag5
ag6
aS'10'
p1077
ag16
ag16
ag4
ag9
aa(lp1078
S'1239232'
p1079
ag6
ag6
ag5
ag16
ag6
ag6
ag6
ag3
ag4
ag5
aa(lp1080
S'1239347'
p1081
ag17
ag10
ag17
ag3
aS'10'
p1082
aS'10'
p1083
ag10
ag5
ag4
ag9
aa(lp1084
S'1239967'
p1085
ag4
ag4
ag4
ag4
ag5
ag4
ag5
ag4
ag4
ag5
aa(lp1086
S'1240337'
p1087
ag3
ag5
ag5
ag5
ag5
ag5
ag6
ag5
ag5
ag5
aa(lp1088
S'1253505'
p1089
ag5
ag6
ag4
ag4
ag3
ag4
ag4
ag4
ag4
ag5
aa(lp1090
S'1255384'
p1091
ag6
ag5
ag5
ag6
ag5
ag6
ag6
ag4
ag4
ag5
aa(lp1092
S'1257200'
p1093
aS'10'
p1094
aS'10'
p1095
aS'10'
p1096
ag10
aS'10'
p1097
aS'10'
p1098
ag17
ag5
ag4
ag9
aa(lp1099
S'1257648'
p1100
ag9
ag6
ag6
ag4
ag5
ag4
ag6
ag6
ag4
ag5
aa(lp1101
S'1257815'
p1102
ag3
ag4
ag6
ag4
ag5
ag4
ag5
ag4
ag4
ag5
aa(lp1103
S'1257938'
p1104
ag6
ag4
ag4
ag4
ag5
ag4
ag4
ag4
ag4
ag5
aa(lp1105
S'1258549'
p1106
ag25
aS'10'
p1107
aS'10'
p1108
aS'10'
p1109
aS'10'
p1110
aS'10'
p1111
aS'10'
p1112
aS'10'
p1113
ag4
ag9
aa(lp1114
S'1258556'
p1115
ag3
ag6
ag16
ag4
ag5
ag4
ag4
ag4
ag4
ag5
aa(lp1116
S'1266154'
p1117
ag17
ag10
ag17
ag5
ag9
ag5
ag3
aS'10'
p1118
ag4
ag9
aa(lp1119
S'1272039'
p1120
ag4
ag4
ag4
ag4
ag5
ag4
ag5
ag4
ag4
ag5
aa(lp1121
S'1276091'
p1122
ag5
ag4
ag4
ag4
ag5
ag4
ag5
ag4
ag4
ag5
aa(lp1123
S'1276091'
p1124
ag4
ag6
ag4
ag4
ag5
ag4
ag5
ag5
ag4
ag5
aa(lp1125
S'1276091'
p1126
ag3
ag4
ag4
ag6
ag9
ag4
ag6
ag5
ag4
ag5
aa(lp1127
S'1277629'
p1128
ag3
ag4
ag4
ag4
ag5
ag4
ag5
ag5
ag4
ag5
aa(lp1129
S'1293439'
p1130
ag6
ag5
ag5
ag6
ag5
ag4
ag4
ag4
ag4
ag5
aa(lp1131
S'1293439'
p1132
ag16
ag25
ag10
ag3
ag3
ag17
ag9
ag5
ag4
ag5
aa(lp1133
S'1294562'
p1134
aS'10'
p1135
ag17
aS'10'
p1136
ag4
ag6
aS'10'
p1137
ag3
ag4
ag4
ag9
aa(lp1138
S'1295186'
p1139
aS'10'
p1140
aS'10'
p1141
aS'10'
p1142
ag4
ag16
ag4
ag5
ag17
ag4
ag9
aa(lp1143
S'527337'
p1144
ag9
ag4
ag4
ag4
ag5
ag4
ag4
ag4
ag4
ag5
aa(lp1145
S'558538'
p1146
ag9
ag4
ag6
ag6
ag5
ag4
ag4
ag4
ag4
ag5
aa(lp1147
S'566509'
p1148
ag3
ag4
ag4
ag4
ag5
ag4
ag4
ag4
ag4
ag5
aa(lp1149
S'608157'
p1150
aS'10'
p1151
ag9
ag6
aS'10'
p1152
ag9
aS'10'
p1153
aS'10'
p1154
ag4
ag4
ag9
aa(lp1155
S'677910'
p1156
ag3
ag5
ag5
ag9
ag5
ag9
ag4
ag4
ag4
ag5
aa(lp1157
S'734111'
p1158
ag4
ag4
ag4
ag6
ag5
ag6
ag4
ag4
ag4
ag5
aa(lp1159
S'734111'
p1160
ag4
ag4
ag4
ag4
ag5
ag5
ag4
ag4
ag4
ag5
aa(lp1161
S'780555'
p1162
ag3
ag4
ag4
ag16
ag6
ag4
ag5
ag4
ag4
ag5
aa(lp1163
S'827627'
p1164
ag5
ag4
ag4
ag4
ag5
ag4
ag4
ag4
ag4
ag5
aa(lp1165
S'1049837'
p1166
ag4
ag4
ag4
ag4
ag5
ag4
ag4
ag4
ag4
ag5
aa(lp1167
S'1058849'
p1168
ag3
ag4
ag4
ag4
ag5
ag4
ag4
ag4
ag4
ag5
aa(lp1169
S'1182404'
p1170
ag4
ag4
ag4
ag4
ag4
ag4
ag4
ag4
ag4
ag5
aa(lp1171
S'1193544'
p1172
ag3
ag10
ag25
ag17
ag16
aS'10'
p1173
ag17
aS'10'
p1174
ag4
ag9
aa(lp1175
S'1201870'
p1176
ag9
ag4
ag4
ag6
ag4
ag4
ag5
ag4
ag4
ag5
aa(lp1177
S'1202253'
p1178
ag3
ag4
ag4
ag4
ag5
ag4
ag4
ag4
ag4
ag5
aa(lp1179
S'1227081'
p1180
ag6
ag4
ag4
ag6
ag5
ag4
ag4
ag4
ag4
ag5
aa(lp1181
S'1230994'
p1182
ag9
ag3
ag3
ag17
ag16
aS'10'
p1183
aS'10'
p1184
ag10
ag4
ag9
aa(lp1185
S'1238410'
p1186
ag5
ag6
ag4
ag4
ag6
ag4
ag4
ag4
ag4
ag5
aa(lp1187
S'1246562'
p1188
aS'10'
p1189
ag5
ag5
ag4
ag5
ag16
ag4
ag4
ag5
ag9
aa(lp1190
S'1257470'
p1191
aS'10'
p1192
ag16
ag3
ag17
ag3
aS'10'
p1193
ag17
ag16
ag4
ag9
aa(lp1194
S'1259008'
p1195
ag17
ag17
ag25
ag16
ag16
ag6
aS'10'
p1196
aS'10'
p1197
ag4
ag9
aa(lp1198
S'1266124'
p1199
ag3
ag4
ag5
ag4
ag5
ag4
ag4
ag4
ag4
ag5
aa(lp1200
S'1267898'
p1201
ag3
ag4
ag6
ag4
ag5
ag4
ag4
ag4
ag4
ag5
aa(lp1202
S'1268313'
p1203
ag3
ag4
ag4
ag6
ag5
ag4
ag4
ag4
ag4
ag5
aa(lp1204
S'1268804'
p1205
ag6
ag4
ag4
ag4
ag5
ag3
ag4
ag4
ag4
ag5
aa(lp1206
S'1296572'
p1207
aS'10'
p1208
ag25
ag17
ag10
ag16
ag9
ag10
aS'10'
p1209
ag6
ag9
aa(lp1210
S'1298416'
p1211
aS'10'
p1212
ag16
ag16
ag5
ag9
aS'10'
p1213
ag25
ag10
ag4
ag9
aa(lp1214
S'1299596'
p1215
ag16
ag16
ag16
ag3
ag9
aS'10'
p1216
ag10
ag16
ag5
ag9
aa(lp1217
S'1299161'
p1218
ag9
ag17
ag10
aS'10'
p1219
ag9
aS'10'
p1220
ag10
ag3
ag4
ag9
aa(lp1221
S'1318169'
p1222
ag25
aS'10'
p1223
aS'10'
p1224
aS'10'
p1225
aS'10'
p1226
ag3
aS'10'
p1227
aS'10'
p1228
aS'10'
p1229
ag9
aa(lp1230
S'474162'
p1231
ag17
ag10
ag17
ag3
ag3
aS'10'
p1232
ag25
aS'10'
p1233
ag4
ag9
aa(lp1234
S'1073960'
p1235
aS'10'
p1236
aS'10'
p1237
aS'10'
p1238
aS'10'
p1239
ag16
aS'10'
p1240
ag17
ag4
ag3
ag9
aa(lp1241
S'1076352'
p1242
ag6
ag16
ag9
aS'10'
p1243
ag6
ag6
ag6
ag9
ag4
ag9
aa(lp1244
S'1084139'
p1245
ag16
ag6
ag5
ag4
ag6
ag9
ag9
ag4
ag4
ag9
aa(lp1246
S'1119189'
p1247
ag3
ag17
ag25
ag9
ag6
aS'10'
p1248
ag10
ag4
ag4
ag9
aa(lp1249
S'1142706'
p1250
ag3
aS'10'
p1251
aS'10'
p1252
aS'10'
p1253
ag16
aS'10'
p1254
ag16
ag3
ag5
ag9
aa(lp1255
S'1286943'
p1256
ag17
aS'10'
p1257
aS'10'
p1258
aS'10'
p1259
ag10
ag3
ag9
ag17
ag10
ag9
aa(lp1260
S'1306282'
p1261
ag16
ag16
ag10
aS'10'
p1262
ag6
aS'10'
p1263
ag17
aS'10'
p1264
ag5
ag9
aa(lp1265
S'1313325'
p1266
ag9
aS'10'
p1267
ag9
ag10
ag6
aS'10'
p1268
ag25
aS'10'
p1269
ag4
ag9
aa(lp1270
S'1330439'
p1271
ag9
ag10
ag17
ag6
ag9
aS'10'
p1272
ag25
ag4
ag4
ag9
aa(lp1273
S'412300'
p1274
aS'10'
p1275
ag9
ag3
ag9
ag6
ag3
ag10
ag6
ag4
ag9
aa(lp1276
S'672113'
p1277
ag10
ag3
ag16
aS'10'
p1278
ag9
aS'10'
p1279
ag3
ag6
ag4
ag9
aa(lp1280
S'769612'
p1281
ag6
ag4
ag4
ag5
ag5
ag4
ag4
ag4
ag4
ag5
aa(lp1282
S'769612'
p1283
ag9
ag4
ag4
ag4
ag5
ag4
ag4
ag4
ag4
ag5
aa(lp1284
S'798429'
p1285
ag9
ag4
ag4
ag4
ag5
ag4
ag6
ag4
ag4
ag5
aa(lp1286
S'807657'
p1287
ag16
ag4
ag6
ag5
ag5
ag4
ag4
ag4
ag4
ag5
aa(lp1288
S'8233704'
p1289
ag9
ag4
ag4
ag4
ag4
ag4
ag5
ag4
ag4
ag5
aa(lp1290
S'837480'
p1291
ag10
ag9
ag9
ag6
ag9
aS'10'
p1292
ag16
ag25
ag4
ag9
aa(lp1293
S'867392'
p1294
ag9
ag5
ag5
ag4
ag5
ag4
ag5
ag4
ag4
ag5
aa(lp1295
S'869828'
p1296
ag4
ag4
ag4
ag4
ag4
ag4
ag6
ag4
ag4
ag5
aa(lp1297
S'1043068'
p1298
ag6
ag4
ag4
ag4
ag5
ag4
ag5
ag4
ag4
ag5
aa(lp1299
S'1056171'
p1300
ag5
ag4
ag4
ag4
ag5
ag4
ag5
ag4
ag4
ag5
aa(lp1301
S'1061990'
p1302
ag4
ag4
ag6
ag5
ag5
ag4
ag6
ag4
ag4
ag5
aa(lp1303
S'1113061'
p1304
ag3
ag4
ag4
ag4
ag5
ag4
ag6
ag4
ag4
ag5
aa(lp1305
S'1116192'
p1306
ag3
ag4
ag5
ag4
ag5
ag4
ag6
ag4
ag4
ag5
aa(lp1307
S'1135090'
p1308
ag9
ag4
ag4
ag4
ag5
ag4
ag5
ag4
ag4
ag5
aa(lp1309
S'1145420'
p1310
ag16
ag4
ag4
ag4
ag5
ag4
ag5
ag4
ag4
ag5
aa(lp1311
S'1158157'
p1312
ag3
ag4
ag4
ag4
ag5
ag5
ag5
ag4
ag4
ag5
aa(lp1313
S'1171578'
p1314
ag6
ag4
ag4
ag4
ag5
ag4
ag4
ag4
ag4
ag5
aa(lp1315
S'1174841'
p1316
ag3
ag6
ag4
ag4
ag5
ag4
ag4
ag4
ag4
ag5
aa(lp1317
S'1184586'
p1318
ag9
ag4
ag4
ag4
ag5
ag4
ag5
ag4
ag4
ag5
aa(lp1319
S'1186936'
p1320
ag5
ag4
ag6
ag5
ag5
ag4
ag5
ag4
ag4
ag5
aa(lp1321
S'1197527'
p1322
ag3
ag4
ag4
ag4
ag5
ag4
ag5
ag4
ag4
ag5
aa(lp1323
S'1222464'
p1324
ag16
aS'10'
p1325
aS'10'
p1326
aS'10'
p1327
ag9
aS'10'
p1328
ag10
aS'10'
p1329
ag4
ag9
aa(lp1330
S'1240603'
p1331
ag5
ag4
ag4
ag4
ag4
ag4
ag4
ag4
ag4
ag5
aa(lp1332
S'1240603'
p1333
ag6
ag4
ag4
ag4
ag4
ag4
ag4
ag4
ag4
ag5
aa(lp1334
S'1241035'
p1335
ag10
ag17
ag6
ag10
ag9
ag3
ag10
ag17
ag5
ag9
aa(lp1336
S'1287971'
p1337
ag6
ag4
ag4
ag4
ag5
ag4
ag5
ag4
ag4
ag5
aa(lp1338
S'1289391'
p1339
ag4
ag4
ag4
ag4
ag5
ag4
ag6
ag4
ag4
ag5
aa(lp1340
S'1299924'
p1341
ag6
ag5
ag5
ag5
ag5
ag4
ag9
ag5
ag4
ag5
aa(lp1342
S'1306339'
p1343
ag9
ag9
ag5
ag4
ag5
ag3
ag5
ag4
ag5
ag5
aa(lp1344
S'1313658'
p1345
ag6
ag4
ag4
ag4
ag5
ag4
ag4
ag4
ag4
ag5
aa(lp1346
S'1313982'
p1347
ag9
ag6
ag4
ag4
ag5
ag4
ag9
ag17
ag4
ag5
aa(lp1348
S'1321264'
p1349
ag3
ag5
ag5
ag5
ag4
ag4
ag5
ag4
ag4
ag5
aa(lp1350
S'1321321'
p1351
ag3
ag4
ag4
ag6
ag5
ag4
ag4
ag4
ag4
ag5
aa(lp1352
S'1321348'
p1353
ag5
ag4
ag4
ag4
ag5
ag4
ag5
ag4
ag4
ag5
aa(lp1354
S'1321931'
p1355
ag3
ag4
ag4
ag4
ag5
ag4
ag5
ag4
ag4
ag5
aa(lp1356
S'1321942'
p1357
ag3
ag4
ag4
ag4
ag5
ag4
ag6
ag4
ag4
ag5
aa(lp1358
S'1321942'
p1359
ag3
ag4
ag4
ag4
ag5
ag4
ag6
ag4
ag4
ag5
aa(lp1360
S'1328331'
p1361
ag4
ag4
ag4
ag4
ag5
ag4
ag6
ag4
ag4
ag5
aa(lp1362
S'1328755'
p1363
ag6
ag4
ag4
ag4
ag5
ag4
ag5
ag4
ag4
ag5
aa(lp1364
S'1331405'
p1365
ag9
ag4
ag4
ag4
ag5
ag4
ag6
ag5
ag4
ag5
aa(lp1366
S'1331412'
p1367
ag3
ag10
aS'10'
p1368
aS'10'
p1369
ag3
aS'10'
p1370
aS'10'
p1371
aS'10'
p1372
ag4
ag9
aa(lp1373
S'1333104'
p1374
ag6
ag4
ag5
ag4
ag5
ag4
ag6
ag4
ag4
ag5
aa(lp1375
S'1334071'
p1376
ag9
ag4
ag4
ag4
ag5
ag6
ag5
ag4
ag4
ag5
aa(lp1377
S'1343068'
p1378
ag17
ag9
ag9
ag4
ag16
aS'10'
p1379
ag5
ag3
ag5
ag9
aa(lp1380
S'1343374'
p1381
aS'10'
p1382
aS'10'
p1383
ag17
aS'10'
p1384
ag16
ag3
aS'10'
p1385
ag6
ag4
ag9
aa(lp1386
S'1344121'
p1387
ag17
aS'10'
p1388
ag9
ag9
ag17
aS'10'
p1389
ag17
ag5
ag4
ag9
aa(lp1390
S'142932'
p1391
ag10
ag16
aS'10'
p1392
ag3
ag6
aS'10'
p1393
ag25
aS'10'
p1394
ag5
ag9
aa(lp1395
S'183936'
p1396
ag6
ag4
ag4
ag4
ag5
ag4
ag5
ag4
ag4
ag5
aa(lp1397
S'324382'
p1398
ag4
ag4
ag4
ag4
ag5
ag4
ag5
ag4
ag4
ag5
aa(lp1399
S'378275'
p1400
aS'10'
p1401
ag25
ag10
ag6
ag9
ag5
ag10
ag10
ag4
ag9
aa(lp1402
S'385103'
p1403
ag3
ag4
ag5
ag4
ag5
ag4
ag6
ag4
ag4
ag5
aa(lp1404
S'690557'
p1405
ag3
ag4
ag4
ag4
ag5
ag4
ag5
ag4
ag4
ag5
aa(lp1406
S'695091'
p1407
ag4
ag4
ag4
ag4
ag5
ag4
ag5
ag4
ag4
ag5
aa(lp1408
S'695219'
p1409
ag4
ag4
ag4
ag4
ag5
ag4
ag5
ag4
ag4
ag5
aa(lp1410
S'824249'
p1411
ag4
ag4
ag4
ag4
ag5
ag4
ag6
ag4
ag4
ag5
aa(lp1412
S'871549'
p1413
ag3
ag4
ag5
ag4
ag5
ag4
ag5
ag4
ag4
ag5
aa(lp1414
S'878358'
p1415
ag3
ag10
aS'10'
p1416
ag16
ag3
aS'10'
p1417
ag10
ag3
ag4
ag9
aa(lp1418
S'1107684'
p1419
ag16
aS'10'
p1420
ag3
ag3
ag9
aS'10'
p1421
ag16
aS'10'
p1422
ag4
ag9
aa(lp1423
S'1115762'
p1424
ag6
ag4
ag4
ag4
ag5
ag4
ag4
ag4
ag4
ag5
aa(lp1425
S'1217717'
p1426
ag3
ag4
ag4
ag16
ag6
ag4
ag4
ag4
ag4
ag5
aa(lp1427
S'1239420'
p1428
ag4
ag4
ag4
ag4
ag5
ag4
ag4
ag4
ag4
ag5
aa(lp1429
S'1254538'
p1430
ag17
aS'10'
p1431
aS'10'
p1432
aS'10'
p1433
ag16
aS'10'
p1434
aS'10'
p1435
aS'10'
p1436
ag4
ag9
aa(lp1437
S'1261751'
p1438
ag3
ag4
ag4
ag4
ag5
ag4
ag5
ag5
ag4
ag5
aa(lp1439
S'1268275'
p1440
ag25
ag17
ag17
ag25
ag16
ag6
ag9
ag4
ag4
ag9
aa(lp1441
S'1272166'
p1442
ag3
ag4
ag4
ag4
ag5
ag4
ag4
ag4
ag4
ag5
aa(lp1443
S'1294261'
p1444
ag9
aS'10'
p1445
ag17
ag3
ag9
ag4
aS'10'
p1446
ag4
ag4
ag9
aa(lp1447
S'1295529'
p1448
ag5
ag3
ag10
ag16
ag9
aS'10'
p1449
ag10
ag16
ag4
ag9
aa(lp1450
S'1298484'
p1451
aS'10'
p1452
ag6
ag9
ag3
ag6
aS'10'
p1453
ag9
ag4
ag4
ag9
aa(lp1454
S'1311875'
p1455
ag3
ag4
ag5
ag4
ag5
ag4
ag4
ag4
ag4
ag5
aa(lp1456
S'1315506'
p1457
ag9
ag17
ag16
ag6
ag9
aS'10'
p1458
ag10
ag4
ag4
ag9
aa(lp1459
S'1320141'
p1460
ag3
ag4
ag4
ag4
ag5
ag4
ag5
ag4
ag4
ag5
aa(lp1461
S'1325309'
p1462
ag9
ag4
ag5
ag4
ag5
ag4
ag5
ag4
ag4
ag5
aa(lp1463
S'1333063'
p1464
ag3
ag4
ag6
ag4
ag5
ag4
ag6
ag4
ag4
ag5
aa(lp1465
S'1333495'
p1466
ag6
ag4
ag4
ag4
ag5
ag4
ag5
ag4
ag4
ag5
aa(lp1467
S'1334659'
p1468
ag3
ag5
ag9
ag4
ag4
ag4
ag4
ag4
ag4
ag5
aa(lp1469
S'1336798'
p1470
ag6
ag4
ag4
ag4
ag5
ag4
ag5
ag4
ag4
ag5
aa(lp1471
S'1344449'
p1472
ag4
ag4
ag4
ag4
ag4
ag4
ag5
ag4
ag4
ag5
aa(lp1473
S'1350568'
p1474
ag9
ag4
ag4
ag4
ag5
ag4
ag5
ag4
ag4
ag5
aa(lp1475
S'1352663'
p1476
ag3
ag9
ag16
ag17
ag9
ag4
ag17
aS'10'
p1477
ag4
ag9
aa(lp1478
S'188336'
p1479
ag3
ag6
ag5
ag17
ag3
aS'10'
p1480
ag17
ag4
ag5
ag9
aa(lp1481
S'352431'
p1482
aS'10'
p1483
ag3
aS'10'
p1484
ag6
ag3
ag17
ag10
ag17
ag6
ag9
aa(lp1485
S'353098'
p1486
ag9
ag4
ag4
ag5
ag5
ag4
ag4
ag4
ag4
ag5
aa(lp1487
S'411453'
p1488
ag4
ag4
ag4
ag4
ag5
ag4
ag4
ag4
ag4
ag5
aa(lp1489
S'557583'
p1490
ag3
aS'10'
p1491
aS'10'
p1492
aS'10'
p1493
aS'10'
p1494
aS'10'
p1495
aS'10'
p1496
ag4
ag4
ag9
aa(lp1497
S'636375'
p1498
ag3
ag4
ag4
ag4
ag5
ag4
ag4
ag4
ag4
ag5
aa(lp1499
S'736150'
p1500
aS'10'
p1501
ag9
ag6
aS'10'
p1502
ag6
aS'10'
p1503
ag10
ag4
ag5
ag9
aa(lp1504
S'803531'
p1505
ag3
aS'10'
p1506
aS'10'
p1507
aS'10'
p1508
ag3
ag5
ag17
ag3
ag4
ag9
aa(lp1509
S'822829'
p1510
ag17
aS'10'
p1511
aS'10'
p1512
aS'10'
p1513
ag16
aS'10'
p1514
aS'10'
p1515
aS'10'
p1516
aS'10'
p1517
ag9
aa(lp1518
S'1016634'
p1519
ag5
ag6
ag4
ag4
ag5
ag4
ag5
ag4
ag4
ag5
aa(lp1520
S'1031608'
p1521
ag5
ag4
ag4
ag4
ag4
ag4
ag5
ag4
ag4
ag5
aa(lp1522
S'1041043'
p1523
ag9
ag4
ag6
ag4
ag5
ag4
ag5
ag4
ag4
ag5
aa(lp1524
S'1042252'
p1525
ag6
ag4
ag4
ag4
ag5
ag4
ag5
ag4
ag4
ag5
aa(lp1526
S'1057067'
p1527
ag4
ag4
ag4
ag4
ag4
ag70
ag4
ag4
ag4
ag5
aa(lp1528
S'1061990'
p1529
ag9
ag4
ag4
ag4
ag5
ag4
ag5
ag4
ag4
ag5
aa(lp1530
S'1073836'
p1531
ag3
ag4
ag4
ag4
ag5
ag4
ag5
ag4
ag4
ag5
aa(lp1532
S'1083817'
p1533
ag6
ag4
ag4
ag4
ag5
ag4
ag5
ag4
ag4
ag5
aa(lp1534
S'1096352'
p1535
ag16
ag6
ag6
ag6
ag6
ag5
ag16
ag4
ag4
ag5
aa(lp1536
S'1140597'
p1537
ag10
ag4
ag5
ag6
ag5
ag4
ag5
ag4
ag4
ag5
aa(lp1538
S'1149548'
p1539
ag4
ag4
ag4
ag4
ag5
ag4
ag4
ag4
ag4
ag5
aa(lp1540
S'1174009'
p1541
ag3
ag4
ag4
ag5
ag4
ag4
ag5
ag4
ag4
ag5
aa(lp1542
S'1183596'
p1543
ag6
ag4
ag6
ag4
ag6
ag9
ag4
ag4
ag4
ag5
aa(lp1544
S'1190386'
p1545
ag9
ag16
ag16
ag3
ag10
ag16
ag10
ag10
ag6
ag9
aa(lp1546
S'1190546'
p1547
ag5
ag4
ag4
ag4
ag5
ag3
ag4
ag4
ag4
ag5
aa(lp1548
S'1213273'
p1549
ag5
ag4
ag4
ag4
ag5
ag4
ag4
ag4
ag4
ag5
aa(lp1550
S'1218982'
p1551
ag9
ag4
ag4
ag4
ag5
ag4
ag4
ag4
ag4
ag5
aa(lp1552
S'1225382'
p1553
ag16
ag5
ag6
ag4
ag5
ag4
ag4
ag4
ag4
ag5
aa(lp1554
S'1235807'
p1555
ag3
ag4
ag4
ag4
ag5
ag4
ag5
ag4
ag4
ag5
aa(lp1556
S'1238777'
p1557
ag4
ag4
ag4
ag4
ag5
ag4
ag4
ag4
ag4
ag5
aa(lp1558
S'1253955'
p1559
ag17
ag10
ag9
ag9
ag3
ag6
ag3
aS'10'
p1560
ag4
ag9
aa(lp1561
S'1257366'
p1562
ag6
ag4
ag4
ag4
ag5
ag4
ag4
ag4
ag4
ag5
aa(lp1563
S'1260659'
p1564
ag6
ag4
ag9
ag4
ag5
ag4
ag4
ag4
ag4
ag5
aa(lp1565
S'1268952'
p1566
aS'10'
p1567
aS'10'
p1568
ag10
ag17
ag10
ag4
aS'10'
p1569
aS'10'
p1570
ag6
ag9
aa(lp1571
S'1275807'
p1572
ag9
ag5
ag9
ag6
ag5
ag5
ag5
ag4
ag4
ag5
aa(lp1573
S'1277792'
p1574
ag9
ag4
ag4
ag4
ag5
ag4
ag4
ag4
ag4
ag5
aa(lp1575
S'1277792'
p1576
ag3
ag4
ag4
ag6
ag5
ag4
ag4
ag4
ag4
ag5
aa(lp1577
S'1285722'
p1578
ag9
ag4
ag4
ag6
ag5
ag4
ag4
ag4
ag4
ag5
aa(lp1579
S'1288608'
p1580
ag6
ag4
ag4
ag4
ag5
ag4
ag5
ag4
ag4
ag5
aa(lp1581
S'1290203'
p1582
ag6
ag4
ag4
ag4
ag5
ag4
ag5
ag4
ag4
ag5
aa(lp1583
S'1294413'
p1584
ag4
ag4
ag4
ag4
ag5
ag4
ag4
ag4
ag4
ag5
aa(lp1585
S'1299596'
p1586
ag5
ag4
ag4
ag4
ag5
ag4
ag4
ag4
ag4
ag5
aa(lp1587
S'1303489'
p1588
ag6
ag4
ag4
ag4
ag5
ag4
ag5
ag4
ag4
ag5
aa(lp1589
S'1311033'
p1590
ag4
ag5
ag5
ag4
ag5
ag4
ag4
ag4
ag4
ag5
aa(lp1591
S'1311108'
p1592
ag4
ag4
ag4
ag6
ag5
ag4
ag4
ag4
ag4
ag5
aa(lp1593
S'1315807'
p1594
ag3
aS'10'
p1595
aS'10'
p1596
aS'10'
p1597
aS'10'
p1598
ag5
aS'10'
p1599
aS'10'
p1600
aS'10'
p1601
ag9
aa(lp1602
S'1318671'
p1603
ag6
ag4
ag4
ag4
ag5
ag4
ag5
ag4
ag4
ag5
aa(lp1604
S'1319609'
p1605
ag6
ag4
ag4
ag5
ag6
ag9
ag4
ag4
ag4
ag5
aa(lp1606
S'1323477'
p1607
ag4
ag5
ag4
ag6
ag5
ag4
ag5
ag4
ag4
ag5
aa(lp1608
S'1324572'
p1609
ag3
ag4
ag4
ag4
ag5
ag4
ag5
ag5
ag4
ag5
aa(lp1610
S'1324681'
p1611
ag9
ag4
ag4
ag4
ag5
ag4
ag5
ag4
ag4
ag5
aa(lp1612
S'1325159'
p1613
ag6
ag4
ag4
ag4
ag5
ag4
ag6
ag4
ag4
ag5
aa(lp1614
S'1326892'
p1615
ag6
ag4
ag4
ag4
ag5
ag4
ag5
ag4
ag4
ag5
aa(lp1616
S'1330361'
p1617
ag3
ag4
ag4
ag4
ag5
ag4
ag5
ag4
ag4
ag5
aa(lp1618
S'1333877'
p1619
ag3
ag9
ag3
ag4
ag17
ag4
ag6
ag16
ag4
ag5
aa(lp1620
S'1334015'
p1621
ag10
ag17
ag17
ag10
ag6
aS'10'
p1622
ag10
ag5
ag6
ag9
aa(lp1623
S'1334667'
p1624
ag4
ag4
ag4
ag4
ag5
ag4
ag4
ag4
ag4
ag5
aa(lp1625
S'1339781'
p1626
ag4
ag4
ag4
ag4
ag5
ag4
ag5
ag4
ag4
ag5
aa(lp1627
S'1339781'
p1628
ag9
ag4
ag4
ag4
ag5
ag4
ag6
ag4
ag4
ag5
aa(lp1629
S'13454352'
p1630
ag4
ag4
ag6
ag4
ag5
ag4
ag5
ag4
ag4
ag5
aa(lp1631
S'1345452'
p1632
ag4
ag4
ag6
ag4
ag5
ag4
ag5
ag4
ag4
ag5
aa(lp1633
S'1345593'
p1634
ag6
ag4
ag4
ag6
ag5
ag4
ag5
ag4
ag4
ag5
aa(lp1635
S'1347749'
p1636
ag4
ag4
ag4
ag4
ag5
ag4
ag4
ag4
ag4
ag5
aa(lp1637
S'1347943'
p1638
ag3
ag5
ag5
ag5
ag5
ag4
ag4
ag4
ag5
ag5
aa(lp1639
S'1348851'
p1640
ag6
ag4
ag4
ag4
ag5
ag4
ag6
ag4
ag4
ag5
aa(lp1641
S'1350319'
p1642
ag3
ag10
ag9
ag4
ag16
ag4
ag10
aS'10'
p1643
ag6
ag9
aa(lp1644
S'1350423'
p1645
ag3
aS'10'
p1646
aS'10'
p1647
ag17
ag3
ag3
ag10
aS'10'
p1648
ag4
ag9
aa(lp1649
S'1352848'
p1650
ag6
aS'10'
p1651
ag10
ag17
ag3
ag17
ag10
ag9
ag4
ag9
aa(lp1652
S'1353092'
p1653
ag6
ag5
ag4
ag5
ag5
ag4
ag6
ag4
ag4
ag5
aa(lp1654
S'1354840'
p1655
ag5
ag4
ag4
ag4
ag5
ag4
ag6
ag4
ag4
ag5
aa(lp1656
S'1354840'
p1657
ag3
ag6
ag5
ag4
ag6
ag4
ag4
ag4
ag4
ag5
aa(lp1658
S'1355260'
p1659
ag4
ag4
ag4
ag4
ag5
ag4
ag5
ag4
ag4
ag5
aa(lp1660
S'1365075'
p1661
ag9
ag4
ag9
ag4
ag5
ag4
ag4
ag4
ag4
ag5
aa(lp1662
S'1365328'
p1663
ag4
ag4
ag5
ag4
ag5
ag4
ag5
ag4
ag4
ag5
aa(lp1664
S'1368267'
p1665
ag3
ag4
ag4
ag4
ag5
ag4
ag4
ag4
ag4
ag5
aa(lp1666
S'1368273'
p1667
ag4
ag4
ag4
ag4
ag5
ag4
ag4
ag4
ag4
ag5
aa(lp1668
S'1368882'
p1669
ag5
ag4
ag4
ag4
ag5
ag4
ag4
ag4
ag4
ag5
aa(lp1670
S'1369821'
p1671
aS'10'
p1672
aS'10'
p1673
aS'10'
p1674
aS'10'
p1675
ag3
aS'10'
p1676
aS'10'
p1677
aS'10'
p1678
ag10
ag9
aa(lp1679
S'1371026'
p1680
ag3
aS'10'
p1681
aS'10'
p1682
aS'10'
p1683
ag9
aS'10'
p1684
ag3
ag16
ag6
ag9
aa(lp1685
S'1371920'
p1686
ag3
ag4
ag4
ag4
ag5
ag4
ag6
ag5
ag4
ag5
aa(lp1687
S'466906'
p1688
ag4
ag4
ag4
ag4
ag5
ag4
ag4
ag4
ag4
ag5
aa(lp1689
S'466906'
p1690
ag4
ag4
ag4
ag4
ag5
ag4
ag4
ag4
ag4
ag5
aa(lp1691
S'534555'
p1692
ag4
ag4
ag4
ag4
ag5
ag4
ag4
ag4
ag4
ag5
aa(lp1693
S'536708'
p1694
ag4
ag4
ag4
ag4
ag5
ag4
ag4
ag4
ag4
ag5
aa(lp1695
S'566346'
p1696
ag6
ag4
ag4
ag4
ag5
ag4
ag5
ag6
ag4
ag5
aa(lp1697
S'603148'
p1698
ag9
ag4
ag4
ag4
ag5
ag4
ag4
ag4
ag4
ag5
aa(lp1699
S'654546'
p1700
ag4
ag4
ag4
ag4
ag5
ag4
ag4
ag4
ag17
ag5
aa(lp1701
S'654546'
p1702
ag4
ag4
ag4
ag6
ag5
ag4
ag4
ag4
ag4
ag5
aa(lp1703
S'695091'
p1704
ag3
aS'10'
p1705
aS'10'
p1706
ag3
ag9
ag3
ag9
ag9
ag4
ag9
aa(lp1707
S'714039'
p1708
ag6
ag4
ag4
ag4
ag5
ag4
ag4
ag4
ag4
ag5
aa(lp1709
S'763235'
p1710
ag6
ag4
ag4
ag4
ag5
ag4
ag5
ag4
ag5
ag5
aa(lp1711
S'776715'
p1712
ag6
ag4
ag4
ag4
ag6
ag5
ag4
ag4
ag4
ag5
aa(lp1713
S'841769'
p1714
ag5
ag4
ag4
ag4
ag5
ag4
ag4
ag4
ag4
ag5
aa(lp1715
S'888820'
p1716
ag3
aS'10'
p1717
aS'10'
p1718
ag6
ag10
ag6
ag17
aS'10'
p1719
ag5
ag9
aa(lp1720
S'897471'
p1721
ag9
ag17
ag16
ag9
ag6
ag9
aS'10'
p1722
ag16
ag4
ag9
aa(lp1723
S'897471'
p1724
ag9
ag17
ag17
ag3
ag9
ag3
aS'10'
p1725
ag9
ag4
ag9
aa.