(lp0
(lp1
S'1000025'
p2
aS'5'
p3
aS'1'
p4
ag4
ag4
aS'2'
p5
ag4
aS'3'
p6
ag4
ag4
ag5
aa(lp7
S'1002945'
p8
ag3
aS'4'
p9
ag9
ag3
aS'7'
p10
aS'10'
p11
ag6
ag5
ag4
ag5
aa(lp12
S'1015425'
p13
ag6
ag4
ag4
ag4
ag5
ag5
ag6
ag4
ag4
ag5
aa(lp14
S'1016277'
p15
aS'6'
p16
aS'8'
p17
ag17
ag4
ag6
ag9
ag6
ag10
ag4
ag5
aa(lp18
S'1017023'
p19
ag9
ag4
ag4
ag6
ag5
ag4
ag6
ag4
ag4
ag5
aa(lp20
S'1017122'
p21
ag17
aS'10'
p22
aS'10'
p23
ag17
ag10
aS'10'
p24
aS'9'
p25
ag10
ag4
ag9
aa(lp26
S'1018099'
p27
ag4
ag4
ag4
ag4
ag5
aS'10'
p28
ag6
ag4
ag4
ag5
aa(lp29
S'1018561'
p30
ag5
ag4
ag5
ag4
ag5
ag4
ag6
ag4
ag4
ag5
aa(lp31
S'1033078'
p32
ag5
ag4
ag4
ag4
ag5
ag4
ag4
ag4
ag3
ag5
aa(lp33
S'1033078'
p34
ag9
ag5
ag4
ag4
ag5
ag4
ag5
ag4
ag4
ag5
aa(lp35
S'1035283'
p36
ag4
ag4
ag4
ag4
ag4
ag4
ag6
ag4
ag4
ag5
aa(lp37
S'1036172'
p38
ag5
ag4
ag4
ag4
ag5
ag4
ag5
ag4
ag4
ag5
aa(lp39
S'1041801'
p40
ag3
ag6
ag6
ag6
ag5
ag6
ag9
ag9
ag4
ag9
aa(lp41
S'1043999'
p42
ag4
ag4
ag4
ag4
ag5
ag6
ag6
ag4
ag4
ag5
aa(lp43
S'1044572'
p44
ag17
ag10
ag3
aS'10'
p45
ag10
ag25
ag3
ag3
ag9
ag9
aa(lp46
S'1047630'
p47
ag10
ag9
ag16
ag9
ag16
ag4
ag9
ag6
ag4
ag9
aa(lp48
S'1048672'
p49
ag9
ag4
ag4
ag4
ag5
ag4
ag5
ag4
ag4
ag5
aa(lp50
S'1049815'
p51
ag9
ag4
ag4
ag4
ag5
ag4
ag6
ag4
ag4
ag5
aa(lp52
S'1050670'
p53
aS'10'
p54
ag10
ag10
ag16
ag9
aS'10'
p55
ag9
ag4
ag5
ag9
aa(lp56
S'1050718'
p57
ag16
ag4
ag4
ag4
ag5
ag4
ag6
ag4
ag4
ag5
aa(lp58
S'1054590'
p59
ag10
ag6
ag5
aS'10'
p60
ag3
aS'10'
p61
ag3
ag9
ag9
ag9
aa(lp62
S'1054593'
p63
aS'10'
p64
ag3
ag3
ag6
ag16
ag10
ag10
aS'10'
p65
ag4
ag9
aa(lp66
S'1056784'
p67
ag6
ag4
ag4
ag4
ag5
ag4
ag5
ag4
ag4
ag5
aa(lp68
S'1057013'
p69
ag17
ag9
ag3
ag4
ag5
aS'?'
p70
ag10
ag6
ag4
ag9
aa(lp71
S'1059552'
p72
ag4
ag4
ag4
ag4
ag5
ag4
ag6
ag4
ag4
ag5
aa(lp73
S'1065726'
p74
ag3
ag5
ag6
ag9
ag5
ag10
ag6
ag16
ag4
ag9
aa(lp75
S'1066373'
p76
ag6
ag5
ag4
ag4
ag4
ag4
ag5
ag4
ag4
ag5
aa(lp77
S'1066979'
p78
ag3
ag4
ag4
ag4
ag5
ag4
ag5
ag4
ag4
ag5
aa(lp79
S'1067444'
p80
ag5
ag4
ag4
ag4
ag5
ag4
ag5
ag4
ag4
ag5
aa(lp81
S'1070935'
p82
ag4
ag4
ag6
ag4
ag5
ag4
ag4
ag4
ag4
ag5
aa(lp83
S'1070935'
p84
ag6
ag4
ag4
ag4
ag4
ag4
ag5
ag4
ag4
ag5
aa(lp85
S'1071760'
p86
ag5
ag4
ag4
ag4
ag5
ag4
ag6
ag4
ag4
ag5
aa(lp87
S'1072179'
p88
aS'10'
p89
ag10
ag10
ag6
ag17
ag3
ag10
ag9
ag6
ag9
aa(lp90
S'1074610'
p91
ag5
ag4
ag4
ag5
ag5
ag4
ag6
ag4
ag4
ag5
aa(lp92
S'1075123'
p93
ag6
ag4
ag5
ag4
ag5
ag4
ag5
ag4
ag4
ag5
aa(lp94
S'1079304'
p95
ag5
ag4
ag4
ag4
ag5
ag4
ag5
ag4
ag4
ag5
aa(lp96
S'1080185'
p97
aS'10'
p98
aS'10'
p99
aS'10'
p100
ag17
ag16
ag4
ag17
ag25
ag4
ag9
aa(lp101
S'1081791'
p102
ag16
ag5
ag4
ag4
ag4
ag4
ag10
ag4
ag4
ag5
aa(lp103
S'1084584'
p104
ag3
ag9
ag9
ag25
ag5
aS'10'
p105
ag3
ag16
ag4
ag9
aa(lp106
S'1091262'
p107
ag5
ag3
ag6
ag6
ag16
ag10
ag10
ag3
ag4
ag9
aa(lp108
S'1096800'
p109
ag16
ag16
ag16
ag25
ag16
ag70
ag10
ag17
ag4
ag5
aa(lp110
S'1099510'
p111
aS'10'
p112
ag9
ag6
ag4
ag6
ag6
ag16
ag3
ag5
ag9
aa(lp113
S'1100524'
p114
ag16
aS'10'
p115
aS'10'
p116
ag5
ag17
aS'10'
p117
ag10
ag6
ag6
ag9
aa(lp118
S'1102573'
p119
ag3
ag16
ag3
ag16
aS'10'
p120
ag4
ag6
ag4
ag4
ag9
aa(lp121
S'1103608'
p122
aS'10'
p123
aS'10'
p124
aS'10'
p125
ag9
ag17
ag4
ag17
aS'10'
p126
ag4
ag9
aa(lp127
S'1103722'
p128
ag4
ag4
ag4
ag4
ag5
ag4
ag5
ag4
ag5
ag5
aa(lp129
S'1105257'
p130
ag6
ag10
ag10
ag9
ag9
ag25
ag9
ag17
ag4
ag9
aa(lp131
S'1105524'
p132
ag4
ag4
ag4
ag4
ag5
ag4
ag5
ag4
ag4
ag5
aa(lp133
S'1106095'
p134
ag9
ag4
ag4
ag6
ag5
ag4
ag6
ag4
ag4
ag5
aa(lp135
S'1106829'
p136
ag10
ag17
ag10
ag5
ag9
ag17
ag6
ag17
ag5
ag9
aa(lp137
S'1108370'
p138
ag25
ag3
ag17
ag4
ag5
ag6
ag5
ag4
ag3
ag9
aa(lp139
S'1108449'
p140
ag3
ag6
ag6
ag9
ag5
ag9
ag6
ag9
ag4
ag9
aa(lp141
S'1110102'
p142
aS'10'
p143
ag6
ag16
ag5
ag6
ag3
ag9
aS'10'
p144
ag5
ag9
aa(lp145
S'1110503'
p146
ag3
ag3
ag3
ag17
aS'10'
p147
ag17
ag10
ag6
ag10
ag9
aa(lp148
S'1110524'
p149
aS'10'
p150
ag3
ag3
ag16
ag17
ag17
ag10
ag4
ag4
ag9
aa(lp151
S'1111249'
p152
aS'10'
p153
ag16
ag16
ag6
ag9
ag3
ag6
ag16
ag4
ag9
aa(lp154
S'1112209'
p155
ag17
aS'10'
p156
aS'10'
p157
ag4
ag6
ag16
ag6
ag25
ag4
ag9
aa(lp158
S'1113038'
p159
ag17
ag5
ag9
ag4
ag3
ag4
ag3
ag9
ag9
ag9
aa(lp160
S'1113483'
p161
ag3
ag5
ag6
ag4
ag16
aS'10'
p162
ag3
ag4
ag4
ag9
aa(lp163
S'1113906'
p164
ag25
ag3
ag3
ag5
ag5
ag5
ag3
ag4
ag4
ag9
aa(lp165
S'1115282'
p166
ag3
ag6
ag3
ag3
ag6
ag6
ag9
aS'10'
p167
ag4
ag9
aa(lp168
S'1115293'
p169
ag4
ag4
ag4
ag4
ag5
ag5
ag5
ag4
ag4
ag5
aa(lp170
S'1116116'
p171
ag25
aS'10'
p172
aS'10'
p173
ag4
aS'10'
p174
ag17
ag6
ag6
ag4
ag9
aa(lp175
S'1116132'
p176
ag16
ag6
ag9
ag4
ag3
ag5
ag6
ag25
ag4
ag9
aa(lp177
S'1116192'
p178
ag4
ag4
ag4
ag4
ag5
ag4
ag5
ag4
ag4
ag5
aa(lp179
S'1116998'
p180
aS'10'
p181
ag9
ag5
ag4
ag6
ag5
ag9
ag6
aS'10'
p182
ag9
aa(lp183
S'1117152'
p184
ag9
ag4
ag4
ag4
ag5
ag4
ag6
ag4
ag4
ag5
aa(lp185
S'1118039'
p186
ag3
ag6
ag9
ag4
ag17
aS'10'
p187
ag9
ag25
ag4
ag9
aa(lp188
S'1120559'
p189
ag17
ag6
ag17
ag6
ag9
ag25
ag17
ag25
ag17
ag9
aa(lp190
S'1121732'
p191
ag4
ag4
ag4
ag4
ag5
ag4
ag6
ag5
ag4
ag5
aa(lp192
S'1121919'
p193
ag3
ag4
ag6
ag4
ag5
ag4
ag5
ag4
ag4
ag5
aa(lp194
S'1123061'
p195
ag16
aS'10'
p196
ag5
ag17
aS'10'
p197
ag5
ag10
ag17
aS'10'
p198
ag9
aa(lp199
S'1124651'
p200
ag4
ag6
ag6
ag5
ag5
ag4
ag10
ag5
ag4
ag5
aa(lp201
S'1125035'
p202
ag25
ag9
ag3
aS'10'
p203
ag16
aS'10'
p204
ag9
ag17
ag4
ag9
aa(lp205
S'1126417'
p206
aS'10'
p207
ag16
ag9
ag4
ag6
ag9
ag6
ag5
ag6
ag9
aa(lp208
S'1131294'
p209
ag4
ag4
ag5
ag4
ag5
ag5
ag9
ag5
ag4
ag5
aa(lp210
S'1132347'
p211
ag4
ag4
ag9
ag4
ag5
ag4
ag5
ag4
ag4
ag5
aa(lp212
S'1133041'
p213
ag3
ag6
ag4
ag5
ag5
ag4
ag5
ag4
ag4
ag5
aa(lp214
S'1133136'
p215
ag6
ag4
ag4
ag4
ag5
ag6
ag6
ag4
ag4
ag5
aa(lp216
S'1136142'
p217
ag5
ag4
ag4
ag4
ag6
ag4
ag5
ag4
ag4
ag5
aa(lp218
S'1137156'
p219
ag5
ag5
ag5
ag4
ag4
ag4
ag10
ag4
ag4
ag5
aa(lp220
S'1143978'
p221
ag9
ag4
ag4
ag5
ag5
ag4
ag5
ag4
ag4
ag5
aa(lp222
S'1143978'
p223
ag3
ag5
ag4
ag4
ag5
ag4
ag6
ag4
ag4
ag5
aa(lp224
S'1147044'
p225
ag6
ag4
ag4
ag4
ag5
ag5
ag10
ag4
ag4
ag5
aa(lp226
S'1147699'
p227
ag6
ag3
ag10
ag17
ag17
ag25
ag10
aS'10'
p228
ag10
ag9
aa(lp229
S'1147748'
p230
ag3
aS'10'
p231
ag16
ag4
aS'10'
p232
ag9
ag9
aS'10'
p233
aS'10'
p234
ag9
aa(lp235
S'1148278'
p236
ag6
ag6
ag16
ag9
ag3
ag17
ag9
ag9
ag4
ag9
aa(lp237
S'1148873'
p238
ag6
ag16
ag16
ag16
ag3
aS'10'
p239
ag16
ag17
ag6
ag9
aa(lp240
S'1152331'
p241
ag9
ag4
ag4
ag4
ag5
ag4
ag6
ag4
ag4
ag5
aa(lp242
S'1155546'
p243
ag5
ag4
ag4
ag5
ag6
ag4
ag5
ag4
ag4
ag5
aa(lp244
S'1156272'
p245
ag4
ag4
ag4
ag4
ag5
ag4
ag6
ag4
ag4
ag5
aa(lp246
S'1156948'
p247
ag6
ag4
ag4
ag5
ag5
ag4
ag4
ag4
ag4
ag5
aa(lp248
S'1157734'
p249
ag9
ag4
ag4
ag4
ag5
ag4
ag6
ag4
ag4
ag5
aa(lp250
S'1158247'
p251
ag4
ag4
ag4
ag4
ag5
ag4
ag5
ag4
ag4
ag5
aa(lp252
S'1160476'
p253
ag5
ag4
ag4
ag4
ag5
ag4
ag6
ag4
ag4
ag5
aa(lp254
S'1164066'
p255
ag4
ag4
ag4
ag4
ag5
ag4
ag6
ag4
ag4
ag5
aa(lp256
S'1165297'
p257
ag5
ag4
ag4
ag5
ag5
ag4
ag4
ag4
ag4
ag5
aa(lp258
S'1165790'
p259
ag3
ag4
ag4
ag4
ag5
ag4
ag6
ag4
ag4
ag5
aa(lp260
S'1165926'
p261
ag25
ag16
ag25
ag5
aS'10'
p262
ag16
ag5
ag25
aS'10'
p263
ag9
aa(lp264
S'1166630'
p265
ag10
ag3
ag16
aS'10'
p266
ag3
aS'10'
p267
ag10
ag25
ag9
ag9
aa(lp268
S'1166654'
p269
aS'10'
p270
ag6
ag3
ag4
aS'10'
p271
ag3
ag6
aS'10'
p272
ag5
ag9
aa(lp273
S'1167439'
p274
ag5
ag6
ag9
ag9
ag5
ag3
ag5
ag3
ag4
ag9
aa(lp275
S'1167471'
p276
ag9
ag4
ag5
ag4
ag5
ag4
ag6
ag4
ag4
ag5
aa(lp277
S'1168359'
p278
ag17
ag5
ag6
ag4
ag16
ag6
ag10
ag4
ag4
ag9
aa(lp279
S'1168736'
p280
aS'10'
p281
aS'10'
p282
aS'10'
p283
aS'10'
p284
aS'10'
p285
ag4
ag17
ag17
ag17
ag9
aa(lp286
S'1169049'
p287
ag10
ag6
ag9
ag9
ag6
ag6
ag6
ag5
ag10
ag9
aa(lp288
S'1170419'
p289
aS'10'
p290
aS'10'
p291
aS'10'
p292
ag17
ag5
aS'10'
p293
ag9
ag4
ag4
ag9
aa(lp294
S'1170420'
p295
ag4
ag16
ag17
aS'10'
p296
ag17
aS'10'
p297
ag3
ag10
ag4
ag9
aa(lp298
S'1171710'
p299
ag4
ag4
ag4
ag4
ag5
ag4
ag5
ag6
ag4
ag5
aa(lp300
S'1171710'
p301
ag16
ag3
ag9
ag9
ag6
ag25
ag10
ag17
ag6
ag9
aa(lp302
S'1171795'
p303
ag4
ag6
ag4
ag5
ag5
ag5
ag3
ag6
ag5
ag5
aa(lp304
S'1171845'
p305
ag17
ag16
ag9
ag6
ag3
ag25
ag6
ag4
ag4
ag9
aa(lp306
S'1172152'
p307
aS'10'
p308
ag6
ag6
aS'10'
p309
ag5
aS'10'
p310
ag10
ag6
ag6
ag9
aa(lp311
S'1173216'
p312
aS'10'
p313
aS'10'
p314
aS'10'
p315
ag6
aS'10'
p316
ag17
ag17
ag4
ag4
ag9
aa(lp317
S'1173235'
p318
ag6
ag6
ag5
ag4
ag5
ag6
ag6
ag4
ag4
ag5
aa(lp319
S'1173347'
p320
ag4
ag4
ag4
ag4
ag5
ag3
ag4
ag4
ag4
ag5
aa(lp321
S'1173347'
p322
ag17
ag6
ag6
ag4
ag5
ag5
ag6
ag5
ag4
ag5
aa(lp323
S'1173509'
p324
ag9
ag3
ag3
aS'10'
p325
ag9
aS'10'
p326
ag10
ag3
ag17
ag9
aa(lp327
S'1173514'
p328
ag4
ag4
ag4
ag4
ag9
ag6
ag4
ag4
ag4
ag5
aa(lp329
S'1173681'
p330
ag6
ag5
ag4
ag4
ag5
ag5
ag6
ag4
ag4
ag5
aa(lp331
S'1174057'
p332
ag4
ag4
ag5
ag5
ag5
ag4
ag6
ag4
ag4
ag5
aa(lp333
S'1174057'
p334
ag9
ag5
ag4
ag4
ag5
ag5
ag6
ag4
ag4
ag5
aa(lp335
S'1174131'
p336
aS'10'
p337
aS'10'
p338
aS'10'
p339
ag5
aS'10'
p340
aS'10'
p341
ag3
ag6
ag6
ag9
aa(lp342
S'1174428'
p343
ag3
ag6
ag3
ag4
ag17
aS'10'
p344
ag3
ag6
ag4
ag9
aa(lp345
S'1175937'
p346
ag3
ag9
ag16
ag10
ag25
ag10
ag17
aS'10'
p347
ag4
ag9
aa(lp348
S'1176406'
p349
ag4
ag4
ag4
ag4
ag5
ag4
ag5
ag4
ag4
ag5
aa(lp350
S'1176881'
p351
ag10
ag3
ag6
ag10
ag9
aS'10'
p352
ag10
ag3
ag3
ag9
aa(lp353
S'1177027'
p354
ag6
ag4
ag4
ag4
ag5
ag4
ag6
ag4
ag4
ag5
aa(lp355
S'1177399'
p356
ag17
ag6
ag3
ag9
ag3
aS'10'
p357
ag4
ag16
ag5
ag9
aa(lp358
S'1177512'
p359
ag4
ag4
ag4
ag4
aS'10'
p360
ag4
ag4
ag4
ag4
ag5
aa(lp361
S'1178580'
p362
ag3
ag4
ag6
ag4
ag5
ag4
ag5
ag4
ag4
ag5
aa(lp363
S'1179818'
p364
ag5
ag4
ag4
ag4
ag5
ag4
ag6
ag4
ag4
ag5
aa(lp365
S'1180194'
p366
ag3
aS'10'
p367
ag17
aS'10'
p368
ag17
aS'10'
p369
ag6
ag16
ag6
ag9
aa(lp370
S'1180523'
p371
ag6
ag4
ag4
ag4
ag5
ag4
ag5
ag5
ag4
ag5
aa(lp372
S'1180831'
p373
ag6
ag4
ag4
ag4
ag6
ag4
ag5
ag4
ag4
ag5
aa(lp374
S'1181356'
p375
ag3
ag4
ag4
ag4
ag5
ag5
ag6
ag6
ag4
ag5
aa(lp376
S'1182404'
p377
ag9
ag4
ag4
ag4
ag5
ag4
ag5
ag4
ag4
ag5
aa(lp378
S'1182410'
p379
ag6
ag4
ag4
ag4
ag5
ag4
ag4
ag4
ag4
ag5
aa(lp380
S'1183240'
p381
ag9
ag4
ag5
ag4
ag5
ag4
ag5
ag4
ag4
ag5
aa(lp382
S'1183246'
p383
ag4
ag4
ag4
ag4
ag4
ag70
ag5
ag4
ag4
ag5
aa(lp384
S'1183516'
p385
ag6
ag4
ag4
ag4
ag5
ag4
ag4
ag4
ag4
ag5
aa(lp386
S'1183911'
p387
ag5
ag4
ag4
ag4
ag5
ag4
ag4
ag4
ag4
ag5
aa(lp388
S'1183983'
p389
ag25
ag3
ag3
ag9
ag9
ag3
ag9
ag6
ag6
ag9
aa(lp390
S'1184184'
p391
ag4
ag4
ag4
ag4
ag5
ag3
ag4
ag4
ag4
ag5
aa(lp392
S'1184241'
p393
ag5
ag4
ag4
ag4
ag5
ag4
ag5
ag4
ag4
ag5
aa(lp394
S'1184840'
p395
ag4
ag4
ag6
ag4
ag5
ag70
ag5
ag4
ag4
ag5
aa(lp396
S'1185609'
p397
ag6
ag9
ag3
ag5
ag16
ag17
ag9
ag4
ag4
ag9
aa(lp398
S'1185610'
p399
ag4
ag4
ag4
ag4
ag6
ag5
ag5
ag4
ag4
ag5
aa(lp400
S'1187457'
p401
ag6
ag4
ag4
ag6
ag17
ag4
ag3
ag17
ag4
ag5
aa(lp402
S'1187805'
p403
ag17
ag17
ag10
ag9
aS'10'
p404
aS'10'
p405
ag10
ag17
ag10
ag9
aa(lp406
S'1188472'
p407
ag4
ag4
ag4
ag4
ag4
ag4
ag6
ag4
ag4
ag5
aa(lp408
S'1189266'
p409
ag10
ag5
ag9
ag4
ag16
aS'10'
p410
ag3
ag9
ag6
ag9
aa(lp411
S'1189286'
p412
aS'10'
p413
aS'10'
p414
ag17
ag16
ag9
ag3
ag17
aS'10'
p415
ag4
ag9
aa(lp416
S'1190394'
p417
ag9
ag4
ag4
ag4
ag5
ag6
ag4
ag4
ag4
ag5
aa(lp418
S'1190485'
p419
ag4
ag4
ag4
ag4
ag5
ag4
ag4
ag4
ag4
ag5
aa(lp420
S'1192325'
p421
ag3
ag3
ag3
ag16
ag6
aS'10'
p422
ag6
ag4
ag4
ag9
aa(lp423
S'1193091'
p424
ag4
ag5
ag5
ag4
ag5
ag4
ag5
ag4
ag4
ag5
aa(lp425
S'1193210'
p426
ag5
ag4
ag4
ag4
ag5
ag4
ag6
ag4
ag4
ag5
aa(lp427
S'1193683'
p428
ag4
ag4
ag5
ag4
ag6
ag70
ag4
ag4
ag4
ag5
aa(lp429
S'1196295'
p430
ag25
ag25
aS'10'
p431
ag6
ag16
aS'10'
p432
ag10
aS'10'
p433
ag16
ag9
aa(lp434
S'1196915'
p435
aS'10'
p436
ag10
ag10
ag9
ag3
aS'10'
p437
ag3
ag10
ag5
ag9
aa(lp438
S'1197080'
p439
ag9
ag4
ag4
ag4
ag5
ag4
ag6
ag5
ag4
ag5
aa(lp440
S'1197270'
p441
ag6
ag4
ag4
ag4
ag5
ag4
ag6
ag4
ag4
ag5
aa(lp442
S'1197440'
p443
ag4
ag4
ag4
ag5
ag4
ag6
ag4
ag4
ag10
ag5
aa(lp444
S'1197510'
p445
ag3
ag4
ag4
ag4
ag5
ag70
ag6
ag4
ag4
ag5
aa(lp446
S'1197979'
p447
ag9
ag4
ag4
ag4
ag5
ag5
ag6
ag5
ag4
ag5
aa(lp448
S'1197993'
p449
ag3
ag16
ag10
ag17
ag17
aS'10'
p450
ag6
aS'10'
p451
ag6
ag9
aa(lp452
S'1198128'
p453
aS'10'
p454
ag17
aS'10'
p455
aS'10'
p456
ag16
ag4
ag6
ag4
aS'10'
p457
ag9
aa(lp458
S'1198641'
p459
ag6
ag4
ag4
ag4
ag5
ag4
ag6
ag4
ag4
ag5
aa(lp460
S'1199219'
p461
ag4
ag4
ag4
ag5
ag4
ag4
ag4
ag4
ag4
ag5
aa(lp462
S'1199731'
p463
ag6
ag4
ag4
ag4
ag5
ag4
ag4
ag4
ag4
ag5
aa(lp464
S'1199983'
p465
ag4
ag4
ag4
ag4
ag5
ag4
ag6
ag4
ag4
ag5
aa(lp466
S'1200772'
p467
ag4
ag4
ag4
ag4
ag5
ag4
ag5
ag4
ag4
ag5
aa(lp468
S'1200847'
p469
ag16
aS'10'
p470
aS'10'
p471
aS'10'
p472
ag17
aS'10'
p473
aS'10'
p474
aS'10'
p475
ag10
ag9
aa(lp476
S'1200892'
p477
ag17
ag16
ag3
ag9
ag6
aS'10'
p478
ag16
ag4
ag4
ag9
aa(lp479
S'1200952'
p480
ag3
ag17
ag10
ag10
aS'10'
p481
aS'10'
p482
ag3
ag10
ag4
ag9
aa(lp483
S'1201834'
p484
ag5
ag4
ag4
ag4
ag5
ag4
ag6
ag4
ag4
ag5
aa(lp485
S'1201936'
p486
ag3
aS'10'
p487
aS'10'
p488
ag6
ag17
ag4
ag3
aS'10'
p489
ag6
ag9
aa(lp490
S'1202125'
p491
ag9
ag4
ag4
ag4
ag5
ag4
ag6
ag4
ag4
ag5
aa(lp492
S'1202812'
p493
ag3
ag6
ag6
ag6
ag16
aS'10'
p494
ag6
ag4
ag4
ag9
aa(lp495
S'1203096'
p496
ag4
ag4
ag4
ag4
ag4
ag4
ag6
ag4
ag4
ag5
aa(lp497
S'1204242'
p498
ag4
ag4
ag4
ag4
ag5
ag4
ag4
ag4
ag4
ag5
aa(lp499
S'1204898'
p500
ag16
ag4
ag4
ag4
ag5
ag4
ag6
ag4
ag4
ag5
aa(lp501
S'1205138'
p502
ag3
ag17
ag17
ag17
ag3
aS'10'
p503
ag10
ag17
ag4
ag9
aa(lp504
S'1205579'
p505
ag17
ag10
ag16
ag9
ag9
aS'10'
p506
ag3
ag4
ag4
ag9
aa(lp507
S'1206089'
p508
ag5
ag4
ag4
ag4
ag4
ag4
ag6
ag4
ag4
ag5
aa(lp509
S'1206695'
p510
ag4
ag3
ag17
ag16
ag3
ag17
ag10
aS'10'
p511
ag4
ag9
aa(lp512
S'1206841'
p513
aS'10'
p514
ag3
ag16
aS'10'
p515
ag16
aS'10'
p516
ag10
ag10
aS'10'
p517
ag9
aa(lp518
S'1207986'
p519
ag3
ag17
ag9
aS'10'
p520
ag3
ag17
ag25
aS'10'
p521
ag4
ag9
aa(lp522
S'1208301'
p523
ag4
ag5
ag6
ag4
ag5
ag4
ag6
ag4
ag4
ag5
aa(lp524
S'1210963'
p525
aS'10'
p526
aS'10'
p527
aS'10'
p528
ag17
ag16
ag17
ag10
aS'10'
p529
ag4
ag9
aa(lp530
S'1211202'
p531
ag10
ag3
aS'10'
p532
aS'10'
p533
aS'10'
p534
aS'10'
p535
ag9
aS'10'
p536
ag6
ag9
aa(lp537
S'1212232'
p538
ag3
ag4
ag4
ag4
ag5
ag4
ag5
ag4
ag4
ag5
aa(lp539
S'1212251'
p540
ag4
ag4
ag4
ag4
ag5
ag4
ag6
ag4
ag4
ag5
aa(lp541
S'1212422'
p542
ag6
ag4
ag4
ag4
ag5
ag4
ag6
ag4
ag4
ag5
aa(lp543
S'1212422'
p544
ag9
ag4
ag4
ag4
ag5
ag4
ag6
ag4
ag4
ag5
aa(lp545
S'1213375'
p546
ag17
ag9
ag9
ag3
ag9
ag10
ag10
ag17
ag5
ag5
aa(lp547
S'1213383'
p548
ag3
ag4
ag4
ag9
ag5
ag4
ag6
ag4
ag4
ag5
aa(lp549
S'1214092'
p550
ag4
ag4
ag4
ag4
ag5
ag4
ag4
ag4
ag4
ag5
aa(lp551
S'1214556'
p552
ag6
ag4
ag4
ag4
ag5
ag4
ag5
ag4
ag4
ag5
aa(lp553
S'1214966'
p554
ag25
ag10
ag10
ag3
ag3
aS'10'
p555
ag10
ag17
ag6
ag9
aa(lp556
S'1216694'
p557
aS'10'
p558
ag17
ag17
ag9
aS'10'
p559
aS'10'
p560
ag17
ag4
ag4
ag9
aa(lp561
S'1216947'
p562
ag4
ag4
ag4
ag4
ag5
ag4
ag6
ag4
ag4
ag5
aa(lp563
S'1217051'
p564
ag3
ag4
ag4
ag4
ag5
ag4
ag6
ag4
ag4
ag5
aa(lp565
S'1217264'
p566
ag4
ag4
ag4
ag4
ag5
ag4
ag6
ag4
ag4
ag5
aa(lp567
S'1218105'
p568
ag3
aS'10'
p569
aS'10'
p570
ag25
ag16
aS'10'
p571
ag10
aS'10'
p572
ag3
ag9
aa(lp573
S'1218741'
p574
aS'10'
p575
aS'10'
p576
ag25
ag6
ag10
ag3
ag6
ag3
ag4
ag9
aa(lp577
S'1218860'
p578
ag4
ag4
ag4
ag4
ag4
ag4
ag6
ag4
ag4
ag5
aa(lp579
S'1218860'
p580
ag4
ag4
ag4
ag4
ag4
ag4
ag6
ag4
ag4
ag5
aa(lp581
S'1219406'
p582
ag3
ag4
ag4
ag4
ag4
ag4
ag6
ag4
ag4
ag5
aa(lp583
S'1219525'
p584
ag17
aS'10'
p585
aS'10'
p586
aS'10'
p587
ag3
aS'10'
p588
ag17
aS'10'
p589
ag16
ag9
aa(lp590
S'1219859'
p591
ag17
aS'10'
p592
ag17
ag17
ag9
ag17
ag10
ag10
ag4
ag9
aa(lp593
S'1220330'
p594
ag4
ag4
ag4
ag4
ag5
ag4
ag6
ag4
ag4
ag5
aa(lp595
S'1221863'
p596
aS'10'
p597
aS'10'
p598
aS'10'
p599
aS'10'
p600
ag10
aS'10'
p601
ag10
aS'10'
p602
ag9
ag9
aa(lp603
S'1222047'
p604
aS'10'
p605
aS'10'
p606
aS'10'
p607
aS'10'
p608
ag6
aS'10'
p609
aS'10'
p610
ag16
ag4
ag9
aa(lp611
S'1222936'
p612
ag17
ag10
ag17
ag10
ag3
ag3
ag3
aS'10'
p613
ag5
ag9
aa(lp614
S'1223282'
p615
ag4
ag4
ag4
ag4
ag5
ag4
ag5
ag4
ag4
ag5
aa(lp616
S'1223426'
p617
ag4
ag4
ag4
ag4
ag5
ag4
ag6
ag4
ag4
ag5
aa(lp618
S'1223793'
p619
ag16
aS'10'
p620
ag10
ag10
ag16
ag9
ag17
aS'10'
p621
ag5
ag9
aa(lp622
S'1223967'
p623
ag16
ag4
ag6
ag4
ag5
ag4
ag6
ag4
ag4
ag5
aa(lp624
S'1224329'
p625
ag4
ag4
ag4
ag5
ag5
ag4
ag6
ag4
ag4
ag5
aa(lp626
S'1225799'
p627
aS'10'
p628
ag16
ag9
ag6
aS'10'
p629
aS'10'
p630
ag25
aS'10'
p631
ag4
ag9
aa(lp632
S'1226012'
p633
ag9
ag4
ag4
ag6
ag4
ag3
ag5
ag4
ag4
ag9
aa(lp634
S'1226612'
p635
ag10
ag3
ag16
ag6
ag6
ag17
ag10
ag9
ag4
ag9
aa(lp636
S'1227210'
p637
aS'10'
p638
ag3
ag3
ag16
ag6
aS'10'
p639
ag10
ag25
ag5
ag9
aa(lp640
S'1227244'
p641
ag4
ag4
ag4
ag4
ag5
ag4
ag5
ag4
ag4
ag5
aa(lp642
S'1227481'
p643
aS'10'
p644
ag3
ag10
ag9
ag9
aS'10'
p645
ag17
ag25
ag4
ag9
aa(lp646
S'1228152'
p647
ag17
ag25
ag25
ag3
ag6
ag3
ag10
ag10
ag4
ag9
aa(lp648
S'1228311'
p649
ag4
ag4
ag4
ag4
ag4
ag4
ag6
ag4
ag4
ag5
aa(lp650
S'1230175'
p651
aS'10'
p652
aS'10'
p653
aS'10'
p654
ag6
aS'10'
p655
aS'10'
p656
ag25
aS'10'
p657
ag4
ag9
aa(lp658
S'1230688'
p659
ag10
ag9
ag10
ag9
ag6
ag10
ag10
ag16
ag4
ag9
aa(lp660
S'1231387'
p661
ag16
ag17
ag10
ag3
ag16
ag17
ag17
ag25
ag5
ag9
aa(lp662
S'1231706'
p663
ag17
ag9
ag16
ag6
ag6
ag4
ag9
ag6
ag4
ag5
aa(lp664
S'1232225'
p665
aS'10'
p666
ag9
ag3
ag3
ag3
aS'10'
p667
ag9
ag4
ag4
ag9
aa(lp668
S'1236043'
p669
ag6
ag6
ag5
ag4
ag6
ag4
ag6
ag16
ag4
ag5
aa(lp670
S'1241232'
p671
ag6
ag4
ag9
ag4
ag5
ag70
ag6
ag4
ag4
ag5
aa(lp672
S'1241559'
p673
aS'10'
p674
ag17
ag17
ag5
ag17
aS'10'
p675
ag9
ag17
aS'10'
p676
ag9
aa(lp677
S'1241679'
p678
ag25
ag17
ag17
ag3
ag16
ag5
ag9
aS'10'
p679
ag9
ag9
aa(lp680
S'1242364'
p681
ag17
aS'10'
p682
aS'10'
p683
ag17
ag16
ag25
ag6
aS'10'
p684
aS'10'
p685
ag9
aa(lp686
S'1243256'
p687
aS'10'
p688
ag9
ag6
ag5
ag6
aS'10'
p689
ag3
ag6
ag5
ag9
aa(lp690
S'1270479'
p691
ag3
ag4
ag6
ag6
ag5
ag5
ag5
ag6
ag4
ag5
aa(lp692
S'1276091'
p693
ag6
ag4
ag4
ag6
ag4
ag4
ag6
ag4
ag4
ag5
aa(lp694
S'1277018'
p695
ag5
ag4
ag4
ag4
ag5
ag4
ag6
ag4
ag4
ag5
aa(lp696
S'128059'
p697
ag4
ag4
ag4
ag4
ag5
ag3
ag3
ag4
ag4
ag5
aa(lp698
S'1285531'
p699
ag4
ag4
ag4
ag4
ag5
ag4
ag6
ag4
ag4
ag5
aa(lp700
S'1287775'
p701
ag3
ag4
ag4
ag5
ag5
ag5
ag6
ag4
ag4
ag5
aa(lp702
S'144888'
p703
ag17
aS'10'
p704
aS'10'
p705
ag17
ag3
aS'10'
p706
ag10
ag17
ag4
ag9
aa(lp707
S'145447'
p708
ag17
ag9
ag9
ag4
ag5
ag25
ag6
ag6
ag4
ag9
aa(lp709
S'167528'
p710
ag9
ag4
ag4
ag4
ag5
ag4
ag6
ag16
ag4
ag5
aa(lp711
S'169356'
p712
ag6
ag4
ag4
ag4
ag5
ag70
ag6
ag4
ag4
ag5
aa(lp713
S'183913'
p714
ag4
ag5
ag5
ag4
ag5
ag4
ag4
ag4
ag4
ag5
aa(lp715
S'191250'
p716
aS'10'
p717
ag9
ag9
aS'10'
p718
ag5
aS'10'
p719
ag3
ag6
ag6
ag9
aa(lp720
S'1017023'
p721
ag16
ag6
ag6
ag3
ag6
aS'10'
p722
ag6
ag3
ag6
ag5
aa(lp723
S'1100524'
p724
ag16
aS'10'
p725
aS'10'
p726
ag5
ag17
aS'10'
p727
ag10
ag6
ag6
ag9
aa(lp728
S'1116116'
p729
ag25
aS'10'
p730
aS'10'
p731
ag4
aS'10'
p732
ag17
ag6
ag6
ag4
ag9
aa(lp733
S'1168736'
p734
ag3
ag16
ag16
ag5
ag9
aS'10'
p735
ag6
ag16
ag4
ag9
aa(lp736
S'1182404'
p737
ag6
ag4
ag4
ag4
ag5
ag4
ag4
ag4
ag4
ag5
aa(lp738
S'1182404'
p739
ag6
ag4
ag4
ag4
ag5
ag4
ag5
ag4
ag4
ag5
aa(lp740
S'1198641'
p741
ag6
ag4
ag4
ag4
ag5
ag4
ag6
ag4
ag4
ag5
aa(lp742
S'242970'
p743
ag3
ag10
ag10
ag4
ag3
ag17
ag6
ag9
ag4
ag5
aa(lp744
S'255644'
p745
aS'10'
p746
ag3
ag17
aS'10'
p747
ag6
aS'10'
p748
ag3
ag4
ag6
ag9
aa(lp749
S'263538'
p750
ag3
aS'10'
p751
aS'10'
p752
ag16
aS'10'
p753
aS'10'
p754
aS'10'
p755
ag16
ag3
ag9
aa(lp756
S'274137'
p757
ag17
ag17
ag25
ag9
ag3
aS'10'
p758
ag10
ag17
ag4
ag9
aa(lp759
S'303213'
p760
aS'10'
p761
ag9
ag9
aS'10'
p762
ag16
aS'10'
p763
ag3
ag3
ag4
ag9
aa(lp764
S'314428'
p765
ag10
ag25
ag9
aS'10'
p766
aS'10'
p767
ag6
ag3
ag6
ag6
ag9
aa(lp768
S'1182404'
p769
ag3
ag4
ag9
ag4
ag5
ag4
ag6
ag5
ag4
ag5
aa(lp770
S'1198641'
p771
aS'10'
p772
aS'10'
p773
ag16
ag6
ag6
aS'10'
p774
ag9
ag6
ag5
ag9
aa(lp775
S'320675'
p776
ag6
ag6
ag3
ag5
ag6
aS'10'
p777
ag10
ag4
ag4
ag9
aa(lp778
S'385103'
p779
ag4
ag4
ag4
ag4
ag5
ag4
ag6
ag4
ag4
ag5
aa(lp780
S'411453'
p781
ag3
ag4
ag4
ag4
ag5
ag4
ag6
ag4
ag4
ag5
aa(lp782
S'431495'
p783
ag6
ag4
ag4
ag4
ag5
ag4
ag6
ag5
ag4
ag5
aa(lp784
S'432809'
p785
ag6
ag4
ag6
ag4
ag5
ag70
ag5
ag4
ag4
ag5
aa(lp786
S'434518'
p787
ag6
ag4
ag4
ag4
ag5
ag4
ag5
ag4
ag4
ag5
aa(lp788
S'452264'
p789
ag4
ag4
ag4
ag4
ag5
ag4
ag5
ag4
ag4
ag5
aa(lp790
S'456282'
p791
ag4
ag4
ag4
ag4
ag5
ag4
ag6
ag4
ag4
ag5
aa(lp792
S'486283'
p793
ag6
ag4
ag4
ag4
ag5
ag4
ag6
ag4
ag4
ag5
aa(lp794
S'486662'
p795
ag5
ag4
ag4
ag5
ag5
ag4
ag6
ag4
ag4
ag5
aa(lp796
S'535331'
p797
ag6
ag4
ag4
ag4
ag6
ag4
ag5
ag4
ag4
ag5
aa(lp798
S'560680'
p799
ag4
ag4
ag4
ag4
ag5
ag4
ag4
ag4
ag4
ag5
aa(lp800
S'561477'
p801
ag4
ag4
ag4
ag4
ag5
ag4
ag6
ag4
ag4
ag5
aa(lp802
S'606140'
p803
ag4
ag4
ag4
ag4
ag5
ag70
ag5
ag4
ag4
ag5
aa(lp804
S'616240'
p805
ag3
ag6
ag9
ag6
ag9
ag3
ag9
ag10
ag4
ag5
aa(lp806
S'61634'
p807
ag3
ag9
ag6
ag4
ag5
ag70
ag5
ag6
ag4
ag5
aa(lp808
S'625201'
p809
ag17
ag5
ag4
ag4
ag3
ag4
ag4
ag4
ag4
ag5
aa(lp810
S'636130'
p811
ag4
ag4
ag4
ag4
ag5
ag4
ag6
ag4
ag4
ag5
aa(lp812
S'646904'
p813
ag4
ag4
ag4
ag4
ag5
ag4
ag6
ag4
ag4
ag5
aa(lp814
S'666090'
p815
ag4
ag4
ag4
ag4
ag5
ag4
ag6
ag4
ag4
ag5
aa(lp816
S'666942'
p817
ag4
ag4
ag4
ag4
ag5
ag4
ag6
ag4
ag4
ag5
aa(lp818
S'673637'
p819
ag6
ag4
ag4
ag4
ag5
ag3
ag3
ag4
ag4
ag5
aa(lp820
S'684955'
p821
ag5
ag4
ag4
ag4
ag6
ag4
ag5
ag4
ag4
ag5
aa(lp822
S'688033'
p823
ag4
ag4
ag4
ag4
ag5
ag4
ag4
ag4
ag4
ag5
aa(lp824
S'693702'
p825
ag4
ag4
ag4
ag4
ag5
ag4
ag4
ag4
ag4
ag5
aa(lp826
S'704097'
p827
ag4
ag4
ag4
ag4
ag4
ag4
ag5
ag4
ag4
ag5
aa(lp828
S'704168'
p829
ag9
ag16
ag3
ag16
ag10
ag70
ag9
ag25
ag4
ag5
aa(lp830
S'718641'
p831
ag4
ag4
ag4
ag4
ag3
ag4
ag6
ag4
ag4
ag5
aa(lp832
S'721482'
p833
ag9
ag9
ag9
ag9
ag16
ag3
ag10
ag6
ag4
ag5
aa(lp834
S'730881'
p835
ag10
ag16
ag6
ag5
ag3
aS'10'
p836
ag10
ag9
ag16
ag9
aa(lp837
S'733639'
p838
ag6
ag4
ag4
ag4
ag5
ag70
ag6
ag4
ag4
ag5
aa(lp839
S'733639'
p840
ag6
ag4
ag4
ag4
ag5
ag4
ag6
ag4
ag4
ag5
aa(lp841
S'733823'
p842
ag3
ag9
ag16
aS'10'
p843
ag5
aS'10'
p844
ag9
ag4
ag4
ag9
aa(lp845
S'740492'
p846
ag4
ag4
ag4
ag4
ag5
ag4
ag6
ag4
ag4
ag5
aa(lp847
S'743348'
p848
ag6
ag5
ag5
ag4
ag5
ag4
ag5
ag6
ag4
ag5
aa(lp849
S'752904'
p850
aS'10'
p851
ag4
ag4
ag4
ag5
aS'10'
p852
ag3
ag9
ag4
ag9
aa(lp853
S'756136'
p854
ag4
ag4
ag4
ag4
ag5
ag4
ag5
ag4
ag4
ag5
aa(lp855
S'760001'
p856
ag17
aS'10'
p857
ag6
ag5
ag16
ag9
ag6
aS'10'
p858
ag4
ag9
aa(lp859
S'760239'
p860
aS'10'
p861
ag9
ag16
ag9
ag3
aS'10'
p862
ag10
ag4
ag4
ag9
aa(lp863
S'76389'
p864
aS'10'
p865
ag9
ag10
ag5
ag5
ag17
ag16
ag4
ag4
ag9
aa(lp866
S'764974'
p867
ag3
ag4
ag4
ag4
ag5
ag4
ag6
ag4
ag5
ag5
aa(lp868
S'770066'
p869
ag3
ag5
ag5
ag5
ag5
ag4
ag5
ag5
ag4
ag5
aa(lp870
S'785208'
p871
ag3
ag9
ag16
ag16
ag9
aS'10'
p872
ag9
ag6
ag4
ag9
aa(lp873
S'785615'
p874
ag17
ag16
ag10
ag6
ag6
aS'10'
p875
ag6
ag9
ag5
ag9
aa(lp876
S'792744'
p877
ag4
ag4
ag4
ag4
ag5
ag4
ag4
ag4
ag4
ag5
aa(lp878
S'797327'
p879
ag16
ag3
ag3
ag17
ag9
aS'10'
p880
ag6
ag9
ag4
ag9
aa(lp881
S'798429'
p882
ag4
ag4
ag4
ag4
ag5
ag4
ag6
ag4
ag4
ag5
aa(lp883
S'704097'
p884
ag4
ag4
ag4
ag4
ag4
ag4
ag5
ag4
ag4
ag5
aa(lp885
S'806423'
p886
ag17
ag3
ag3
ag3
ag5
aS'10'
p887
ag9
ag6
ag4
ag9
aa(lp888
S'809912'
p889
aS'10'
p890
ag6
ag6
ag4
ag5
aS'10'
p891
ag10
ag16
ag4
ag9
aa(lp892
S'810104'
p893
ag4
ag4
ag4
ag4
ag5
ag4
ag6
ag4
ag4
ag5
aa(lp894
S'814265'
p895
ag5
ag4
ag4
ag4
ag5
ag4
ag4
ag4
ag4
ag5
aa(lp896
S'814911'
p897
ag4
ag4
ag4
ag4
ag5
ag4
ag4
ag4
ag4
ag5
aa(lp898
S'822829'
p899
ag10
ag16
ag9
ag17
aS'10'
p900
aS'10'
p901
ag25
ag3
ag6
ag9
aa(lp902
S'826923'
p903
ag4
ag4
ag4
ag4
ag5
ag4
ag4
ag4
ag4
ag5
aa(lp904
S'830690'
p905
ag3
ag5
ag5
ag5
ag6
ag4
ag4
ag6
ag4
ag5
aa(lp906
S'831268'
p907
ag4
ag4
ag4
ag4
ag4
ag4
ag4
ag6
ag4
ag5
aa(lp908
S'832226'
p909
ag6
ag9
ag9
aS'10'
p910
ag3
ag4
ag6
ag6
ag4
ag9
aa(lp911
S'832567'
p912
ag9
ag5
ag6
ag3
ag6
ag17
ag10
ag16
ag4
ag9
aa(lp913
S'836433'
p914
ag3
ag4
ag4
ag6
ag5
ag4
ag4
ag4
ag4
ag5
aa(lp915
S'837082'
p916
ag5
ag4
ag4
ag4
ag5
ag4
ag6
ag4
ag4
ag5
aa(lp917
S'846832'
p918
ag6
ag9
ag3
ag6
ag10
ag6
ag9
ag16
ag4
ag5
aa(lp919
S'850831'
p920
ag5
ag10
aS'10'
p921
aS'10'
p922
ag10
aS'10'
p923
ag9
ag25
ag9
ag9
aa(lp924
S'855524'
p925
ag4
ag4
ag4
ag4
ag5
ag4
ag5
ag4
ag4
ag5
aa(lp926
S'857774'
p927
ag9
ag4
ag4
ag4
ag6
ag4
ag5
ag5
ag4
ag5
aa(lp928
S'859164'
p929
ag3
ag6
ag6
ag4
ag6
ag6
ag6
ag6
ag6
ag9
aa(lp930
S'859350'
p931
ag17
aS'10'
p932
aS'10'
p933
ag10
aS'10'
p934
aS'10'
p935
ag10
ag6
ag17
ag9
aa(lp936
S'866325'
p937
ag17
aS'10'
p938
ag3
ag6
ag17
ag9
ag9
aS'10'
p939
ag6
ag9
aa(lp940
S'873549'
p941
aS'10'
p942
ag6
ag3
ag9
ag6
ag10
ag6
ag3
ag6
ag9
aa(lp943
S'877291'
p944
ag16
aS'10'
p945
aS'10'
p946
aS'10'
p947
aS'10'
p948
aS'10'
p949
ag17
aS'10'
p950
aS'10'
p951
ag9
aa(lp952
S'877943'
p953
ag6
aS'10'
p954
ag6
aS'10'
p955
ag16
aS'10'
p956
ag3
ag4
ag9
ag9
aa(lp957
S'888169'
p958
ag6
ag5
ag5
ag4
ag9
ag6
ag5
ag4
ag4
ag5
aa(lp959
S'888523'
p960
ag9
ag9
ag9
ag5
ag5
ag6
ag5
ag4
ag4
ag5
aa(lp961
S'896404'
p962
ag5
ag4
ag4
ag4
ag5
ag4
ag6
ag4
ag4
ag5
aa(lp963
S'897172'
p964
ag5
ag4
ag4
ag4
ag5
ag4
ag5
ag4
ag4
ag5
aa(lp965
S'95719'
p966
ag16
aS'10'
p967
aS'10'
p968
aS'10'
p969
ag17
aS'10'
p970
ag10
aS'10'
p971
ag10
ag9
aa(lp972
S'160296'
p973
ag3
ag17
ag17
aS'10'
p974
ag3
aS'10'
p975
ag17
aS'10'
p976
ag6
ag9
aa(lp977
S'342245'
p978
ag4
ag4
ag6
ag4
ag5
ag4
ag4
ag4
ag4
ag5
aa(lp979
S'428598'
p980
ag4
ag4
ag6
ag4
ag4
ag4
ag5
ag4
ag4
ag5
aa(lp981
S'492561'
p982
ag9
ag6
ag5
ag4
ag6
ag4
ag5
ag4
ag4
ag5
aa(lp983
S'493452'
p984
ag4
ag4
ag6
ag4
ag5
ag4
ag4
ag4
ag4
ag5
aa(lp985
S'493452'
p986
ag9
ag4
ag5
ag4
ag5
ag4
ag5
ag4
ag4
ag5
aa(lp987
S'521441'
p988
ag3
ag4
ag4
ag5
ag5
ag4
ag5
ag4
ag4
ag5
aa(lp989
S'560680'
p990
ag6
ag4
ag5
ag4
ag5
ag4
ag5
ag4
ag4
ag5
aa(lp991
S'636437'
p992
ag4
ag4
ag4
ag4
ag5
ag4
ag4
ag4
ag4
ag5
aa(lp993
S'640712'
p994
ag4
ag4
ag4
ag4
ag5
ag4
ag5
ag4
ag4
ag5
aa(lp995
S'654244'
p996
ag4
ag4
ag4
ag4
ag4
ag4
ag5
ag4
ag4
ag5
aa(lp997
S'657753'
p998
ag6
ag4
ag4
ag9
ag6
ag4
ag5
ag5
ag4
ag5
aa(lp999
S'685977'
p1000
ag3
ag6
ag9
ag4
ag9
ag4
ag6
ag4
ag4
ag5
aa(lp1001
S'805448'
p1002
ag4
ag4
ag4
ag4
ag5
ag4
ag4
ag4
ag4
ag5
aa(lp1003
S'846423'
p1004
aS'10'
p1005
ag16
ag6
ag16
ag9
aS'10'
p1006
ag10
ag17
ag9
ag9
aa(lp1007
S'1002504'
p1008
ag6
ag5
ag5
ag5
ag5
ag4
ag6
ag5
ag4
ag5
aa(lp1009
S'1022257'
p1010
ag5
ag4
ag4
ag4
ag5
ag4
ag4
ag4
ag4
ag5
aa(lp1011
S'1026122'
p1012
ag5
ag4
ag4
ag4
ag5
ag4
ag4
ag4
ag4
ag5
aa(lp1013
S'1071084'
p1014
ag6
ag6
ag5
ag5
ag6
ag4
ag4
ag5
ag6
ag5
aa(lp1015
S'1080233'
p1016
ag10
ag16
ag16
ag6
ag5
aS'10'
p1017
ag10
ag4
ag4
ag9
aa(lp1018
S'1114570'
p1019
ag3
ag6
ag6
ag5
ag6
ag4
ag6
ag4
ag4
ag5
aa(lp1020
S'1114570'
p1021
ag5
ag4
ag4
ag4
ag5
ag4
ag5
ag5
ag4
ag5
aa(lp1022
S'1116715'
p1023
ag3
ag4
ag4
ag4
ag6
ag5
ag5
ag5
ag4
ag5
aa(lp1024
S'1131411'
p1025
ag4
ag4
ag4
ag5
ag5
ag4
ag5
ag4
ag4
ag5
aa(lp1026
S'1151734'
p1027
aS'10'
p1028
ag17
ag10
ag9
ag6
aS'10'
p1029
ag10
ag25
ag4
ag9
aa(lp1030
S'1156017'
p1031
ag6
ag4
ag4
ag4
ag5
ag4
ag5
ag4
ag4
ag5
aa(lp1032
S'1158247'
p1033
ag4
ag4
ag4
ag4
ag4
ag4
ag4
ag4
ag4
ag5
aa(lp1034
S'1158405'
p1035
ag4
ag5
ag6
ag4
ag5
ag4
ag5
ag4
ag4
ag5
aa(lp1036
S'1168278'
p1037
ag6
ag4
ag4
ag4
ag5
ag4
ag5
ag4
ag4
ag5
aa(lp1038
S'1176187'
p1039
ag6
ag4
ag4
ag4
ag5
ag4
ag6
ag4
ag4
ag5
aa(lp1040
S'1196263'
p1041
ag9
ag4
ag4
ag4
ag5
ag4
ag4
ag4
ag4
ag5
aa(lp1042
S'1196475'
p1043
ag6
ag5
ag4
ag4
ag5
ag4
ag5
ag5
ag4
ag5
aa(lp1044
S'1206314'
p1045
ag4
ag5
ag6
ag4
ag5
ag4
ag4
ag4
ag4
ag5
aa(lp1046
S'1211265'
p1047
ag6
aS'10'
p1048
ag17
ag10
ag16
ag25
ag25
ag6
ag17
ag9
aa(lp1049
S'1213784'
p1050
ag6
ag4
ag4
ag4
ag5
ag4
ag4
ag4
ag4
ag5
aa(lp1051
S'1238633'
p1052
aS'10'
p1053
aS'10'
p1054
aS'10'
p1055
ag16
ag17
ag9
ag17
ag3
ag4
ag9
aa(lp1056
S'1238948'
p1057
ag17
ag3
ag16
ag5
ag6
aS'10'
p1058
ag16
ag16
ag4
ag9
aa(lp1059
S'1239347'
p1060
ag17
ag10
ag17
ag3
aS'10'
p1061
aS'10'
p1062
ag10
ag5
ag4
ag9
aa(lp1063
S'1257200'
p1064
aS'10'
p1065
aS'10'
p1066
aS'10'
p1067
ag10
aS'10'
p1068
aS'10'
p1069
ag17
ag5
ag4
ag9
aa(lp1070
S'1258549'
p1071
ag25
aS'10'
p1072
aS'10'
p1073
aS'10'
p1074
aS'10'
p1075
aS'10'
p1076
aS'10'
p1077
aS'10'
p1078
ag4
ag9
aa(lp1079
S'1266154'
p1080
ag17
ag10
ag17
ag5
ag9
ag5
ag3
aS'10'
p1081
ag4
ag9
aa(lp1082
S'1294562'
p1083
aS'10'
p1084
ag17
aS'10'
p1085
ag4
ag6
aS'10'
p1086
ag3
ag4
ag4
ag9
aa(lp1087
S'1295186'
p1088
aS'10'
p1089
aS'10'
p1090
aS'10'
p1091
ag4
ag16
ag4
ag5
ag17
ag4
ag9
aa(lp1092
S'608157'
p1093
aS'10'
p1094
ag9
ag6
aS'10'
p1095
ag9
aS'10'
p1096
aS'10'
p1097
ag4
ag4
ag9
aa(lp1098
S'1193544'
p1099
ag3
ag10
ag25
ag17
ag16
aS'10'
p1100
ag17
aS'10'
p1101
ag4
ag9
aa(lp1102
S'1230994'
p1103
ag9
ag3
ag3
ag17
ag16
aS'10'
p1104
aS'10'
p1105
ag10
ag4
ag9
aa(lp1106
S'1246562'
p1107
aS'10'
p1108
ag5
ag5
ag4
ag5
ag16
ag4
ag4
ag5
ag9
aa(lp1109
S'1257470'
p1110
aS'10'
p1111
ag16
ag3
ag17
ag3
aS'10'
p1112
ag17
ag16
ag4
ag9
aa(lp1113
S'1259008'
p1114
ag17
ag17
ag25
ag16
ag16
ag6
aS'10'
p1115
aS'10'
p1116
ag4
ag9
aa(lp1117
S'1276091'
p1118
ag16
ag4
ag4
ag6
ag5
ag4
ag4
ag4
ag4
ag5
aa(lp1119
S'1280258'
p1120
ag9
ag4
ag4
ag4
ag5
ag4
ag4
ag5
ag4
ag5
aa(lp1121
S'1293966'
p1122
ag9
ag4
ag4
ag4
ag5
ag4
ag4
ag4
ag4
ag5
aa(lp1123
S'1296572'
p1124
aS'10'
p1125
ag25
ag17
ag10
ag16
ag9
ag10
aS'10'
p1126
ag6
ag9
aa(lp1127
S'1298416'
p1128
aS'10'
p1129
ag16
ag16
ag5
ag9
aS'10'
p1130
ag25
ag10
ag4
ag9
aa(lp1131
S'1299596'
p1132
ag16
ag16
ag16
ag3
ag9
aS'10'
p1133
ag10
ag16
ag5
ag9
aa(lp1134
S'1105524'
p1135
ag9
ag4
ag4
ag4
ag5
ag4
ag4
ag4
ag4
ag5
aa(lp1136
S'1181685'
p1137
ag4
ag4
ag5
ag4
ag5
ag4
ag5
ag4
ag4
ag5
aa(lp1138
S'1211594'
p1139
ag6
ag4
ag4
ag4
ag4
ag4
ag5
ag4
ag4
ag5
aa(lp1140
S'1238777'
p1141
ag16
ag4
ag4
ag6
ag5
ag4
ag4
ag4
ag4
ag5
aa(lp1142
S'1257608'
p1143
ag16
ag4
ag4
ag4
ag4
ag4
ag4
ag4
ag4
ag5
aa(lp1144
S'1269574'
p1145
ag9
ag4
ag4
ag4
ag5
ag4
ag4
ag4
ag4
ag5
aa(lp1146
S'1277145'
p1147
ag3
ag4
ag4
ag4
ag5
ag4
ag4
ag4
ag4
ag5
aa(lp1148
S'1287282'
p1149
ag6
ag4
ag4
ag4
ag5
ag4
ag4
ag4
ag4
ag5
aa(lp1150
S'1296025'
p1151
ag9
ag4
ag5
ag4
ag5
ag4
ag4
ag4
ag4
ag5
aa(lp1152
S'1296263'
p1153
ag9
ag4
ag4
ag4
ag5
ag4
ag4
ag4
ag4
ag5
aa(lp1154
S'1296593'
p1155
ag3
ag5
ag4
ag4
ag5
ag4
ag4
ag4
ag4
ag5
aa(lp1156
S'1299161'
p1157
ag9
ag17
ag10
aS'10'
p1158
ag9
aS'10'
p1159
ag10
ag3
ag4
ag9
aa(lp1160
S'1301945'
p1161
ag3
ag4
ag4
ag4
ag4
ag4
ag4
ag4
ag4
ag5
aa(lp1162
S'1302428'
p1163
ag3
ag6
ag5
ag9
ag5
ag4
ag4
ag4
ag4
ag5
aa(lp1164
S'1318169'
p1165
ag25
aS'10'
p1166
aS'10'
p1167
aS'10'
p1168
aS'10'
p1169
ag3
aS'10'
p1170
aS'10'
p1171
aS'10'
p1172
ag9
aa(lp1173
S'474162'
p1174
ag17
ag10
ag17
ag3
ag3
aS'10'
p1175
ag25
aS'10'
p1176
ag4
ag9
aa(lp1177
S'787451'
p1178
ag3
ag4
ag5
ag4
ag5
ag4
ag4
ag4
ag4
ag5
aa(lp1179
S'1002025'
p1180
ag4
ag4
ag4
ag6
ag4
ag6
ag4
ag4
ag4
ag5
aa(lp1181
S'1070522'
p1182
ag6
ag4
ag4
ag4
ag4
ag4
ag5
ag4
ag4
ag5
aa(lp1183
S'1073960'
p1184
aS'10'
p1185
aS'10'
p1186
aS'10'
p1187
aS'10'
p1188
ag16
aS'10'
p1189
ag17
ag4
ag3
ag9
aa(lp1190
S'1076352'
p1191
ag6
ag16
ag9
aS'10'
p1192
ag6
ag6
ag6
ag9
ag4
ag9
aa(lp1193
S'1084139'
p1194
ag16
ag6
ag5
ag4
ag6
ag9
ag9
ag4
ag4
ag9
aa(lp1195
S'1115293'
p1196
ag4
ag4
ag4
ag4
ag5
ag4
ag4
ag4
ag4
ag5
aa(lp1197
S'1119189'
p1198
ag3
ag17
ag25
ag9
ag6
aS'10'
p1199
ag10
ag4
ag4
ag9
aa(lp1200
S'1133991'
p1201
ag9
ag4
ag4
ag4
ag4
ag4
ag5
ag4
ag4
ag5
aa(lp1202
S'1142706'
p1203
ag3
aS'10'
p1204
aS'10'
p1205
aS'10'
p1206
ag16
aS'10'
p1207
ag16
ag3
ag5
ag9
aa(lp1208
S'1155967'
p1209
ag3
ag4
ag5
aS'10'
p1210
ag9
ag3
ag5
ag4
ag4
ag5
aa(lp1211
S'1170945'
p1212
ag6
ag4
ag4
ag4
ag4
ag4
ag5
ag4
ag4
ag5
aa(lp1213
S'1181567'
p1214
ag4
ag4
ag4
ag4
ag4
ag4
ag4
ag4
ag4
ag5
aa(lp1215
S'1182404'
p1216
ag9
ag5
ag4
ag4
ag5
ag4
ag4
ag4
ag4
ag5
aa(lp1217
S'1204558'
p1218
ag9
ag4
ag4
ag4
ag5
ag4
ag5
ag4
ag4
ag5
aa(lp1219
S'1217952'
p1220
ag9
ag4
ag4
ag4
ag5
ag4
ag5
ag4
ag4
ag5
aa(lp1221
S'1224565'
p1222
ag16
ag4
ag4
ag4
ag5
ag4
ag6
ag4
ag4
ag5
aa(lp1223
S'1238186'
p1224
ag9
ag4
ag4
ag4
ag5
ag4
ag5
ag4
ag4
ag5
aa(lp1225
S'1253917'
p1226
ag9
ag4
ag4
ag5
ag5
ag4
ag5
ag4
ag4
ag5
aa(lp1227
S'1265899'
p1228
ag9
ag4
ag4
ag4
ag5
ag4
ag6
ag4
ag4
ag5
aa(lp1229
S'1268766'
p1230
ag4
ag4
ag4
ag4
ag5
ag4
ag4
ag4
ag4
ag5
aa(lp1231
S'1277268'
p1232
ag6
ag6
ag4
ag4
ag5
ag4
ag4
ag4
ag4
ag5
aa(lp1233
S'1286943'
p1234
ag17
aS'10'
p1235
aS'10'
p1236
aS'10'
p1237
ag10
ag3
ag9
ag17
ag10
ag9
aa(lp1238
S'1295508'
p1239
ag4
ag4
ag4
ag4
ag5
ag9
ag4
ag4
ag4
ag5
aa(lp1240
S'1297327'
p1241
ag3
ag4
ag4
ag4
ag5
ag4
ag4
ag4
ag4
ag5
aa(lp1242
S'1297522'
p1243
ag5
ag4
ag4
ag4
ag5
ag4
ag4
ag4
ag4
ag5
aa(lp1244
S'1298360'
p1245
ag4
ag4
ag4
ag4
ag5
ag4
ag4
ag4
ag4
ag5
aa(lp1246
S'1299924'
p1247
ag3
ag4
ag4
ag4
ag5
ag4
ag5
ag4
ag4
ag5
aa(lp1248
S'1299994'
p1249
ag3
ag4
ag4
ag4
ag5
ag4
ag4
ag4
ag4
ag5
aa(lp1250
S'1304595'
p1251
ag6
ag4
ag4
ag4
ag4
ag4
ag5
ag4
ag4
ag5
aa(lp1252
S'1306282'
p1253
ag16
ag16
ag10
aS'10'
p1254
ag6
aS'10'
p1255
ag17
aS'10'
p1256
ag5
ag9
aa(lp1257
S'1313325'
p1258
ag9
aS'10'
p1259
ag9
ag10
ag6
aS'10'
p1260
ag25
aS'10'
p1261
ag4
ag9
aa(lp1262
S'1320077'
p1263
ag4
ag4
ag4
ag4
ag4
ag4
ag4
ag4
ag4
ag5
aa(lp1264
S'1320077'
p1265
ag4
ag4
ag4
ag4
ag4
ag4
ag5
ag4
ag4
ag5
aa(lp1266
S'1320304'
p1267
ag6
ag4
ag5
ag5
ag5
ag4
ag4
ag4
ag4
ag5
aa(lp1268
S'1330439'
p1269
ag9
ag10
ag17
ag6
ag9
aS'10'
p1270
ag25
ag4
ag4
ag9
aa(lp1271
S'333093'
p1272
ag4
ag4
ag4
ag4
ag6
ag4
ag4
ag4
ag4
ag5
aa(lp1273
S'369565'
p1274
ag9
ag4
ag4
ag4
ag6
ag4
ag4
ag4
ag4
ag5
aa(lp1275
S'412300'
p1276
aS'10'
p1277
ag9
ag3
ag9
ag6
ag3
ag10
ag6
ag4
ag9
aa(lp1278
S'672113'
p1279
ag10
ag3
ag16
aS'10'
p1280
ag9
aS'10'
p1281
ag3
ag6
ag4
ag9
aa(lp1282
S'749653'
p1283
ag6
ag4
ag4
ag4
ag5
ag4
ag5
ag4
ag4
ag5
aa(lp1284
S'769612'
p1285
ag6
ag4
ag4
ag5
ag5
ag4
ag4
ag4
ag4
ag5
aa(lp1286
S'769612'
p1287
ag9
ag4
ag4
ag4
ag5
ag4
ag4
ag4
ag4
ag5
aa(lp1288
S'798429'
p1289
ag9
ag4
ag4
ag4
ag5
ag4
ag6
ag4
ag4
ag5
aa(lp1290
S'807657'
p1291
ag16
ag4
ag6
ag5
ag5
ag4
ag4
ag4
ag4
ag5
aa(lp1292
S'8233704'
p1293
ag9
ag4
ag4
ag4
ag4
ag4
ag5
ag4
ag4
ag5
aa(lp1294
S'837480'
p1295
ag10
ag9
ag9
ag6
ag9
aS'10'
p1296
ag16
ag25
ag4
ag9
aa(lp1297
S'867392'
p1298
ag9
ag5
ag5
ag4
ag5
ag4
ag5
ag4
ag4
ag5
aa(lp1299
S'869828'
p1300
ag4
ag4
ag4
ag4
ag4
ag4
ag6
ag4
ag4
ag5
aa(lp1301
S'1043068'
p1302
ag6
ag4
ag4
ag4
ag5
ag4
ag5
ag4
ag4
ag5
aa(lp1303
S'1056171'
p1304
ag5
ag4
ag4
ag4
ag5
ag4
ag5
ag4
ag4
ag5
aa(lp1305
S'1061990'
p1306
ag4
ag4
ag6
ag5
ag5
ag4
ag6
ag4
ag4
ag5
aa(lp1307
S'1113061'
p1308
ag3
ag4
ag4
ag4
ag5
ag4
ag6
ag4
ag4
ag5
aa(lp1309
S'1116192'
p1310
ag3
ag4
ag5
ag4
ag5
ag4
ag6
ag4
ag4
ag5
aa(lp1311
S'1135090'
p1312
ag9
ag4
ag4
ag4
ag5
ag4
ag5
ag4
ag4
ag5
aa(lp1313
S'1145420'
p1314
ag16
ag4
ag4
ag4
ag5
ag4
ag5
ag4
ag4
ag5
aa(lp1315
S'1158157'
p1316
ag3
ag4
ag4
ag4
ag5
ag5
ag5
ag4
ag4
ag5
aa(lp1317
S'1171578'
p1318
ag6
ag4
ag4
ag4
ag5
ag4
ag4
ag4
ag4
ag5
aa(lp1319
S'1174841'
p1320
ag3
ag6
ag4
ag4
ag5
ag4
ag4
ag4
ag4
ag5
aa(lp1321
S'1184586'
p1322
ag9
ag4
ag4
ag4
ag5
ag4
ag5
ag4
ag4
ag5
aa(lp1323
S'1186936'
p1324
ag5
ag4
ag6
ag5
ag5
ag4
ag5
ag4
ag4
ag5
aa(lp1325
S'1197527'
p1326
ag3
ag4
ag4
ag4
ag5
ag4
ag5
ag4
ag4
ag5
aa(lp1327
S'1222464'
p1328
ag16
aS'10'
p1329
aS'10'
p1330
aS'10'
p1331
ag9
aS'10'
p1332
ag10
aS'10'
p1333
ag4
ag9
aa(lp1334
S'1240603'
p1335
ag5
ag4
ag4
ag4
ag4
ag4
ag4
ag4
ag4
ag5
aa(lp1336
S'1240603'
p1337
ag6
ag4
ag4
ag4
ag4
ag4
ag4
ag4
ag4
ag5
aa(lp1338
S'1241035'
p1339
ag10
ag17
ag6
ag10
ag9
ag3
ag10
ag17
ag5
ag9
aa(lp1340
S'1287971'
p1341
ag6
ag4
ag4
ag4
ag5
ag4
ag5
ag4
ag4
ag5
aa(lp1342
S'1289391'
p1343
ag4
ag4
ag4
ag4
ag5
ag4
ag6
ag4
ag4
ag5
aa(lp1344
S'1299924'
p1345
ag6
ag5
ag5
ag5
ag5
ag4
ag9
ag5
ag4
ag5
aa(lp1346
S'1306339'
p1347
ag9
ag9
ag5
ag4
ag5
ag3
ag5
ag4
ag5
ag5
aa(lp1348
S'1313658'
p1349
ag6
ag4
ag4
ag4
ag5
ag4
ag4
ag4
ag4
ag5
aa(lp1350
S'1313982'
p1351
ag9
ag6
ag4
ag4
ag5
ag4
ag9
ag17
ag4
ag5
aa(lp1352
S'1321264'
p1353
ag3
ag5
ag5
ag5
ag4
ag4
ag5
ag4
ag4
ag5
aa(lp1354
S'1321321'
p1355
ag3
ag4
ag4
ag6
ag5
ag4
ag4
ag4
ag4
ag5
aa(lp1356
S'1321348'
p1357
ag5
ag4
ag4
ag4
ag5
ag4
ag5
ag4
ag4
ag5
aa(lp1358
S'1321931'
p1359
ag3
ag4
ag4
ag4
ag5
ag4
ag5
ag4
ag4
ag5
aa(lp1360
S'1321942'
p1361
ag3
ag4
ag4
ag4
ag5
ag4
ag6
ag4
ag4
ag5
aa(lp1362
S'1321942'
p1363
ag3
ag4
ag4
ag4
ag5
ag4
ag6
ag4
ag4
ag5
aa(lp1364
S'1328331'
p1365
ag4
ag4
ag4
ag4
ag5
ag4
ag6
ag4
ag4
ag5
aa(lp1366
S'1328755'
p1367
ag6
ag4
ag4
ag4
ag5
ag4
ag5
ag4
ag4
ag5
aa(lp1368
S'1331405'
p1369
ag9
ag4
ag4
ag4
ag5
ag4
ag6
ag5
ag4
ag5
aa(lp1370
S'1331412'
p1371
ag3
ag10
aS'10'
p1372
aS'10'
p1373
ag3
aS'10'
p1374
aS'10'
p1375
aS'10'
p1376
ag4
ag9
aa(lp1377
S'1333104'
p1378
ag6
ag4
ag5
ag4
ag5
ag4
ag6
ag4
ag4
ag5
aa(lp1379
S'1334071'
p1380
ag9
ag4
ag4
ag4
ag5
ag6
ag5
ag4
ag4
ag5
aa(lp1381
S'1343068'
p1382
ag17
ag9
ag9
ag4
ag16
aS'10'
p1383
ag5
ag3
ag5
ag9
aa(lp1384
S'1343374'
p1385
aS'10'
p1386
aS'10'
p1387
ag17
aS'10'
p1388
ag16
ag3
aS'10'
p1389
ag6
ag4
ag9
aa(lp1390
S'1344121'
p1391
ag17
aS'10'
p1392
ag9
ag9
ag17
aS'10'
p1393
ag17
ag5
ag4
ag9
aa(lp1394
S'142932'
p1395
ag10
ag16
aS'10'
p1396
ag3
ag6
aS'10'
p1397
ag25
aS'10'
p1398
ag5
ag9
aa(lp1399
S'183936'
p1400
ag6
ag4
ag4
ag4
ag5
ag4
ag5
ag4
ag4
ag5
aa(lp1401
S'324382'
p1402
ag4
ag4
ag4
ag4
ag5
ag4
ag5
ag4
ag4
ag5
aa(lp1403
S'378275'
p1404
aS'10'
p1405
ag25
ag10
ag6
ag9
ag5
ag10
ag10
ag4
ag9
aa(lp1406
S'385103'
p1407
ag3
ag4
ag5
ag4
ag5
ag4
ag6
ag4
ag4
ag5
aa(lp1408
S'690557'
p1409
ag3
ag4
ag4
ag4
ag5
ag4
ag5
ag4
ag4
ag5
aa(lp1410
S'695091'
p1411
ag4
ag4
ag4
ag4
ag5
ag4
ag5
ag4
ag4
ag5
aa(lp1412
S'695219'
p1413
ag4
ag4
ag4
ag4
ag5
ag4
ag5
ag4
ag4
ag5
aa(lp1414
S'824249'
p1415
ag4
ag4
ag4
ag4
ag5
ag4
ag6
ag4
ag4
ag5
aa(lp1416
S'871549'
p1417
ag3
ag4
ag5
ag4
ag5
ag4
ag5
ag4
ag4
ag5
aa(lp1418
S'878358'
p1419
ag3
ag10
aS'10'
p1420
ag16
ag3
aS'10'
p1421
ag10
ag3
ag4
ag9
aa(lp1422
S'1107684'
p1423
ag16
aS'10'
p1424
ag3
ag3
ag9
aS'10'
p1425
ag16
aS'10'
p1426
ag4
ag9
aa(lp1427
S'1115762'
p1428
ag6
ag4
ag4
ag4
ag5
ag4
ag4
ag4
ag4
ag5
aa(lp1429
S'1217717'
p1430
ag3
ag4
ag4
ag16
ag6
ag4
ag4
ag4
ag4
ag5
aa(lp1431
S'1239420'
p1432
ag4
ag4
ag4
ag4
ag5
ag4
ag4
ag4
ag4
ag5
aa(lp1433
S'1254538'
p1434
ag17
aS'10'
p1435
aS'10'
p1436
aS'10'
p1437
ag16
aS'10'
p1438
aS'10'
p1439
aS'10'
p1440
ag4
ag9
aa(lp1441
S'1261751'
p1442
ag3
ag4
ag4
ag4
ag5
ag4
ag5
ag5
ag4
ag5
aa(lp1443
S'1268275'
p1444
ag25
ag17
ag17
ag25
ag16
ag6
ag9
ag4
ag4
ag9
aa(lp1445
S'1272166'
p1446
ag3
ag4
ag4
ag4
ag5
ag4
ag4
ag4
ag4
ag5
aa(lp1447
S'1294261'
p1448
ag9
aS'10'
p1449
ag17
ag3
ag9
ag4
aS'10'
p1450
ag4
ag4
ag9
aa(lp1451
S'1295529'
p1452
ag5
ag3
ag10
ag16
ag9
aS'10'
p1453
ag10
ag16
ag4
ag9
aa(lp1454
S'1298484'
p1455
aS'10'
p1456
ag6
ag9
ag3
ag6
aS'10'
p1457
ag9
ag4
ag4
ag9
aa(lp1458
S'1311875'
p1459
ag3
ag4
ag5
ag4
ag5
ag4
ag4
ag4
ag4
ag5
aa(lp1460
S'1315506'
p1461
ag9
ag17
ag16
ag6
ag9
aS'10'
p1462
ag10
ag4
ag4
ag9
aa(lp1463
S'1320141'
p1464
ag3
ag4
ag4
ag4
ag5
ag4
ag5
ag4
ag4
ag5
aa(lp1465
S'1325309'
p1466
ag9
ag4
ag5
ag4
ag5
ag4
ag5
ag4
ag4
ag5
aa(lp1467
S'1333063'
p1468
ag3
ag4
ag6
ag4
ag5
ag4
ag6
ag4
ag4
ag5
aa(lp1469
S'1333495'
p1470
ag6
ag4
ag4
ag4
ag5
ag4
ag5
ag4
ag4
ag5
aa(lp1471
S'1334659'
p1472
ag3
ag5
ag9
ag4
ag4
ag4
ag4
ag4
ag4
ag5
aa(lp1473
S'1336798'
p1474
ag6
ag4
ag4
ag4
ag5
ag4
ag5
ag4
ag4
ag5
aa(lp1475
S'1344449'
p1476
ag4
ag4
ag4
ag4
ag4
ag4
ag5
ag4
ag4
ag5
aa(lp1477
S'1350568'
p1478
ag9
ag4
ag4
ag4
ag5
ag4
ag5
ag4
ag4
ag5
aa(lp1479
S'1352663'
p1480
ag3
ag9
ag16
ag17
ag9
ag4
ag17
aS'10'
p1481
ag4
ag9
aa(lp1482
S'188336'
p1483
ag3
ag6
ag5
ag17
ag3
aS'10'
p1484
ag17
ag4
ag5
ag9
aa(lp1485
S'352431'
p1486
aS'10'
p1487
ag3
aS'10'
p1488
ag6
ag3
ag17
ag10
ag17
ag6
ag9
aa(lp1489
S'353098'
p1490
ag9
ag4
ag4
ag5
ag5
ag4
ag4
ag4
ag4
ag5
aa(lp1491
S'411453'
p1492
ag4
ag4
ag4
ag4
ag5
ag4
ag4
ag4
ag4
ag5
aa(lp1493
S'557583'
p1494
ag3
aS'10'
p1495
aS'10'
p1496
aS'10'
p1497
aS'10'
p1498
aS'10'
p1499
aS'10'
p1500
ag4
ag4
ag9
aa(lp1501
S'636375'
p1502
ag3
ag4
ag4
ag4
ag5
ag4
ag4
ag4
ag4
ag5
aa(lp1503
S'736150'
p1504
aS'10'
p1505
ag9
ag6
aS'10'
p1506
ag6
aS'10'
p1507
ag10
ag4
ag5
ag9
aa(lp1508
S'803531'
p1509
ag3
aS'10'
p1510
aS'10'
p1511
aS'10'
p1512
ag3
ag5
ag17
ag3
ag4
ag9
aa(lp1513
S'822829'
p1514
ag17
aS'10'
p1515
aS'10'
p1516
aS'10'
p1517
ag16
aS'10'
p1518
aS'10'
p1519
aS'10'
p1520
aS'10'
p1521
ag9
aa(lp1522
S'1016634'
p1523
ag5
ag6
ag4
ag4
ag5
ag4
ag5
ag4
ag4
ag5
aa(lp1524
S'1031608'
p1525
ag5
ag4
ag4
ag4
ag4
ag4
ag5
ag4
ag4
ag5
aa(lp1526
S'1041043'
p1527
ag9
ag4
ag6
ag4
ag5
ag4
ag5
ag4
ag4
ag5
aa(lp1528
S'1042252'
p1529
ag6
ag4
ag4
ag4
ag5
ag4
ag5
ag4
ag4
ag5
aa(lp1530
S'1057067'
p1531
ag4
ag4
ag4
ag4
ag4
ag70
ag4
ag4
ag4
ag5
aa(lp1532
S'1061990'
p1533
ag9
ag4
ag4
ag4
ag5
ag4
ag5
ag4
ag4
ag5
aa(lp1534
S'1073836'
p1535
ag3
ag4
ag4
ag4
ag5
ag4
ag5
ag4
ag4
ag5
aa(lp1536
S'1083817'
p1537
ag6
ag4
ag4
ag4
ag5
ag4
ag5
ag4
ag4
ag5
aa(lp1538
S'1096352'
p1539
ag16
ag6
ag6
ag6
ag6
ag5
ag16
ag4
ag4
ag5
aa(lp1540
S'1140597'
p1541
ag10
ag4
ag5
ag6
ag5
ag4
ag5
ag4
ag4
ag5
aa(lp1542
S'1149548'
p1543
ag4
ag4
ag4
ag4
ag5
ag4
ag4
ag4
ag4
ag5
aa(lp1544
S'1174009'
p1545
ag3
ag4
ag4
ag5
ag4
ag4
ag5
ag4
ag4
ag5
aa(lp1546
S'1183596'
p1547
ag6
ag4
ag6
ag4
ag6
ag9
ag4
ag4
ag4
ag5
aa(lp1548
S'1190386'
p1549
ag9
ag16
ag16
ag3
ag10
ag16
ag10
ag10
ag6
ag9
aa(lp1550
S'1190546'
p1551
ag5
ag4
ag4
ag4
ag5
ag3
ag4
ag4
ag4
ag5
aa(lp1552
S'1213273'
p1553
ag5
ag4
ag4
ag4
ag5
ag4
ag4
ag4
ag4
ag5
aa(lp1554
S'1218982'
p1555
ag9
ag4
ag4
ag4
ag5
ag4
ag4
ag4
ag4
ag5
aa(lp1556
S'1225382'
p1557
ag16
ag5
ag6
ag4
ag5
ag4
ag4
ag4
ag4
ag5
aa(lp1558
S'1235807'
p1559
ag3
ag4
ag4
ag4
ag5
ag4
ag5
ag4
ag4
ag5
aa(lp1560
S'1238777'
p1561
ag4
ag4
ag4
ag4
ag5
ag4
ag4
ag4
ag4
ag5
aa(lp1562
S'1253955'
p1563
ag17
ag10
ag9
ag9
ag3
ag6
ag3
aS'10'
p1564
ag4
ag9
aa(lp1565
S'1257366'
p1566
ag6
ag4
ag4
ag4
ag5
ag4
ag4
ag4
ag4
ag5
aa(lp1567
S'1260659'
p1568
ag6
ag4
ag9
ag4
ag5
ag4
ag4
ag4
ag4
ag5
aa(lp1569
S'1268952'
p1570
aS'10'
p1571
aS'10'
p1572
ag10
ag17
ag10
ag4
aS'10'
p1573
aS'10'
p1574
ag6
ag9
aa(lp1575
S'1275807'
p1576
ag9
ag5
ag9
ag6
ag5
ag5
ag5
ag4
ag4
ag5
aa(lp1577
S'1277792'
p1578
ag9
ag4
ag4
ag4
ag5
ag4
ag4
ag4
ag4
ag5
aa(lp1579
S'1277792'
p1580
ag3
ag4
ag4
ag6
ag5
ag4
ag4
ag4
ag4
ag5
aa(lp1581
S'1285722'
p1582
ag9
ag4
ag4
ag6
ag5
ag4
ag4
ag4
ag4
ag5
aa(lp1583
S'1288608'
p1584
ag6
ag4
ag4
ag4
ag5
ag4
ag5
ag4
ag4
ag5
aa(lp1585
S'1290203'
p1586
ag6
ag4
ag4
ag4
ag5
ag4
ag5
ag4
ag4
ag5
aa(lp1587
S'1294413'
p1588
ag4
ag4
ag4
ag4
ag5
ag4
ag4
ag4
ag4
ag5
aa(lp1589
S'1299596'
p1590
ag5
ag4
ag4
ag4
ag5
ag4
ag4
ag4
ag4
ag5
aa(lp1591
S'1303489'
p1592
ag6
ag4
ag4
ag4
ag5
ag4
ag5
ag4
ag4
ag5
aa(lp1593
S'1311033'
p1594
ag4
ag5
ag5
ag4
ag5
ag4
ag4
ag4
ag4
ag5
aa(lp1595
S'1311108'
p1596
ag4
ag4
ag4
ag6
ag5
ag4
ag4
ag4
ag4
ag5
aa(lp1597
S'1315807'
p1598
ag3
aS'10'
p1599
aS'10'
p1600
aS'10'
p1601
aS'10'
p1602
ag5
aS'10'
p1603
aS'10'
p1604
aS'10'
p1605
ag9
aa(lp1606
S'1318671'
p1607
ag6
ag4
ag4
ag4
ag5
ag4
ag5
ag4
ag4
ag5
aa(lp1608
S'1319609'
p1609
ag6
ag4
ag4
ag5
ag6
ag9
ag4
ag4
ag4
ag5
aa(lp1610
S'1323477'
p1611
ag4
ag5
ag4
ag6
ag5
ag4
ag5
ag4
ag4
ag5
aa(lp1612
S'1324572'
p1613
ag3
ag4
ag4
ag4
ag5
ag4
ag5
ag5
ag4
ag5
aa(lp1614
S'1324681'
p1615
ag9
ag4
ag4
ag4
ag5
ag4
ag5
ag4
ag4
ag5
aa(lp1616
S'1325159'
p1617
ag6
ag4
ag4
ag4
ag5
ag4
ag6
ag4
ag4
ag5
aa(lp1618
S'1326892'
p1619
ag6
ag4
ag4
ag4
ag5
ag4
ag5
ag4
ag4
ag5
aa(lp1620
S'1330361'
p1621
ag3
ag4
ag4
ag4
ag5
ag4
ag5
ag4
ag4
ag5
aa(lp1622
S'1333877'
p1623
ag3
ag9
ag3
ag4
ag17
ag4
ag6
ag16
ag4
ag5
aa(lp1624
S'1334015'
p1625
ag10
ag17
ag17
ag10
ag6
aS'10'
p1626
ag10
ag5
ag6
ag9
aa(lp1627
S'1334667'
p1628
ag4
ag4
ag4
ag4
ag5
ag4
ag4
ag4
ag4
ag5
aa(lp1629
S'1339781'
p1630
ag4
ag4
ag4
ag4
ag5
ag4
ag5
ag4
ag4
ag5
aa(lp1631
S'1339781'
p1632
ag9
ag4
ag4
ag4
ag5
ag4
ag6
ag4
ag4
ag5
aa(lp1633
S'13454352'
p1634
ag4
ag4
ag6
ag4
ag5
ag4
ag5
ag4
ag4
ag5
aa(lp1635
S'1345452'
p1636
ag4
ag4
ag6
ag4
ag5
ag4
ag5
ag4
ag4
ag5
aa(lp1637
S'1345593'
p1638
ag6
ag4
ag4
ag6
ag5
ag4
ag5
ag4
ag4
ag5
aa(lp1639
S'1347749'
p1640
ag4
ag4
ag4
ag4
ag5
ag4
ag4
ag4
ag4
ag5
aa(lp1641
S'1347943'
p1642
ag3
ag5
ag5
ag5
ag5
ag4
ag4
ag4
ag5
ag5
aa(lp1643
S'1348851'
p1644
ag6
ag4
ag4
ag4
ag5
ag4
ag6
ag4
ag4
ag5
aa(lp1645
S'1350319'
p1646
ag3
ag10
ag9
ag4
ag16
ag4
ag10
aS'10'
p1647
ag6
ag9
aa(lp1648
S'1350423'
p1649
ag3
aS'10'
p1650
aS'10'
p1651
ag17
ag3
ag3
ag10
aS'10'
p1652
ag4
ag9
aa(lp1653
S'1352848'
p1654
ag6
aS'10'
p1655
ag10
ag17
ag3
ag17
ag10
ag9
ag4
ag9
aa(lp1656
S'1353092'
p1657
ag6
ag5
ag4
ag5
ag5
ag4
ag6
ag4
ag4
ag5
aa(lp1658
S'1354840'
p1659
ag5
ag4
ag4
ag4
ag5
ag4
ag6
ag4
ag4
ag5
aa(lp1660
S'1354840'
p1661
ag3
ag6
ag5
ag4
ag6
ag4
ag4
ag4
ag4
ag5
aa(lp1662
S'1355260'
p1663
ag4
ag4
ag4
ag4
ag5
ag4
ag5
ag4
ag4
ag5
aa(lp1664
S'1365075'
p1665
ag9
ag4
ag9
ag4
ag5
ag4
ag4
ag4
ag4
ag5
aa(lp1666
S'1365328'
p1667
ag4
ag4
ag5
ag4
ag5
ag4
ag5
ag4
ag4
ag5
aa(lp1668
S'1368267'
p1669
ag3
ag4
ag4
ag4
ag5
ag4
ag4
ag4
ag4
ag5
aa(lp1670
S'1368273'
p1671
ag4
ag4
ag4
ag4
ag5
ag4
ag4
ag4
ag4
ag5
aa(lp1672
S'1368882'
p1673
ag5
ag4
ag4
ag4
ag5
ag4
ag4
ag4
ag4
ag5
aa(lp1674
S'1369821'
p1675
aS'10'
p1676
aS'10'
p1677
aS'10'
p1678
aS'10'
p1679
ag3
aS'10'
p1680
aS'10'
p1681
aS'10'
p1682
ag10
ag9
aa(lp1683
S'1371026'
p1684
ag3
aS'10'
p1685
aS'10'
p1686
aS'10'
p1687
ag9
aS'10'
p1688
ag3
ag16
ag6
ag9
aa(lp1689
S'1371920'
p1690
ag3
ag4
ag4
ag4
ag5
ag4
ag6
ag5
ag4
ag5
aa(lp1691
S'466906'
p1692
ag4
ag4
ag4
ag4
ag5
ag4
ag4
ag4
ag4
ag5
aa(lp1693
S'466906'
p1694
ag4
ag4
ag4
ag4
ag5
ag4
ag4
ag4
ag4
ag5
aa(lp1695
S'534555'
p1696
ag4
ag4
ag4
ag4
ag5
ag4
ag4
ag4
ag4
ag5
aa(lp1697
S'536708'
p1698
ag4
ag4
ag4
ag4
ag5
ag4
ag4
ag4
ag4
ag5
aa(lp1699
S'566346'
p1700
ag6
ag4
ag4
ag4
ag5
ag4
ag5
ag6
ag4
ag5
aa(lp1701
S'603148'
p1702
ag9
ag4
ag4
ag4
ag5
ag4
ag4
ag4
ag4
ag5
aa(lp1703
S'654546'
p1704
ag4
ag4
ag4
ag4
ag5
ag4
ag4
ag4
ag17
ag5
aa(lp1705
S'654546'
p1706
ag4
ag4
ag4
ag6
ag5
ag4
ag4
ag4
ag4
ag5
aa(lp1707
S'695091'
p1708
ag3
aS'10'
p1709
aS'10'
p1710
ag3
ag9
ag3
ag9
ag9
ag4
ag9
aa(lp1711
S'714039'
p1712
ag6
ag4
ag4
ag4
ag5
ag4
ag4
ag4
ag4
ag5
aa(lp1713
S'763235'
p1714
ag6
ag4
ag4
ag4
ag5
ag4
ag5
ag4
ag5
ag5
aa(lp1715
S'776715'
p1716
ag6
ag4
ag4
ag4
ag6
ag5
ag4
ag4
ag4
ag5
aa(lp1717
S'841769'
p1718
ag5
ag4
ag4
ag4
ag5
ag4
ag4
ag4
ag4
ag5
aa(lp1719
S'888820'
p1720
ag3
aS'10'
p1721
aS'10'
p1722
ag6
ag10
ag6
ag17
aS'10'
p1723
ag5
ag9
aa(lp1724
S'897471'
p1725
ag9
ag17
ag16
ag9
ag6
ag9
aS'10'
p1726
ag16
ag4
ag9
aa(lp1727
S'897471'
p1728
ag9
ag17
ag17
ag3
ag9
ag3
aS'10'
p1729
ag9
ag4
ag9
aa.