(lp0
(lp1
S'region'
p2
aS'Fresh'
p3
aS'milk'
p4
aS'grocery'
p5
aS'Frozen'
p6
aS'detergents'
p7
aS'Deli'
p8
aS'Channel'
p9
aa(lp10
S'3'
p11
aS'12669'
p12
aS'9656'
p13
aS'7561'
p14
aS'214'
p15
aS'2674'
p16
aS'1338'
p17
aS'2'
p18
aa(lp19
g11
aS'7057'
p20
aS'9810'
p21
aS'9568'
p22
aS'1762'
p23
aS'3293'
p24
aS'1776'
p25
ag18
aa(lp26
g11
aS'6353'
p27
aS'8808'
p28
aS'7684'
p29
aS'2405'
p30
aS'3516'
p31
aS'7844'
p32
ag18
aa(lp33
g11
aS'13265'
p34
aS'1196'
p35
aS'4221'
p36
aS'6404'
p37
aS'507'
p38
aS'1788'
p39
aS'1'
p40
aa(lp41
g11
aS'22615'
p42
aS'5410'
p43
aS'7198'
p44
aS'3915'
p45
aS'1777'
p46
aS'5185'
p47
ag18
aa(lp48
g11
aS'9413'
p49
aS'8259'
p50
aS'5126'
p51
aS'666'
p52
aS'1795'
p53
aS'1451'
p54
ag18
aa(lp55
g11
aS'12126'
p56
aS'3199'
p57
aS'6975'
p58
aS'480'
p59
aS'3140'
p60
aS'545'
p61
ag18
aa(lp62
g11
aS'7579'
p63
aS'4956'
p64
aS'9426'
p65
aS'1669'
p66
aS'3321'
p67
aS'2566'
p68
ag18
aa(lp69
g11
aS'5963'
p70
aS'3648'
p71
aS'6192'
p72
aS'425'
p73
aS'1716'
p74
aS'750'
p75
ag40
aa(lp76
g11
aS'6006'
p77
aS'11093'
p78
aS'18881'
p79
aS'1159'
p80
aS'7425'
p81
aS'2098'
p82
ag18
aa(lp83
g11
aS'3366'
p84
aS'5403'
p85
aS'12974'
p86
aS'4400'
p87
aS'5977'
p88
aS'1744'
p89
ag18
aa(lp90
g11
aS'13146'
p91
aS'1124'
p92
aS'4523'
p93
aS'1420'
p94
aS'549'
p95
aS'497'
p96
ag18
aa(lp97
g11
aS'31714'
p98
aS'12319'
p99
aS'11757'
p100
aS'287'
p101
aS'3881'
p102
aS'2931'
p103
ag18
aa(lp104
g11
aS'21217'
p105
aS'6208'
p106
aS'14982'
p107
aS'3095'
p108
aS'6707'
p109
aS'602'
p110
ag18
aa(lp111
g11
aS'24653'
p112
aS'9465'
p113
aS'12091'
p114
aS'294'
p115
aS'5058'
p116
aS'2168'
p117
ag18
aa(lp118
g11
aS'10253'
p119
aS'1114'
p120
aS'3821'
p121
aS'397'
p122
aS'964'
p123
aS'412'
p124
ag40
aa(lp125
g11
aS'1020'
p126
aS'8816'
p127
aS'12121'
p128
aS'134'
p129
aS'4508'
p130
aS'1080'
p131
ag18
aa(lp132
g11
aS'5876'
p133
aS'6157'
p134
aS'2933'
p135
aS'839'
p136
aS'370'
p137
aS'4478'
p138
ag40
aa(lp139
g11
aS'18601'
p140
aS'6327'
p141
aS'10099'
p142
aS'2205'
p143
aS'2767'
p144
aS'3181'
p145
ag18
aa(lp146
g11
aS'7780'
p147
aS'2495'
p148
aS'9464'
p149
aS'669'
p150
aS'2518'
p151
aS'501'
p152
ag40
aa(lp153
g11
aS'17546'
p154
aS'4519'
p155
aS'4602'
p156
aS'1066'
p157
aS'2259'
p158
aS'2124'
p159
ag18
aa(lp160
g11
aS'5567'
p161
aS'871'
p162
aS'2010'
p163
aS'3383'
p164
aS'375'
p165
aS'569'
p166
ag40
aa(lp167
g11
aS'31276'
p168
aS'1917'
p169
aS'4469'
p170
aS'9408'
p171
aS'2381'
p172
aS'4334'
p173
ag40
aa(lp174
g11
aS'26373'
p175
aS'36423'
p176
aS'22019'
p177
aS'5154'
p178
aS'4337'
p179
aS'16523'
p180
ag18
aa(lp181
g11
aS'22647'
p182
aS'9776'
p183
aS'13792'
p184
aS'2915'
p185
aS'4482'
p186
aS'5778'
p187
ag18
aa(lp188
g11
aS'16165'
p189
aS'4230'
p190
aS'7595'
p191
aS'201'
p192
aS'4003'
p193
aS'57'
p194
ag18
aa(lp195
g11
aS'9898'
p196
aS'961'
p197
aS'2861'
p198
aS'3151'
p199
aS'242'
p200
aS'833'
p201
ag40
aa(lp202
g11
aS'14276'
p203
aS'803'
p204
aS'3045'
p205
aS'485'
p206
aS'100'
p207
aS'518'
p208
ag40
aa(lp209
g11
aS'4113'
p210
aS'20484'
p211
aS'25957'
p212
aS'1158'
p213
aS'8604'
p214
aS'5206'
p215
ag18
aa(lp216
g11
aS'43088'
p217
aS'2100'
p218
aS'2609'
p219
aS'1200'
p220
aS'1107'
p221
aS'823'
p222
ag40
aa(lp223
g11
aS'18815'
p224
aS'3610'
p225
aS'11107'
p226
aS'1148'
p227
aS'2134'
p228
aS'2963'
p229
ag40
aa(lp230
g11
aS'2612'
p231
aS'4339'
p232
aS'3133'
p233
aS'2088'
p234
aS'820'
p235
aS'985'
p236
ag40
aa(lp237
g11
aS'21632'
p238
aS'1318'
p239
aS'2886'
p240
aS'266'
p241
aS'918'
p242
aS'405'
p243
ag40
aa(lp244
g11
aS'29729'
p245
aS'4786'
p246
aS'7326'
p247
aS'6130'
p248
aS'361'
p249
aS'1083'
p250
ag40
aa(lp251
g11
aS'1502'
p252
aS'1979'
p253
aS'2262'
p254
aS'425'
p255
aS'483'
p256
aS'395'
p257
ag40
aa(lp258
g11
aS'688'
p259
aS'5491'
p260
aS'11091'
p261
aS'833'
p262
aS'4239'
p263
aS'436'
p264
ag18
aa(lp265
g11
aS'29955'
p266
aS'4362'
p267
aS'5428'
p268
aS'1729'
p269
aS'862'
p270
aS'4626'
p271
ag40
aa(lp272
g11
aS'15168'
p273
aS'10556'
p274
aS'12477'
p275
aS'1920'
p276
aS'6506'
p277
aS'714'
p278
ag18
aa(lp279
g11
aS'4591'
p280
aS'15729'
p281
aS'16709'
p282
aS'33'
p283
aS'6956'
p284
aS'433'
p285
ag18
aa(lp286
g11
aS'56159'
p287
aS'555'
p288
aS'902'
p289
aS'10002'
p290
aS'212'
p291
aS'2916'
p292
ag40
aa(lp293
g11
aS'24025'
p294
aS'4332'
p295
aS'4757'
p296
aS'9510'
p297
aS'1145'
p298
aS'5864'
p299
ag40
aa(lp300
g11
aS'19176'
p301
aS'3065'
p302
aS'5956'
p303
aS'2033'
p304
aS'2575'
p305
aS'2802'
p306
ag40
aa(lp307
g11
aS'10850'
p308
aS'7555'
p309
aS'14961'
p310
aS'188'
p311
aS'6899'
p312
aS'46'
p313
ag18
aa(lp314
g11
aS'630'
p315
aS'11095'
p316
aS'23998'
p317
aS'787'
p318
aS'9529'
p319
aS'72'
p320
ag18
aa(lp321
g11
aS'9670'
p322
aS'7027'
p323
aS'10471'
p324
aS'541'
p325
aS'4618'
p326
aS'65'
p327
ag18
aa(lp328
g11
aS'5181'
p329
aS'22044'
p330
aS'21531'
p331
aS'1740'
p332
aS'7353'
p333
aS'4985'
p334
ag18
aa(lp335
g11
aS'3103'
p336
aS'14069'
p337
aS'21955'
p338
aS'1668'
p339
aS'6792'
p340
aS'1452'
p341
ag18
aa(lp342
g11
aS'44466'
p343
aS'54259'
p344
aS'55571'
p345
aS'7782'
p346
aS'24171'
p347
aS'6465'
p348
ag18
aa(lp349
g11
aS'11519'
p350
aS'6152'
p351
aS'10868'
p352
aS'584'
p353
aS'5121'
p354
aS'1476'
p355
ag18
aa(lp356
g11
aS'4967'
p357
aS'21412'
p358
aS'28921'
p359
aS'1798'
p360
aS'13583'
p361
aS'1163'
p362
ag18
aa(lp363
g11
aS'6269'
p364
aS'1095'
p365
aS'1980'
p366
aS'3860'
p367
aS'609'
p368
aS'2162'
p369
ag40
aa(lp370
g11
aS'3347'
p371
aS'4051'
p372
aS'6996'
p373
aS'239'
p374
aS'1538'
p375
aS'301'
p376
ag40
aa(lp377
g11
aS'40721'
p378
aS'3916'
p379
aS'5876'
p380
aS'532'
p381
aS'2587'
p382
aS'1278'
p383
ag18
aa(lp384
g11
aS'491'
p385
aS'10473'
p386
aS'11532'
p387
aS'744'
p388
aS'5611'
p389
aS'224'
p390
ag18
aa(lp391
g11
aS'27329'
p392
aS'1449'
p393
aS'1947'
p394
aS'2436'
p395
aS'204'
p396
aS'1333'
p397
ag40
aa(lp398
g11
aS'5264'
p399
aS'3683'
p400
aS'5005'
p401
aS'1057'
p402
aS'2024'
p403
aS'1130'
p404
ag40
aa(lp405
g11
aS'4098'
p406
aS'29892'
p407
aS'26866'
p408
aS'2616'
p409
aS'17740'
p410
aS'1340'
p411
ag18
aa(lp412
g11
aS'5417'
p413
aS'9933'
p414
aS'10487'
p415
aS'38'
p416
aS'7572'
p417
aS'1282'
p418
ag18
aa(lp419
g11
aS'13779'
p420
aS'1970'
p421
aS'1648'
p422
aS'596'
p423
aS'227'
p424
aS'436'
p425
ag40
aa(lp426
g11
aS'6137'
p427
aS'5360'
p428
aS'8040'
p429
aS'129'
p430
aS'3084'
p431
aS'1603'
p432
ag40
aa(lp433
g11
aS'8590'
p434
aS'3045'
p435
aS'7854'
p436
aS'96'
p437
aS'4095'
p438
aS'225'
p439
ag18
aa(lp440
g11
aS'35942'
p441
aS'38369'
p442
aS'59598'
p443
aS'3254'
p444
aS'26701'
p445
aS'2017'
p446
ag18
aa(lp447
g11
aS'7823'
p448
aS'6245'
p449
aS'6544'
p450
aS'4154'
p451
aS'4074'
p452
aS'964'
p453
ag18
aa(lp454
g11
aS'9396'
p455
aS'11601'
p456
aS'15775'
p457
aS'2896'
p458
aS'7677'
p459
aS'1295'
p460
ag18
aa(lp461
g11
aS'4760'
p462
aS'1227'
p463
aS'3250'
p464
aS'3724'
p465
aS'1247'
p466
aS'1145'
p467
ag40
aa(lp468
g11
aS'85'
p469
aS'20959'
p470
aS'45828'
p471
aS'36'
p472
aS'24231'
p473
aS'1423'
p474
ag18
aa(lp475
g11
aS'9'
p476
aS'1534'
p477
aS'7417'
p478
aS'175'
p479
aS'3468'
p480
aS'27'
p481
ag40
aa(lp482
g11
aS'19913'
p483
aS'6759'
p484
aS'13462'
p485
aS'1256'
p486
aS'5141'
p487
aS'834'
p488
ag18
aa(lp489
g11
aS'2446'
p490
aS'7260'
p491
aS'3993'
p492
aS'5870'
p493
aS'788'
p494
aS'3095'
p495
ag40
aa(lp496
g11
aS'8352'
p497
aS'2820'
p498
aS'1293'
p499
aS'779'
p500
aS'656'
p501
aS'144'
p502
ag40
aa(lp503
g11
aS'16705'
p504
aS'2037'
p505
aS'3202'
p506
aS'10643'
p507
aS'116'
p508
aS'1365'
p509
ag40
aa(lp510
g11
aS'18291'
p511
aS'1266'
p512
aS'21042'
p513
aS'5373'
p514
aS'4173'
p515
aS'14472'
p516
ag40
aa(lp517
g11
aS'4420'
p518
aS'5139'
p519
aS'2661'
p520
aS'8872'
p521
aS'1321'
p522
aS'181'
p523
ag40
aa(lp524
g11
aS'19899'
p525
aS'5332'
p526
aS'8713'
p527
aS'8132'
p528
aS'764'
p529
aS'648'
p530
ag18
aa(lp531
g11
aS'8190'
p532
aS'6343'
p533
aS'9794'
p534
aS'1285'
p535
aS'1901'
p536
aS'1780'
p537
ag18
aa(lp538
g11
aS'20398'
p539
aS'1137'
p540
ag11
aS'4407'
p541
ag11
aS'975'
p542
ag40
aa(lp543
g11
aS'717'
p544
aS'3587'
p545
aS'6532'
p546
aS'7530'
p547
aS'529'
p548
aS'894'
p549
ag40
aa(lp550
g11
aS'12205'
p551
aS'12697'
p552
aS'28540'
p553
aS'869'
p554
aS'12034'
p555
aS'1009'
p556
ag18
aa(lp557
g11
aS'10766'
p558
aS'1175'
p559
aS'2067'
p560
aS'2096'
p561
aS'301'
p562
aS'167'
p563
ag40
aa(lp564
g11
aS'1640'
p565
aS'3259'
p566
aS'3655'
p567
aS'868'
p568
aS'1202'
p569
aS'1653'
p570
ag40
aa(lp571
g11
aS'7005'
p572
aS'829'
p573
aS'3009'
p574
aS'430'
p575
aS'610'
p576
aS'529'
p577
ag40
aa(lp578
g11
aS'219'
p579
aS'9540'
p580
aS'14403'
p581
aS'283'
p582
aS'7818'
p583
aS'156'
p584
ag18
aa(lp585
g11
aS'10362'
p586
aS'9232'
p587
aS'11009'
p588
aS'737'
p589
aS'3537'
p590
aS'2342'
p591
ag18
aa(lp592
g11
aS'20874'
p593
aS'1563'
p594
aS'1783'
p595
aS'2320'
p596
aS'550'
p597
aS'772'
p598
ag40
aa(lp599
g11
aS'11867'
p600
aS'3327'
p601
aS'4814'
p602
aS'1178'
p603
aS'3837'
p604
aS'120'
p605
ag18
aa(lp606
g11
aS'16117'
p607
aS'46197'
p608
aS'92780'
p609
aS'1026'
p610
aS'40827'
p611
aS'2944'
p612
ag18
aa(lp613
g11
aS'22925'
p614
aS'73498'
p615
aS'32114'
p616
aS'987'
p617
aS'20070'
p618
aS'903'
p619
ag18
aa(lp620
g11
aS'43265'
p621
aS'5025'
p622
aS'8117'
p623
aS'6312'
p624
aS'1579'
p625
aS'14351'
p626
ag40
aa(lp627
g11
aS'7864'
p628
aS'542'
p629
aS'4042'
p630
aS'9735'
p631
aS'165'
p632
aS'46'
p633
ag40
aa(lp634
g11
aS'24904'
p635
aS'3836'
p636
aS'5330'
p637
aS'3443'
p638
aS'454'
p639
aS'3178'
p640
ag40
aa(lp641
g11
aS'11405'
p642
aS'596'
p643
aS'1638'
p644
aS'3347'
p645
aS'69'
p646
aS'360'
p647
ag40
aa(lp648
g11
aS'12754'
p649
aS'2762'
p650
aS'2530'
p651
aS'8693'
p652
aS'627'
p653
aS'1117'
p654
ag40
aa(lp655
g11
aS'9198'
p656
aS'27472'
p657
aS'32034'
p658
aS'3232'
p659
aS'18906'
p660
aS'5130'
p661
ag18
aa(lp662
g11
aS'11314'
p663
aS'3090'
p664
aS'2062'
p665
aS'35009'
p666
aS'71'
p667
aS'2698'
p668
ag40
aa(lp669
g11
aS'5626'
p670
aS'12220'
p671
aS'11323'
p672
aS'206'
p673
aS'5038'
p674
aS'244'
p675
ag18
aa(lp676
g11
ag11
aS'2920'
p677
aS'6252'
p678
aS'440'
p679
aS'223'
p680
aS'709'
p681
ag40
aa(lp682
g11
aS'23'
p683
aS'2616'
p684
aS'8118'
p685
aS'145'
p686
aS'3874'
p687
aS'217'
p688
ag18
aa(lp689
g11
aS'403'
p690
aS'254'
p691
aS'610'
p692
aS'774'
p693
aS'54'
p694
aS'63'
p695
ag40
aa(lp696
g11
aS'503'
p697
aS'112'
p698
aS'778'
p699
aS'895'
p700
aS'56'
p701
aS'132'
p702
ag40
aa(lp703
g11
aS'9658'
p704
aS'2182'
p705
aS'1909'
p706
aS'5639'
p707
aS'215'
p708
aS'323'
p709
ag40
aa(lp710
g11
aS'11594'
p711
aS'7779'
p712
aS'12144'
p713
aS'3252'
p714
aS'8035'
p715
aS'3029'
p716
ag18
aa(lp717
g11
aS'1420'
p718
aS'10810'
p719
aS'16267'
p720
aS'1593'
p721
aS'6766'
p722
aS'1838'
p723
ag18
aa(lp724
g11
aS'2932'
p725
aS'6459'
p726
aS'7677'
p727
aS'2561'
p728
aS'4573'
p729
aS'1386'
p730
ag18
aa(lp731
g11
aS'56082'
p732
aS'3504'
p733
aS'8906'
p734
aS'18028'
p735
aS'1480'
p736
aS'2498'
p737
ag40
aa(lp738
g11
aS'14100'
p739
aS'2132'
p740
aS'3445'
p741
aS'1336'
p742
aS'1491'
p743
aS'548'
p744
ag40
aa(lp745
g11
aS'15587'
p746
aS'1014'
p747
aS'3970'
p748
aS'910'
p749
aS'139'
p750
aS'1378'
p751
ag40
aa(lp752
g11
aS'1454'
p753
aS'6337'
p754
aS'10704'
p755
aS'133'
p756
aS'6830'
p757
aS'1831'
p758
ag18
aa(lp759
g11
aS'8797'
p760
aS'10646'
p761
aS'14886'
p762
aS'2471'
p763
aS'8969'
p764
aS'1438'
p765
ag18
aa(lp766
g11
aS'1531'
p767
aS'8397'
p768
aS'6981'
p769
aS'247'
p770
aS'2505'
p771
aS'1236'
p772
ag18
aa(lp773
g11
aS'1406'
p774
aS'16729'
p775
aS'28986'
p776
aS'673'
p777
aS'836'
p778
ag11
ag18
aa(lp779
g11
aS'11818'
p780
aS'1648'
p781
aS'1694'
p782
aS'2276'
p783
aS'169'
p784
aS'1647'
p785
ag40
aa(lp786
g11
aS'12579'
p787
aS'11114'
p788
aS'17569'
p789
aS'805'
p790
aS'6457'
p791
aS'1519'
p792
ag18
aa(lp793
g11
aS'19046'
p794
aS'2770'
p795
aS'2469'
p796
aS'8853'
p797
aS'483'
p798
aS'2708'
p799
ag40
aa(lp800
g11
aS'14438'
p801
aS'2295'
p802
aS'1733'
p803
aS'3220'
p804
aS'585'
p805
aS'1561'
p806
ag40
aa(lp807
g11
aS'18044'
p808
aS'1080'
p809
aS'2000'
p810
aS'2555'
p811
aS'118'
p812
aS'1266'
p813
ag40
aa(lp814
g11
aS'11134'
p815
aS'793'
p816
aS'2988'
p817
aS'2715'
p818
aS'276'
p819
aS'610'
p820
ag40
aa(lp821
g11
aS'11173'
p822
aS'2521'
p823
aS'3355'
p824
aS'1517'
p825
aS'310'
p826
aS'222'
p827
ag40
aa(lp828
g11
aS'6990'
p829
aS'3880'
p830
aS'5380'
p831
aS'1647'
p832
aS'319'
p833
aS'1160'
p834
ag40
aa(lp835
g11
aS'20049'
p836
aS'1891'
p837
aS'2362'
p838
aS'5343'
p839
aS'411'
p840
aS'933'
p841
ag40
aa(lp842
g11
aS'8258'
p843
aS'2344'
p844
aS'2147'
p845
aS'3896'
p846
aS'266'
p847
aS'635'
p848
ag40
aa(lp849
g11
aS'17160'
p850
aS'1200'
p851
aS'3412'
p852
aS'2417'
p853
aS'174'
p854
aS'1136'
p855
ag40
aa(lp856
g11
aS'4020'
p857
aS'3234'
p858
aS'1498'
p859
aS'2395'
p860
aS'264'
p861
aS'255'
p862
ag40
aa(lp863
g11
aS'12212'
p864
aS'201'
p865
aS'245'
p866
aS'1991'
p867
aS'25'
p868
aS'860'
p869
ag40
aa(lp870
g11
aS'11170'
p871
aS'10769'
p872
aS'8814'
p873
aS'2194'
p874
aS'1976'
p875
aS'143'
p876
ag18
aa(lp877
g11
aS'36050'
p878
aS'1642'
p879
aS'2961'
p880
aS'4787'
p881
aS'500'
p882
aS'1621'
p883
ag40
aa(lp884
g11
aS'76237'
p885
aS'3473'
p886
aS'7102'
p887
aS'16538'
p888
aS'778'
p889
aS'918'
p890
ag40
aa(lp891
g11
aS'19219'
p892
aS'1840'
p893
aS'1658'
p894
aS'8195'
p895
aS'349'
p896
aS'483'
p897
ag40
aa(lp898
g11
aS'21465'
p899
aS'7243'
p900
aS'10685'
p901
aS'880'
p902
aS'2386'
p903
aS'2749'
p904
ag18
aa(lp905
g11
aS'140'
p906
aS'8847'
p907
aS'3823'
p908
aS'142'
p909
aS'1062'
p910
ag11
ag40
aa(lp911
g11
aS'42312'
p912
aS'926'
p913
aS'1510'
p914
aS'1718'
p915
aS'410'
p916
aS'1819'
p917
ag40
aa(lp918
g11
aS'7149'
p919
aS'2428'
p920
aS'699'
p921
aS'6316'
p922
aS'395'
p923
aS'911'
p924
ag40
aa(lp925
g11
aS'2101'
p926
aS'589'
p927
aS'314'
p928
aS'346'
p929
aS'70'
p930
aS'310'
p931
ag40
aa(lp932
g11
aS'14903'
p933
aS'2032'
p934
aS'2479'
p935
aS'576'
p936
aS'955'
p937
aS'328'
p938
ag40
aa(lp939
g11
aS'9434'
p940
aS'1042'
p941
aS'1235'
p942
aS'436'
p943
aS'256'
p944
aS'396'
p945
ag40
aa(lp946
g11
aS'7388'
p947
aS'1882'
p948
aS'2174'
p949
aS'720'
p950
aS'47'
p951
aS'537'
p952
ag40
aa(lp953
g11
aS'6300'
p954
aS'1289'
p955
aS'2591'
p956
aS'1170'
p957
aS'199'
p958
aS'326'
p959
ag40
aa(lp960
g11
aS'4625'
p961
aS'8579'
p962
aS'7030'
p963
aS'4575'
p964
aS'2447'
p965
aS'1542'
p966
ag40
aa(lp967
g11
aS'3087'
p968
aS'8080'
p969
aS'8282'
p970
aS'661'
p971
aS'721'
p972
aS'36'
p973
ag40
aa(lp974
g11
aS'13537'
p975
aS'4257'
p976
aS'5034'
p977
aS'155'
p978
aS'249'
p979
aS'3271'
p980
ag40
aa(lp981
g11
aS'5387'
p982
aS'4979'
p983
aS'3343'
p984
aS'825'
p985
aS'637'
p986
aS'929'
p987
ag40
aa(lp988
g11
aS'17623'
p989
aS'4280'
p990
aS'7305'
p991
aS'2279'
p992
aS'960'
p993
aS'2616'
p994
ag40
aa(lp995
g11
aS'30379'
p996
aS'13252'
p997
aS'5189'
p998
aS'321'
p999
aS'51'
p1000
aS'1450'
p1001
ag40
aa(lp1002
g11
aS'37036'
p1003
aS'7152'
p1004
aS'8253'
p1005
aS'2995'
p1006
aS'20'
p1007
ag11
ag40
aa(lp1008
g11
aS'10405'
p1009
aS'1596'
p1010
aS'1096'
p1011
aS'8425'
p1012
aS'399'
p1013
aS'318'
p1014
ag40
aa(lp1015
g11
aS'18827'
p1016
aS'3677'
p1017
aS'1988'
p1018
aS'118'
p1019
aS'516'
p1020
aS'201'
p1021
ag40
aa(lp1022
g11
aS'22039'
p1023
aS'8384'
p1024
aS'34792'
p1025
aS'42'
p1026
aS'12591'
p1027
aS'4430'
p1028
ag18
aa(lp1029
g11
aS'7769'
p1030
aS'1936'
p1031
aS'2177'
p1032
aS'926'
p1033
aS'73'
p1034
aS'520'
p1035
ag40
aa(lp1036
g11
aS'9203'
p1037
aS'3373'
p1038
aS'2707'
p1039
aS'1286'
p1040
aS'1082'
p1041
aS'526'
p1042
ag40
aa(lp1043
g11
aS'5924'
p1044
aS'584'
p1045
aS'542'
p1046
aS'4052'
p1047
aS'283'
p1048
aS'434'
p1049
ag40
aa(lp1050
g11
aS'31812'
p1051
aS'1433'
p1052
aS'1651'
p1053
aS'800'
p1054
aS'113'
p1055
aS'1440'
p1056
ag40
aa(lp1057
g11
aS'16225'
p1058
aS'1825'
p1059
aS'1765'
p1060
aS'853'
p1061
aS'170'
p1062
aS'1067'
p1063
ag40
aa(lp1064
g11
aS'1289'
p1065
aS'3328'
p1066
aS'2022'
p1067
aS'531'
p1068
aS'255'
p1069
aS'1774'
p1070
ag40
aa(lp1071
g11
aS'18840'
p1072
aS'1371'
p1073
aS'3135'
p1074
aS'3001'
p1075
aS'352'
p1076
aS'184'
p1077
ag40
aa(lp1078
g11
aS'3463'
p1079
aS'9250'
p1080
aS'2368'
p1081
aS'779'
p1082
aS'302'
p1083
aS'1627'
p1084
ag40
aa(lp1085
g11
aS'622'
p1086
aS'55'
p1087
aS'137'
p1088
aS'75'
p1089
aS'7'
p1090
aS'8'
p1091
ag40
aa(lp1092
g11
aS'1989'
p1093
aS'10690'
p1094
aS'19460'
p1095
aS'233'
p1096
aS'11577'
p1097
aS'2153'
p1098
ag18
aa(lp1099
g11
aS'3830'
p1100
aS'5291'
p1101
aS'14855'
p1102
aS'317'
p1103
aS'6694'
p1104
aS'3182'
p1105
ag18
aa(lp1106
g11
aS'17773'
p1107
aS'1366'
p1108
aS'2474'
p1109
aS'3378'
p1110
aS'811'
p1111
aS'418'
p1112
ag40
aa(lp1113
g11
aS'2861'
p1114
aS'6570'
p1115
aS'9618'
p1116
aS'930'
p1117
aS'4004'
p1118
aS'1682'
p1119
ag18
aa(lp1120
g11
aS'355'
p1121
aS'7704'
p1122
aS'14682'
p1123
aS'398'
p1124
aS'8077'
p1125
aS'303'
p1126
ag18
aa(lp1127
g11
aS'1725'
p1128
aS'3651'
p1129
aS'12822'
p1130
aS'824'
p1131
aS'4424'
p1132
aS'2157'
p1133
ag18
aa(lp1134
g11
aS'12434'
p1135
aS'540'
p1136
aS'283'
p1137
aS'1092'
p1138
ag11
aS'2233'
p1139
ag40
aa(lp1140
g11
aS'15177'
p1141
aS'2024'
p1142
aS'3810'
p1143
aS'2665'
p1144
aS'232'
p1145
aS'610'
p1146
ag40
aa(lp1147
g11
aS'5531'
p1148
aS'15726'
p1149
aS'26870'
p1150
aS'2367'
p1151
aS'13726'
p1152
aS'446'
p1153
ag18
aa(lp1154
g11
aS'5224'
p1155
aS'7603'
p1156
aS'8584'
p1157
aS'2540'
p1158
aS'3674'
p1159
aS'238'
p1160
ag18
aa(lp1161
g11
aS'15615'
p1162
aS'12653'
p1163
aS'19858'
p1164
aS'4425'
p1165
aS'7108'
p1166
aS'2379'
p1167
ag18
aa(lp1168
g11
aS'4822'
p1169
aS'6721'
p1170
aS'9170'
p1171
aS'993'
p1172
aS'4973'
p1173
aS'3637'
p1174
ag18
aa(lp1175
g11
aS'2926'
p1176
aS'3195'
p1177
aS'3268'
p1178
aS'405'
p1179
aS'1680'
p1180
aS'693'
p1181
ag40
aa(lp1182
g11
aS'5809'
p1183
aS'735'
p1184
aS'803'
p1185
aS'1393'
p1186
aS'79'
p1187
aS'429'
p1188
ag40
aa(lp1189
g11
aS'5414'
p1190
aS'717'
p1191
aS'2155'
p1192
aS'2399'
p1193
aS'69'
p1194
aS'750'
p1195
ag40
aa(lp1196
g11
aS'260'
p1197
aS'8675'
p1198
aS'13430'
p1199
aS'1116'
p1200
aS'7015'
p1201
aS'323'
p1202
ag18
aa(lp1203
g11
aS'200'
p1204
aS'25862'
p1205
aS'19816'
p1206
aS'651'
p1207
aS'8773'
p1208
aS'6250'
p1209
ag18
aa(lp1210
g11
aS'955'
p1211
aS'5479'
p1212
aS'6536'
p1213
aS'333'
p1214
aS'2840'
p1215
aS'707'
p1216
ag40
aa(lp1217
g11
aS'514'
p1218
aS'7677'
p1219
aS'19805'
p1220
aS'937'
p1221
aS'9836'
p1222
aS'716'
p1223
ag18
aa(lp1224
g11
aS'286'
p1225
aS'1208'
p1226
aS'5241'
p1227
aS'2515'
p1228
aS'153'
p1229
aS'1442'
p1230
ag40
aa(lp1231
g11
aS'2343'
p1232
aS'7845'
p1233
aS'11874'
p1234
aS'52'
p1235
aS'4196'
p1236
aS'1697'
p1237
ag18
aa(lp1238
g11
aS'45640'
p1239
aS'6958'
p1240
aS'6536'
p1241
aS'7368'
p1242
aS'1532'
p1243
aS'230'
p1244
ag40
aa(lp1245
g11
aS'12759'
p1246
aS'7330'
p1247
aS'4533'
p1248
aS'1752'
p1249
aS'20'
p1250
aS'2631'
p1251
ag40
aa(lp1252
g11
aS'11002'
p1253
aS'7075'
p1254
aS'4945'
p1255
aS'1152'
p1256
aS'120'
p1257
aS'395'
p1258
ag40
aa(lp1259
g11
aS'3157'
p1260
aS'4888'
p1261
aS'2500'
p1262
aS'4477'
p1263
aS'273'
p1264
aS'2165'
p1265
ag40
aa(lp1266
g11
aS'12356'
p1267
aS'6036'
p1268
aS'8887'
p1269
aS'402'
p1270
aS'1382'
p1271
aS'2794'
p1272
ag40
aa(lp1273
g11
aS'112151'
p1274
aS'29627'
p1275
aS'18148'
p1276
aS'16745'
p1277
aS'4948'
p1278
aS'8550'
p1279
ag40
aa(lp1280
g11
aS'694'
p1281
aS'8533'
p1282
aS'10518'
p1283
aS'443'
p1284
aS'6907'
p1285
aS'156'
p1286
ag40
aa(lp1287
g11
aS'36847'
p1288
aS'43950'
p1289
aS'20170'
p1290
aS'36534'
p1291
aS'239'
p1292
aS'47943'
p1293
ag40
aa(lp1294
g11
aS'327'
p1295
aS'918'
p1296
aS'4710'
p1297
aS'74'
p1298
aS'334'
p1299
aS'11'
p1300
ag40
aa(lp1301
g11
aS'8170'
p1302
aS'6448'
p1303
aS'1139'
p1304
aS'2181'
p1305
aS'58'
p1306
aS'247'
p1307
ag40
aa(lp1308
g11
aS'3009'
p1309
aS'521'
p1310
aS'854'
p1311
aS'3470'
p1312
aS'949'
p1313
aS'727'
p1314
ag40
aa(lp1315
g11
aS'2438'
p1316
aS'8002'
p1317
aS'9819'
p1318
aS'6269'
p1319
aS'3459'
p1320
ag11
ag40
aa(lp1321
g11
aS'8040'
p1322
aS'7639'
p1323
aS'11687'
p1324
aS'2758'
p1325
aS'6839'
p1326
aS'404'
p1327
ag18
aa(lp1328
g11
aS'834'
p1329
aS'11577'
p1330
aS'11522'
p1331
aS'275'
p1332
aS'4027'
p1333
aS'1856'
p1334
ag18
aa(lp1335
g11
aS'16936'
p1336
aS'6250'
p1337
aS'1981'
p1338
aS'7332'
p1339
aS'118'
p1340
aS'64'
p1341
ag40
aa(lp1342
g11
aS'13624'
p1343
aS'295'
p1344
aS'1381'
p1345
aS'890'
p1346
aS'43'
p1347
aS'84'
p1348
ag40
aa(lp1349
g11
aS'5509'
p1350
aS'1461'
p1351
aS'2251'
p1352
aS'547'
p1353
aS'187'
p1354
aS'409'
p1355
ag40
aa(lp1356
g11
aS'180'
p1357
aS'3485'
p1358
aS'20292'
p1359
aS'959'
p1360
aS'5618'
p1361
aS'666'
p1362
ag18
aa(lp1363
g11
aS'7107'
p1364
aS'1012'
p1365
aS'2974'
p1366
aS'806'
p1367
aS'355'
p1368
aS'1142'
p1369
ag40
aa(lp1370
g11
aS'17023'
p1371
aS'5139'
p1372
aS'5230'
p1373
aS'7888'
p1374
aS'330'
p1375
aS'1755'
p1376
ag40
aa(lp1377
g40
aS'30624'
p1378
aS'7209'
p1379
aS'4897'
p1380
aS'18711'
p1381
aS'763'
p1382
aS'2876'
p1383
ag40
aa(lp1384
g40
aS'2427'
p1385
aS'7097'
p1386
aS'10391'
p1387
aS'1127'
p1388
aS'4314'
p1389
aS'1468'
p1390
ag18
aa(lp1391
g40
aS'11686'
p1392
aS'2154'
p1393
aS'6824'
p1394
aS'3527'
p1395
aS'592'
p1396
aS'697'
p1397
ag40
aa(lp1398
g40
aS'9670'
p1399
aS'2280'
p1400
aS'2112'
p1401
aS'520'
p1402
aS'402'
p1403
aS'347'
p1404
ag40
aa(lp1405
g40
aS'3067'
p1406
aS'13240'
p1407
aS'23127'
p1408
aS'3941'
p1409
aS'9959'
p1410
aS'731'
p1411
ag18
aa(lp1412
g40
aS'4484'
p1413
aS'14399'
p1414
aS'24708'
p1415
aS'3549'
p1416
aS'14235'
p1417
aS'1681'
p1418
ag18
aa(lp1419
g40
aS'25203'
p1420
aS'11487'
p1421
aS'9490'
p1422
aS'5065'
p1423
aS'284'
p1424
aS'6854'
p1425
ag40
aa(lp1426
g40
aS'583'
p1427
aS'685'
p1428
aS'2216'
p1429
aS'469'
p1430
aS'954'
p1431
aS'18'
p1432
ag40
aa(lp1433
g40
aS'1956'
p1434
aS'891'
p1435
aS'5226'
p1436
aS'1383'
p1437
aS'5'
p1438
aS'1328'
p1439
ag40
aa(lp1440
g40
aS'1107'
p1441
aS'11711'
p1442
aS'23596'
p1443
aS'955'
p1444
aS'9265'
p1445
aS'710'
p1446
ag18
aa(lp1447
g40
aS'6373'
p1448
aS'780'
p1449
aS'950'
p1450
aS'878'
p1451
aS'288'
p1452
aS'285'
p1453
ag40
aa(lp1454
g40
aS'2541'
p1455
aS'4737'
p1456
aS'6089'
p1457
aS'2946'
p1458
aS'5316'
p1459
aS'120'
p1460
ag18
aa(lp1461
g40
aS'1537'
p1462
aS'3748'
p1463
aS'5838'
p1464
aS'1859'
p1465
aS'3381'
p1466
aS'806'
p1467
ag40
aa(lp1468
g40
aS'5550'
p1469
aS'12729'
p1470
aS'16767'
p1471
aS'864'
p1472
aS'12420'
p1473
aS'797'
p1474
ag18
aa(lp1475
g40
aS'18567'
p1476
aS'1895'
p1477
aS'1393'
p1478
aS'1801'
p1479
aS'244'
p1480
aS'2100'
p1481
ag40
aa(lp1482
g40
aS'12119'
p1483
aS'28326'
p1484
aS'39694'
p1485
aS'4736'
p1486
aS'19410'
p1487
aS'2870'
p1488
ag18
aa(lp1489
g40
aS'7291'
p1490
aS'1012'
p1491
aS'2062'
p1492
aS'1291'
p1493
aS'240'
p1494
aS'1775'
p1495
ag40
aa(lp1496
g40
aS'3317'
p1497
aS'6602'
p1498
aS'6861'
p1499
aS'1329'
p1500
aS'3961'
p1501
aS'1215'
p1502
ag40
aa(lp1503
g40
aS'2362'
p1504
aS'6551'
p1505
aS'11364'
p1506
aS'913'
p1507
aS'5957'
p1508
aS'791'
p1509
ag18
aa(lp1510
g40
aS'2806'
p1511
aS'10765'
p1512
aS'15538'
p1513
aS'1374'
p1514
aS'5828'
p1515
aS'2388'
p1516
ag40
aa(lp1517
g40
aS'2532'
p1518
aS'16599'
p1519
aS'36486'
p1520
aS'179'
p1521
aS'13308'
p1522
aS'674'
p1523
ag18
aa(lp1524
g40
aS'18044'
p1525
aS'1475'
p1526
aS'2046'
p1527
aS'2532'
p1528
aS'130'
p1529
aS'1158'
p1530
ag40
aa(lp1531
g40
aS'18'
p1532
aS'7504'
p1533
aS'15205'
p1534
aS'1285'
p1535
aS'4797'
p1536
aS'6372'
p1537
ag18
aa(lp1538
g40
aS'4155'
p1539
aS'367'
p1540
aS'1390'
p1541
aS'2306'
p1542
aS'86'
p1543
aS'130'
p1544
ag40
aa(lp1545
g40
aS'14755'
p1546
aS'899'
p1547
aS'1382'
p1548
aS'1765'
p1549
aS'56'
p1550
aS'749'
p1551
ag40
aa(lp1552
g40
aS'5396'
p1553
aS'7503'
p1554
aS'10646'
p1555
aS'91'
p1556
aS'4167'
p1557
aS'239'
p1558
ag40
aa(lp1559
g40
aS'5041'
p1560
aS'1115'
p1561
aS'2856'
p1562
aS'7496'
p1563
aS'256'
p1564
aS'375'
p1565
ag40
aa(lp1566
g40
aS'2790'
p1567
aS'2527'
p1568
aS'5265'
p1569
aS'5612'
p1570
aS'788'
p1571
aS'1360'
p1572
ag18
aa(lp1573
g40
aS'7274'
p1574
aS'659'
p1575
aS'1499'
p1576
aS'784'
p1577
aS'70'
p1578
aS'659'
p1579
ag40
aa(lp1580
g40
aS'12680'
p1581
aS'3243'
p1582
aS'4157'
p1583
aS'660'
p1584
aS'761'
p1585
aS'786'
p1586
ag40
aa(lp1587
g40
aS'20782'
p1588
aS'5921'
p1589
aS'9212'
p1590
aS'1759'
p1591
aS'2568'
p1592
aS'1553'
p1593
ag18
aa(lp1594
g40
aS'4042'
p1595
aS'2204'
p1596
aS'1563'
p1597
aS'2286'
p1598
aS'263'
p1599
aS'689'
p1600
ag40
aa(lp1601
g40
aS'1869'
p1602
aS'577'
p1603
aS'572'
p1604
aS'950'
p1605
aS'4762'
p1606
aS'203'
p1607
ag40
aa(lp1608
g40
aS'8656'
p1609
aS'2746'
p1610
aS'2501'
p1611
aS'6845'
p1612
aS'694'
p1613
aS'980'
p1614
ag40
aa(lp1615
g40
aS'11072'
p1616
aS'5989'
p1617
aS'5615'
p1618
aS'8321'
p1619
aS'955'
p1620
aS'2137'
p1621
ag18
aa(lp1622
g40
aS'2344'
p1623
aS'10678'
p1624
aS'3828'
p1625
aS'1439'
p1626
aS'1566'
p1627
aS'490'
p1628
ag40
aa(lp1629
g40
aS'25962'
p1630
aS'1780'
p1631
aS'3838'
p1632
aS'638'
p1633
aS'284'
p1634
aS'834'
p1635
ag40
aa(lp1636
g40
aS'964'
p1637
aS'4984'
p1638
aS'3316'
p1639
aS'937'
p1640
aS'409'
p1641
ag1090
ag40
aa(lp1642
g40
aS'15603'
p1643
aS'2703'
p1644
aS'3833'
p1645
aS'4260'
p1646
aS'325'
p1647
aS'2563'
p1648
ag40
aa(lp1649
g40
aS'1838'
p1650
aS'6380'
p1651
aS'2824'
p1652
aS'1218'
p1653
aS'1216'
p1654
aS'295'
p1655
ag40
aa(lp1656
g40
aS'8635'
p1657
aS'820'
p1658
aS'3047'
p1659
aS'2312'
p1660
aS'415'
p1661
aS'225'
p1662
ag40
aa(lp1663
g40
aS'18692'
p1664
aS'3838'
p1665
aS'593'
p1666
aS'4634'
p1667
aS'28'
p1668
aS'1215'
p1669
ag40
aa(lp1670
g40
aS'7363'
p1671
aS'475'
p1672
aS'585'
p1673
aS'1112'
p1674
aS'72'
p1675
aS'216'
p1676
ag40
aa(lp1677
g40
aS'47493'
p1678
aS'2567'
p1679
aS'3779'
p1680
aS'5243'
p1681
aS'828'
p1682
aS'2253'
p1683
ag40
aa(lp1684
g40
aS'22096'
p1685
aS'3575'
p1686
aS'7041'
p1687
aS'11422'
p1688
aS'343'
p1689
aS'2564'
p1690
ag40
aa(lp1691
g40
aS'24929'
p1692
aS'1801'
p1693
aS'2475'
p1694
aS'2216'
p1695
aS'412'
p1696
aS'1047'
p1697
ag40
aa(lp1698
g40
aS'18226'
p1699
aS'659'
p1700
aS'2914'
p1701
aS'3752'
p1702
aS'586'
p1703
aS'578'
p1704
ag40
aa(lp1705
g40
aS'11210'
p1706
aS'3576'
p1707
aS'5119'
p1708
aS'561'
p1709
aS'1682'
p1710
aS'2398'
p1711
ag40
aa(lp1712
g40
aS'6202'
p1713
aS'7775'
p1714
aS'10817'
p1715
aS'1183'
p1716
aS'3143'
p1717
aS'1970'
p1718
ag40
aa(lp1719
g40
aS'3062'
p1720
aS'6154'
p1721
aS'13916'
p1722
aS'230'
p1723
aS'8933'
p1724
aS'2784'
p1725
ag18
aa(lp1726
g40
aS'8885'
p1727
aS'2428'
p1728
aS'1777'
p1729
aS'1777'
p1730
aS'430'
p1731
aS'610'
p1732
ag40
aa(lp1733
g40
aS'13569'
p1734
aS'346'
p1735
aS'489'
p1736
aS'2077'
p1737
aS'44'
p1738
aS'659'
p1739
ag40
aa(lp1740
g40
aS'15671'
p1741
aS'5279'
p1742
aS'2406'
p1743
aS'559'
p1744
aS'562'
p1745
aS'572'
p1746
ag40
aa(lp1747
g40
aS'8040'
p1748
aS'3795'
p1749
aS'2070'
p1750
aS'6340'
p1751
aS'918'
p1752
aS'291'
p1753
ag40
aa(lp1754
g40
aS'3191'
p1755
aS'1993'
p1756
aS'1799'
p1757
aS'1730'
p1758
aS'234'
p1759
aS'710'
p1760
ag40
aa(lp1761
g40
aS'6134'
p1762
aS'23133'
p1763
aS'33586'
p1764
aS'6746'
p1765
aS'18594'
p1766
aS'5121'
p1767
ag18
aa(lp1768
g40
aS'6623'
p1769
aS'1860'
p1770
aS'4740'
p1771
aS'7683'
p1772
aS'205'
p1773
aS'1693'
p1774
ag40
aa(lp1775
g40
aS'29526'
p1776
aS'7961'
p1777
aS'16966'
p1778
aS'432'
p1779
aS'363'
p1780
aS'1391'
p1781
ag40
aa(lp1782
g40
aS'10379'
p1783
aS'17972'
p1784
aS'4748'
p1785
aS'4686'
p1786
aS'1547'
p1787
aS'3265'
p1788
ag40
aa(lp1789
g40
aS'31614'
p1790
aS'489'
p1791
aS'1495'
p1792
aS'3242'
p1793
aS'111'
p1794
aS'615'
p1795
ag40
aa(lp1796
g40
aS'11092'
p1797
aS'5008'
p1798
aS'5249'
p1799
aS'453'
p1800
aS'392'
p1801
aS'373'
p1802
ag40
aa(lp1803
g40
aS'8475'
p1804
aS'1931'
p1805
aS'1883'
p1806
aS'5004'
p1807
aS'3593'
p1808
aS'987'
p1809
ag40
aa(lp1810
g40
aS'56083'
p1811
aS'4563'
p1812
aS'2124'
p1813
aS'6422'
p1814
aS'730'
p1815
aS'3321'
p1816
ag40
aa(lp1817
g40
aS'53205'
p1818
aS'4959'
p1819
aS'7336'
p1820
aS'3012'
p1821
aS'967'
p1822
aS'818'
p1823
ag40
aa(lp1824
g40
aS'9193'
p1825
aS'4885'
p1826
aS'2157'
p1827
aS'327'
p1828
aS'780'
p1829
aS'548'
p1830
ag40
aa(lp1831
g40
aS'7858'
p1832
aS'1110'
p1833
aS'1094'
p1834
aS'6818'
p1835
aS'49'
p1836
aS'287'
p1837
ag40
aa(lp1838
g40
aS'23257'
p1839
aS'1372'
p1840
aS'1677'
p1841
aS'982'
p1842
aS'429'
p1843
aS'655'
p1844
ag40
aa(lp1845
g40
aS'2153'
p1846
aS'1115'
p1847
aS'6684'
p1848
aS'4324'
p1849
aS'2894'
p1850
aS'411'
p1851
ag40
aa(lp1852
g40
aS'1073'
p1853
aS'9679'
p1854
aS'15445'
p1855
aS'61'
p1856
aS'5980'
p1857
aS'1265'
p1858
ag18
aa(lp1859
g40
aS'5909'
p1860
aS'23527'
p1861
aS'13699'
p1862
aS'10155'
p1863
aS'830'
p1864
aS'3636'
p1865
ag40
aa(lp1866
g40
aS'572'
p1867
aS'9763'
p1868
aS'22182'
p1869
aS'2221'
p1870
aS'4882'
p1871
aS'2563'
p1872
ag18
aa(lp1873
g40
aS'20893'
p1874
aS'1222'
p1875
aS'2576'
p1876
aS'3975'
p1877
aS'737'
p1878
aS'3628'
p1879
ag40
aa(lp1880
g40
aS'11908'
p1881
aS'8053'
p1882
aS'19847'
p1883
aS'1069'
p1884
aS'6374'
p1885
aS'698'
p1886
ag18
aa(lp1887
g40
aS'15218'
p1888
aS'258'
p1889
aS'1138'
p1890
aS'2516'
p1891
aS'333'
p1892
aS'204'
p1893
ag40
aa(lp1894
g40
aS'4720'
p1895
aS'1032'
p1896
aS'975'
p1897
aS'5500'
p1898
aS'197'
p1899
aS'56'
p1900
ag40
aa(lp1901
g40
aS'2083'
p1902
aS'5007'
p1903
aS'1563'
p1904
aS'1120'
p1905
aS'147'
p1906
aS'1550'
p1907
ag40
aa(lp1908
g40
aS'514'
p1909
aS'8323'
p1910
aS'6869'
p1911
aS'529'
p1912
aS'93'
p1913
aS'1040'
p1914
ag40
aa(lp1915
g11
aS'36817'
p1916
aS'3045'
p1917
aS'1493'
p1918
aS'4802'
p1919
aS'210'
p1920
aS'1824'
p1921
ag40
aa(lp1922
g11
aS'894'
p1923
aS'1703'
p1924
aS'1841'
p1925
aS'744'
p1926
aS'759'
p1927
aS'1153'
p1928
ag40
aa(lp1929
g11
aS'680'
p1930
aS'1610'
p1931
aS'223'
p1932
aS'862'
p1933
aS'96'
p1934
aS'379'
p1935
ag40
aa(lp1936
g11
aS'27901'
p1937
aS'3749'
p1938
aS'6964'
p1939
aS'4479'
p1940
aS'603'
p1941
aS'2503'
p1942
ag40
aa(lp1943
g11
aS'9061'
p1944
aS'829'
p1945
aS'683'
p1946
aS'16919'
p1947
aS'621'
p1948
aS'139'
p1949
ag40
aa(lp1950
g11
aS'11693'
p1951
aS'2317'
p1952
aS'2543'
p1953
aS'5845'
p1954
aS'274'
p1955
aS'1409'
p1956
ag40
aa(lp1957
g11
aS'17360'
p1958
aS'6200'
p1959
aS'9694'
p1960
aS'1293'
p1961
aS'3620'
p1962
aS'1721'
p1963
ag18
aa(lp1964
g11
aS'3366'
p1965
aS'2884'
p1966
aS'2431'
p1967
aS'977'
p1968
aS'167'
p1969
aS'1104'
p1970
ag40
aa(lp1971
g11
aS'12238'
p1972
aS'7108'
p1973
aS'6235'
p1974
aS'1093'
p1975
aS'2328'
p1976
aS'2079'
p1977
ag18
aa(lp1978
g11
aS'49063'
p1979
aS'3965'
p1980
aS'4252'
p1981
aS'5970'
p1982
aS'1041'
p1983
aS'1404'
p1984
ag40
aa(lp1985
g11
aS'25767'
p1986
aS'3613'
p1987
aS'2013'
p1988
aS'10303'
p1989
aS'314'
p1990
aS'1384'
p1991
ag40
aa(lp1992
g11
aS'68951'
p1993
aS'4411'
p1994
aS'12609'
p1995
aS'8692'
p1996
aS'751'
p1997
aS'2406'
p1998
ag40
aa(lp1999
g11
aS'40254'
p2000
aS'640'
p2001
aS'3600'
p2002
aS'1042'
p2003
aS'436'
p2004
aS'18'
p2005
ag40
aa(lp2006
g11
aS'7149'
p2007
aS'2247'
p2008
aS'1242'
p2009
aS'1619'
p2010
aS'1226'
p2011
aS'128'
p2012
ag40
aa(lp2013
g11
aS'15354'
p2014
aS'2102'
p2015
aS'2828'
p2016
aS'8366'
p2017
aS'386'
p2018
aS'1027'
p2019
ag40
aa(lp2020
g11
aS'16260'
p2021
aS'594'
p2022
aS'1296'
p2023
aS'848'
p2024
aS'445'
p2025
aS'258'
p2026
ag40
aa(lp2027
g11
aS'42786'
p2028
aS'286'
p2029
aS'471'
p2030
aS'1388'
p2031
aS'32'
p2032
aS'22'
p2033
ag40
aa(lp2034
g11
aS'2708'
p2035
aS'2160'
p2036
aS'2642'
p2037
aS'502'
p2038
aS'965'
p2039
aS'1522'
p2040
ag40
aa(lp2041
g11
aS'6022'
p2042
aS'3354'
p2043
aS'3261'
p2044
aS'2507'
p2045
aS'212'
p2046
aS'686'
p2047
ag40
aa(lp2048
g11
aS'2838'
p2049
aS'3086'
p2050
aS'4329'
p2051
aS'3838'
p2052
aS'825'
p2053
aS'1060'
p2054
ag40
aa(lp2055
g18
aS'3996'
p2056
aS'11103'
p2057
aS'12469'
p2058
aS'902'
p2059
aS'5952'
p2060
aS'741'
p2061
ag18
aa(lp2062
g18
aS'21273'
p2063
aS'2013'
p2064
aS'6550'
p2065
aS'909'
p2066
aS'811'
p2067
aS'1854'
p2068
ag40
aa(lp2069
g18
aS'7588'
p2070
aS'1897'
p2071
aS'5234'
p2072
aS'417'
p2073
aS'2208'
p2074
aS'254'
p2075
ag18
aa(lp2076
g18
aS'19087'
p2077
aS'1304'
p2078
aS'3643'
p2079
aS'3045'
p2080
aS'710'
p2081
aS'898'
p2082
ag40
aa(lp2083
g18
aS'8090'
p2084
aS'3199'
p2085
aS'6986'
p2086
aS'1455'
p2087
aS'3712'
p2088
aS'531'
p2089
ag18
aa(lp2090
g18
aS'6758'
p2091
aS'4560'
p2092
aS'9965'
p2093
aS'934'
p2094
aS'4538'
p2095
aS'1037'
p2096
ag18
aa(lp2097
g18
aS'444'
p2098
aS'879'
p2099
aS'2060'
p2100
aS'264'
p2101
aS'290'
p2102
aS'259'
p2103
ag40
aa(lp2104
g18
aS'16448'
p2105
aS'6243'
p2106
aS'6360'
p2107
aS'824'
p2108
aS'2662'
p2109
aS'2005'
p2110
ag18
aa(lp2111
g18
aS'5283'
p2112
aS'13316'
p2113
aS'20399'
p2114
aS'1809'
p2115
aS'8752'
p2116
aS'172'
p2117
ag18
aa(lp2118
g18
aS'2886'
p2119
aS'5302'
p2120
aS'9785'
p2121
aS'364'
p2122
aS'6236'
p2123
aS'555'
p2124
ag18
aa(lp2125
g18
aS'2599'
p2126
aS'3688'
p2127
aS'13829'
p2128
aS'492'
p2129
aS'10069'
p2130
aS'59'
p2131
ag18
aa(lp2132
g18
aS'161'
p2133
aS'7460'
p2134
aS'24773'
p2135
aS'617'
p2136
aS'11783'
p2137
aS'2410'
p2138
ag18
aa(lp2139
g18
aS'243'
p2140
aS'12939'
p2141
aS'8852'
p2142
aS'799'
p2143
aS'3909'
p2144
aS'211'
p2145
ag18
aa(lp2146
g18
aS'6468'
p2147
aS'12867'
p2148
aS'21570'
p2149
aS'1840'
p2150
aS'7558'
p2151
aS'1543'
p2152
ag18
aa(lp2153
g18
aS'17327'
p2154
aS'2374'
p2155
aS'2842'
p2156
aS'1149'
p2157
aS'351'
p2158
aS'925'
p2159
ag40
aa(lp2160
g18
aS'6987'
p2161
aS'1020'
p2162
aS'3007'
p2163
aS'416'
p2164
aS'257'
p2165
aS'656'
p2166
ag40
aa(lp2167
g18
aS'918'
p2168
aS'20655'
p2169
aS'13567'
p2170
aS'1465'
p2171
aS'6846'
p2172
aS'806'
p2173
ag18
aa(lp2174
g18
aS'7034'
p2175
aS'1492'
p2176
aS'2405'
p2177
aS'12569'
p2178
aS'299'
p2179
aS'1117'
p2180
ag40
aa(lp2181
g18
aS'29635'
p2182
aS'2335'
p2183
aS'8280'
p2184
aS'3046'
p2185
aS'371'
p2186
aS'117'
p2187
ag40
aa(lp2188
g18
aS'2137'
p2189
aS'3737'
p2190
aS'19172'
p2191
aS'1274'
p2192
aS'17120'
p2193
aS'142'
p2194
ag18
aa(lp2195
g18
aS'9784'
p2196
aS'925'
p2197
aS'2405'
p2198
aS'4447'
p2199
aS'183'
p2200
aS'297'
p2201
ag40
aa(lp2202
g18
aS'10617'
p2203
aS'1795'
p2204
aS'7647'
p2205
aS'1483'
p2206
aS'857'
p2207
aS'1233'
p2208
ag40
aa(lp2209
g18
aS'1479'
p2210
aS'14982'
p2211
aS'11924'
p2212
aS'662'
p2213
aS'3891'
p2214
aS'3508'
p2215
ag18
aa(lp2216
g18
aS'7127'
p2217
aS'1375'
p2218
aS'2201'
p2219
aS'2679'
p2220
aS'83'
p2221
aS'1059'
p2222
ag40
aa(lp2223
g18
aS'1182'
p2224
aS'3088'
p2225
aS'6114'
p2226
aS'978'
p2227
aS'821'
p2228
aS'1637'
p2229
ag40
aa(lp2230
g18
aS'11800'
p2231
aS'2713'
p2232
aS'3558'
p2233
aS'2121'
p2234
aS'706'
p2235
aS'51'
p2236
ag40
aa(lp2237
g18
aS'9759'
p2238
aS'25071'
p2239
aS'17645'
p2240
aS'1128'
p2241
aS'12408'
p2242
aS'1625'
p2243
ag18
aa(lp2244
g18
aS'1774'
p2245
aS'3696'
p2246
aS'2280'
p2247
aS'514'
p2248
aS'275'
p2249
aS'834'
p2250
ag40
aa(lp2251
g18
aS'9155'
p2252
aS'1897'
p2253
aS'5167'
p2254
aS'2714'
p2255
aS'228'
p2256
aS'1113'
p2257
ag40
aa(lp2258
g18
aS'15881'
p2259
aS'713'
p2260
aS'3315'
p2261
aS'3703'
p2262
aS'1470'
p2263
aS'229'
p2264
ag40
aa(lp2265
g18
aS'13360'
p2266
aS'944'
p2267
aS'11593'
p2268
aS'915'
p2269
aS'1679'
p2270
aS'573'
p2271
ag40
aa(lp2272
g18
aS'25977'
p2273
aS'3587'
p2274
aS'2464'
p2275
aS'2369'
p2276
aS'140'
p2277
aS'1092'
p2278
ag40
aa(lp2279
g18
aS'32717'
p2280
aS'16784'
p2281
aS'13626'
p2282
aS'60869'
p2283
aS'1272'
p2284
aS'5609'
p2285
ag40
aa(lp2286
g18
aS'4414'
p2287
aS'1610'
p2288
aS'1431'
p2289
aS'3498'
p2290
aS'387'
p2291
aS'834'
p2292
ag40
aa(lp2293
g18
aS'542'
p2294
aS'899'
p2295
aS'1664'
p2296
aS'414'
p2297
aS'88'
p2298
aS'522'
p2299
ag40
aa(lp2300
g18
aS'16933'
p2301
aS'2209'
p2302
aS'3389'
p2303
aS'7849'
p2304
aS'210'
p2305
aS'1534'
p2306
ag40
aa(lp2307
g18
aS'5113'
p2308
aS'1486'
p2309
aS'4583'
p2310
aS'5127'
p2311
aS'492'
p2312
aS'739'
p2313
ag40
aa(lp2314
g18
aS'9790'
p2315
aS'1786'
p2316
aS'5109'
p2317
aS'3570'
p2318
aS'182'
p2319
aS'1043'
p2320
ag40
aa(lp2321
g18
aS'11223'
p2322
aS'14881'
p2323
aS'26839'
p2324
aS'1234'
p2325
aS'9606'
p2326
aS'1102'
p2327
ag18
aa(lp2328
g18
aS'22321'
p2329
aS'3216'
p2330
aS'1447'
p2331
aS'2208'
p2332
aS'178'
p2333
aS'2602'
p2334
ag40
aa(lp2335
g18
aS'8565'
p2336
aS'4980'
p2337
aS'67298'
p2338
aS'131'
p2339
aS'38102'
p2340
aS'1215'
p2341
ag18
aa(lp2342
g18
aS'16823'
p2343
aS'928'
p2344
aS'2743'
p2345
aS'11559'
p2346
aS'332'
p2347
aS'3486'
p2348
ag18
aa(lp2349
g18
aS'27082'
p2350
aS'6817'
p2351
aS'10790'
p2352
aS'1365'
p2353
aS'4111'
p2354
aS'2139'
p2355
ag18
aa(lp2356
g18
aS'13970'
p2357
aS'1511'
p2358
aS'1330'
p2359
aS'650'
p2360
aS'146'
p2361
aS'778'
p2362
ag40
aa(lp2363
g18
aS'9351'
p2364
aS'1347'
p2365
aS'2611'
p2366
aS'8170'
p2367
aS'442'
p2368
aS'868'
p2369
ag40
aa(lp2370
g18
ag11
aS'333'
p2371
aS'7021'
p2372
aS'15601'
p2373
aS'15'
p2374
aS'550'
p2375
ag40
aa(lp2376
g18
aS'2617'
p2377
aS'1188'
p2378
aS'5332'
p2379
aS'9584'
p2380
aS'573'
p2381
aS'1942'
p2382
ag40
aa(lp2383
g11
aS'381'
p2384
aS'4025'
p2385
aS'9670'
p2386
aS'388'
p2387
aS'7271'
p2388
aS'1371'
p2389
ag18
aa(lp2390
g11
aS'2320'
p2391
aS'5763'
p2392
aS'11238'
p2393
aS'767'
p2394
aS'5162'
p2395
aS'2158'
p2396
ag18
aa(lp2397
g11
aS'255'
p2398
aS'5758'
p2399
aS'5923'
p2400
aS'349'
p2401
aS'4595'
p2402
aS'1328'
p2403
ag40
aa(lp2404
g11
aS'1689'
p2405
aS'6964'
p2406
aS'26316'
p2407
aS'1456'
p2408
aS'15469'
p2409
aS'37'
p2410
ag18
aa(lp2411
g11
aS'3043'
p2412
aS'1172'
p2413
aS'1763'
p2414
aS'2234'
p2415
aS'217'
p2416
aS'379'
p2417
ag40
aa(lp2418
g11
aS'1198'
p2419
aS'2602'
p2420
aS'8335'
p2421
aS'402'
p2422
aS'3843'
p2423
aS'303'
p2424
ag40
aa(lp2425
g11
aS'2771'
p2426
aS'6939'
p2427
aS'15541'
p2428
aS'2693'
p2429
aS'6600'
p2430
aS'1115'
p2431
ag18
aa(lp2432
g11
aS'27380'
p2433
aS'7184'
p2434
aS'12311'
p2435
aS'2809'
p2436
aS'4621'
p2437
aS'1022'
p2438
ag18
aa(lp2439
g11
aS'3428'
p2440
aS'2380'
p2441
aS'2028'
p2442
aS'1341'
p2443
aS'1184'
p2444
aS'665'
p2445
ag40
aa(lp2446
g11
aS'5981'
p2447
aS'14641'
p2448
aS'20521'
p2449
aS'2005'
p2450
aS'12218'
p2451
aS'445'
p2452
ag18
aa(lp2453
g11
aS'3521'
p2454
aS'1099'
p2455
aS'1997'
p2456
aS'1796'
p2457
aS'173'
p2458
aS'995'
p2459
ag40
aa(lp2460
g11
aS'1210'
p2461
aS'10044'
p2462
aS'22294'
p2463
aS'1741'
p2464
aS'12638'
p2465
aS'3137'
p2466
ag18
aa(lp2467
g11
aS'608'
p2468
aS'1106'
p2469
aS'1533'
p2470
aS'830'
p2471
aS'90'
p2472
aS'195'
p2473
ag40
aa(lp2474
g11
aS'117'
p2475
aS'6264'
p2476
aS'21203'
p2477
aS'228'
p2478
aS'8682'
p2479
aS'1111'
p2480
ag18
aa(lp2481
g11
aS'14039'
p2482
aS'7393'
p2483
aS'2548'
p2484
aS'6386'
p2485
aS'1333'
p2486
aS'2341'
p2487
ag40
aa(lp2488
g11
aS'190'
p2489
aS'727'
p2490
aS'2012'
p2491
aS'245'
p2492
aS'184'
p2493
aS'127'
p2494
ag40
aa(lp2495
g11
aS'22686'
p2496
aS'134'
p2497
aS'218'
p2498
aS'3157'
p2499
ag476
aS'548'
p2500
ag40
aa(lp2501
g11
aS'37'
p2502
aS'1275'
p2503
aS'22272'
p2504
aS'137'
p2505
aS'6747'
p2506
aS'110'
p2507
ag18
aa(lp2508
g11
aS'759'
p2509
aS'18664'
p2510
aS'1660'
p2511
aS'6114'
p2512
aS'536'
p2513
aS'4100'
p2514
ag40
aa(lp2515
g11
aS'796'
p2516
aS'5878'
p2517
aS'2109'
p2518
aS'340'
p2519
aS'232'
p2520
aS'776'
p2521
ag40
aa(lp2522
g11
aS'19746'
p2523
aS'2872'
p2524
aS'2006'
p2525
aS'2601'
p2526
aS'468'
p2527
aS'503'
p2528
ag40
aa(lp2529
g11
aS'4734'
p2530
aS'607'
p2531
aS'864'
p2532
aS'1206'
p2533
aS'159'
p2534
aS'405'
p2535
ag40
aa(lp2536
g11
aS'2121'
p2537
aS'1601'
p2538
aS'2453'
p2539
aS'560'
p2540
aS'179'
p2541
aS'712'
p2542
ag40
aa(lp2543
g11
aS'4627'
p2544
aS'997'
p2545
aS'4438'
p2546
aS'191'
p2547
aS'1335'
p2548
aS'314'
p2549
ag40
aa(lp2550
g11
aS'2615'
p2551
aS'873'
p2552
aS'1524'
p2553
aS'1103'
p2554
aS'514'
p2555
aS'468'
p2556
ag40
aa(lp2557
g11
aS'4692'
p2558
aS'6128'
p2559
aS'8025'
p2560
aS'1619'
p2561
aS'4515'
p2562
aS'3105'
p2563
ag18
aa(lp2564
g11
aS'9561'
p2565
aS'2217'
p2566
aS'1664'
p2567
aS'1173'
p2568
aS'222'
p2569
aS'447'
p2570
ag40
aa(lp2571
g11
aS'3477'
p2572
aS'894'
p2573
aS'534'
p2574
aS'1457'
p2575
aS'252'
p2576
aS'342'
p2577
ag40
aa(lp2578
g11
aS'22335'
p2579
aS'1196'
p2580
aS'2406'
p2581
aS'2046'
p2582
aS'101'
p2583
aS'558'
p2584
ag40
aa(lp2585
g11
aS'6211'
p2586
aS'337'
p2587
aS'683'
p2588
aS'1089'
p2589
aS'41'
p2590
aS'296'
p2591
ag40
aa(lp2592
g11
aS'39679'
p2593
aS'3944'
p2594
aS'4955'
p2595
aS'1364'
p2596
aS'523'
p2597
aS'2235'
p2598
ag18
aa(lp2599
g11
aS'20105'
p2600
aS'1887'
p2601
aS'1939'
p2602
aS'8164'
p2603
aS'716'
p2604
aS'790'
p2605
ag40
aa(lp2606
g11
aS'3884'
p2607
aS'3801'
p2608
aS'1641'
p2609
aS'876'
p2610
aS'397'
p2611
aS'4829'
p2612
ag40
aa(lp2613
g11
aS'15076'
p2614
aS'6257'
p2615
aS'7398'
p2616
aS'1504'
p2617
aS'1916'
p2618
aS'3113'
p2619
ag18
aa(lp2620
g11
aS'6338'
p2621
aS'2256'
p2622
aS'1668'
p2623
aS'1492'
p2624
aS'311'
p2625
aS'686'
p2626
ag40
aa(lp2627
g11
aS'5841'
p2628
aS'1450'
p2629
aS'1162'
p2630
aS'597'
p2631
aS'476'
p2632
aS'70'
p2633
ag40
aa(lp2634
g11
aS'3136'
p2635
aS'8630'
p2636
aS'13586'
p2637
aS'5641'
p2638
aS'4666'
p2639
aS'1426'
p2640
ag18
aa(lp2641
g11
aS'38793'
p2642
aS'3154'
p2643
aS'2648'
p2644
aS'1034'
p2645
aS'96'
p2646
aS'1242'
p2647
ag40
aa(lp2648
g11
aS'3225'
p2649
aS'3294'
p2650
aS'1902'
p2651
aS'282'
p2652
aS'68'
p2653
aS'1114'
p2654
ag40
aa(lp2655
g11
aS'4048'
p2656
aS'5164'
p2657
aS'10391'
p2658
aS'130'
p2659
aS'813'
p2660
aS'179'
p2661
ag18
aa(lp2662
g11
aS'28257'
p2663
aS'944'
p2664
aS'2146'
p2665
aS'3881'
p2666
aS'600'
p2667
aS'270'
p2668
ag40
aa(lp2669
g11
aS'17770'
p2670
aS'4591'
p2671
aS'1617'
p2672
aS'9927'
p2673
aS'246'
p2674
aS'532'
p2675
ag40
aa(lp2676
g11
aS'34454'
p2677
aS'7435'
p2678
aS'8469'
p2679
aS'2540'
p2680
aS'1711'
p2681
aS'2893'
p2682
ag40
aa(lp2683
g11
aS'1821'
p2684
aS'1364'
p2685
aS'3450'
p2686
aS'4006'
p2687
aS'397'
p2688
aS'361'
p2689
ag40
aa(lp2690
g11
aS'10683'
p2691
aS'21858'
p2692
aS'15400'
p2693
aS'3635'
p2694
aS'282'
p2695
aS'5120'
p2696
ag40
aa(lp2697
g11
aS'11635'
p2698
aS'922'
p2699
aS'1614'
p2700
aS'2583'
p2701
aS'192'
p2702
aS'1068'
p2703
ag40
aa(lp2704
g11
aS'1206'
p2705
aS'3620'
p2706
aS'2857'
p2707
aS'1945'
p2708
aS'353'
p2709
aS'967'
p2710
ag40
aa(lp2711
g11
aS'20918'
p2712
aS'1916'
p2713
aS'1573'
p2714
aS'1960'
p2715
aS'231'
p2716
aS'961'
p2717
ag40
aa(lp2718
g11
aS'9785'
p2719
aS'848'
p2720
aS'1172'
p2721
aS'1677'
p2722
aS'200'
p2723
aS'406'
p2724
ag40
aa(lp2725
g11
aS'9385'
p2726
aS'1530'
p2727
aS'1422'
p2728
aS'3019'
p2729
aS'227'
p2730
aS'684'
p2731
ag40
aa(lp2732
g11
aS'3352'
p2733
aS'1181'
p2734
aS'1328'
p2735
aS'5502'
p2736
aS'311'
p2737
aS'1000'
p2738
ag40
aa(lp2739
g11
aS'2647'
p2740
aS'2761'
p2741
aS'2313'
p2742
aS'907'
p2743
aS'95'
p2744
aS'1827'
p2745
ag40
aa(lp2746
g11
aS'518'
p2747
aS'4180'
p2748
aS'3600'
p2749
aS'659'
p2750
aS'122'
p2751
aS'654'
p2752
ag40
aa(lp2753
g11
aS'23632'
p2754
aS'6730'
p2755
aS'3842'
p2756
aS'8620'
p2757
aS'385'
p2758
aS'819'
p2759
ag40
aa(lp2760
g11
aS'12377'
p2761
aS'865'
p2762
aS'3204'
p2763
aS'1398'
p2764
aS'149'
p2765
aS'452'
p2766
ag40
aa(lp2767
g11
aS'9602'
p2768
aS'1316'
p2769
aS'1263'
p2770
aS'2921'
p2771
aS'841'
p2772
aS'290'
p2773
ag40
aa(lp2774
g11
aS'4515'
p2775
aS'11991'
p2776
aS'9345'
p2777
aS'2644'
p2778
aS'3378'
p2779
aS'2213'
p2780
ag18
aa(lp2781
g11
aS'11535'
p2782
aS'1666'
p2783
aS'1428'
p2784
aS'6838'
p2785
aS'64'
p2786
aS'743'
p2787
ag40
aa(lp2788
g11
aS'11442'
p2789
aS'1032'
p2790
aS'582'
p2791
aS'5390'
p2792
aS'74'
p2793
aS'247'
p2794
ag40
aa(lp2795
g11
aS'9612'
p2796
aS'577'
p2797
aS'935'
p2798
aS'1601'
p2799
aS'469'
p2800
aS'375'
p2801
ag40
aa(lp2802
g11
aS'4446'
p2803
aS'906'
p2804
aS'1238'
p2805
aS'3576'
p2806
aS'153'
p2807
aS'1014'
p2808
ag40
aa(lp2809
g11
aS'27167'
p2810
aS'2801'
p2811
aS'2128'
p2812
aS'13223'
p2813
aS'92'
p2814
aS'1902'
p2815
ag40
aa(lp2816
g11
aS'26539'
p2817
aS'4753'
p2818
aS'5091'
p2819
aS'220'
p2820
aS'10'
p2821
aS'340'
p2822
ag40
aa(lp2823
g11
aS'25606'
p2824
aS'11006'
p2825
aS'4604'
p2826
aS'127'
p2827
aS'632'
p2828
aS'288'
p2829
ag40
aa(lp2830
g11
aS'18073'
p2831
aS'4613'
p2832
aS'3444'
p2833
aS'4324'
p2834
aS'914'
p2835
aS'715'
p2836
ag40
aa(lp2837
g11
aS'6884'
p2838
aS'1046'
p2839
aS'1167'
p2840
aS'2069'
p2841
aS'593'
p2842
aS'378'
p2843
ag40
aa(lp2844
g11
aS'25066'
p2845
aS'5010'
p2846
aS'5026'
p2847
aS'9806'
p2848
aS'1092'
p2849
aS'960'
p2850
ag40
aa(lp2851
g11
aS'7362'
p2852
aS'12844'
p2853
aS'18683'
p2854
aS'2854'
p2855
aS'7883'
p2856
aS'553'
p2857
ag18
aa(lp2858
g11
aS'8257'
p2859
aS'3880'
p2860
aS'6407'
p2861
aS'1646'
p2862
aS'2730'
p2863
aS'344'
p2864
ag18
aa(lp2865
g11
aS'8708'
p2866
aS'3634'
p2867
aS'6100'
p2868
aS'2349'
p2869
aS'2123'
p2870
aS'5137'
p2871
ag40
aa(lp2872
g11
aS'6633'
p2873
aS'2096'
p2874
aS'4563'
p2875
aS'1389'
p2876
aS'1860'
p2877
aS'1892'
p2878
ag40
aa(lp2879
g11
aS'2126'
p2880
aS'3289'
p2881
aS'3281'
p2882
aS'1535'
p2883
aS'235'
p2884
aS'4365'
p2885
ag40
aa(lp2886
g11
aS'97'
p2887
aS'3605'
p2888
aS'12400'
p2889
aS'98'
p2890
aS'2970'
p2891
aS'62'
p2892
ag40
aa(lp2893
g11
aS'4983'
p2894
aS'4859'
p2895
aS'6633'
p2896
aS'17866'
p2897
aS'912'
p2898
aS'2435'
p2899
ag40
aa(lp2900
g11
aS'5969'
p2901
aS'1990'
p2902
aS'3417'
p2903
aS'5679'
p2904
aS'1135'
p2905
aS'290'
p2906
ag40
aa(lp2907
g11
aS'7842'
p2908
aS'6046'
p2909
aS'8552'
p2910
aS'1691'
p2911
aS'3540'
p2912
aS'1874'
p2913
ag18
aa(lp2914
g11
aS'4389'
p2915
aS'10940'
p2916
aS'10908'
p2917
aS'848'
p2918
aS'6728'
p2919
aS'993'
p2920
ag18
aa(lp2921
g11
aS'5065'
p2922
aS'5499'
p2923
aS'11055'
p2924
aS'364'
p2925
aS'3485'
p2926
aS'1063'
p2927
ag40
aa(lp2928
g11
aS'660'
p2929
aS'8494'
p2930
aS'18622'
p2931
aS'133'
p2932
aS'6740'
p2933
aS'776'
p2934
ag18
aa(lp2935
g11
aS'8861'
p2936
aS'3783'
p2937
aS'2223'
p2938
aS'633'
p2939
aS'1580'
p2940
aS'1521'
p2941
ag40
aa(lp2942
g11
aS'4456'
p2943
aS'5266'
p2944
aS'13227'
p2945
aS'25'
p2946
aS'6818'
p2947
aS'1393'
p2948
ag40
aa(lp2949
g11
aS'17063'
p2950
aS'4847'
p2951
aS'9053'
p2952
aS'1031'
p2953
aS'3415'
p2954
aS'1784'
p2955
ag18
aa(lp2956
g11
aS'26400'
p2957
aS'1377'
p2958
aS'4172'
p2959
aS'830'
p2960
aS'948'
p2961
aS'1218'
p2962
ag40
aa(lp2963
g11
aS'17565'
p2964
aS'3686'
p2965
aS'4657'
p2966
aS'1059'
p2967
aS'1803'
p2968
aS'668'
p2969
ag18
aa(lp2970
g11
aS'16980'
p2971
aS'2884'
p2972
aS'12232'
p2973
aS'874'
p2974
aS'3213'
p2975
aS'249'
p2976
ag18
aa(lp2977
g11
aS'11243'
p2978
aS'2408'
p2979
aS'2593'
p2980
aS'15348'
p2981
aS'108'
p2982
aS'1886'
p2983
ag40
aa(lp2984
g11
aS'13134'
p2985
aS'9347'
p2986
aS'14316'
p2987
aS'3141'
p2988
aS'5079'
p2989
aS'1894'
p2990
ag40
aa(lp2991
g11
aS'31012'
p2992
aS'16687'
p2993
aS'5429'
p2994
aS'15082'
p2995
aS'439'
p2996
aS'1163'
p2997
ag40
aa(lp2998
g11
aS'3047'
p2999
aS'5970'
p3000
aS'4910'
p3001
aS'2198'
p3002
aS'850'
p3003
aS'317'
p3004
ag40
aa(lp3005
g11
aS'8607'
p3006
aS'1750'
p3007
aS'3580'
p3008
aS'47'
p3009
aS'84'
p3010
aS'2501'
p3011
ag40
aa(lp3012
g11
aS'3097'
p3013
aS'4230'
p3014
aS'16483'
p3015
aS'575'
p3016
aS'241'
p3017
aS'2080'
p3018
ag40
aa(lp3019
g11
aS'8533'
p3020
aS'5506'
p3021
aS'5160'
p3022
aS'13486'
p3023
aS'1377'
p3024
aS'1498'
p3025
ag40
aa(lp3026
g11
aS'21117'
p3027
aS'1162'
p3028
aS'4754'
p3029
aS'269'
p3030
aS'1328'
p3031
aS'395'
p3032
ag40
aa(lp3033
g11
aS'1982'
p3034
aS'3218'
p3035
aS'1493'
p3036
aS'1541'
p3037
aS'356'
p3038
aS'1449'
p3039
ag40
aa(lp3040
g11
aS'16731'
p3041
aS'3922'
p3042
aS'7994'
p3043
aS'688'
p3044
aS'2371'
p3045
aS'838'
p3046
ag40
aa(lp3047
g11
aS'29703'
p3048
aS'12051'
p3049
aS'16027'
p3050
aS'13135'
p3051
aS'182'
p3052
aS'2204'
p3053
ag40
aa(lp3054
g11
aS'39228'
p3055
aS'1431'
p3056
aS'764'
p3057
aS'4510'
p3058
aS'93'
p3059
aS'2346'
p3060
ag40
aa(lp3061
g11
aS'14531'
p3062
aS'15488'
p3063
aS'30243'
p3064
aS'437'
p3065
aS'14841'
p3066
aS'1867'
p3067
ag18
aa(lp3068
g11
aS'10290'
p3069
aS'1981'
p3070
aS'2232'
p3071
aS'1038'
p3072
aS'168'
p3073
aS'2125'
p3074
ag40
aa(lp3075
g11
aS'2787'
p3076
aS'1698'
p3077
aS'2510'
p3078
aS'65'
p3079
aS'477'
p3080
aS'52'
p3081
ag40
aa.