(lp0
(lp1
F2.0
aF3.0
aF4.0
aF5.0
aS'R'
p2
aa(lp3
F2.0
aF3.0
aF5.0
aF2.0
ag2
aa(lp4
F2.0
aF3.0
aF5.0
aF3.0
ag2
aa(lp5
F2.0
aF3.0
aF5.0
aF4.0
ag2
aa(lp6
F2.0
aF3.0
aF5.0
aF5.0
ag2
aa(lp7
F2.0
aF4.0
aF2.0
aF5.0
ag2
aa(lp8
F2.0
aF4.0
aF3.0
aF3.0
ag2
aa(lp9
F2.0
aF4.0
aF3.0
aF4.0
ag2
aa(lp10
F2.0
aF4.0
aF3.0
aF5.0
ag2
aa(lp11
F2.0
aF4.0
aF4.0
aF3.0
ag2
aa(lp12
F2.0
aF4.0
aF4.0
aF4.0
ag2
aa(lp13
F2.0
aF4.0
aF4.0
aF5.0
ag2
aa(lp14
F2.0
aF4.0
aF5.0
aF2.0
ag2
aa(lp15
F2.0
aF4.0
aF5.0
aF3.0
ag2
aa(lp16
F2.0
aF4.0
aF5.0
aF4.0
ag2
aa(lp17
F2.0
aF4.0
aF5.0
aF5.0
ag2
aa(lp18
F2.0
aF5.0
aF3.0
aF4.0
ag2
aa(lp19
F2.0
aF5.0
aF3.0
aF5.0
ag2
aa(lp20
F2.0
aF5.0
aF4.0
aF3.0
ag2
aa(lp21
F2.0
aF5.0
aF4.0
aF4.0
ag2
aa(lp22
F2.0
aF5.0
aF4.0
aF5.0
ag2
aa(lp23
F2.0
aF5.0
aF5.0
aF3.0
ag2
aa(lp24
F2.0
aF5.0
aF5.0
aF4.0
ag2
aa(lp25
F2.0
aF5.0
aF5.0
aF5.0
ag2
aa(lp26
F3.0
aF1.0
aF1.0
aF4.0
ag2
aa(lp27
F3.0
aF1.0
aF1.0
aF5.0
ag2
aa(lp28
F3.0
aF1.0
aF2.0
aF2.0
ag2
aa(lp29
F3.0
aF1.0
aF2.0
aF3.0
ag2
aa(lp30
F3.0
aF1.0
aF2.0
aF4.0
ag2
aa(lp31
F3.0
aF3.0
aF3.0
aF3.0
aS'B'
p32
aa(lp33
F3.0
aF4.0
aF3.0
aF4.0
ag32
aa(lp34
F3.0
aF4.0
aF4.0
aF3.0
ag32
aa(lp35
F3.0
aF5.0
aF3.0
aF5.0
ag32
aa(lp36
F3.0
aF5.0
aF5.0
aF3.0
ag32
aa(lp37
F4.0
aF3.0
aF2.0
aF1.0
aS'L'
p38
aa(lp39
F4.0
aF3.0
aF2.0
aF2.0
ag38
aa(lp40
F4.0
aF3.0
aF2.0
aF3.0
ag38
aa(lp41
F4.0
aF3.0
aF2.0
aF4.0
ag38
aa(lp42
F4.0
aF3.0
aF2.0
aF5.0
ag38
aa(lp43
F4.0
aF3.0
aF3.0
aF1.0
ag38
aa(lp44
F4.0
aF3.0
aF3.0
aF2.0
ag38
aa(lp45
F4.0
aF3.0
aF3.0
aF3.0
ag38
aa(lp46
F4.0
aF3.0
aF4.0
aF1.0
ag38
aa(lp47
F4.0
aF3.0
aF4.0
aF2.0
ag38
aa(lp48
F4.0
aF3.0
aF5.0
aF1.0
ag38
aa(lp49
F4.0
aF3.0
aF5.0
aF2.0
ag38
aa(lp50
F4.0
aF4.0
aF1.0
aF1.0
ag38
aa(lp51
F4.0
aF4.0
aF1.0
aF2.0
ag38
aa(lp52
F4.0
aF4.0
aF1.0
aF3.0
ag38
aa(lp53
F4.0
aF4.0
aF1.0
aF4.0
ag38
aa(lp54
F4.0
aF4.0
aF1.0
aF5.0
ag38
aa(lp55
F4.0
aF4.0
aF2.0
aF1.0
ag38
aa(lp56
F4.0
aF4.0
aF2.0
aF2.0
ag38
aa(lp57
F4.0
aF4.0
aF2.0
aF3.0
ag38
aa(lp58
F4.0
aF4.0
aF2.0
aF4.0
ag38
aa(lp59
F4.0
aF4.0
aF2.0
aF5.0
ag38
aa(lp60
F4.0
aF4.0
aF3.0
aF1.0
ag38
aa(lp61
F4.0
aF4.0
aF3.0
aF2.0
ag38
aa(lp62
F4.0
aF4.0
aF3.0
aF3.0
ag38
aa(lp63
F4.0
aF4.0
aF3.0
aF4.0
ag38
aa(lp64
F4.0
aF4.0
aF3.0
aF5.0
ag38
aa(lp65
F4.0
aF4.0
aF4.0
aF1.0
ag38
aa(lp66
F4.0
aF4.0
aF4.0
aF2.0
ag38
aa.