(lp0
(lp1
F1.0
aF1.0
aF1.0
aF1.0
aS'B'
p2
aa(lp3
F1.0
aF1.0
aF1.0
aF2.0
aS'R'
p4
aa(lp5
F1.0
aF1.0
aF1.0
aF3.0
ag4
aa(lp6
F1.0
aF1.0
aF1.0
aF4.0
ag4
aa(lp7
F1.0
aF1.0
aF1.0
aF5.0
ag4
aa(lp8
F1.0
aF1.0
aF2.0
aF1.0
ag4
aa(lp9
F1.0
aF1.0
aF2.0
aF2.0
ag4
aa(lp10
F1.0
aF1.0
aF2.0
aF3.0
ag4
aa(lp11
F1.0
aF1.0
aF2.0
aF4.0
ag4
aa(lp12
F1.0
aF1.0
aF2.0
aF5.0
ag4
aa(lp13
F1.0
aF1.0
aF3.0
aF1.0
ag4
aa(lp14
F1.0
aF1.0
aF3.0
aF2.0
ag4
aa(lp15
F1.0
aF1.0
aF3.0
aF3.0
ag4
aa(lp16
F1.0
aF1.0
aF3.0
aF4.0
ag4
aa(lp17
F1.0
aF1.0
aF3.0
aF5.0
ag4
aa(lp18
F1.0
aF1.0
aF4.0
aF1.0
ag4
aa(lp19
F1.0
aF1.0
aF4.0
aF2.0
ag4
aa(lp20
F1.0
aF1.0
aF4.0
aF3.0
ag4
aa(lp21
F1.0
aF1.0
aF4.0
aF4.0
ag4
aa(lp22
F1.0
aF1.0
aF4.0
aF5.0
ag4
aa(lp23
F1.0
aF1.0
aF5.0
aF1.0
ag4
aa(lp24
F1.0
aF1.0
aF5.0
aF2.0
ag4
aa(lp25
F1.0
aF1.0
aF5.0
aF3.0
ag4
aa(lp26
F1.0
aF1.0
aF5.0
aF4.0
ag4
aa(lp27
F1.0
aF1.0
aF5.0
aF5.0
ag4
aa(lp28
F1.0
aF2.0
aF1.0
aF1.0
aS'L'
p29
aa(lp30
F1.0
aF2.0
aF1.0
aF2.0
ag2
aa(lp31
F1.0
aF2.0
aF1.0
aF3.0
ag4
aa(lp32
F1.0
aF2.0
aF1.0
aF4.0
ag4
aa(lp33
F1.0
aF2.0
aF1.0
aF5.0
ag4
aa(lp34
F1.0
aF2.0
aF2.0
aF1.0
ag2
aa(lp35
F1.0
aF2.0
aF2.0
aF2.0
ag4
aa(lp36
F1.0
aF2.0
aF2.0
aF3.0
ag4
aa(lp37
F1.0
aF3.0
aF1.0
aF1.0
ag29
aa(lp38
F1.0
aF3.0
aF1.0
aF2.0
ag29
aa(lp39
F1.0
aF3.0
aF1.0
aF3.0
ag2
aa(lp40
F1.0
aF3.0
aF2.0
aF1.0
ag29
aa(lp41
F1.0
aF3.0
aF3.0
aF1.0
ag2
aa(lp42
F1.0
aF4.0
aF1.0
aF1.0
ag29
aa(lp43
F1.0
aF4.0
aF1.0
aF2.0
ag29
aa(lp44
F1.0
aF4.0
aF1.0
aF3.0
ag29
aa(lp45
F1.0
aF4.0
aF2.0
aF1.0
ag29
aa(lp46
F1.0
aF4.0
aF3.0
aF1.0
ag29
aa(lp47
F1.0
aF5.0
aF1.0
aF1.0
ag29
aa(lp48
F1.0
aF5.0
aF1.0
aF2.0
ag29
aa(lp49
F1.0
aF5.0
aF1.0
aF3.0
ag29
aa(lp50
F1.0
aF5.0
aF1.0
aF4.0
ag29
aa(lp51
F1.0
aF5.0
aF2.0
aF1.0
ag29
aa(lp52
F1.0
aF5.0
aF2.0
aF2.0
ag29
aa(lp53
F1.0
aF5.0
aF3.0
aF1.0
ag29
aa(lp54
F1.0
aF5.0
aF4.0
aF1.0
ag29
aa(lp55
F2.0
aF1.0
aF1.0
aF1.0
ag29
aa(lp56
F2.0
aF2.0
aF1.0
aF1.0
ag29
aa(lp57
F2.0
aF2.0
aF1.0
aF2.0
ag29
aa(lp58
F2.0
aF2.0
aF1.0
aF3.0
ag29
aa(lp59
F2.0
aF2.0
aF2.0
aF1.0
ag29
aa(lp60
F2.0
aF2.0
aF3.0
aF1.0
ag29
aa(lp61
F2.0
aF3.0
aF1.0
aF1.0
ag29
aa(lp62
F2.0
aF3.0
aF1.0
aF2.0
ag29
aa(lp63
F2.0
aF3.0
aF1.0
aF3.0
ag29
aa(lp64
F2.0
aF3.0
aF1.0
aF4.0
ag29
aa(lp65
F2.0
aF3.0
aF1.0
aF5.0
ag29
aa(lp66
F2.0
aF3.0
aF2.0
aF1.0
ag29
aa.