(lp0
(lp1
F5.0
aF1.0
aF2.0
aF3.0
aS'R'
p2
aa(lp3
F5.0
aF1.0
aF2.0
aF4.0
ag2
aa(lp4
F5.0
aF1.0
aF2.0
aF5.0
ag2
aa(lp5
F5.0
aF1.0
aF3.0
aF2.0
ag2
aa(lp6
F5.0
aF1.0
aF3.0
aF3.0
ag2
aa(lp7
F5.0
aF1.0
aF3.0
aF4.0
ag2
aa(lp8
F5.0
aF1.0
aF3.0
aF5.0
ag2
aa(lp9
F5.0
aF1.0
aF4.0
aF2.0
ag2
aa(lp10
F5.0
aF1.0
aF4.0
aF3.0
ag2
aa(lp11
F5.0
aF1.0
aF4.0
aF4.0
ag2
aa(lp12
F5.0
aF1.0
aF4.0
aF5.0
ag2
aa(lp13
F5.0
aF1.0
aF5.0
aF2.0
ag2
aa(lp14
F5.0
aF1.0
aF5.0
aF3.0
ag2
aa(lp15
F5.0
aF1.0
aF5.0
aF4.0
ag2
aa(lp16
F5.0
aF1.0
aF5.0
aF5.0
ag2
aa(lp17
F5.0
aF2.0
aF3.0
aF4.0
ag2
aa(lp18
F5.0
aF2.0
aF3.0
aF5.0
ag2
aa(lp19
F5.0
aF2.0
aF4.0
aF3.0
ag2
aa(lp20
F5.0
aF2.0
aF4.0
aF4.0
ag2
aa(lp21
F5.0
aF2.0
aF4.0
aF5.0
ag2
aa(lp22
F5.0
aF2.0
aF5.0
aF3.0
ag2
aa(lp23
F5.0
aF2.0
aF5.0
aF4.0
ag2
aa(lp24
F5.0
aF2.0
aF5.0
aF5.0
ag2
aa(lp25
F5.0
aF3.0
aF4.0
aF4.0
ag2
aa(lp26
F5.0
aF3.0
aF4.0
aF5.0
ag2
aa(lp27
F5.0
aF3.0
aF5.0
aF3.0
aS'B'
p28
aa(lp29
F5.0
aF3.0
aF5.0
aF4.0
ag2
aa(lp30
F5.0
aF3.0
aF5.0
aF5.0
ag2
aa(lp31
F5.0
aF4.0
aF4.0
aF4.0
aS'L'
p32
aa(lp33
F5.0
aF4.0
aF4.0
aF5.0
ag28
aa(lp34
F5.0
aF4.0
aF5.0
aF1.0
ag32
aa(lp35
F5.0
aF4.0
aF5.0
aF2.0
ag32
aa(lp36
F5.0
aF4.0
aF5.0
aF3.0
ag32
aa(lp37
F5.0
aF4.0
aF5.0
aF4.0
ag28
aa(lp38
F5.0
aF4.0
aF5.0
aF5.0
ag2
aa(lp39
F5.0
aF5.0
aF1.0
aF1.0
ag32
aa(lp40
F5.0
aF5.0
aF1.0
aF2.0
ag32
aa(lp41
F5.0
aF5.0
aF1.0
aF3.0
ag32
aa(lp42
F5.0
aF5.0
aF1.0
aF4.0
ag32
aa(lp43
F5.0
aF5.0
aF1.0
aF5.0
ag32
aa(lp44
F5.0
aF5.0
aF2.0
aF1.0
ag32
aa(lp45
F5.0
aF5.0
aF2.0
aF2.0
ag32
aa(lp46
F5.0
aF5.0
aF2.0
aF3.0
ag32
aa(lp47
F5.0
aF5.0
aF2.0
aF4.0
ag32
aa(lp48
F5.0
aF5.0
aF2.0
aF5.0
ag32
aa(lp49
F5.0
aF5.0
aF3.0
aF1.0
ag32
aa(lp50
F5.0
aF5.0
aF3.0
aF2.0
ag32
aa(lp51
F5.0
aF5.0
aF3.0
aF3.0
ag32
aa(lp52
F5.0
aF5.0
aF3.0
aF4.0
ag32
aa(lp53
F5.0
aF5.0
aF3.0
aF5.0
ag32
aa(lp54
F5.0
aF5.0
aF4.0
aF1.0
ag32
aa(lp55
F5.0
aF5.0
aF4.0
aF2.0
ag32
aa(lp56
F5.0
aF5.0
aF4.0
aF3.0
ag32
aa(lp57
F5.0
aF5.0
aF4.0
aF4.0
ag32
aa(lp58
F5.0
aF5.0
aF4.0
aF5.0
ag32
aa(lp59
F5.0
aF5.0
aF5.0
aF1.0
ag32
aa(lp60
F5.0
aF5.0
aF5.0
aF2.0
ag32
aa(lp61
F5.0
aF5.0
aF5.0
aF3.0
ag32
aa(lp62
F5.0
aF5.0
aF5.0
aF4.0
ag32
aa(lp63
F5.0
aF5.0
aF5.0
aF5.0
ag28
aa.