(lp0
(lp1
F1.0
aF1.0
aF1.0
aF1.0
aS'B'
p2
aa(lp3
F1.0
aF1.0
aF1.0
aF2.0
aS'R'
p4
aa(lp5
F1.0
aF1.0
aF1.0
aF3.0
ag4
aa(lp6
F1.0
aF1.0
aF1.0
aF4.0
ag4
aa(lp7
F1.0
aF1.0
aF1.0
aF5.0
ag4
aa(lp8
F1.0
aF1.0
aF2.0
aF1.0
ag4
aa(lp9
F1.0
aF1.0
aF2.0
aF2.0
ag4
aa(lp10
F1.0
aF1.0
aF2.0
aF3.0
ag4
aa(lp11
F1.0
aF1.0
aF2.0
aF4.0
ag4
aa(lp12
F1.0
aF1.0
aF2.0
aF5.0
ag4
aa(lp13
F1.0
aF1.0
aF3.0
aF1.0
ag4
aa(lp14
F1.0
aF1.0
aF3.0
aF2.0
ag4
aa(lp15
F1.0
aF1.0
aF3.0
aF3.0
ag4
aa(lp16
F1.0
aF1.0
aF3.0
aF4.0
ag4
aa(lp17
F1.0
aF1.0
aF3.0
aF5.0
ag4
aa(lp18
F1.0
aF1.0
aF4.0
aF1.0
ag4
aa(lp19
F1.0
aF1.0
aF4.0
aF2.0
ag4
aa(lp20
F1.0
aF1.0
aF4.0
aF3.0
ag4
aa(lp21
F1.0
aF1.0
aF4.0
aF4.0
ag4
aa(lp22
F1.0
aF1.0
aF4.0
aF5.0
ag4
aa(lp23
F1.0
aF1.0
aF5.0
aF1.0
ag4
aa(lp24
F1.0
aF1.0
aF5.0
aF2.0
ag4
aa(lp25
F1.0
aF1.0
aF5.0
aF3.0
ag4
aa(lp26
F1.0
aF1.0
aF5.0
aF4.0
ag4
aa(lp27
F1.0
aF1.0
aF5.0
aF5.0
ag4
aa(lp28
F1.0
aF2.0
aF1.0
aF1.0
aS'L'
p29
aa(lp30
F1.0
aF2.0
aF1.0
aF2.0
ag2
aa(lp31
F1.0
aF2.0
aF1.0
aF3.0
ag4
aa(lp32
F1.0
aF2.0
aF1.0
aF4.0
ag4
aa(lp33
F1.0
aF2.0
aF1.0
aF5.0
ag4
aa(lp34
F1.0
aF2.0
aF2.0
aF1.0
ag2
aa(lp35
F1.0
aF2.0
aF2.0
aF2.0
ag4
aa(lp36
F1.0
aF2.0
aF2.0
aF3.0
ag4
aa(lp37
F1.0
aF2.0
aF2.0
aF4.0
ag4
aa(lp38
F1.0
aF2.0
aF2.0
aF5.0
ag4
aa(lp39
F1.0
aF2.0
aF3.0
aF1.0
ag4
aa(lp40
F1.0
aF2.0
aF3.0
aF2.0
ag4
aa(lp41
F1.0
aF2.0
aF3.0
aF3.0
ag4
aa(lp42
F1.0
aF2.0
aF3.0
aF4.0
ag4
aa(lp43
F1.0
aF2.0
aF3.0
aF5.0
ag4
aa(lp44
F1.0
aF2.0
aF4.0
aF1.0
ag4
aa(lp45
F1.0
aF2.0
aF4.0
aF2.0
ag4
aa(lp46
F1.0
aF2.0
aF4.0
aF3.0
ag4
aa(lp47
F1.0
aF2.0
aF4.0
aF4.0
ag4
aa(lp48
F1.0
aF2.0
aF4.0
aF5.0
ag4
aa(lp49
F1.0
aF2.0
aF5.0
aF1.0
ag4
aa(lp50
F1.0
aF2.0
aF5.0
aF2.0
ag4
aa(lp51
F1.0
aF2.0
aF5.0
aF3.0
ag4
aa(lp52
F1.0
aF2.0
aF5.0
aF4.0
ag4
aa(lp53
F1.0
aF2.0
aF5.0
aF5.0
ag4
aa(lp54
F1.0
aF3.0
aF1.0
aF1.0
ag29
aa(lp55
F1.0
aF3.0
aF1.0
aF2.0
ag29
aa(lp56
F1.0
aF3.0
aF1.0
aF3.0
ag2
aa(lp57
F1.0
aF3.0
aF1.0
aF4.0
ag4
aa(lp58
F1.0
aF3.0
aF1.0
aF5.0
ag4
aa(lp59
F1.0
aF3.0
aF2.0
aF1.0
ag29
aa(lp60
F1.0
aF3.0
aF2.0
aF2.0
ag4
aa(lp61
F1.0
aF3.0
aF2.0
aF3.0
ag4
aa(lp62
F1.0
aF3.0
aF2.0
aF4.0
ag4
aa(lp63
F1.0
aF3.0
aF2.0
aF5.0
ag4
aa(lp64
F1.0
aF3.0
aF3.0
aF1.0
ag2
aa(lp65
F1.0
aF3.0
aF3.0
aF2.0
ag4
aa(lp66
F1.0
aF3.0
aF3.0
aF3.0
ag4
aa(lp67
F1.0
aF3.0
aF3.0
aF4.0
ag4
aa(lp68
F1.0
aF3.0
aF3.0
aF5.0
ag4
aa(lp69
F1.0
aF3.0
aF4.0
aF1.0
ag4
aa(lp70
F1.0
aF3.0
aF4.0
aF2.0
ag4
aa(lp71
F1.0
aF3.0
aF4.0
aF3.0
ag4
aa(lp72
F1.0
aF3.0
aF4.0
aF4.0
ag4
aa(lp73
F1.0
aF3.0
aF4.0
aF5.0
ag4
aa(lp74
F1.0
aF3.0
aF5.0
aF1.0
ag4
aa(lp75
F1.0
aF3.0
aF5.0
aF2.0
ag4
aa(lp76
F1.0
aF3.0
aF5.0
aF3.0
ag4
aa(lp77
F1.0
aF3.0
aF5.0
aF4.0
ag4
aa(lp78
F1.0
aF3.0
aF5.0
aF5.0
ag4
aa(lp79
F1.0
aF4.0
aF1.0
aF1.0
ag29
aa(lp80
F1.0
aF4.0
aF1.0
aF2.0
ag29
aa(lp81
F1.0
aF4.0
aF1.0
aF3.0
ag29
aa(lp82
F1.0
aF4.0
aF1.0
aF4.0
ag2
aa(lp83
F1.0
aF4.0
aF1.0
aF5.0
ag4
aa(lp84
F1.0
aF4.0
aF2.0
aF1.0
ag29
aa(lp85
F1.0
aF4.0
aF2.0
aF2.0
ag2
aa(lp86
F1.0
aF4.0
aF2.0
aF3.0
ag4
aa(lp87
F1.0
aF4.0
aF2.0
aF4.0
ag4
aa(lp88
F1.0
aF4.0
aF2.0
aF5.0
ag4
aa(lp89
F1.0
aF4.0
aF3.0
aF1.0
ag29
aa(lp90
F1.0
aF4.0
aF3.0
aF2.0
ag4
aa(lp91
F1.0
aF4.0
aF3.0
aF3.0
ag4
aa(lp92
F1.0
aF4.0
aF3.0
aF4.0
ag4
aa(lp93
F1.0
aF4.0
aF3.0
aF5.0
ag4
aa(lp94
F1.0
aF4.0
aF4.0
aF1.0
ag2
aa(lp95
F1.0
aF4.0
aF4.0
aF2.0
ag4
aa(lp96
F1.0
aF4.0
aF4.0
aF3.0
ag4
aa(lp97
F1.0
aF4.0
aF4.0
aF4.0
ag4
aa(lp98
F1.0
aF4.0
aF4.0
aF5.0
ag4
aa(lp99
F1.0
aF4.0
aF5.0
aF1.0
ag4
aa(lp100
F1.0
aF4.0
aF5.0
aF2.0
ag4
aa(lp101
F1.0
aF4.0
aF5.0
aF3.0
ag4
aa(lp102
F1.0
aF4.0
aF5.0
aF4.0
ag4
aa(lp103
F1.0
aF4.0
aF5.0
aF5.0
ag4
aa(lp104
F1.0
aF5.0
aF1.0
aF1.0
ag29
aa(lp105
F1.0
aF5.0
aF1.0
aF2.0
ag29
aa(lp106
F1.0
aF5.0
aF1.0
aF3.0
ag29
aa(lp107
F1.0
aF5.0
aF1.0
aF4.0
ag29
aa(lp108
F1.0
aF5.0
aF1.0
aF5.0
ag2
aa(lp109
F1.0
aF5.0
aF2.0
aF1.0
ag29
aa(lp110
F1.0
aF5.0
aF2.0
aF2.0
ag29
aa(lp111
F1.0
aF5.0
aF2.0
aF3.0
ag4
aa(lp112
F1.0
aF5.0
aF2.0
aF4.0
ag4
aa(lp113
F1.0
aF5.0
aF2.0
aF5.0
ag4
aa(lp114
F1.0
aF5.0
aF3.0
aF1.0
ag29
aa(lp115
F1.0
aF5.0
aF3.0
aF2.0
ag4
aa(lp116
F1.0
aF5.0
aF4.0
aF1.0
ag29
aa(lp117
F1.0
aF5.0
aF5.0
aF1.0
ag2
aa(lp118
F2.0
aF1.0
aF1.0
aF1.0
ag29
aa(lp119
F2.0
aF1.0
aF1.0
aF2.0
ag2
aa(lp120
F2.0
aF1.0
aF2.0
aF1.0
ag2
aa(lp121
F2.0
aF1.0
aF5.0
aF2.0
ag4
aa(lp122
F2.0
aF1.0
aF5.0
aF3.0
ag4
aa(lp123
F2.0
aF1.0
aF5.0
aF4.0
ag4
aa(lp124
F2.0
aF1.0
aF5.0
aF5.0
ag4
aa(lp125
F2.0
aF2.0
aF1.0
aF1.0
ag29
aa(lp126
F2.0
aF2.0
aF1.0
aF2.0
ag29
aa(lp127
F2.0
aF2.0
aF1.0
aF3.0
ag29
aa(lp128
F2.0
aF2.0
aF1.0
aF4.0
ag2
aa(lp129
F2.0
aF2.0
aF1.0
aF5.0
ag4
aa(lp130
F2.0
aF2.0
aF2.0
aF1.0
ag29
aa(lp131
F2.0
aF2.0
aF2.0
aF2.0
ag2
aa(lp132
F2.0
aF2.0
aF2.0
aF3.0
ag4
aa(lp133
F2.0
aF2.0
aF2.0
aF4.0
ag4
aa(lp134
F2.0
aF2.0
aF2.0
aF5.0
ag4
aa(lp135
F2.0
aF2.0
aF3.0
aF1.0
ag29
aa(lp136
F2.0
aF2.0
aF3.0
aF2.0
ag4
aa(lp137
F2.0
aF2.0
aF3.0
aF3.0
ag4
aa(lp138
F2.0
aF2.0
aF3.0
aF4.0
ag4
aa(lp139
F2.0
aF2.0
aF3.0
aF5.0
ag4
aa(lp140
F2.0
aF2.0
aF4.0
aF1.0
ag2
aa(lp141
F2.0
aF2.0
aF4.0
aF2.0
ag4
aa(lp142
F2.0
aF2.0
aF4.0
aF3.0
ag4
aa(lp143
F2.0
aF2.0
aF4.0
aF4.0
ag4
aa(lp144
F2.0
aF2.0
aF4.0
aF5.0
ag4
aa(lp145
F2.0
aF2.0
aF5.0
aF1.0
ag4
aa(lp146
F2.0
aF2.0
aF5.0
aF2.0
ag4
aa(lp147
F2.0
aF2.0
aF5.0
aF3.0
ag4
aa(lp148
F2.0
aF2.0
aF5.0
aF4.0
ag4
aa(lp149
F2.0
aF2.0
aF5.0
aF5.0
ag4
aa(lp150
F2.0
aF3.0
aF1.0
aF1.0
ag29
aa(lp151
F2.0
aF3.0
aF1.0
aF2.0
ag29
aa(lp152
F2.0
aF3.0
aF1.0
aF3.0
ag29
aa(lp153
F2.0
aF3.0
aF1.0
aF4.0
ag29
aa(lp154
F2.0
aF3.0
aF1.0
aF5.0
ag29
aa(lp155
F2.0
aF3.0
aF2.0
aF1.0
ag29
aa(lp156
F2.0
aF3.0
aF2.0
aF2.0
ag29
aa(lp157
F2.0
aF3.0
aF2.0
aF4.0
ag4
aa(lp158
F2.0
aF3.0
aF2.0
aF5.0
ag4
aa(lp159
F2.0
aF3.0
aF3.0
aF1.0
ag29
aa(lp160
F2.0
aF3.0
aF3.0
aF3.0
ag4
aa(lp161
F2.0
aF3.0
aF3.0
aF4.0
ag4
aa(lp162
F2.0
aF3.0
aF3.0
aF5.0
ag4
aa(lp163
F2.0
aF3.0
aF4.0
aF1.0
ag29
aa(lp164
F2.0
aF3.0
aF4.0
aF2.0
ag4
aa(lp165
F2.0
aF3.0
aF4.0
aF3.0
ag4
aa(lp166
F2.0
aF3.0
aF4.0
aF4.0
ag4
aa(lp167
F2.0
aF3.0
aF4.0
aF5.0
ag4
aa(lp168
F2.0
aF3.0
aF5.0
aF1.0
ag29
aa(lp169
F2.0
aF3.0
aF5.0
aF2.0
ag4
aa(lp170
F2.0
aF3.0
aF5.0
aF3.0
ag4
aa(lp171
F2.0
aF3.0
aF5.0
aF4.0
ag4
aa(lp172
F2.0
aF3.0
aF5.0
aF5.0
ag4
aa(lp173
F2.0
aF4.0
aF1.0
aF1.0
ag29
aa(lp174
F2.0
aF4.0
aF1.0
aF2.0
ag29
aa(lp175
F2.0
aF4.0
aF1.0
aF3.0
ag29
aa(lp176
F2.0
aF4.0
aF1.0
aF4.0
ag29
aa(lp177
F2.0
aF4.0
aF1.0
aF5.0
ag29
aa(lp178
F2.0
aF4.0
aF2.0
aF1.0
ag29
aa(lp179
F2.0
aF4.0
aF2.0
aF2.0
ag29
aa(lp180
F2.0
aF4.0
aF2.0
aF3.0
ag29
aa(lp181
F2.0
aF4.0
aF2.0
aF5.0
ag4
aa(lp182
F2.0
aF4.0
aF3.0
aF1.0
ag29
aa(lp183
F2.0
aF4.0
aF3.0
aF2.0
ag29
aa(lp184
F2.0
aF4.0
aF3.0
aF3.0
ag4
aa(lp185
F2.0
aF4.0
aF3.0
aF4.0
ag4
aa(lp186
F2.0
aF4.0
aF3.0
aF5.0
ag4
aa(lp187
F2.0
aF4.0
aF4.0
aF1.0
ag29
aa(lp188
F2.0
aF4.0
aF4.0
aF3.0
ag4
aa(lp189
F2.0
aF4.0
aF4.0
aF4.0
ag4
aa(lp190
F2.0
aF4.0
aF4.0
aF5.0
ag4
aa(lp191
F2.0
aF4.0
aF5.0
aF1.0
ag29
aa(lp192
F2.0
aF4.0
aF5.0
aF2.0
ag4
aa(lp193
F2.0
aF4.0
aF5.0
aF3.0
ag4
aa(lp194
F2.0
aF4.0
aF5.0
aF4.0
ag4
aa(lp195
F2.0
aF4.0
aF5.0
aF5.0
ag4
aa(lp196
F2.0
aF5.0
aF1.0
aF1.0
ag29
aa(lp197
F2.0
aF5.0
aF1.0
aF2.0
ag29
aa(lp198
F2.0
aF5.0
aF1.0
aF3.0
ag29
aa(lp199
F2.0
aF5.0
aF1.0
aF4.0
ag29
aa(lp200
F2.0
aF5.0
aF1.0
aF5.0
ag29
aa(lp201
F2.0
aF5.0
aF2.0
aF1.0
ag29
aa(lp202
F2.0
aF5.0
aF2.0
aF2.0
ag29
aa(lp203
F2.0
aF5.0
aF2.0
aF3.0
ag29
aa(lp204
F2.0
aF5.0
aF2.0
aF4.0
ag29
aa(lp205
F2.0
aF5.0
aF3.0
aF1.0
ag29
aa(lp206
F2.0
aF5.0
aF3.0
aF2.0
ag29
aa(lp207
F2.0
aF5.0
aF3.0
aF3.0
ag29
aa(lp208
F2.0
aF5.0
aF3.0
aF4.0
ag4
aa(lp209
F2.0
aF5.0
aF3.0
aF5.0
ag4
aa(lp210
F2.0
aF5.0
aF4.0
aF1.0
ag29
aa(lp211
F2.0
aF5.0
aF4.0
aF2.0
ag29
aa(lp212
F2.0
aF5.0
aF4.0
aF3.0
ag4
aa(lp213
F2.0
aF5.0
aF4.0
aF4.0
ag4
aa(lp214
F2.0
aF5.0
aF4.0
aF5.0
ag4
aa(lp215
F2.0
aF5.0
aF5.0
aF1.0
ag29
aa(lp216
F2.0
aF5.0
aF5.0
aF2.0
ag2
aa(lp217
F2.0
aF5.0
aF5.0
aF3.0
ag4
aa(lp218
F2.0
aF5.0
aF5.0
aF4.0
ag4
aa(lp219
F2.0
aF5.0
aF5.0
aF5.0
ag4
aa(lp220
F3.0
aF1.0
aF1.0
aF1.0
ag29
aa(lp221
F3.0
aF1.0
aF1.0
aF2.0
ag29
aa(lp222
F3.0
aF1.0
aF1.0
aF3.0
ag2
aa(lp223
F3.0
aF1.0
aF1.0
aF4.0
ag4
aa(lp224
F3.0
aF1.0
aF1.0
aF5.0
ag4
aa(lp225
F3.0
aF1.0
aF2.0
aF1.0
ag29
aa(lp226
F3.0
aF1.0
aF2.0
aF2.0
ag4
aa(lp227
F3.0
aF1.0
aF2.0
aF3.0
ag4
aa(lp228
F3.0
aF1.0
aF2.0
aF4.0
ag4
aa(lp229
F3.0
aF1.0
aF2.0
aF5.0
ag4
aa(lp230
F3.0
aF1.0
aF3.0
aF1.0
ag2
aa(lp231
F3.0
aF1.0
aF3.0
aF2.0
ag4
aa(lp232
F3.0
aF1.0
aF3.0
aF3.0
ag4
aa(lp233
F3.0
aF1.0
aF3.0
aF4.0
ag4
aa(lp234
F3.0
aF1.0
aF3.0
aF5.0
ag4
aa(lp235
F3.0
aF1.0
aF4.0
aF1.0
ag4
aa(lp236
F3.0
aF1.0
aF4.0
aF2.0
ag4
aa(lp237
F3.0
aF1.0
aF4.0
aF3.0
ag4
aa(lp238
F3.0
aF1.0
aF4.0
aF4.0
ag4
aa(lp239
F3.0
aF1.0
aF4.0
aF5.0
ag4
aa(lp240
F3.0
aF1.0
aF5.0
aF1.0
ag4
aa(lp241
F3.0
aF1.0
aF5.0
aF2.0
ag4
aa(lp242
F3.0
aF1.0
aF5.0
aF3.0
ag4
aa(lp243
F3.0
aF1.0
aF5.0
aF4.0
ag4
aa(lp244
F3.0
aF1.0
aF5.0
aF5.0
ag4
aa(lp245
F3.0
aF2.0
aF1.0
aF1.0
ag29
aa(lp246
F3.0
aF2.0
aF1.0
aF2.0
ag29
aa(lp247
F3.0
aF2.0
aF1.0
aF3.0
ag29
aa(lp248
F3.0
aF2.0
aF1.0
aF4.0
ag29
aa(lp249
F3.0
aF2.0
aF1.0
aF5.0
ag29
aa(lp250
F3.0
aF2.0
aF2.0
aF1.0
ag29
aa(lp251
F3.0
aF2.0
aF2.0
aF2.0
ag29
aa(lp252
F3.0
aF2.0
aF2.0
aF3.0
ag2
aa(lp253
F3.0
aF2.0
aF2.0
aF4.0
ag4
aa(lp254
F3.0
aF2.0
aF2.0
aF5.0
ag4
aa(lp255
F3.0
aF2.0
aF3.0
aF1.0
ag29
aa(lp256
F3.0
aF2.0
aF3.0
aF2.0
ag2
aa(lp257
F3.0
aF2.0
aF3.0
aF3.0
ag4
aa(lp258
F3.0
aF2.0
aF3.0
aF4.0
ag4
aa(lp259
F3.0
aF2.0
aF3.0
aF5.0
ag4
aa(lp260
F3.0
aF2.0
aF4.0
aF1.0
ag29
aa(lp261
F3.0
aF2.0
aF4.0
aF2.0
ag4
aa(lp262
F3.0
aF2.0
aF4.0
aF3.0
ag4
aa(lp263
F3.0
aF2.0
aF4.0
aF4.0
ag4
aa(lp264
F3.0
aF2.0
aF4.0
aF5.0
ag4
aa(lp265
F3.0
aF2.0
aF5.0
aF1.0
ag29
aa(lp266
F3.0
aF2.0
aF5.0
aF2.0
ag4
aa(lp267
F3.0
aF2.0
aF5.0
aF3.0
ag4
aa(lp268
F3.0
aF2.0
aF5.0
aF4.0
ag4
aa(lp269
F3.0
aF2.0
aF5.0
aF5.0
ag4
aa(lp270
F3.0
aF3.0
aF1.0
aF1.0
ag29
aa(lp271
F3.0
aF3.0
aF1.0
aF2.0
ag29
aa(lp272
F3.0
aF3.0
aF1.0
aF3.0
ag29
aa(lp273
F3.0
aF3.0
aF1.0
aF4.0
ag29
aa(lp274
F3.0
aF3.0
aF1.0
aF5.0
ag29
aa(lp275
F3.0
aF3.0
aF2.0
aF1.0
ag29
aa(lp276
F3.0
aF3.0
aF2.0
aF2.0
ag29
aa(lp277
F3.0
aF3.0
aF2.0
aF3.0
ag29
aa(lp278
F3.0
aF3.0
aF2.0
aF4.0
ag29
aa(lp279
F3.0
aF3.0
aF2.0
aF5.0
ag4
aa(lp280
F3.0
aF3.0
aF3.0
aF1.0
ag29
aa(lp281
F3.0
aF3.0
aF3.0
aF2.0
ag29
aa(lp282
F3.0
aF3.0
aF3.0
aF3.0
ag2
aa(lp283
F3.0
aF3.0
aF3.0
aF4.0
ag4
aa(lp284
F3.0
aF3.0
aF3.0
aF5.0
ag4
aa(lp285
F3.0
aF3.0
aF4.0
aF1.0
ag29
aa(lp286
F3.0
aF3.0
aF4.0
aF2.0
ag29
aa(lp287
F3.0
aF3.0
aF4.0
aF3.0
ag4
aa(lp288
F3.0
aF3.0
aF4.0
aF4.0
ag4
aa(lp289
F3.0
aF3.0
aF4.0
aF5.0
ag4
aa(lp290
F3.0
aF3.0
aF5.0
aF1.0
ag29
aa(lp291
F3.0
aF3.0
aF5.0
aF2.0
ag4
aa(lp292
F3.0
aF3.0
aF5.0
aF3.0
ag4
aa(lp293
F3.0
aF3.0
aF5.0
aF4.0
ag4
aa(lp294
F3.0
aF3.0
aF5.0
aF5.0
ag4
aa(lp295
F3.0
aF4.0
aF3.0
aF4.0
ag2
aa(lp296
F3.0
aF4.0
aF3.0
aF5.0
ag4
aa(lp297
F3.0
aF4.0
aF4.0
aF3.0
ag2
aa(lp298
F3.0
aF4.0
aF4.0
aF4.0
ag4
aa(lp299
F3.0
aF4.0
aF4.0
aF5.0
ag4
aa(lp300
F3.0
aF4.0
aF5.0
aF3.0
ag4
aa(lp301
F3.0
aF4.0
aF5.0
aF4.0
ag4
aa(lp302
F3.0
aF4.0
aF5.0
aF5.0
ag4
aa(lp303
F3.0
aF5.0
aF3.0
aF3.0
ag29
aa(lp304
F3.0
aF5.0
aF3.0
aF4.0
ag29
aa(lp305
F3.0
aF5.0
aF3.0
aF5.0
ag2
aa(lp306
F3.0
aF5.0
aF4.0
aF1.0
ag29
aa(lp307
F3.0
aF5.0
aF4.0
aF2.0
ag29
aa(lp308
F3.0
aF5.0
aF4.0
aF3.0
ag29
aa(lp309
F3.0
aF5.0
aF4.0
aF4.0
ag4
aa(lp310
F3.0
aF5.0
aF4.0
aF5.0
ag4
aa(lp311
F3.0
aF5.0
aF5.0
aF1.0
ag29
aa(lp312
F3.0
aF5.0
aF5.0
aF2.0
ag29
aa(lp313
F3.0
aF5.0
aF5.0
aF3.0
ag2
aa(lp314
F3.0
aF5.0
aF5.0
aF4.0
ag4
aa(lp315
F3.0
aF5.0
aF5.0
aF5.0
ag4
aa(lp316
F4.0
aF1.0
aF1.0
aF1.0
ag29
aa(lp317
F4.0
aF1.0
aF1.0
aF2.0
ag29
aa(lp318
F4.0
aF1.0
aF1.0
aF3.0
ag29
aa(lp319
F4.0
aF1.0
aF1.0
aF4.0
ag2
aa(lp320
F4.0
aF1.0
aF1.0
aF5.0
ag4
aa(lp321
F4.0
aF1.0
aF2.0
aF1.0
ag29
aa(lp322
F4.0
aF1.0
aF2.0
aF2.0
ag2
aa(lp323
F4.0
aF1.0
aF2.0
aF3.0
ag4
aa(lp324
F4.0
aF1.0
aF2.0
aF4.0
ag4
aa(lp325
F4.0
aF1.0
aF2.0
aF5.0
ag4
aa(lp326
F4.0
aF1.0
aF3.0
aF1.0
ag29
aa(lp327
F4.0
aF1.0
aF3.0
aF2.0
ag4
aa(lp328
F4.0
aF1.0
aF3.0
aF3.0
ag4
aa(lp329
F4.0
aF1.0
aF3.0
aF4.0
ag4
aa(lp330
F4.0
aF1.0
aF3.0
aF5.0
ag4
aa(lp331
F4.0
aF1.0
aF4.0
aF1.0
ag2
aa(lp332
F4.0
aF1.0
aF4.0
aF2.0
ag4
aa(lp333
F4.0
aF1.0
aF4.0
aF3.0
ag4
aa(lp334
F4.0
aF1.0
aF4.0
aF4.0
ag4
aa(lp335
F4.0
aF1.0
aF4.0
aF5.0
ag4
aa(lp336
F4.0
aF1.0
aF5.0
aF1.0
ag4
aa(lp337
F4.0
aF1.0
aF5.0
aF2.0
ag4
aa(lp338
F4.0
aF1.0
aF5.0
aF3.0
ag4
aa(lp339
F4.0
aF1.0
aF5.0
aF4.0
ag4
aa(lp340
F4.0
aF1.0
aF5.0
aF5.0
ag4
aa(lp341
F4.0
aF2.0
aF1.0
aF1.0
ag29
aa(lp342
F4.0
aF2.0
aF1.0
aF2.0
ag29
aa(lp343
F4.0
aF2.0
aF1.0
aF3.0
ag29
aa(lp344
F4.0
aF2.0
aF1.0
aF4.0
ag29
aa(lp345
F4.0
aF2.0
aF1.0
aF5.0
ag29
aa(lp346
F4.0
aF2.0
aF2.0
aF1.0
ag29
aa(lp347
F4.0
aF2.0
aF2.0
aF2.0
ag29
aa(lp348
F4.0
aF2.0
aF2.0
aF3.0
ag29
aa(lp349
F4.0
aF2.0
aF2.0
aF4.0
ag2
aa(lp350
F4.0
aF2.0
aF2.0
aF5.0
ag4
aa(lp351
F4.0
aF2.0
aF3.0
aF1.0
ag29
aa(lp352
F4.0
aF2.0
aF3.0
aF2.0
ag29
aa(lp353
F4.0
aF2.0
aF3.0
aF3.0
ag4
aa(lp354
F4.0
aF2.0
aF3.0
aF4.0
ag4
aa(lp355
F4.0
aF2.0
aF3.0
aF5.0
ag4
aa(lp356
F4.0
aF2.0
aF4.0
aF1.0
ag29
aa(lp357
F4.0
aF2.0
aF4.0
aF2.0
ag2
aa(lp358
F4.0
aF2.0
aF4.0
aF3.0
ag4
aa(lp359
F4.0
aF2.0
aF4.0
aF4.0
ag4
aa(lp360
F4.0
aF2.0
aF4.0
aF5.0
ag4
aa(lp361
F4.0
aF2.0
aF5.0
aF1.0
ag29
aa(lp362
F4.0
aF2.0
aF5.0
aF2.0
ag4
aa(lp363
F4.0
aF2.0
aF5.0
aF3.0
ag4
aa(lp364
F4.0
aF2.0
aF5.0
aF4.0
ag4
aa(lp365
F4.0
aF2.0
aF5.0
aF5.0
ag4
aa(lp366
F4.0
aF3.0
aF1.0
aF1.0
ag29
aa(lp367
F4.0
aF3.0
aF1.0
aF2.0
ag29
aa(lp368
F4.0
aF3.0
aF1.0
aF3.0
ag29
aa(lp369
F4.0
aF3.0
aF1.0
aF4.0
ag29
aa(lp370
F4.0
aF3.0
aF1.0
aF5.0
ag29
aa(lp371
F4.0
aF3.0
aF2.0
aF1.0
ag29
aa(lp372
F4.0
aF3.0
aF2.0
aF2.0
ag29
aa(lp373
F4.0
aF3.0
aF2.0
aF3.0
ag29
aa(lp374
F4.0
aF3.0
aF2.0
aF4.0
ag29
aa(lp375
F4.0
aF3.0
aF2.0
aF5.0
ag29
aa(lp376
F4.0
aF3.0
aF3.0
aF1.0
ag29
aa(lp377
F4.0
aF3.0
aF3.0
aF2.0
ag29
aa(lp378
F4.0
aF3.0
aF3.0
aF3.0
ag29
aa(lp379
F4.0
aF3.0
aF3.0
aF4.0
ag2
aa(lp380
F4.0
aF3.0
aF3.0
aF5.0
ag4
aa(lp381
F4.0
aF3.0
aF4.0
aF1.0
ag29
aa(lp382
F4.0
aF3.0
aF4.0
aF2.0
ag29
aa(lp383
F4.0
aF3.0
aF4.0
aF3.0
ag2
aa(lp384
F4.0
aF3.0
aF4.0
aF4.0
ag4
aa(lp385
F4.0
aF3.0
aF4.0
aF5.0
ag4
aa(lp386
F4.0
aF3.0
aF5.0
aF1.0
ag29
aa(lp387
F4.0
aF3.0
aF5.0
aF2.0
ag29
aa(lp388
F4.0
aF3.0
aF5.0
aF3.0
ag4
aa(lp389
F4.0
aF3.0
aF5.0
aF4.0
ag4
aa(lp390
F4.0
aF3.0
aF5.0
aF5.0
ag4
aa(lp391
F4.0
aF4.0
aF1.0
aF1.0
ag29
aa(lp392
F4.0
aF4.0
aF1.0
aF2.0
ag29
aa(lp393
F4.0
aF4.0
aF1.0
aF3.0
ag29
aa(lp394
F4.0
aF4.0
aF1.0
aF4.0
ag29
aa(lp395
F4.0
aF4.0
aF1.0
aF5.0
ag29
aa(lp396
F4.0
aF4.0
aF2.0
aF1.0
ag29
aa(lp397
F4.0
aF4.0
aF2.0
aF2.0
ag29
aa(lp398
F4.0
aF4.0
aF2.0
aF3.0
ag29
aa(lp399
F4.0
aF4.0
aF2.0
aF4.0
ag29
aa(lp400
F4.0
aF4.0
aF2.0
aF5.0
ag29
aa(lp401
F4.0
aF4.0
aF3.0
aF1.0
ag29
aa(lp402
F4.0
aF4.0
aF3.0
aF2.0
ag29
aa(lp403
F4.0
aF4.0
aF3.0
aF3.0
ag29
aa(lp404
F4.0
aF4.0
aF3.0
aF4.0
ag29
aa(lp405
F4.0
aF4.0
aF3.0
aF5.0
ag29
aa(lp406
F4.0
aF4.0
aF4.0
aF1.0
ag29
aa(lp407
F4.0
aF4.0
aF4.0
aF2.0
ag29
aa(lp408
F4.0
aF4.0
aF4.0
aF3.0
ag29
aa(lp409
F4.0
aF4.0
aF4.0
aF4.0
ag2
aa(lp410
F4.0
aF4.0
aF4.0
aF5.0
ag4
aa(lp411
F4.0
aF4.0
aF5.0
aF1.0
ag29
aa(lp412
F4.0
aF4.0
aF5.0
aF2.0
ag29
aa(lp413
F4.0
aF4.0
aF5.0
aF3.0
ag29
aa(lp414
F4.0
aF4.0
aF5.0
aF4.0
ag4
aa(lp415
F4.0
aF4.0
aF5.0
aF5.0
ag4
aa(lp416
F4.0
aF5.0
aF1.0
aF1.0
ag29
aa(lp417
F4.0
aF5.0
aF1.0
aF2.0
ag29
aa(lp418
F4.0
aF5.0
aF1.0
aF3.0
ag29
aa(lp419
F4.0
aF5.0
aF1.0
aF4.0
ag29
aa(lp420
F4.0
aF5.0
aF1.0
aF5.0
ag29
aa(lp421
F4.0
aF5.0
aF2.0
aF1.0
ag29
aa(lp422
F4.0
aF5.0
aF2.0
aF2.0
ag29
aa(lp423
F4.0
aF5.0
aF2.0
aF3.0
ag29
aa(lp424
F4.0
aF5.0
aF2.0
aF4.0
ag29
aa(lp425
F4.0
aF5.0
aF2.0
aF5.0
ag29
aa(lp426
F4.0
aF5.0
aF3.0
aF1.0
ag29
aa(lp427
F4.0
aF5.0
aF3.0
aF2.0
ag29
aa(lp428
F4.0
aF5.0
aF3.0
aF3.0
ag29
aa(lp429
F4.0
aF5.0
aF3.0
aF4.0
ag29
aa(lp430
F4.0
aF5.0
aF3.0
aF5.0
ag29
aa(lp431
F4.0
aF5.0
aF4.0
aF1.0
ag29
aa(lp432
F4.0
aF5.0
aF4.0
aF2.0
ag29
aa(lp433
F4.0
aF5.0
aF4.0
aF3.0
ag29
aa(lp434
F4.0
aF5.0
aF4.0
aF4.0
ag29
aa(lp435
F4.0
aF5.0
aF4.0
aF5.0
ag2
aa(lp436
F4.0
aF5.0
aF5.0
aF1.0
ag29
aa(lp437
F4.0
aF5.0
aF5.0
aF2.0
ag29
aa(lp438
F4.0
aF5.0
aF5.0
aF3.0
ag29
aa(lp439
F4.0
aF5.0
aF5.0
aF4.0
ag2
aa(lp440
F4.0
aF5.0
aF5.0
aF5.0
ag4
aa(lp441
F5.0
aF1.0
aF1.0
aF1.0
ag29
aa(lp442
F5.0
aF1.0
aF1.0
aF2.0
ag29
aa(lp443
F5.0
aF1.0
aF1.0
aF3.0
ag29
aa(lp444
F5.0
aF1.0
aF1.0
aF4.0
ag29
aa(lp445
F5.0
aF1.0
aF1.0
aF5.0
ag2
aa(lp446
F5.0
aF1.0
aF2.0
aF1.0
ag29
aa(lp447
F5.0
aF1.0
aF2.0
aF2.0
ag29
aa(lp448
F5.0
aF1.0
aF2.0
aF3.0
ag4
aa(lp449
F5.0
aF1.0
aF2.0
aF4.0
ag4
aa(lp450
F5.0
aF1.0
aF2.0
aF5.0
ag4
aa(lp451
F5.0
aF1.0
aF3.0
aF1.0
ag29
aa(lp452
F5.0
aF1.0
aF3.0
aF2.0
ag4
aa(lp453
F5.0
aF1.0
aF3.0
aF3.0
ag4
aa(lp454
F5.0
aF1.0
aF3.0
aF4.0
ag4
aa(lp455
F5.0
aF1.0
aF3.0
aF5.0
ag4
aa(lp456
F5.0
aF1.0
aF4.0
aF1.0
ag29
aa(lp457
F5.0
aF1.0
aF4.0
aF2.0
ag4
aa(lp458
F5.0
aF1.0
aF4.0
aF3.0
ag4
aa(lp459
F5.0
aF1.0
aF4.0
aF4.0
ag4
aa(lp460
F5.0
aF1.0
aF4.0
aF5.0
ag4
aa(lp461
F5.0
aF1.0
aF5.0
aF1.0
ag2
aa(lp462
F5.0
aF1.0
aF5.0
aF2.0
ag4
aa(lp463
F5.0
aF1.0
aF5.0
aF3.0
ag4
aa(lp464
F5.0
aF1.0
aF5.0
aF4.0
ag4
aa(lp465
F5.0
aF1.0
aF5.0
aF5.0
ag4
aa(lp466
F5.0
aF2.0
aF1.0
aF1.0
ag29
aa(lp467
F5.0
aF2.0
aF1.0
aF2.0
ag29
aa(lp468
F5.0
aF2.0
aF1.0
aF3.0
ag29
aa(lp469
F5.0
aF2.0
aF1.0
aF4.0
ag29
aa(lp470
F5.0
aF2.0
aF1.0
aF5.0
ag29
aa(lp471
F5.0
aF2.0
aF2.0
aF1.0
ag29
aa(lp472
F5.0
aF2.0
aF2.0
aF2.0
ag29
aa(lp473
F5.0
aF2.0
aF2.0
aF3.0
ag29
aa(lp474
F5.0
aF2.0
aF2.0
aF4.0
ag29
aa(lp475
F5.0
aF2.0
aF2.0
aF5.0
ag2
aa(lp476
F5.0
aF2.0
aF3.0
aF1.0
ag29
aa(lp477
F5.0
aF2.0
aF3.0
aF2.0
ag29
aa(lp478
F5.0
aF2.0
aF3.0
aF3.0
ag29
aa(lp479
F5.0
aF2.0
aF3.0
aF4.0
ag4
aa(lp480
F5.0
aF2.0
aF3.0
aF5.0
ag4
aa(lp481
F5.0
aF2.0
aF4.0
aF1.0
ag29
aa(lp482
F5.0
aF2.0
aF4.0
aF2.0
ag29
aa(lp483
F5.0
aF2.0
aF4.0
aF3.0
ag4
aa(lp484
F5.0
aF2.0
aF4.0
aF4.0
ag4
aa(lp485
F5.0
aF2.0
aF4.0
aF5.0
ag4
aa(lp486
F5.0
aF2.0
aF5.0
aF1.0
ag29
aa(lp487
F5.0
aF2.0
aF5.0
aF2.0
ag2
aa(lp488
F5.0
aF2.0
aF5.0
aF3.0
ag4
aa(lp489
F5.0
aF2.0
aF5.0
aF4.0
ag4
aa(lp490
F5.0
aF2.0
aF5.0
aF5.0
ag4
aa(lp491
F5.0
aF3.0
aF1.0
aF1.0
ag29
aa(lp492
F5.0
aF3.0
aF1.0
aF2.0
ag29
aa(lp493
F5.0
aF3.0
aF1.0
aF3.0
ag29
aa(lp494
F5.0
aF3.0
aF1.0
aF4.0
ag29
aa(lp495
F5.0
aF3.0
aF1.0
aF5.0
ag29
aa(lp496
F5.0
aF3.0
aF2.0
aF1.0
ag29
aa(lp497
F5.0
aF3.0
aF2.0
aF2.0
ag29
aa(lp498
F5.0
aF3.0
aF2.0
aF3.0
ag29
aa(lp499
F5.0
aF3.0
aF2.0
aF4.0
ag29
aa(lp500
F5.0
aF3.0
aF2.0
aF5.0
ag29
aa(lp501
F5.0
aF3.0
aF3.0
aF1.0
ag29
aa(lp502
F5.0
aF3.0
aF3.0
aF2.0
ag29
aa(lp503
F5.0
aF3.0
aF3.0
aF3.0
ag29
aa(lp504
F5.0
aF3.0
aF3.0
aF4.0
ag29
aa(lp505
F5.0
aF3.0
aF3.0
aF5.0
ag2
aa(lp506
F5.0
aF3.0
aF4.0
aF1.0
ag29
aa(lp507
F5.0
aF3.0
aF4.0
aF2.0
ag29
aa(lp508
F5.0
aF3.0
aF4.0
aF3.0
ag29
aa(lp509
F5.0
aF3.0
aF4.0
aF4.0
ag4
aa(lp510
F5.0
aF3.0
aF4.0
aF5.0
ag4
aa(lp511
F5.0
aF3.0
aF5.0
aF1.0
ag29
aa(lp512
F5.0
aF3.0
aF5.0
aF2.0
ag29
aa(lp513
F5.0
aF3.0
aF5.0
aF3.0
ag2
aa(lp514
F5.0
aF3.0
aF5.0
aF4.0
ag4
aa(lp515
F5.0
aF3.0
aF5.0
aF5.0
ag4
aa(lp516
F5.0
aF4.0
aF1.0
aF1.0
ag29
aa(lp517
F5.0
aF4.0
aF1.0
aF2.0
ag29
aa(lp518
F5.0
aF4.0
aF1.0
aF3.0
ag29
aa(lp519
F5.0
aF4.0
aF1.0
aF4.0
ag29
aa(lp520
F5.0
aF4.0
aF1.0
aF5.0
ag29
aa(lp521
F5.0
aF4.0
aF2.0
aF1.0
ag29
aa(lp522
F5.0
aF4.0
aF2.0
aF2.0
ag29
aa(lp523
F5.0
aF4.0
aF2.0
aF3.0
ag29
aa(lp524
F5.0
aF4.0
aF2.0
aF4.0
ag29
aa(lp525
F5.0
aF4.0
aF2.0
aF5.0
ag29
aa(lp526
F5.0
aF4.0
aF3.0
aF1.0
ag29
aa(lp527
F5.0
aF4.0
aF3.0
aF2.0
ag29
aa(lp528
F5.0
aF4.0
aF3.0
aF3.0
ag29
aa(lp529
F5.0
aF4.0
aF3.0
aF4.0
ag29
aa(lp530
F5.0
aF4.0
aF3.0
aF5.0
ag29
aa(lp531
F5.0
aF4.0
aF4.0
aF1.0
ag29
aa(lp532
F5.0
aF4.0
aF4.0
aF2.0
ag29
aa(lp533
F5.0
aF4.0
aF4.0
aF3.0
ag29
aa(lp534
F5.0
aF4.0
aF4.0
aF4.0
ag29
aa(lp535
F5.0
aF4.0
aF4.0
aF5.0
ag2
aa(lp536
F5.0
aF4.0
aF5.0
aF1.0
ag29
aa(lp537
F5.0
aF4.0
aF5.0
aF2.0
ag29
aa(lp538
F5.0
aF4.0
aF5.0
aF3.0
ag29
aa(lp539
F5.0
aF4.0
aF5.0
aF4.0
ag2
aa(lp540
F5.0
aF4.0
aF5.0
aF5.0
ag4
aa(lp541
F5.0
aF5.0
aF1.0
aF1.0
ag29
aa(lp542
F5.0
aF5.0
aF1.0
aF2.0
ag29
aa(lp543
F5.0
aF5.0
aF1.0
aF3.0
ag29
aa(lp544
F5.0
aF5.0
aF1.0
aF4.0
ag29
aa(lp545
F5.0
aF5.0
aF1.0
aF5.0
ag29
aa(lp546
F5.0
aF5.0
aF2.0
aF1.0
ag29
aa(lp547
F5.0
aF5.0
aF2.0
aF2.0
ag29
aa(lp548
F5.0
aF5.0
aF2.0
aF3.0
ag29
aa(lp549
F5.0
aF5.0
aF2.0
aF4.0
ag29
aa(lp550
F5.0
aF5.0
aF2.0
aF5.0
ag29
aa(lp551
F5.0
aF5.0
aF3.0
aF1.0
ag29
aa(lp552
F5.0
aF5.0
aF3.0
aF2.0
ag29
aa(lp553
F5.0
aF5.0
aF3.0
aF3.0
ag29
aa(lp554
F5.0
aF5.0
aF3.0
aF4.0
ag29
aa(lp555
F5.0
aF5.0
aF3.0
aF5.0
ag29
aa(lp556
F5.0
aF5.0
aF4.0
aF1.0
ag29
aa(lp557
F5.0
aF5.0
aF4.0
aF2.0
ag29
aa(lp558
F5.0
aF5.0
aF4.0
aF3.0
ag29
aa(lp559
F5.0
aF5.0
aF4.0
aF4.0
ag29
aa(lp560
F5.0
aF5.0
aF4.0
aF5.0
ag29
aa(lp561
F5.0
aF5.0
aF5.0
aF1.0
ag29
aa(lp562
F5.0
aF5.0
aF5.0
aF2.0
ag29
aa(lp563
F5.0
aF5.0
aF5.0
aF3.0
ag29
aa(lp564
F5.0
aF5.0
aF5.0
aF4.0
ag29
aa(lp565
F5.0
aF5.0
aF5.0
aF5.0
ag2
aa.