(lp0
(lp1
F5.5
aF2.4
aF3.8
aF1.1
aS'Iris-versicolor'
p2
aa(lp3
F6.3
aF2.9
aF5.6
aF1.8
aS'Iris-virginica'
p4
aa(lp5
F5.2
aF2.7
aF3.9
aF1.4
aS'Iris-versicolor'
p6
aa(lp7
F7.7
aF3.0
aF6.1
aF2.3
aS'Iris-virginica'
p8
aa(lp9
F5.2
aF3.4
aF1.4
aF0.2
aS'Iris-setosa'
p10
aa(lp11
F4.6
aF3.6
aF1.0
aF0.2
aS'Iris-setosa'
p12
aa(lp13
F6.0
aF2.2
aF4.0
aF1.0
aS'Iris-versicolor'
p14
aa(lp15
F5.6
aF2.8
aF4.9
aF2.0
aS'Iris-virginica'
p16
aa(lp17
F6.8
aF3.0
aF5.5
aF2.1
aS'Iris-virginica'
p18
aa(lp19
F6.6
aF2.9
aF4.6
aF1.3
aS'Iris-versicolor'
p20
aa(lp21
F4.3
aF3.0
aF1.1
aF0.1
aS'Iris-setosa'
p22
aa(lp23
F4.9
aF2.4
aF3.3
aF1.0
aS'Iris-versicolor'
p24
aa(lp25
F6.7
aF3.3
aF5.7
aF2.1
aS'Iris-virginica'
p26
aa(lp27
F5.0
aF3.4
aF1.6
aF0.4
aS'Iris-setosa'
p28
aa(lp29
F5.8
aF4.0
aF1.2
aF0.2
aS'Iris-setosa'
p30
aa(lp31
F7.3
aF2.9
aF6.3
aF1.8
aS'Iris-virginica'
p32
aa(lp33
F7.1
aF3.0
aF5.9
aF2.1
aS'Iris-virginica'
p34
aa(lp35
F5.0
aF3.6
aF1.4
aF0.2
aS'Iris-setosa'
p36
aa(lp37
F4.7
aF3.2
aF1.6
aF0.2
aS'Iris-setosa'
p38
aa(lp39
F5.1
aF3.7
aF1.5
aF0.4
aS'Iris-setosa'
p40
aa(lp41
F5.0
aF3.5
aF1.3
aF0.3
aS'Iris-setosa'
p42
aa(lp43
F6.2
aF3.4
aF5.4
aF2.3
aS'Iris-virginica'
p44
aa(lp45
F5.8
aF2.7
aF5.1
aF1.9
aS'Iris-virginica'
p46
aa(lp47
F5.8
aF2.7
aF4.1
aF1.0
aS'Iris-versicolor'
p48
aa(lp49
F4.8
aF3.4
aF1.9
aF0.2
aS'Iris-setosa'
p50
aa(lp51
F6.7
aF3.1
aF4.7
aF1.5
aS'Iris-versicolor'
p52
aa(lp53
F5.4
aF3.0
aF4.5
aF1.5
aS'Iris-versicolor'
p54
aa(lp55
F6.1
aF3.0
aF4.9
aF1.8
aS'Iris-virginica'
p56
aa(lp57
F6.6
aF3.0
aF4.4
aF1.4
aS'Iris-versicolor'
p58
aa(lp59
F4.9
aF3.1
aF1.5
aF0.1
aS'Iris-setosa'
p60
aa(lp61
F4.4
aF3.2
aF1.3
aF0.2
aS'Iris-setosa'
p62
aa(lp63
F5.0
aF2.0
aF3.5
aF1.0
aS'Iris-versicolor'
p64
aa(lp65
F6.1
aF2.8
aF4.7
aF1.2
aS'Iris-versicolor'
p66
aa(lp67
F5.0
aF3.5
aF1.6
aF0.6
aS'Iris-setosa'
p68
aa(lp69
F6.0
aF3.4
aF4.5
aF1.6
aS'Iris-versicolor'
p70
aa(lp71
F5.8
aF2.8
aF5.1
aF2.4
aS'Iris-virginica'
p72
aa(lp73
F5.1
aF2.5
aF3.0
aF1.1
aS'Iris-versicolor'
p74
aa(lp75
F7.7
aF2.8
aF6.7
aF2.0
aS'Iris-virginica'
p76
aa(lp77
F6.3
aF2.7
aF4.9
aF1.8
aS'Iris-virginica'
p78
aa.