(lp0
(lp1
F5.4
aF3.0
aF4.5
aF1.5
aS'Iris-versicolor'
p2
aa(lp3
F5.0
aF3.4
aF1.6
aF0.4
aS'Iris-setosa'
p4
aa(lp5
F6.1
aF2.9
aF4.7
aF1.4
aS'Iris-versicolor'
p6
aa(lp7
F5.4
aF3.9
aF1.3
aF0.4
aS'Iris-setosa'
p8
aa(lp9
F5.0
aF2.0
aF3.5
aF1.0
aS'Iris-versicolor'
p10
aa(lp11
F6.1
aF2.6
aF5.6
aF1.4
aS'Iris-virginica'
p12
aa(lp13
F7.2
aF3.2
aF6.0
aF1.8
aS'Iris-virginica'
p14
aa(lp15
F6.3
aF2.3
aF4.4
aF1.3
aS'Iris-versicolor'
p16
aa(lp17
F5.7
aF2.9
aF4.2
aF1.3
aS'Iris-versicolor'
p18
aa(lp19
F6.4
aF2.7
aF5.3
aF1.9
aS'Iris-virginica'
p20
aa(lp21
F6.1
aF3.0
aF4.9
aF1.8
aS'Iris-virginica'
p22
aa(lp23
F4.5
aF2.3
aF1.3
aF0.3
aS'Iris-setosa'
p24
aa(lp25
F6.3
aF2.8
aF5.1
aF1.5
aS'Iris-virginica'
p26
aa(lp27
F4.9
aF2.5
aF4.5
aF1.7
aS'Iris-virginica'
p28
aa(lp29
F5.6
aF2.9
aF3.6
aF1.3
aS'Iris-versicolor'
p30
aa(lp31
F6.7
aF3.3
aF5.7
aF2.1
aS'Iris-virginica'
p32
aa(lp33
F6.7
aF2.5
aF5.8
aF1.8
aS'Iris-virginica'
p34
aa(lp35
F6.4
aF2.8
aF5.6
aF2.2
aS'Iris-virginica'
p36
aa(lp37
F7.1
aF3.0
aF5.9
aF2.1
aS'Iris-virginica'
p38
aa(lp39
F5.1
aF3.8
aF1.9
aF0.4
aS'Iris-setosa'
p40
aa(lp41
F4.9
aF2.4
aF3.3
aF1.0
aS'Iris-versicolor'
p42
aa(lp43
F5.4
aF3.4
aF1.5
aF0.4
aS'Iris-setosa'
p44
aa(lp45
F5.6
aF2.5
aF3.9
aF1.1
aS'Iris-versicolor'
p46
aa(lp47
F5.2
aF3.4
aF1.4
aF0.2
aS'Iris-setosa'
p48
aa(lp49
F6.1
aF2.8
aF4.0
aF1.3
aS'Iris-versicolor'
p50
aa(lp51
F5.7
aF2.6
aF3.5
aF1.0
aS'Iris-versicolor'
p52
aa(lp53
F5.9
aF3.0
aF5.1
aF1.8
aS'Iris-virginica'
p54
aa(lp55
F5.9
aF3.0
aF4.2
aF1.5
aS'Iris-versicolor'
p56
aa(lp57
F4.8
aF3.0
aF1.4
aF0.3
aS'Iris-setosa'
p58
aa(lp59
F4.8
aF3.0
aF1.4
aF0.1
aS'Iris-setosa'
p60
aa(lp61
F6.3
aF2.5
aF4.9
aF1.5
aS'Iris-versicolor'
p62
aa(lp63
F5.5
aF2.4
aF3.7
aF1.0
aS'Iris-versicolor'
p64
aa(lp65
F6.0
aF3.0
aF4.8
aF1.8
aS'Iris-virginica'
p66
aa(lp67
F4.9
aF3.0
aF1.4
aF0.2
aS'Iris-setosa'
p68
aa(lp69
F4.3
aF3.0
aF1.1
aF0.1
aS'Iris-setosa'
p70
aa(lp71
F4.7
aF3.2
aF1.3
aF0.2
aS'Iris-setosa'
p72
aa(lp73
F6.5
aF3.0
aF5.8
aF2.2
aS'Iris-virginica'
p74
aa(lp75
F5.5
aF3.5
aF1.3
aF0.2
aS'Iris-setosa'
p76
aa(lp77
F5.0
aF3.4
aF1.5
aF0.2
aS'Iris-setosa'
p78
aa.