(lp0
(lp1
F6.9
aF3.2
aF5.7
aF2.3
aS'Iris-virginica'
p2
aa(lp3
F6.3
aF2.3
aF4.4
aF1.3
aS'Iris-versicolor'
p4
aa(lp5
F6.1
aF3.0
aF4.6
aF1.4
aS'Iris-versicolor'
p6
aa(lp7
F5.0
aF2.0
aF3.5
aF1.0
aS'Iris-versicolor'
p8
aa(lp9
F5.5
aF2.4
aF3.7
aF1.0
aS'Iris-versicolor'
p10
aa(lp11
F7.0
aF3.2
aF4.7
aF1.4
aS'Iris-versicolor'
p12
aa(lp13
F6.7
aF3.3
aF5.7
aF2.1
aS'Iris-virginica'
p14
aa(lp15
F5.0
aF3.4
aF1.5
aF0.2
aS'Iris-setosa'
p16
aa(lp17
F4.6
aF3.4
aF1.4
aF0.3
aS'Iris-setosa'
p18
aa(lp19
F5.0
aF3.3
aF1.4
aF0.2
aS'Iris-setosa'
p20
aa(lp21
F4.8
aF3.0
aF1.4
aF0.1
aS'Iris-setosa'
p22
aa(lp23
F6.2
aF2.2
aF4.5
aF1.5
aS'Iris-versicolor'
p24
aa(lp25
F7.7
aF3.0
aF6.1
aF2.3
aS'Iris-virginica'
p26
aa(lp27
F7.4
aF2.8
aF6.1
aF1.9
aS'Iris-virginica'
p28
aa(lp29
F5.5
aF2.4
aF3.8
aF1.1
aS'Iris-versicolor'
p30
aa(lp31
F5.2
aF4.1
aF1.5
aF0.1
aS'Iris-setosa'
p32
aa(lp33
F5.4
aF3.9
aF1.3
aF0.4
aS'Iris-setosa'
p34
aa(lp35
F6.3
aF2.5
aF5.0
aF1.9
aS'Iris-virginica'
p36
aa(lp37
F6.7
aF3.1
aF4.7
aF1.5
aS'Iris-versicolor'
p38
aa(lp39
F6.3
aF3.4
aF5.6
aF2.4
aS'Iris-virginica'
p40
aa(lp41
F5.0
aF3.5
aF1.6
aF0.6
aS'Iris-setosa'
p42
aa(lp43
F6.8
aF3.2
aF5.9
aF2.3
aS'Iris-virginica'
p44
aa(lp45
F5.7
aF2.8
aF4.1
aF1.3
aS'Iris-versicolor'
p46
aa(lp47
F5.0
aF2.3
aF3.3
aF1.0
aS'Iris-versicolor'
p48
aa(lp49
F4.4
aF3.2
aF1.3
aF0.2
aS'Iris-setosa'
p50
aa(lp51
F5.4
aF3.4
aF1.5
aF0.4
aS'Iris-setosa'
p52
aa(lp53
F5.1
aF3.8
aF1.6
aF0.2
aS'Iris-setosa'
p54
aa(lp55
F6.4
aF2.7
aF5.3
aF1.9
aS'Iris-virginica'
p56
aa(lp57
F6.2
aF3.4
aF5.4
aF2.3
aS'Iris-virginica'
p58
aa(lp59
F5.4
aF3.0
aF4.5
aF1.5
aS'Iris-versicolor'
p60
aa(lp61
F6.0
aF2.2
aF5.0
aF1.5
aS'Iris-virginica'
p62
aa(lp63
F6.1
aF2.9
aF4.7
aF1.4
aS'Iris-versicolor'
p64
aa(lp65
F5.6
aF2.8
aF4.9
aF2.0
aS'Iris-virginica'
p66
aa(lp67
F6.0
aF3.4
aF4.5
aF1.6
aS'Iris-versicolor'
p68
aa(lp69
F6.7
aF3.1
aF4.4
aF1.4
aS'Iris-versicolor'
p70
aa(lp71
F4.9
aF3.1
aF1.5
aF0.1
aS'Iris-setosa'
p72
aa(lp73
F5.0
aF3.0
aF1.6
aF0.2
aS'Iris-setosa'
p74
aa(lp75
F6.7
aF3.3
aF5.7
aF2.5
aS'Iris-virginica'
p76
aa(lp77
F6.4
aF3.1
aF5.5
aF1.8
aS'Iris-virginica'
p78
aa(lp79
F7.2
aF3.2
aF6.0
aF1.8
aS'Iris-virginica'
p80
aa(lp81
F5.7
aF2.6
aF3.5
aF1.0
aS'Iris-versicolor'
p82
aa(lp83
F5.1
aF2.5
aF3.0
aF1.1
aS'Iris-versicolor'
p84
aa(lp85
F5.8
aF2.7
aF5.1
aF1.9
aS'Iris-virginica'
p86
aa(lp87
F6.7
aF3.0
aF5.2
aF2.3
aS'Iris-virginica'
p88
aa(lp89
F5.9
aF3.2
aF4.8
aF1.8
aS'Iris-versicolor'
p90
aa(lp91
F5.2
aF2.7
aF3.9
aF1.4
aS'Iris-versicolor'
p92
aa(lp93
F6.3
aF2.5
aF4.9
aF1.5
aS'Iris-versicolor'
p94
aa(lp95
F6.0
aF2.9
aF4.5
aF1.5
aS'Iris-versicolor'
p96
aa(lp97
F6.5
aF3.0
aF5.2
aF2.0
aS'Iris-virginica'
p98
aa(lp99
F5.7
aF2.9
aF4.2
aF1.3
aS'Iris-versicolor'
p100
aa(lp101
F7.9
aF3.8
aF6.4
aF2.0
aS'Iris-virginica'
p102
aa(lp103
F7.7
aF3.8
aF6.7
aF2.2
aS'Iris-virginica'
p104
aa(lp105
F6.1
aF2.6
aF5.6
aF1.4
aS'Iris-virginica'
p106
aa(lp107
F5.9
aF3.0
aF5.1
aF1.8
aS'Iris-virginica'
p108
aa(lp109
F5.7
aF2.5
aF5.0
aF2.0
aS'Iris-virginica'
p110
aa(lp111
F5.5
aF4.2
aF1.4
aF0.2
aS'Iris-setosa'
p112
aa(lp113
F7.2
aF3.0
aF5.8
aF1.6
aS'Iris-virginica'
p114
aa(lp115
F5.8
aF2.6
aF4.0
aF1.2
aS'Iris-versicolor'
p116
aa(lp117
F4.9
aF3.1
aF1.5
aF0.1
aS'Iris-setosa'
p118
aa(lp119
F4.9
aF3.0
aF1.4
aF0.2
aS'Iris-setosa'
p120
aa(lp121
F7.3
aF2.9
aF6.3
aF1.8
aS'Iris-virginica'
p122
aa(lp123
F4.9
aF2.5
aF4.5
aF1.7
aS'Iris-virginica'
p124
aa(lp125
F4.3
aF3.0
aF1.1
aF0.1
aS'Iris-setosa'
p126
aa(lp127
F6.5
aF3.0
aF5.8
aF2.2
aS'Iris-virginica'
p128
aa(lp129
F4.9
aF3.1
aF1.5
aF0.1
aS'Iris-setosa'
p130
aa(lp131
F5.7
aF3.0
aF4.2
aF1.2
aS'Iris-versicolor'
p132
aa(lp133
F5.5
aF2.5
aF4.0
aF1.3
aS'Iris-versicolor'
p134
aa(lp135
F4.6
aF3.6
aF1.0
aF0.2
aS'Iris-setosa'
p136
aa(lp137
F4.9
aF2.4
aF3.3
aF1.0
aS'Iris-versicolor'
p138
aa(lp139
F7.6
aF3.0
aF6.6
aF2.1
aS'Iris-virginica'
p140
aa(lp141
F7.7
aF2.6
aF6.9
aF2.3
aS'Iris-virginica'
p142
aa(lp143
F5.8
aF2.7
aF4.1
aF1.0
aS'Iris-versicolor'
p144
aa(lp145
F5.1
aF3.7
aF1.5
aF0.4
aS'Iris-setosa'
p146
aa(lp147
F5.3
aF3.7
aF1.5
aF0.2
aS'Iris-setosa'
p148
aa(lp149
F6.0
aF2.7
aF5.1
aF1.6
aS'Iris-versicolor'
p150
aa(lp151
F4.7
aF3.2
aF1.3
aF0.2
aS'Iris-setosa'
p152
aa(lp153
F5.0
aF3.6
aF1.4
aF0.2
aS'Iris-setosa'
p154
aa(lp155
F6.9
aF3.1
aF4.9
aF1.5
aS'Iris-versicolor'
p156
aa(lp157
F4.5
aF2.3
aF1.3
aF0.3
aS'Iris-setosa'
p158
aa(lp159
F5.1
aF3.3
aF1.7
aF0.5
aS'Iris-setosa'
p160
aa(lp161
F5.6
aF3.0
aF4.1
aF1.3
aS'Iris-versicolor'
p162
aa(lp163
F5.8
aF2.7
aF5.1
aF1.9
aS'Iris-virginica'
p164
aa(lp165
F4.6
aF3.1
aF1.5
aF0.2
aS'Iris-setosa'
p166
aa(lp167
F6.2
aF2.9
aF4.3
aF1.3
aS'Iris-versicolor'
p168
aa(lp169
F5.4
aF3.9
aF1.7
aF0.4
aS'Iris-setosa'
p170
aa(lp171
F5.8
aF4.0
aF1.2
aF0.2
aS'Iris-setosa'
p172
aa(lp173
F4.6
aF3.2
aF1.4
aF0.2
aS'Iris-setosa'
p174
aa(lp175
F6.8
aF2.8
aF4.8
aF1.4
aS'Iris-versicolor'
p176
aa(lp177
F5.2
aF3.5
aF1.5
aF0.2
aS'Iris-setosa'
p178
aa(lp179
F6.0
aF2.2
aF4.0
aF1.0
aS'Iris-versicolor'
p180
aa(lp181
F5.7
aF4.4
aF1.5
aF0.4
aS'Iris-setosa'
p182
aa(lp183
F5.0
aF3.5
aF1.3
aF0.3
aS'Iris-setosa'
p184
aa(lp185
F5.1
aF3.5
aF1.4
aF0.2
aS'Iris-setosa'
p186
aa(lp187
F6.9
aF3.1
aF5.1
aF2.3
aS'Iris-virginica'
p188
aa(lp189
F6.4
aF2.8
aF5.6
aF2.1
aS'Iris-virginica'
p190
aa(lp191
F5.0
aF3.4
aF1.6
aF0.4
aS'Iris-setosa'
p192
aa(lp193
F6.8
aF3.0
aF5.5
aF2.1
aS'Iris-virginica'
p194
aa(lp195
F5.5
aF2.6
aF4.4
aF1.2
aS'Iris-versicolor'
p196
aa(lp197
F5.7
aF2.8
aF4.5
aF1.3
aS'Iris-versicolor'
p198
aa(lp199
F6.4
aF3.2
aF5.3
aF2.3
aS'Iris-virginica'
p200
aa(lp201
F4.8
aF3.4
aF1.6
aF0.2
aS'Iris-setosa'
p202
aa(lp203
F5.1
aF3.8
aF1.9
aF0.4
aS'Iris-setosa'
p204
aa(lp205
F5.6
aF3.0
aF4.5
aF1.5
aS'Iris-versicolor'
p206
aa(lp207
F5.1
aF3.8
aF1.5
aF0.3
aS'Iris-setosa'
p208
aa(lp209
F6.4
aF2.8
aF5.6
aF2.2
aS'Iris-virginica'
p210
aa(lp211
F5.8
aF2.7
aF3.9
aF1.2
aS'Iris-versicolor'
p212
aa(lp213
F5.4
aF3.7
aF1.5
aF0.2
aS'Iris-setosa'
p214
aa(lp215
F7.7
aF2.8
aF6.7
aF2.0
aS'Iris-virginica'
p216
aa(lp217
F7.1
aF3.0
aF5.9
aF2.1
aS'Iris-virginica'
p218
aa(lp219
F6.0
aF3.0
aF4.8
aF1.8
aS'Iris-virginica'
p220
aa(lp221
F6.4
aF2.9
aF4.3
aF1.3
aS'Iris-versicolor'
p222
aa.