(lp0
(lp1
F5.6
aF3.0
aF4.1
aF1.3
aS'Iris-versicolor'
p2
aa(lp3
F6.8
aF3.2
aF5.9
aF2.3
aS'Iris-virginica'
p4
aa(lp5
F5.0
aF3.4
aF1.5
aF0.2
aS'Iris-setosa'
p6
aa(lp7
F5.1
aF3.8
aF1.6
aF0.2
aS'Iris-setosa'
p8
aa(lp9
F4.6
aF3.6
aF1.0
aF0.2
aS'Iris-setosa'
p10
aa(lp11
F6.1
aF3.0
aF4.6
aF1.4
aS'Iris-versicolor'
p12
aa(lp13
F6.1
aF3.0
aF4.9
aF1.8
aS'Iris-virginica'
p14
aa(lp15
F6.1
aF2.9
aF4.7
aF1.4
aS'Iris-versicolor'
p16
aa(lp17
F5.5
aF3.5
aF1.3
aF0.2
aS'Iris-setosa'
p18
aa(lp19
F5.2
aF3.5
aF1.5
aF0.2
aS'Iris-setosa'
p20
aa(lp21
F5.1
aF2.5
aF3.0
aF1.1
aS'Iris-versicolor'
p22
aa(lp23
F5.2
aF3.4
aF1.4
aF0.2
aS'Iris-setosa'
p24
aa(lp25
F5.6
aF2.5
aF3.9
aF1.1
aS'Iris-versicolor'
p26
aa(lp27
F5.4
aF3.4
aF1.7
aF0.2
aS'Iris-setosa'
p28
aa(lp29
F4.4
aF3.0
aF1.3
aF0.2
aS'Iris-setosa'
p30
aa(lp31
F6.3
aF3.4
aF5.6
aF2.4
aS'Iris-virginica'
p32
aa(lp33
F7.7
aF2.6
aF6.9
aF2.3
aS'Iris-virginica'
p34
aa(lp35
F4.9
aF3.1
aF1.5
aF0.1
aS'Iris-setosa'
p36
aa(lp37
F4.4
aF3.2
aF1.3
aF0.2
aS'Iris-setosa'
p38
aa(lp39
F6.3
aF2.5
aF5.0
aF1.9
aS'Iris-virginica'
p40
aa(lp41
F4.9
aF3.0
aF1.4
aF0.2
aS'Iris-setosa'
p42
aa(lp43
F5.6
aF3.0
aF4.5
aF1.5
aS'Iris-versicolor'
p44
aa(lp45
F4.9
aF3.1
aF1.5
aF0.1
aS'Iris-setosa'
p46
aa(lp47
F6.0
aF2.2
aF5.0
aF1.5
aS'Iris-virginica'
p48
aa(lp49
F7.2
aF3.2
aF6.0
aF1.8
aS'Iris-virginica'
p50
aa(lp51
F5.8
aF2.7
aF5.1
aF1.9
aS'Iris-virginica'
p52
aa(lp53
F6.7
aF3.3
aF5.7
aF2.5
aS'Iris-virginica'
p54
aa(lp55
F6.3
aF2.8
aF5.1
aF1.5
aS'Iris-virginica'
p56
aa(lp57
F6.8
aF2.8
aF4.8
aF1.4
aS'Iris-versicolor'
p58
aa(lp59
F5.4
aF3.4
aF1.5
aF0.4
aS'Iris-setosa'
p60
aa(lp61
F5.7
aF4.4
aF1.5
aF0.4
aS'Iris-setosa'
p62
aa(lp63
F5.1
aF3.3
aF1.7
aF0.5
aS'Iris-setosa'
p64
aa(lp65
F5.5
aF2.6
aF4.4
aF1.2
aS'Iris-versicolor'
p66
aa(lp67
F6.5
aF2.8
aF4.6
aF1.5
aS'Iris-versicolor'
p68
aa(lp69
F5.2
aF4.1
aF1.5
aF0.1
aS'Iris-setosa'
p70
aa(lp71
F4.6
aF3.4
aF1.4
aF0.3
aS'Iris-setosa'
p72
aa(lp73
F4.9
aF3.1
aF1.5
aF0.1
aS'Iris-setosa'
p74
aa(lp75
F5.7
aF2.8
aF4.5
aF1.3
aS'Iris-versicolor'
p76
aa(lp77
F7.9
aF3.8
aF6.4
aF2.0
aS'Iris-virginica'
p78
aa(lp79
F6.7
aF3.0
aF5.2
aF2.3
aS'Iris-virginica'
p80
aa(lp81
F5.7
aF2.5
aF5.0
aF2.0
aS'Iris-virginica'
p82
aa(lp83
F7.7
aF3.8
aF6.7
aF2.2
aS'Iris-virginica'
p84
aa(lp85
F5.0
aF3.5
aF1.3
aF0.3
aS'Iris-setosa'
p86
aa(lp87
F5.5
aF2.4
aF3.7
aF1.0
aS'Iris-versicolor'
p88
aa(lp89
F5.6
aF2.8
aF4.9
aF2.0
aS'Iris-virginica'
p90
aa(lp91
F6.7
aF3.1
aF5.6
aF2.4
aS'Iris-virginica'
p92
aa(lp93
F7.7
aF2.8
aF6.7
aF2.0
aS'Iris-virginica'
p94
aa(lp95
F4.6
aF3.1
aF1.5
aF0.2
aS'Iris-setosa'
p96
aa(lp97
F5.9
aF3.0
aF4.2
aF1.5
aS'Iris-versicolor'
p98
aa(lp99
F6.0
aF2.9
aF4.5
aF1.5
aS'Iris-versicolor'
p100
aa(lp101
F6.6
aF2.9
aF4.6
aF1.3
aS'Iris-versicolor'
p102
aa(lp103
F6.4
aF2.7
aF5.3
aF1.9
aS'Iris-virginica'
p104
aa(lp105
F6.3
aF2.7
aF4.9
aF1.8
aS'Iris-virginica'
p106
aa(lp107
F5.9
aF3.0
aF5.1
aF1.8
aS'Iris-virginica'
p108
aa(lp109
F5.0
aF3.2
aF1.2
aF0.2
aS'Iris-setosa'
p110
aa(lp111
F5.6
aF2.7
aF4.2
aF1.3
aS'Iris-versicolor'
p112
aa(lp113
F4.8
aF3.0
aF1.4
aF0.1
aS'Iris-setosa'
p114
aa(lp115
F6.7
aF3.0
aF5.0
aF1.7
aS'Iris-versicolor'
p116
aa(lp117
F6.9
aF3.1
aF5.4
aF2.1
aS'Iris-virginica'
p118
aa(lp119
F6.0
aF2.2
aF4.0
aF1.0
aS'Iris-versicolor'
p120
aa(lp121
F4.9
aF2.4
aF3.3
aF1.0
aS'Iris-versicolor'
p122
aa(lp123
F7.3
aF2.9
aF6.3
aF1.8
aS'Iris-virginica'
p124
aa(lp125
F7.4
aF2.8
aF6.1
aF1.9
aS'Iris-virginica'
p126
aa(lp127
F4.3
aF3.0
aF1.1
aF0.1
aS'Iris-setosa'
p128
aa(lp129
F5.7
aF2.8
aF4.1
aF1.3
aS'Iris-versicolor'
p130
aa(lp131
F5.1
aF3.7
aF1.5
aF0.4
aS'Iris-setosa'
p132
aa(lp133
F4.8
aF3.1
aF1.6
aF0.2
aS'Iris-setosa'
p134
aa(lp135
F6.2
aF2.9
aF4.3
aF1.3
aS'Iris-versicolor'
p136
aa(lp137
F5.0
aF3.6
aF1.4
aF0.2
aS'Iris-setosa'
p138
aa(lp139
F6.8
aF3.0
aF5.5
aF2.1
aS'Iris-virginica'
p140
aa(lp141
F6.0
aF3.4
aF4.5
aF1.6
aS'Iris-versicolor'
p142
aa(lp143
F4.6
aF3.2
aF1.4
aF0.2
aS'Iris-setosa'
p144
aa(lp145
F5.0
aF2.0
aF3.5
aF1.0
aS'Iris-versicolor'
p146
aa(lp147
F5.7
aF3.8
aF1.7
aF0.3
aS'Iris-setosa'
p148
aa(lp149
F5.8
aF2.7
aF5.1
aF1.9
aS'Iris-virginica'
p150
aa(lp151
F5.1
aF3.8
aF1.9
aF0.4
aS'Iris-setosa'
p152
aa(lp153
F5.8
aF2.7
aF4.1
aF1.0
aS'Iris-versicolor'
p154
aa(lp155
F5.0
aF3.3
aF1.4
aF0.2
aS'Iris-setosa'
p156
aa(lp157
F6.5
aF3.0
aF5.8
aF2.2
aS'Iris-virginica'
p158
aa(lp159
F6.4
aF2.8
aF5.6
aF2.2
aS'Iris-virginica'
p160
aa(lp161
F5.4
aF3.7
aF1.5
aF0.2
aS'Iris-setosa'
p162
aa(lp163
F6.7
aF2.5
aF5.8
aF1.8
aS'Iris-virginica'
p164
aa(lp165
F5.2
aF2.7
aF3.9
aF1.4
aS'Iris-versicolor'
p166
aa(lp167
F5.5
aF2.5
aF4.0
aF1.3
aS'Iris-versicolor'
p168
aa(lp169
F5.8
aF4.0
aF1.2
aF0.2
aS'Iris-setosa'
p170
aa(lp171
F7.7
aF3.0
aF6.1
aF2.3
aS'Iris-virginica'
p172
aa(lp173
F5.1
aF3.5
aF1.4
aF0.2
aS'Iris-setosa'
p174
aa(lp175
F6.4
aF3.2
aF4.5
aF1.5
aS'Iris-versicolor'
p176
aa(lp177
F5.6
aF2.9
aF3.6
aF1.3
aS'Iris-versicolor'
p178
aa(lp179
F6.5
aF3.2
aF5.1
aF2.0
aS'Iris-virginica'
p180
aa(lp181
F5.5
aF2.3
aF4.0
aF1.3
aS'Iris-versicolor'
p182
aa(lp183
F6.1
aF2.8
aF4.0
aF1.3
aS'Iris-versicolor'
p184
aa(lp185
F6.9
aF3.1
aF5.1
aF2.3
aS'Iris-virginica'
p186
aa(lp187
F5.0
aF3.5
aF1.6
aF0.6
aS'Iris-setosa'
p188
aa(lp189
F5.5
aF2.4
aF3.8
aF1.1
aS'Iris-versicolor'
p190
aa(lp191
F4.8
aF3.4
aF1.6
aF0.2
aS'Iris-setosa'
p192
aa(lp193
F5.0
aF3.4
aF1.6
aF0.4
aS'Iris-setosa'
p194
aa(lp195
F6.7
aF3.3
aF5.7
aF2.1
aS'Iris-virginica'
p196
aa(lp197
F6.3
aF2.5
aF4.9
aF1.5
aS'Iris-versicolor'
p198
aa(lp199
F6.0
aF3.0
aF4.8
aF1.8
aS'Iris-virginica'
p200
aa(lp201
F6.5
aF3.0
aF5.5
aF1.8
aS'Iris-virginica'
p202
aa(lp203
F6.3
aF2.3
aF4.4
aF1.3
aS'Iris-versicolor'
p204
aa(lp205
F6.9
aF3.2
aF5.7
aF2.3
aS'Iris-virginica'
p206
aa(lp207
F4.8
aF3.0
aF1.4
aF0.3
aS'Iris-setosa'
p208
aa(lp209
F7.2
aF3.0
aF5.8
aF1.6
aS'Iris-virginica'
p210
aa(lp211
F6.4
aF3.2
aF5.3
aF2.3
aS'Iris-virginica'
p212
aa(lp213
F6.7
aF3.1
aF4.4
aF1.4
aS'Iris-versicolor'
p214
aa(lp215
F5.8
aF2.7
aF3.9
aF1.2
aS'Iris-versicolor'
p216
aa(lp217
F6.0
aF2.7
aF5.1
aF1.6
aS'Iris-versicolor'
p218
aa(lp219
F6.9
aF3.1
aF4.9
aF1.5
aS'Iris-versicolor'
p220
aa(lp221
F5.7
aF2.6
aF3.5
aF1.0
aS'Iris-versicolor'
p222
aa.