(lp0
(lp1
F11.0
aF4.0
aF1000.0
aF16.0
aS'1'
p2
aa(lp3
F4.0
aF5.0
aF1250.0
aF33.0
ag2
aa(lp4
F4.0
aF6.0
aF1500.0
aF41.0
ag2
aa(lp5
F4.0
aF4.0
aF1000.0
aF26.0
ag2
aa(lp6
F4.0
aF5.0
aF1250.0
aF35.0
ag2
aa(lp7
F2.0
aF5.0
aF1250.0
aF47.0
ag2
aa(lp8
F9.0
aF8.0
aF2000.0
aF38.0
ag2
aa(lp9
F6.0
aF2.0
aF500.0
aF11.0
ag2
aa(lp10
F4.0
aF1.0
aF250.0
aF4.0
ag2
aa(lp11
F4.0
aF1.0
aF250.0
aF4.0
ag2
aa(lp12
F4.0
aF1.0
aF250.0
aF4.0
ag2
aa(lp13
F4.0
aF1.0
aF250.0
aF4.0
ag2
aa(lp14
F4.0
aF1.0
aF250.0
aF4.0
ag2
aa(lp15
F4.0
aF1.0
aF250.0
aF4.0
ag2
aa(lp16
F8.0
aF8.0
aF2000.0
aF52.0
ag2
aa(lp17
F4.0
aF3.0
aF750.0
aF25.0
ag2
aa(lp18
F11.0
aF17.0
aF4250.0
aF79.0
ag2
aa(lp19
F11.0
aF8.0
aF2000.0
aF41.0
ag2
aa(lp20
F16.0
aF2.0
aF500.0
aF16.0
aS'0'
p21
aa(lp22
F11.0
aF3.0
aF750.0
aF28.0
ag21
aa(lp23
F11.0
aF7.0
aF1750.0
aF64.0
ag21
aa(lp24
F9.0
aF3.0
aF750.0
aF34.0
ag21
aa(lp25
F14.0
aF4.0
aF1000.0
aF30.0
ag21
aa(lp26
F23.0
aF38.0
aF9500.0
aF98.0
ag21
aa(lp27
F11.0
aF6.0
aF1500.0
aF58.0
ag21
aa(lp28
F11.0
aF1.0
aF250.0
aF11.0
ag21
aa(lp29
F11.0
aF1.0
aF250.0
aF11.0
ag21
aa(lp30
F11.0
aF1.0
aF250.0
aF11.0
ag21
aa(lp31
F11.0
aF1.0
aF250.0
aF11.0
ag21
aa(lp32
F11.0
aF1.0
aF250.0
aF11.0
ag21
aa(lp33
F11.0
aF1.0
aF250.0
aF11.0
ag21
aa(lp34
F11.0
aF1.0
aF250.0
aF11.0
ag21
aa(lp35
F11.0
aF1.0
aF250.0
aF11.0
ag21
aa(lp36
F11.0
aF2.0
aF500.0
aF21.0
ag21
aa(lp37
F11.0
aF5.0
aF1250.0
aF50.0
ag21
aa(lp38
F11.0
aF2.0
aF500.0
aF21.0
ag21
aa(lp39
F16.0
aF4.0
aF1000.0
aF28.0
ag21
aa(lp40
F4.0
aF2.0
aF500.0
aF41.0
ag21
aa(lp41
F16.0
aF6.0
aF1500.0
aF40.0
ag21
aa(lp42
F14.0
aF3.0
aF750.0
aF26.0
ag21
aa(lp43
F9.0
aF2.0
aF500.0
aF26.0
ag21
aa(lp44
F21.0
aF16.0
aF4000.0
aF64.0
ag21
aa(lp45
F14.0
aF6.0
aF1500.0
aF51.0
ag21
aa(lp46
F11.0
aF2.0
aF500.0
aF24.0
ag21
aa(lp47
F4.0
aF3.0
aF750.0
aF71.0
ag21
aa(lp48
F21.0
aF13.0
aF3250.0
aF57.0
ag21
aa(lp49
F11.0
aF6.0
aF1500.0
aF71.0
ag21
aa(lp50
F23.0
aF15.0
aF3750.0
aF57.0
ag21
aa(lp51
F14.0
aF4.0
aF1000.0
aF38.0
ag21
aa(lp52
F11.0
aF2.0
aF500.0
aF26.0
ag21
aa(lp53
F14.0
aF3.0
aF750.0
aF31.0
ag21
aa(lp54
F4.0
aF2.0
aF500.0
aF52.0
ag21
aa(lp55
F9.0
aF4.0
aF1000.0
aF65.0
ag21
aa(lp56
F14.0
aF4.0
aF1000.0
aF40.0
ag21
aa(lp57
F14.0
aF5.0
aF1250.0
aF50.0
ag21
aa(lp58
F14.0
aF1.0
aF250.0
aF14.0
ag21
aa(lp59
F14.0
aF1.0
aF250.0
aF14.0
ag21
aa(lp60
F14.0
aF1.0
aF250.0
aF14.0
ag21
aa(lp61
F14.0
aF1.0
aF250.0
aF14.0
ag21
aa(lp62
F14.0
aF1.0
aF250.0
aF14.0
ag21
aa(lp63
F14.0
aF1.0
aF250.0
aF14.0
ag21
aa(lp64
F14.0
aF1.0
aF250.0
aF14.0
ag21
aa(lp65
F14.0
aF1.0
aF250.0
aF14.0
ag21
aa(lp66
F14.0
aF7.0
aF1750.0
aF72.0
ag21
aa(lp67
F14.0
aF1.0
aF250.0
aF14.0
ag21
aa(lp68
F14.0
aF1.0
aF250.0
aF14.0
ag21
aa(lp69
F9.0
aF3.0
aF750.0
aF52.0
ag21
aa(lp70
F14.0
aF7.0
aF1750.0
aF73.0
ag21
aa(lp71
F11.0
aF4.0
aF1000.0
aF58.0
ag21
aa(lp72
F11.0
aF4.0
aF1000.0
aF59.0
ag21
aa(lp73
F4.0
aF2.0
aF500.0
aF59.0
ag21
aa(lp74
F11.0
aF4.0
aF1000.0
aF61.0
ag21
aa(lp75
F16.0
aF4.0
aF1000.0
aF40.0
ag21
aa(lp76
F16.0
aF10.0
aF2500.0
aF89.0
ag21
aa(lp77
F21.0
aF3.0
aF750.0
aF26.0
ag21
aa.