(lp0
(lp1
F4.0
aF5.0
aF1250.0
aF11.0
aS'1'
p2
aa(lp3
F4.0
aF10.0
aF2500.0
aF28.0
ag2
aa(lp4
F4.0
aF10.0
aF2500.0
aF28.0
ag2
aa(lp5
F4.0
aF9.0
aF2250.0
aF26.0
ag2
aa(lp6
F2.0
aF8.0
aF2000.0
aF28.0
ag2
aa(lp7
F2.0
aF12.0
aF3000.0
aF47.0
ag2
aa(lp8
F4.0
aF6.0
aF1500.0
aF16.0
ag2
aa(lp9
F2.0
aF14.0
aF3500.0
aF57.0
ag2
aa(lp10
F4.0
aF7.0
aF1750.0
aF22.0
ag2
aa(lp11
F2.0
aF13.0
aF3250.0
aF53.0
ag2
aa(lp12
F2.0
aF5.0
aF1250.0
aF16.0
ag2
aa(lp13
F4.0
aF20.0
aF5000.0
aF69.0
ag2
aa(lp14
F4.0
aF9.0
aF2250.0
aF28.0
ag2
aa(lp15
F2.0
aF11.0
aF2750.0
aF46.0
ag2
aa(lp16
F4.0
aF5.0
aF1250.0
aF14.0
ag2
aa(lp17
F4.0
aF19.0
aF4750.0
aF69.0
ag2
aa(lp18
F4.0
aF8.0
aF2000.0
aF26.0
ag2
aa(lp19
F2.0
aF7.0
aF1750.0
aF28.0
ag2
aa(lp20
F4.0
aF9.0
aF2250.0
aF46.0
aS'0'
p21
aa(lp22
F4.0
aF5.0
aF1250.0
aF23.0
ag21
aa(lp23
F2.0
aF12.0
aF3000.0
aF82.0
ag21
aa(lp24
F11.0
aF24.0
aF6000.0
aF64.0
ag21
aa(lp25
F4.0
aF11.0
aF2750.0
aF61.0
ag21
aa(lp26
F1.0
aF7.0
aF1750.0
aF57.0
ag21
aa(lp27
F2.0
aF4.0
aF1000.0
aF26.0
ag21
aa(lp28
F2.0
aF5.0
aF1250.0
aF34.0
ag21
aa(lp29
F2.0
aF4.0
aF1000.0
aF26.0
ag21
aa(lp30
F4.0
aF5.0
aF1250.0
aF28.0
ag21
aa(lp31
F2.0
aF12.0
aF3000.0
aF95.0
ag21
aa(lp32
F2.0
aF2.0
aF500.0
aF10.0
ag21
aa(lp33
F4.0
aF6.0
aF1500.0
aF35.0
ag21
aa(lp34
F2.0
aF11.0
aF2750.0
aF88.0
ag21
aa(lp35
F2.0
aF3.0
aF750.0
aF19.0
ag21
aa(lp36
F2.0
aF5.0
aF1250.0
aF37.0
ag21
aa(lp37
F2.0
aF12.0
aF3000.0
aF98.0
ag21
aa(lp38
F9.0
aF5.0
aF1250.0
aF19.0
ag21
aa(lp39
F2.0
aF2.0
aF500.0
aF11.0
ag21
aa(lp40
F2.0
aF9.0
aF2250.0
aF74.0
ag21
aa(lp41
F5.0
aF14.0
aF3500.0
aF86.0
ag21
aa(lp42
F4.0
aF3.0
aF750.0
aF16.0
ag21
aa(lp43
F4.0
aF3.0
aF750.0
aF16.0
ag21
aa(lp44
F6.0
aF3.0
aF750.0
aF14.0
ag21
aa(lp45
F2.0
aF2.0
aF500.0
aF11.0
ag21
aa(lp46
F2.0
aF2.0
aF500.0
aF11.0
ag21
aa(lp47
F4.0
aF6.0
aF1500.0
aF39.0
ag21
aa(lp48
F4.0
aF11.0
aF2750.0
aF78.0
ag21
aa(lp49
F2.0
aF1.0
aF250.0
aF2.0
ag21
aa(lp50
F2.0
aF1.0
aF250.0
aF2.0
ag21
aa(lp51
F2.0
aF1.0
aF250.0
aF2.0
ag21
aa(lp52
F2.0
aF1.0
aF250.0
aF2.0
ag21
aa(lp53
F2.0
aF1.0
aF250.0
aF2.0
ag21
aa(lp54
F2.0
aF1.0
aF250.0
aF2.0
ag21
aa(lp55
F2.0
aF1.0
aF250.0
aF2.0
ag21
aa(lp56
F2.0
aF1.0
aF250.0
aF2.0
ag21
aa(lp57
F2.0
aF1.0
aF250.0
aF2.0
ag21
aa(lp58
F2.0
aF1.0
aF250.0
aF2.0
ag21
aa(lp59
F2.0
aF1.0
aF250.0
aF2.0
ag21
aa(lp60
F2.0
aF1.0
aF250.0
aF2.0
ag21
aa(lp61
F2.0
aF1.0
aF250.0
aF2.0
ag21
aa(lp62
F2.0
aF1.0
aF250.0
aF2.0
ag21
aa(lp63
F2.0
aF1.0
aF250.0
aF2.0
ag21
aa(lp64
F2.0
aF1.0
aF250.0
aF2.0
ag21
aa(lp65
F2.0
aF1.0
aF250.0
aF2.0
ag21
aa(lp66
F2.0
aF1.0
aF250.0
aF2.0
ag21
aa(lp67
F11.0
aF10.0
aF2500.0
aF35.0
ag21
aa(lp68
F2.0
aF3.0
aF750.0
aF22.0
ag21
aa(lp69
F10.0
aF4.0
aF1000.0
aF16.0
ag21
aa(lp70
F2.0
aF4.0
aF1000.0
aF35.0
ag21
aa(lp71
F4.0
aF12.0
aF3000.0
aF88.0
ag21
aa(lp72
F13.0
aF8.0
aF2000.0
aF26.0
ag21
aa(lp73
F11.0
aF9.0
aF2250.0
aF33.0
ag21
aa(lp74
F4.0
aF5.0
aF1250.0
aF34.0
ag21
aa(lp75
F4.0
aF4.0
aF1000.0
aF26.0
ag21
aa(lp76
F8.0
aF15.0
aF3750.0
aF77.0
ag21
aa(lp77
F4.0
aF7.0
aF1750.0
aF52.0
ag21
aa.