(lp0
(lp1
F2.0
aF50.0
aF12500.0
aF98.0
aS'1'
p2
aa(lp3
F0.0
aF13.0
aF3250.0
aF28.0
ag2
aa(lp4
F1.0
aF16.0
aF4000.0
aF35.0
ag2
aa(lp5
F2.0
aF20.0
aF5000.0
aF45.0
ag2
aa(lp6
F1.0
aF24.0
aF6000.0
aF77.0
aS'0'
p7
aa(lp8
F4.0
aF4.0
aF1000.0
aF4.0
ag7
aa(lp9
F2.0
aF7.0
aF1750.0
aF14.0
ag2
aa(lp10
F1.0
aF12.0
aF3000.0
aF35.0
ag7
aa(lp11
F2.0
aF9.0
aF2250.0
aF22.0
ag2
aa(lp12
F5.0
aF46.0
aF11500.0
aF98.0
ag2
aa(lp13
F4.0
aF23.0
aF5750.0
aF58.0
ag7
aa(lp14
F0.0
aF3.0
aF750.0
aF4.0
ag7
aa(lp15
F2.0
aF10.0
aF2500.0
aF28.0
ag2
aa(lp16
F1.0
aF13.0
aF3250.0
aF47.0
ag7
aa(lp17
F2.0
aF6.0
aF1500.0
aF15.0
ag2
aa(lp18
F2.0
aF5.0
aF1250.0
aF11.0
ag2
aa(lp19
F2.0
aF14.0
aF3500.0
aF48.0
ag2
aa(lp20
F2.0
aF15.0
aF3750.0
aF49.0
ag2
aa(lp21
F2.0
aF6.0
aF1500.0
aF15.0
ag2
aa(lp22
F2.0
aF3.0
aF750.0
aF4.0
ag2
aa(lp23
F2.0
aF3.0
aF750.0
aF4.0
ag2
aa(lp24
F4.0
aF11.0
aF2750.0
aF28.0
ag7
aa(lp25
F2.0
aF6.0
aF1500.0
aF16.0
ag2
aa(lp26
F2.0
aF6.0
aF1500.0
aF16.0
ag2
aa(lp27
F9.0
aF9.0
aF2250.0
aF16.0
ag7
aa(lp28
F4.0
aF14.0
aF3500.0
aF40.0
ag7
aa(lp29
F4.0
aF6.0
aF1500.0
aF14.0
ag7
aa(lp30
F4.0
aF12.0
aF3000.0
aF34.0
ag2
aa(lp31
F4.0
aF8.0
aF2000.0
aF21.0
ag7
aa(lp32
F1.0
aF14.0
aF3500.0
aF58.0
ag7
aa(lp33
F2.0
aF16.0
aF4000.0
aF64.0
ag7
aa(lp34
F2.0
aF5.0
aF1250.0
aF16.0
ag7
aa(lp35
F2.0
aF5.0
aF1250.0
aF16.0
ag7
aa(lp36
F2.0
aF9.0
aF2250.0
aF36.0
ag7
aa(lp37
F2.0
aF2.0
aF500.0
aF2.0
ag7
aa(lp38
F2.0
aF2.0
aF500.0
aF2.0
ag7
aa(lp39
F2.0
aF2.0
aF500.0
aF2.0
ag7
aa(lp40
F2.0
aF11.0
aF2750.0
aF46.0
ag7
aa(lp41
F2.0
aF6.0
aF1500.0
aF22.0
ag7
aa(lp42
F2.0
aF12.0
aF3000.0
aF52.0
ag7
aa(lp43
F2.0
aF16.0
aF4000.0
aF81.0
ag7
aa(lp44
F3.0
aF6.0
aF1500.0
aF21.0
ag7
aa(lp45
F2.0
aF7.0
aF1750.0
aF29.0
ag7
aa(lp46
F2.0
aF10.0
aF2500.0
aF49.0
ag7
aa(lp47
F3.0
aF16.0
aF4000.0
aF74.0
ag7
aa(lp48
F0.0
aF2.0
aF500.0
aF4.0
ag7
aa(lp49
F4.0
aF7.0
aF1750.0
aF25.0
ag7
aa(lp50
F1.0
aF9.0
aF2250.0
aF51.0
ag7
aa(lp51
F2.0
aF4.0
aF1000.0
aF16.0
ag7
aa(lp52
F2.0
aF4.0
aF1000.0
aF16.0
ag7
aa(lp53
F2.0
aF2.0
aF500.0
aF4.0
ag7
aa(lp54
F2.0
aF2.0
aF500.0
aF4.0
ag7
aa(lp55
F2.0
aF2.0
aF500.0
aF4.0
ag7
aa(lp56
F2.0
aF2.0
aF500.0
aF4.0
ag7
aa(lp57
F2.0
aF4.0
aF1000.0
aF16.0
ag7
aa(lp58
F2.0
aF4.0
aF1000.0
aF16.0
ag7
aa(lp59
F2.0
aF4.0
aF1000.0
aF16.0
ag7
aa(lp60
F2.0
aF6.0
aF1500.0
aF28.0
ag7
aa(lp61
F4.0
aF2.0
aF500.0
aF4.0
ag7
aa(lp62
F4.0
aF2.0
aF500.0
aF4.0
ag7
aa(lp63
F4.0
aF2.0
aF500.0
aF4.0
ag7
aa(lp64
F4.0
aF2.0
aF500.0
aF4.0
ag7
aa(lp65
F4.0
aF2.0
aF500.0
aF4.0
ag7
aa(lp66
F4.0
aF2.0
aF500.0
aF4.0
ag7
aa(lp67
F12.0
aF11.0
aF2750.0
aF23.0
ag7
aa(lp68
F4.0
aF7.0
aF1750.0
aF28.0
ag7
aa(lp69
F3.0
aF17.0
aF4250.0
aF86.0
ag7
aa(lp70
F4.0
aF9.0
aF2250.0
aF40.0
ag7
aa(lp71
F2.0
aF5.0
aF1250.0
aF26.0
ag7
aa(lp72
F2.0
aF5.0
aF1250.0
aF26.0
ag7
aa(lp73
F6.0
aF17.0
aF4250.0
aF70.0
ag7
aa(lp74
F0.0
aF8.0
aF2000.0
aF59.0
ag7
aa(lp75
F3.0
aF5.0
aF1250.0
aF26.0
ag7
aa(lp76
F2.0
aF3.0
aF750.0
aF14.0
ag7
aa(lp77
F2.0
aF10.0
aF2500.0
aF64.0
ag7
aa.