(lp0
(lp1
F11.0
aF3.0
aF750.0
aF16.0
aS'1'
p2
aa(lp3
F11.0
aF14.0
aF3500.0
aF73.0
ag2
aa(lp4
F2.0
aF3.0
aF750.0
aF38.0
ag2
aa(lp5
F4.0
aF4.0
aF1000.0
aF43.0
ag2
aa(lp6
F14.0
aF4.0
aF1000.0
aF22.0
ag2
aa(lp7
F9.0
aF2.0
aF500.0
aF16.0
ag2
aa(lp8
F14.0
aF5.0
aF1250.0
aF28.0
ag2
aa(lp9
F14.0
aF3.0
aF750.0
aF19.0
ag2
aa(lp10
F14.0
aF4.0
aF1000.0
aF23.0
ag2
aa(lp11
F11.0
aF5.0
aF1250.0
aF37.0
ag2
aa(lp12
F11.0
aF9.0
aF2250.0
aF72.0
ag2
aa(lp13
F9.0
aF5.0
aF1250.0
aF51.0
ag2
aa(lp14
F14.0
aF8.0
aF2000.0
aF50.0
ag2
aa(lp15
F14.0
aF4.0
aF1000.0
aF28.0
ag2
aa(lp16
F16.0
aF6.0
aF1500.0
aF35.0
ag2
aa(lp17
F11.0
aF7.0
aF1750.0
aF62.0
ag2
aa(lp18
F16.0
aF3.0
aF750.0
aF21.0
ag2
aa(lp19
F11.0
aF1.0
aF250.0
aF11.0
ag2
aa(lp20
F16.0
aF8.0
aF2000.0
aF76.0
aS'0'
p21
aa(lp22
F18.0
aF2.0
aF500.0
aF23.0
ag21
aa(lp23
F23.0
aF5.0
aF1250.0
aF33.0
ag21
aa(lp24
F23.0
aF8.0
aF2000.0
aF46.0
ag21
aa(lp25
F16.0
aF3.0
aF750.0
aF34.0
ag21
aa(lp26
F14.0
aF5.0
aF1250.0
aF64.0
ag21
aa(lp27
F14.0
aF3.0
aF750.0
aF41.0
ag21
aa(lp28
F16.0
aF1.0
aF250.0
aF16.0
ag21
aa(lp29
F16.0
aF1.0
aF250.0
aF16.0
ag21
aa(lp30
F16.0
aF1.0
aF250.0
aF16.0
ag21
aa(lp31
F16.0
aF1.0
aF250.0
aF16.0
ag21
aa(lp32
F16.0
aF1.0
aF250.0
aF16.0
ag21
aa(lp33
F16.0
aF1.0
aF250.0
aF16.0
ag21
aa(lp34
F16.0
aF1.0
aF250.0
aF16.0
ag21
aa(lp35
F16.0
aF4.0
aF1000.0
aF45.0
ag21
aa(lp36
F16.0
aF1.0
aF250.0
aF16.0
ag21
aa(lp37
F16.0
aF1.0
aF250.0
aF16.0
ag21
aa(lp38
F16.0
aF1.0
aF250.0
aF16.0
ag21
aa(lp39
F16.0
aF1.0
aF250.0
aF16.0
ag21
aa(lp40
F16.0
aF1.0
aF250.0
aF16.0
ag21
aa(lp41
F16.0
aF2.0
aF500.0
aF26.0
ag21
aa(lp42
F21.0
aF2.0
aF500.0
aF23.0
ag21
aa(lp43
F16.0
aF2.0
aF500.0
aF27.0
ag21
aa(lp44
F21.0
aF2.0
aF500.0
aF23.0
ag21
aa(lp45
F21.0
aF2.0
aF500.0
aF23.0
ag21
aa(lp46
F14.0
aF4.0
aF1000.0
aF57.0
ag21
aa(lp47
F16.0
aF5.0
aF1250.0
aF60.0
ag21
aa(lp48
F23.0
aF2.0
aF500.0
aF23.0
ag21
aa(lp49
F14.0
aF5.0
aF1250.0
aF74.0
ag21
aa(lp50
F23.0
aF3.0
aF750.0
aF28.0
ag21
aa(lp51
F16.0
aF3.0
aF750.0
aF40.0
ag21
aa(lp52
F9.0
aF2.0
aF500.0
aF52.0
ag21
aa(lp53
F9.0
aF2.0
aF500.0
aF52.0
ag21
aa(lp54
F14.0
aF4.0
aF1000.0
aF64.0
ag21
aa(lp55
F14.0
aF2.0
aF500.0
aF35.0
ag21
aa(lp56
F16.0
aF7.0
aF1750.0
aF93.0
ag21
aa(lp57
F21.0
aF2.0
aF500.0
aF25.0
ag21
aa(lp58
F14.0
aF3.0
aF750.0
aF52.0
ag21
aa(lp59
F23.0
aF14.0
aF3500.0
aF93.0
ag21
aa(lp60
F18.0
aF8.0
aF2000.0
aF95.0
ag21
aa(lp61
F16.0
aF3.0
aF750.0
aF46.0
ag21
aa(lp62
F11.0
aF3.0
aF750.0
aF76.0
ag21
aa(lp63
F11.0
aF2.0
aF500.0
aF52.0
ag21
aa(lp64
F11.0
aF3.0
aF750.0
aF76.0
ag21
aa(lp65
F23.0
aF12.0
aF3000.0
aF86.0
ag21
aa(lp66
F21.0
aF3.0
aF750.0
aF35.0
ag21
aa(lp67
F23.0
aF2.0
aF500.0
aF26.0
ag21
aa(lp68
F23.0
aF2.0
aF500.0
aF26.0
ag21
aa(lp69
F23.0
aF8.0
aF2000.0
aF64.0
ag21
aa(lp70
F16.0
aF3.0
aF750.0
aF50.0
ag21
aa(lp71
F23.0
aF3.0
aF750.0
aF33.0
ag21
aa(lp72
F21.0
aF3.0
aF750.0
aF38.0
ag21
aa(lp73
F23.0
aF2.0
aF500.0
aF28.0
ag21
aa(lp74
F21.0
aF1.0
aF250.0
aF21.0
ag21
aa(lp75
F21.0
aF1.0
aF250.0
aF21.0
ag21
aa(lp76
F21.0
aF1.0
aF250.0
aF21.0
ag21
aa(lp77
F21.0
aF1.0
aF250.0
aF21.0
ag21
aa.