(lp0
(lp1
F4.0
aF5.0
aF1250.0
aF11.0
aS'1'
p2
aa(lp3
F4.0
aF10.0
aF2500.0
aF28.0
ag2
aa(lp4
F4.0
aF10.0
aF2500.0
aF28.0
ag2
aa(lp5
F4.0
aF9.0
aF2250.0
aF26.0
ag2
aa(lp6
F2.0
aF8.0
aF2000.0
aF28.0
ag2
aa(lp7
F2.0
aF12.0
aF3000.0
aF47.0
ag2
aa(lp8
F4.0
aF6.0
aF1500.0
aF16.0
ag2
aa(lp9
F2.0
aF14.0
aF3500.0
aF57.0
ag2
aa(lp10
F4.0
aF7.0
aF1750.0
aF22.0
ag2
aa(lp11
F2.0
aF13.0
aF3250.0
aF53.0
ag2
aa(lp12
F2.0
aF5.0
aF1250.0
aF16.0
ag2
aa(lp13
F4.0
aF20.0
aF5000.0
aF69.0
ag2
aa(lp14
F4.0
aF9.0
aF2250.0
aF28.0
ag2
aa(lp15
F2.0
aF11.0
aF2750.0
aF46.0
ag2
aa(lp16
F4.0
aF5.0
aF1250.0
aF14.0
ag2
aa(lp17
F4.0
aF19.0
aF4750.0
aF69.0
ag2
aa(lp18
F4.0
aF8.0
aF2000.0
aF26.0
ag2
aa(lp19
F2.0
aF7.0
aF1750.0
aF28.0
ag2
aa(lp20
F2.0
aF8.0
aF2000.0
aF35.0
ag2
aa(lp21
F4.0
aF5.0
aF1250.0
aF16.0
ag2
aa(lp22
F2.0
aF3.0
aF750.0
aF9.0
ag2
aa(lp23
F2.0
aF4.0
aF1000.0
aF14.0
ag2
aa(lp24
F4.0
aF17.0
aF4250.0
aF71.0
ag2
aa(lp25
F2.0
aF2.0
aF500.0
aF4.0
ag2
aa(lp26
F2.0
aF2.0
aF500.0
aF4.0
ag2
aa(lp27
F2.0
aF4.0
aF1000.0
aF16.0
ag2
aa(lp28
F4.0
aF6.0
aF1500.0
aF23.0
ag2
aa(lp29
F2.0
aF6.0
aF1500.0
aF28.0
ag2
aa(lp30
F2.0
aF7.0
aF1750.0
aF35.0
ag2
aa(lp31
F4.0
aF2.0
aF500.0
aF4.0
ag2
aa(lp32
F4.0
aF9.0
aF2250.0
aF38.0
ag2
aa(lp33
F4.0
aF4.0
aF1000.0
aF14.0
ag2
aa(lp34
F5.0
aF7.0
aF1750.0
aF26.0
ag2
aa(lp35
F4.0
aF8.0
aF2000.0
aF34.0
ag2
aa(lp36
F2.0
aF13.0
aF3250.0
aF76.0
ag2
aa(lp37
F4.0
aF5.0
aF1250.0
aF23.0
ag2
aa(lp38
F4.0
aF9.0
aF2250.0
aF46.0
aS'0'
p39
aa(lp40
F4.0
aF5.0
aF1250.0
aF23.0
ag39
aa(lp41
F4.0
aF8.0
aF2000.0
aF40.0
ag2
aa(lp42
F2.0
aF12.0
aF3000.0
aF82.0
ag39
aa(lp43
F11.0
aF24.0
aF6000.0
aF64.0
ag39
aa(lp44
F2.0
aF7.0
aF1750.0
aF46.0
ag2
aa(lp45
F4.0
aF11.0
aF2750.0
aF61.0
ag39
aa(lp46
F1.0
aF7.0
aF1750.0
aF57.0
ag39
aa(lp47
F2.0
aF11.0
aF2750.0
aF79.0
ag2
aa(lp48
F2.0
aF3.0
aF750.0
aF16.0
ag2
aa(lp49
F4.0
aF5.0
aF1250.0
aF26.0
ag2
aa(lp50
F2.0
aF6.0
aF1500.0
aF41.0
ag2
aa(lp51
F2.0
aF5.0
aF1250.0
aF33.0
ag2
aa(lp52
F2.0
aF4.0
aF1000.0
aF26.0
ag39
aa(lp53
F2.0
aF5.0
aF1250.0
aF34.0
ag39
aa(lp54
F4.0
aF8.0
aF2000.0
aF46.0
ag2
aa(lp55
F2.0
aF4.0
aF1000.0
aF26.0
ag39
aa(lp56
F4.0
aF8.0
aF2000.0
aF48.0
ag2
aa(lp57
F2.0
aF2.0
aF500.0
aF10.0
ag2
aa(lp58
F4.0
aF5.0
aF1250.0
aF28.0
ag39
aa(lp59
F2.0
aF12.0
aF3000.0
aF95.0
ag39
aa(lp60
F2.0
aF2.0
aF500.0
aF10.0
ag39
aa(lp61
F4.0
aF6.0
aF1500.0
aF35.0
ag39
aa(lp62
F2.0
aF11.0
aF2750.0
aF88.0
ag39
aa(lp63
F2.0
aF3.0
aF750.0
aF19.0
ag39
aa(lp64
F2.0
aF5.0
aF1250.0
aF37.0
ag39
aa(lp65
F2.0
aF12.0
aF3000.0
aF98.0
ag39
aa(lp66
F9.0
aF5.0
aF1250.0
aF19.0
ag39
aa(lp67
F2.0
aF2.0
aF500.0
aF11.0
ag39
aa(lp68
F2.0
aF9.0
aF2250.0
aF74.0
ag39
aa(lp69
F5.0
aF14.0
aF3500.0
aF86.0
ag39
aa(lp70
F4.0
aF3.0
aF750.0
aF16.0
ag39
aa(lp71
F4.0
aF3.0
aF750.0
aF16.0
ag39
aa(lp72
F4.0
aF2.0
aF500.0
aF9.0
ag2
aa(lp73
F4.0
aF3.0
aF750.0
aF16.0
ag2
aa(lp74
F6.0
aF3.0
aF750.0
aF14.0
ag39
aa(lp75
F2.0
aF2.0
aF500.0
aF11.0
ag39
aa(lp76
F2.0
aF2.0
aF500.0
aF11.0
ag2
aa(lp77
F2.0
aF2.0
aF500.0
aF11.0
ag39
aa(lp78
F2.0
aF7.0
aF1750.0
aF58.0
ag2
aa(lp79
F4.0
aF6.0
aF1500.0
aF39.0
ag39
aa(lp80
F4.0
aF11.0
aF2750.0
aF78.0
ag39
aa(lp81
F2.0
aF1.0
aF250.0
aF2.0
ag2
aa(lp82
F2.0
aF1.0
aF250.0
aF2.0
ag39
aa(lp83
F2.0
aF1.0
aF250.0
aF2.0
ag39
aa(lp84
F2.0
aF1.0
aF250.0
aF2.0
ag39
aa(lp85
F2.0
aF1.0
aF250.0
aF2.0
ag39
aa(lp86
F2.0
aF1.0
aF250.0
aF2.0
ag39
aa(lp87
F2.0
aF1.0
aF250.0
aF2.0
ag39
aa(lp88
F2.0
aF1.0
aF250.0
aF2.0
ag39
aa(lp89
F2.0
aF1.0
aF250.0
aF2.0
ag39
aa(lp90
F2.0
aF1.0
aF250.0
aF2.0
ag39
aa(lp91
F2.0
aF1.0
aF250.0
aF2.0
ag2
aa(lp92
F2.0
aF1.0
aF250.0
aF2.0
ag2
aa(lp93
F2.0
aF1.0
aF250.0
aF2.0
ag2
aa(lp94
F2.0
aF1.0
aF250.0
aF2.0
ag39
aa(lp95
F2.0
aF1.0
aF250.0
aF2.0
ag39
aa(lp96
F2.0
aF1.0
aF250.0
aF2.0
ag39
aa(lp97
F2.0
aF1.0
aF250.0
aF2.0
ag39
aa(lp98
F2.0
aF1.0
aF250.0
aF2.0
ag39
aa(lp99
F2.0
aF1.0
aF250.0
aF2.0
ag39
aa(lp100
F2.0
aF1.0
aF250.0
aF2.0
ag39
aa(lp101
F2.0
aF1.0
aF250.0
aF2.0
ag39
aa(lp102
F2.0
aF1.0
aF250.0
aF2.0
ag39
aa(lp103
F11.0
aF10.0
aF2500.0
aF35.0
ag39
aa(lp104
F11.0
aF4.0
aF1000.0
aF16.0
ag2
aa(lp105
F4.0
aF5.0
aF1250.0
aF33.0
ag2
aa(lp106
F4.0
aF6.0
aF1500.0
aF41.0
ag2
aa(lp107
F2.0
aF3.0
aF750.0
aF22.0
ag39
aa(lp108
F4.0
aF4.0
aF1000.0
aF26.0
ag2
aa(lp109
F10.0
aF4.0
aF1000.0
aF16.0
ag39
aa(lp110
F2.0
aF4.0
aF1000.0
aF35.0
ag39
aa(lp111
F4.0
aF12.0
aF3000.0
aF88.0
ag39
aa(lp112
F13.0
aF8.0
aF2000.0
aF26.0
ag39
aa(lp113
F11.0
aF9.0
aF2250.0
aF33.0
ag39
aa(lp114
F4.0
aF5.0
aF1250.0
aF34.0
ag39
aa(lp115
F4.0
aF4.0
aF1000.0
aF26.0
ag39
aa(lp116
F8.0
aF15.0
aF3750.0
aF77.0
ag39
aa(lp117
F4.0
aF5.0
aF1250.0
aF35.0
ag2
aa(lp118
F4.0
aF7.0
aF1750.0
aF52.0
ag39
aa(lp119
F4.0
aF7.0
aF1750.0
aF52.0
ag39
aa(lp120
F2.0
aF4.0
aF1000.0
aF35.0
ag39
aa(lp121
F11.0
aF11.0
aF2750.0
aF42.0
ag39
aa(lp122
F2.0
aF2.0
aF500.0
aF14.0
ag39
aa(lp123
F2.0
aF5.0
aF1250.0
aF47.0
ag2
aa(lp124
F9.0
aF8.0
aF2000.0
aF38.0
ag2
aa(lp125
F4.0
aF6.0
aF1500.0
aF47.0
ag39
aa(lp126
F11.0
aF7.0
aF1750.0
aF29.0
ag39
aa(lp127
F9.0
aF9.0
aF2250.0
aF45.0
ag39
aa(lp128
F4.0
aF6.0
aF1500.0
aF52.0
ag39
aa(lp129
F4.0
aF7.0
aF1750.0
aF58.0
ag39
aa(lp130
F6.0
aF2.0
aF500.0
aF11.0
ag2
aa(lp131
F4.0
aF7.0
aF1750.0
aF58.0
ag39
aa(lp132
F11.0
aF9.0
aF2250.0
aF38.0
ag39
aa(lp133
F11.0
aF6.0
aF1500.0
aF26.0
ag39
aa(lp134
F2.0
aF2.0
aF500.0
aF16.0
ag39
aa(lp135
F2.0
aF7.0
aF1750.0
aF76.0
ag39
aa(lp136
F11.0
aF6.0
aF1500.0
aF27.0
ag39
aa(lp137
F11.0
aF3.0
aF750.0
aF14.0
ag39
aa(lp138
F4.0
aF1.0
aF250.0
aF4.0
ag39
aa(lp139
F4.0
aF1.0
aF250.0
aF4.0
ag39
aa(lp140
F4.0
aF1.0
aF250.0
aF4.0
ag39
aa(lp141
F4.0
aF1.0
aF250.0
aF4.0
ag39
aa(lp142
F4.0
aF1.0
aF250.0
aF4.0
ag39
aa(lp143
F4.0
aF1.0
aF250.0
aF4.0
ag2
aa(lp144
F4.0
aF1.0
aF250.0
aF4.0
ag39
aa(lp145
F4.0
aF1.0
aF250.0
aF4.0
ag39
aa(lp146
F4.0
aF1.0
aF250.0
aF4.0
ag39
aa(lp147
F4.0
aF1.0
aF250.0
aF4.0
ag39
aa(lp148
F4.0
aF1.0
aF250.0
aF4.0
ag39
aa(lp149
F4.0
aF1.0
aF250.0
aF4.0
ag2
aa(lp150
F4.0
aF1.0
aF250.0
aF4.0
ag2
aa(lp151
F4.0
aF1.0
aF250.0
aF4.0
ag39
aa(lp152
F4.0
aF1.0
aF250.0
aF4.0
ag2
aa(lp153
F4.0
aF1.0
aF250.0
aF4.0
ag2
aa(lp154
F4.0
aF1.0
aF250.0
aF4.0
ag39
aa(lp155
F4.0
aF3.0
aF750.0
aF24.0
ag39
aa(lp156
F4.0
aF1.0
aF250.0
aF4.0
ag39
aa(lp157
F4.0
aF1.0
aF250.0
aF4.0
ag39
aa(lp158
F4.0
aF1.0
aF250.0
aF4.0
ag39
aa(lp159
F4.0
aF1.0
aF250.0
aF4.0
ag2
aa(lp160
F4.0
aF1.0
aF250.0
aF4.0
ag39
aa(lp161
F10.0
aF8.0
aF2000.0
aF39.0
ag39
aa(lp162
F14.0
aF7.0
aF1750.0
aF26.0
ag39
aa(lp163
F8.0
aF10.0
aF2500.0
aF63.0
ag39
aa(lp164
F11.0
aF3.0
aF750.0
aF15.0
ag39
aa(lp165
F4.0
aF2.0
aF500.0
aF14.0
ag39
aa(lp166
F2.0
aF4.0
aF1000.0
aF43.0
ag39
aa(lp167
F8.0
aF9.0
aF2250.0
aF58.0
ag39
aa(lp168
F8.0
aF8.0
aF2000.0
aF52.0
ag2
aa(lp169
F11.0
aF22.0
aF5500.0
aF98.0
ag39
aa(lp170
F4.0
aF3.0
aF750.0
aF25.0
ag2
aa(lp171
F11.0
aF17.0
aF4250.0
aF79.0
ag2
aa(lp172
F9.0
aF2.0
aF500.0
aF11.0
ag39
aa(lp173
F4.0
aF5.0
aF1250.0
aF46.0
ag39
aa(lp174
F11.0
aF12.0
aF3000.0
aF58.0
ag39
aa(lp175
F7.0
aF12.0
aF3000.0
aF86.0
ag39
aa(lp176
F11.0
aF2.0
aF500.0
aF11.0
ag39
aa(lp177
F11.0
aF2.0
aF500.0
aF11.0
ag39
aa(lp178
F11.0
aF2.0
aF500.0
aF11.0
ag39
aa(lp179
F2.0
aF6.0
aF1500.0
aF75.0
ag39
aa(lp180
F11.0
aF8.0
aF2000.0
aF41.0
ag2
aa(lp181
F11.0
aF3.0
aF750.0
aF16.0
ag2
aa(lp182
F12.0
aF13.0
aF3250.0
aF59.0
ag39
aa(lp183
F2.0
aF3.0
aF750.0
aF35.0
ag39
aa(lp184
F16.0
aF8.0
aF2000.0
aF28.0
ag39
aa(lp185
F11.0
aF7.0
aF1750.0
aF37.0
ag39
aa(lp186
F4.0
aF3.0
aF750.0
aF28.0
ag39
aa(lp187
F12.0
aF12.0
aF3000.0
aF58.0
ag39
aa(lp188
F4.0
aF4.0
aF1000.0
aF41.0
ag39
aa(lp189
F11.0
aF14.0
aF3500.0
aF73.0
ag2
aa(lp190
F2.0
aF2.0
aF500.0
aF23.0
ag39
aa(lp191
F2.0
aF3.0
aF750.0
aF38.0
ag2
aa(lp192
F4.0
aF5.0
aF1250.0
aF58.0
ag39
aa(lp193
F4.0
aF4.0
aF1000.0
aF43.0
ag2
aa(lp194
F3.0
aF2.0
aF500.0
aF23.0
ag39
aa(lp195
F11.0
aF8.0
aF2000.0
aF46.0
ag39
aa(lp196
F4.0
aF7.0
aF1750.0
aF82.0
ag39
aa(lp197
F13.0
aF4.0
aF1000.0
aF21.0
ag39
aa(lp198
F16.0
aF11.0
aF2750.0
aF40.0
ag39
aa(lp199
F16.0
aF7.0
aF1750.0
aF28.0
ag39
aa(lp200
F7.0
aF2.0
aF500.0
aF16.0
ag39
aa(lp201
F4.0
aF5.0
aF1250.0
aF58.0
ag39
aa(lp202
F4.0
aF5.0
aF1250.0
aF58.0
ag39
aa(lp203
F4.0
aF4.0
aF1000.0
aF46.0
ag39
aa(lp204
F14.0
aF13.0
aF3250.0
aF57.0
ag39
aa(lp205
F4.0
aF3.0
aF750.0
aF34.0
ag39
aa(lp206
F14.0
aF18.0
aF4500.0
aF78.0
ag39
aa(lp207
F11.0
aF8.0
aF2000.0
aF48.0
ag39
aa(lp208
F14.0
aF16.0
aF4000.0
aF70.0
ag39
aa(lp209
F14.0
aF4.0
aF1000.0
aF22.0
ag2
aa(lp210
F14.0
aF5.0
aF1250.0
aF26.0
ag39
aa(lp211
F8.0
aF2.0
aF500.0
aF16.0
ag39
aa(lp212
F11.0
aF5.0
aF1250.0
aF33.0
ag39
aa(lp213
F11.0
aF2.0
aF500.0
aF14.0
ag39
aa(lp214
F4.0
aF2.0
aF500.0
aF23.0
ag39
aa(lp215
F9.0
aF2.0
aF500.0
aF16.0
ag2
aa(lp216
F14.0
aF5.0
aF1250.0
aF28.0
ag2
aa(lp217
F14.0
aF3.0
aF750.0
aF19.0
ag2
aa(lp218
F14.0
aF4.0
aF1000.0
aF23.0
ag2
aa(lp219
F16.0
aF12.0
aF3000.0
aF50.0
ag39
aa(lp220
F11.0
aF4.0
aF1000.0
aF28.0
ag39
aa(lp221
F11.0
aF5.0
aF1250.0
aF35.0
ag39
aa(lp222
F11.0
aF5.0
aF1250.0
aF35.0
ag39
aa(lp223
F2.0
aF4.0
aF1000.0
aF70.0
ag39
aa(lp224
F14.0
aF5.0
aF1250.0
aF28.0
ag39
aa(lp225
F14.0
aF2.0
aF500.0
aF14.0
ag39
aa(lp226
F14.0
aF2.0
aF500.0
aF14.0
ag39
aa(lp227
F14.0
aF2.0
aF500.0
aF14.0
ag39
aa(lp228
F14.0
aF2.0
aF500.0
aF14.0
ag39
aa(lp229
F14.0
aF2.0
aF500.0
aF14.0
ag39
aa(lp230
F14.0
aF2.0
aF500.0
aF14.0
ag39
aa(lp231
F2.0
aF3.0
aF750.0
aF52.0
ag39
aa(lp232
F14.0
aF6.0
aF1500.0
aF34.0
ag39
aa(lp233
F11.0
aF5.0
aF1250.0
aF37.0
ag2
aa(lp234
F4.0
aF5.0
aF1250.0
aF74.0
ag39
aa(lp235
F11.0
aF3.0
aF750.0
aF23.0
ag39
aa(lp236
F16.0
aF4.0
aF1000.0
aF23.0
ag39
aa(lp237
F16.0
aF3.0
aF750.0
aF19.0
ag39
aa(lp238
F11.0
aF5.0
aF1250.0
aF38.0
ag39
aa(lp239
F11.0
aF2.0
aF500.0
aF16.0
ag39
aa(lp240
F12.0
aF9.0
aF2250.0
aF60.0
ag39
aa(lp241
F9.0
aF1.0
aF250.0
aF9.0
ag39
aa(lp242
F9.0
aF1.0
aF250.0
aF9.0
ag39
aa(lp243
F4.0
aF2.0
aF500.0
aF29.0
ag39
aa(lp244
F11.0
aF2.0
aF500.0
aF17.0
ag39
aa(lp245
F14.0
aF4.0
aF1000.0
aF26.0
ag39
aa(lp246
F11.0
aF9.0
aF2250.0
aF72.0
ag2
aa(lp247
F11.0
aF5.0
aF1250.0
aF41.0
ag39
aa(lp248
F15.0
aF16.0
aF4000.0
aF82.0
ag39
aa(lp249
F9.0
aF5.0
aF1250.0
aF51.0
ag2
aa(lp250
F11.0
aF4.0
aF1000.0
aF34.0
ag39
aa(lp251
F14.0
aF8.0
aF2000.0
aF50.0
ag2
aa(lp252
F16.0
aF7.0
aF1750.0
aF38.0
ag39
aa(lp253
F14.0
aF2.0
aF500.0
aF16.0
ag39
aa(lp254
F2.0
aF2.0
aF500.0
aF41.0
ag39
aa(lp255
F14.0
aF16.0
aF4000.0
aF98.0
ag39
aa(lp256
F14.0
aF4.0
aF1000.0
aF28.0
ag2
aa(lp257
F16.0
aF7.0
aF1750.0
aF39.0
ag39
aa(lp258
F14.0
aF7.0
aF1750.0
aF47.0
ag39
aa(lp259
F16.0
aF6.0
aF1500.0
aF35.0
ag39
aa(lp260
F16.0
aF6.0
aF1500.0
aF35.0
ag2
aa(lp261
F11.0
aF7.0
aF1750.0
aF62.0
ag2
aa(lp262
F16.0
aF2.0
aF500.0
aF16.0
ag39
aa(lp263
F16.0
aF3.0
aF750.0
aF21.0
ag2
aa(lp264
F11.0
aF3.0
aF750.0
aF28.0
ag39
aa(lp265
F11.0
aF7.0
aF1750.0
aF64.0
ag39
aa(lp266
F11.0
aF1.0
aF250.0
aF11.0
ag2
aa(lp267
F9.0
aF3.0
aF750.0
aF34.0
ag39
aa(lp268
F14.0
aF4.0
aF1000.0
aF30.0
ag39
aa(lp269
F23.0
aF38.0
aF9500.0
aF98.0
ag39
aa(lp270
F11.0
aF6.0
aF1500.0
aF58.0
ag39
aa(lp271
F11.0
aF1.0
aF250.0
aF11.0
ag39
aa(lp272
F11.0
aF1.0
aF250.0
aF11.0
ag39
aa(lp273
F11.0
aF1.0
aF250.0
aF11.0
ag39
aa(lp274
F11.0
aF1.0
aF250.0
aF11.0
ag39
aa(lp275
F11.0
aF1.0
aF250.0
aF11.0
ag39
aa(lp276
F11.0
aF1.0
aF250.0
aF11.0
ag39
aa(lp277
F11.0
aF1.0
aF250.0
aF11.0
ag39
aa(lp278
F11.0
aF1.0
aF250.0
aF11.0
ag39
aa(lp279
F11.0
aF2.0
aF500.0
aF21.0
ag39
aa(lp280
F11.0
aF5.0
aF1250.0
aF50.0
ag39
aa(lp281
F11.0
aF2.0
aF500.0
aF21.0
ag39
aa(lp282
F16.0
aF4.0
aF1000.0
aF28.0
ag39
aa(lp283
F4.0
aF2.0
aF500.0
aF41.0
ag39
aa(lp284
F16.0
aF6.0
aF1500.0
aF40.0
ag39
aa(lp285
F14.0
aF3.0
aF750.0
aF26.0
ag39
aa(lp286
F9.0
aF2.0
aF500.0
aF26.0
ag39
aa(lp287
F21.0
aF16.0
aF4000.0
aF64.0
ag39
aa(lp288
F14.0
aF6.0
aF1500.0
aF51.0
ag39
aa(lp289
F11.0
aF2.0
aF500.0
aF24.0
ag39
aa(lp290
F4.0
aF3.0
aF750.0
aF71.0
ag39
aa(lp291
F21.0
aF13.0
aF3250.0
aF57.0
ag39
aa(lp292
F11.0
aF6.0
aF1500.0
aF71.0
ag39
aa(lp293
F14.0
aF2.0
aF500.0
aF21.0
ag2
aa(lp294
F23.0
aF15.0
aF3750.0
aF57.0
ag39
aa(lp295
F14.0
aF4.0
aF1000.0
aF38.0
ag39
aa(lp296
F11.0
aF2.0
aF500.0
aF26.0
ag39
aa(lp297
F16.0
aF5.0
aF1250.0
aF40.0
ag2
aa(lp298
F4.0
aF2.0
aF500.0
aF51.0
ag2
aa(lp299
F14.0
aF3.0
aF750.0
aF31.0
ag39
aa(lp300
F4.0
aF2.0
aF500.0
aF52.0
ag39
aa(lp301
F9.0
aF4.0
aF1000.0
aF65.0
ag39
aa(lp302
F14.0
aF4.0
aF1000.0
aF40.0
ag39
aa(lp303
F11.0
aF3.0
aF750.0
aF40.0
ag2
aa(lp304
F14.0
aF5.0
aF1250.0
aF50.0
ag39
aa(lp305
F14.0
aF1.0
aF250.0
aF14.0
ag39
aa(lp306
F14.0
aF1.0
aF250.0
aF14.0
ag39
aa(lp307
F14.0
aF1.0
aF250.0
aF14.0
ag39
aa(lp308
F14.0
aF1.0
aF250.0
aF14.0
ag39
aa(lp309
F14.0
aF1.0
aF250.0
aF14.0
ag39
aa(lp310
F14.0
aF1.0
aF250.0
aF14.0
ag39
aa(lp311
F14.0
aF1.0
aF250.0
aF14.0
ag39
aa(lp312
F14.0
aF1.0
aF250.0
aF14.0
ag39
aa(lp313
F14.0
aF7.0
aF1750.0
aF72.0
ag39
aa(lp314
F14.0
aF1.0
aF250.0
aF14.0
ag39
aa(lp315
F14.0
aF1.0
aF250.0
aF14.0
ag39
aa(lp316
F9.0
aF3.0
aF750.0
aF52.0
ag39
aa(lp317
F14.0
aF7.0
aF1750.0
aF73.0
ag39
aa(lp318
F11.0
aF4.0
aF1000.0
aF58.0
ag39
aa(lp319
F11.0
aF4.0
aF1000.0
aF59.0
ag39
aa(lp320
F4.0
aF2.0
aF500.0
aF59.0
ag39
aa(lp321
F11.0
aF4.0
aF1000.0
aF61.0
ag39
aa(lp322
F16.0
aF4.0
aF1000.0
aF40.0
ag39
aa(lp323
F16.0
aF10.0
aF2500.0
aF89.0
ag39
aa(lp324
F21.0
aF2.0
aF500.0
aF21.0
ag2
aa(lp325
F21.0
aF3.0
aF750.0
aF26.0
ag39
aa(lp326
F16.0
aF8.0
aF2000.0
aF76.0
ag39
aa(lp327
F21.0
aF3.0
aF750.0
aF26.0
ag2
aa(lp328
F18.0
aF2.0
aF500.0
aF23.0
ag39
aa(lp329
F23.0
aF5.0
aF1250.0
aF33.0
ag39
aa(lp330
F23.0
aF8.0
aF2000.0
aF46.0
ag39
aa(lp331
F16.0
aF3.0
aF750.0
aF34.0
ag39
aa(lp332
F14.0
aF5.0
aF1250.0
aF64.0
ag39
aa(lp333
F14.0
aF3.0
aF750.0
aF41.0
ag39
aa(lp334
F16.0
aF1.0
aF250.0
aF16.0
ag39
aa(lp335
F16.0
aF1.0
aF250.0
aF16.0
ag39
aa(lp336
F16.0
aF1.0
aF250.0
aF16.0
ag39
aa(lp337
F16.0
aF1.0
aF250.0
aF16.0
ag39
aa(lp338
F16.0
aF1.0
aF250.0
aF16.0
ag39
aa(lp339
F16.0
aF1.0
aF250.0
aF16.0
ag39
aa(lp340
F16.0
aF1.0
aF250.0
aF16.0
ag39
aa(lp341
F16.0
aF4.0
aF1000.0
aF45.0
ag39
aa(lp342
F16.0
aF1.0
aF250.0
aF16.0
ag39
aa(lp343
F16.0
aF1.0
aF250.0
aF16.0
ag39
aa(lp344
F16.0
aF1.0
aF250.0
aF16.0
ag39
aa(lp345
F16.0
aF1.0
aF250.0
aF16.0
ag39
aa(lp346
F16.0
aF1.0
aF250.0
aF16.0
ag39
aa(lp347
F16.0
aF2.0
aF500.0
aF26.0
ag39
aa(lp348
F21.0
aF2.0
aF500.0
aF23.0
ag39
aa(lp349
F16.0
aF2.0
aF500.0
aF27.0
ag39
aa(lp350
F21.0
aF2.0
aF500.0
aF23.0
ag39
aa(lp351
F21.0
aF2.0
aF500.0
aF23.0
ag39
aa(lp352
F14.0
aF4.0
aF1000.0
aF57.0
ag39
aa(lp353
F16.0
aF5.0
aF1250.0
aF60.0
ag39
aa(lp354
F23.0
aF2.0
aF500.0
aF23.0
ag39
aa(lp355
F14.0
aF5.0
aF1250.0
aF74.0
ag39
aa(lp356
F23.0
aF3.0
aF750.0
aF28.0
ag39
aa(lp357
F16.0
aF3.0
aF750.0
aF40.0
ag39
aa(lp358
F9.0
aF2.0
aF500.0
aF52.0
ag39
aa(lp359
F9.0
aF2.0
aF500.0
aF52.0
ag39
aa(lp360
F16.0
aF7.0
aF1750.0
aF87.0
ag2
aa(lp361
F14.0
aF4.0
aF1000.0
aF64.0
ag39
aa(lp362
F14.0
aF2.0
aF500.0
aF35.0
ag39
aa(lp363
F16.0
aF7.0
aF1750.0
aF93.0
ag39
aa(lp364
F21.0
aF2.0
aF500.0
aF25.0
ag39
aa(lp365
F14.0
aF3.0
aF750.0
aF52.0
ag39
aa(lp366
F23.0
aF14.0
aF3500.0
aF93.0
ag39
aa(lp367
F18.0
aF8.0
aF2000.0
aF95.0
ag39
aa(lp368
F16.0
aF3.0
aF750.0
aF46.0
ag39
aa(lp369
F11.0
aF3.0
aF750.0
aF76.0
ag39
aa(lp370
F11.0
aF2.0
aF500.0
aF52.0
ag39
aa(lp371
F11.0
aF3.0
aF750.0
aF76.0
ag39
aa(lp372
F23.0
aF12.0
aF3000.0
aF86.0
ag39
aa(lp373
F21.0
aF3.0
aF750.0
aF35.0
ag39
aa(lp374
F23.0
aF2.0
aF500.0
aF26.0
ag39
aa(lp375
F23.0
aF2.0
aF500.0
aF26.0
ag39
aa(lp376
F23.0
aF8.0
aF2000.0
aF64.0
ag39
aa(lp377
F16.0
aF3.0
aF750.0
aF50.0
ag39
aa(lp378
F23.0
aF3.0
aF750.0
aF33.0
ag39
aa(lp379
F21.0
aF3.0
aF750.0
aF38.0
ag39
aa(lp380
F23.0
aF2.0
aF500.0
aF28.0
ag39
aa(lp381
F21.0
aF1.0
aF250.0
aF21.0
ag39
aa(lp382
F21.0
aF1.0
aF250.0
aF21.0
ag39
aa(lp383
F21.0
aF1.0
aF250.0
aF21.0
ag39
aa(lp384
F21.0
aF1.0
aF250.0
aF21.0
ag39
aa(lp385
F21.0
aF1.0
aF250.0
aF21.0
ag39
aa(lp386
F21.0
aF1.0
aF250.0
aF21.0
ag39
aa(lp387
F21.0
aF1.0
aF250.0
aF21.0
ag39
aa(lp388
F21.0
aF1.0
aF250.0
aF21.0
ag39
aa(lp389
F21.0
aF1.0
aF250.0
aF21.0
ag39
aa(lp390
F21.0
aF1.0
aF250.0
aF21.0
ag2
aa(lp391
F21.0
aF1.0
aF250.0
aF21.0
ag39
aa(lp392
F21.0
aF1.0
aF250.0
aF21.0
ag39
aa(lp393
F21.0
aF5.0
aF1250.0
aF60.0
ag39
aa(lp394
F23.0
aF4.0
aF1000.0
aF45.0
ag39
aa(lp395
F21.0
aF4.0
aF1000.0
aF52.0
ag39
aa(lp396
F22.0
aF1.0
aF250.0
aF22.0
ag2
aa(lp397
F11.0
aF2.0
aF500.0
aF70.0
ag39
aa(lp398
F23.0
aF5.0
aF1250.0
aF58.0
ag39
aa(lp399
F23.0
aF3.0
aF750.0
aF40.0
ag39
aa(lp400
F23.0
aF3.0
aF750.0
aF41.0
ag39
aa(lp401
F14.0
aF3.0
aF750.0
aF83.0
ag39
aa(lp402
F21.0
aF2.0
aF500.0
aF35.0
ag39
aa(lp403
F26.0
aF5.0
aF1250.0
aF49.0
ag2
aa(lp404
F23.0
aF6.0
aF1500.0
aF70.0
ag39
aa(lp405
F23.0
aF1.0
aF250.0
aF23.0
ag39
aa(lp406
F23.0
aF1.0
aF250.0
aF23.0
ag39
aa(lp407
F23.0
aF1.0
aF250.0
aF23.0
ag39
aa(lp408
F23.0
aF1.0
aF250.0
aF23.0
ag39
aa(lp409
F23.0
aF1.0
aF250.0
aF23.0
ag39
aa(lp410
F23.0
aF1.0
aF250.0
aF23.0
ag39
aa(lp411
F23.0
aF1.0
aF250.0
aF23.0
ag39
aa(lp412
F23.0
aF1.0
aF250.0
aF23.0
ag39
aa(lp413
F23.0
aF4.0
aF1000.0
aF53.0
ag39
aa(lp414
F21.0
aF6.0
aF1500.0
aF86.0
ag39
aa(lp415
F23.0
aF3.0
aF750.0
aF48.0
ag39
aa(lp416
F21.0
aF2.0
aF500.0
aF41.0
ag39
aa(lp417
F21.0
aF3.0
aF750.0
aF64.0
ag39
aa(lp418
F16.0
aF2.0
aF500.0
aF70.0
ag39
aa(lp419
F21.0
aF3.0
aF750.0
aF70.0
ag39
aa(lp420
F23.0
aF4.0
aF1000.0
aF87.0
ag39
aa(lp421
F23.0
aF3.0
aF750.0
aF89.0
ag39
aa(lp422
F23.0
aF2.0
aF500.0
aF87.0
ag39
aa(lp423
F35.0
aF3.0
aF750.0
aF64.0
ag39
aa(lp424
F38.0
aF1.0
aF250.0
aF38.0
ag39
aa(lp425
F38.0
aF1.0
aF250.0
aF38.0
ag39
aa(lp426
F40.0
aF1.0
aF250.0
aF40.0
ag39
aa(lp427
F74.0
aF1.0
aF250.0
aF74.0
ag39
aa(lp428
F2.0
aF43.0
aF10750.0
aF86.0
ag2
aa(lp429
F6.0
aF22.0
aF5500.0
aF28.0
ag2
aa(lp430
F2.0
aF34.0
aF8500.0
aF77.0
ag2
aa(lp431
F2.0
aF44.0
aF11000.0
aF98.0
ag39
aa(lp432
F0.0
aF26.0
aF6500.0
aF76.0
ag2
aa(lp433
F2.0
aF41.0
aF10250.0
aF98.0
ag2
aa(lp434
F3.0
aF21.0
aF5250.0
aF42.0
ag2
aa(lp435
F2.0
aF11.0
aF2750.0
aF23.0
ag39
aa(lp436
F2.0
aF21.0
aF5250.0
aF52.0
ag2
aa(lp437
F2.0
aF13.0
aF3250.0
aF32.0
ag2
aa(lp438
F4.0
aF4.0
aF1000.0
aF4.0
ag2
aa(lp439
F2.0
aF11.0
aF2750.0
aF26.0
ag39
aa(lp440
F2.0
aF11.0
aF2750.0
aF28.0
ag39
aa(lp441
F3.0
aF14.0
aF3500.0
aF35.0
ag39
aa(lp442
F4.0
aF16.0
aF4000.0
aF38.0
ag2
aa(lp443
F4.0
aF6.0
aF1500.0
aF14.0
ag39
aa(lp444
F3.0
aF5.0
aF1250.0
aF12.0
ag2
aa(lp445
F4.0
aF33.0
aF8250.0
aF98.0
ag2
aa(lp446
F3.0
aF10.0
aF2500.0
aF33.0
ag2
aa(lp447
F4.0
aF10.0
aF2500.0
aF28.0
ag2
aa(lp448
F2.0
aF11.0
aF2750.0
aF40.0
ag2
aa(lp449
F2.0
aF11.0
aF2750.0
aF41.0
ag2
aa(lp450
F4.0
aF13.0
aF3250.0
aF39.0
ag2
aa(lp451
F1.0
aF10.0
aF2500.0
aF43.0
ag2
aa(lp452
F4.0
aF9.0
aF2250.0
aF28.0
ag39
aa(lp453
F2.0
aF4.0
aF1000.0
aF11.0
ag39
aa(lp454
F2.0
aF5.0
aF1250.0
aF16.0
ag2
aa(lp455
F2.0
aF15.0
aF3750.0
aF64.0
ag39
aa(lp456
F5.0
aF24.0
aF6000.0
aF79.0
ag39
aa(lp457
F2.0
aF6.0
aF1500.0
aF22.0
ag2
aa(lp458
F4.0
aF5.0
aF1250.0
aF16.0
ag2
aa(lp459
F2.0
aF4.0
aF1000.0
aF14.0
ag2
aa(lp460
F4.0
aF8.0
aF2000.0
aF28.0
ag39
aa(lp461
F2.0
aF4.0
aF1000.0
aF14.0
ag39
aa(lp462
F2.0
aF6.0
aF1500.0
aF26.0
ag39
aa(lp463
F4.0
aF5.0
aF1250.0
aF16.0
ag2
aa(lp464
F2.0
aF7.0
aF1750.0
aF32.0
ag2
aa(lp465
F2.0
aF6.0
aF1500.0
aF26.0
ag2
aa(lp466
F2.0
aF8.0
aF2000.0
aF38.0
ag2
aa(lp467
F2.0
aF2.0
aF500.0
aF4.0
ag2
aa(lp468
F2.0
aF6.0
aF1500.0
aF28.0
ag2
aa(lp469
F2.0
aF10.0
aF2500.0
aF52.0
ag39
aa(lp470
F4.0
aF16.0
aF4000.0
aF70.0
ag2
aa(lp471
F4.0
aF2.0
aF500.0
aF4.0
ag2
aa(lp472
F1.0
aF14.0
aF3500.0
aF95.0
ag39
aa(lp473
F4.0
aF2.0
aF500.0
aF4.0
ag2
aa(lp474
F7.0
aF14.0
aF3500.0
aF48.0
ag39
aa(lp475
F2.0
aF3.0
aF750.0
aF11.0
ag39
aa(lp476
F2.0
aF12.0
aF3000.0
aF70.0
ag2
aa(lp477
F4.0
aF7.0
aF1750.0
aF32.0
ag2
aa(lp478
F4.0
aF4.0
aF1000.0
aF16.0
ag39
aa(lp479
F2.0
aF6.0
aF1500.0
aF35.0
ag2
aa(lp480
F4.0
aF6.0
aF1500.0
aF28.0
ag2
aa(lp481
F2.0
aF3.0
aF750.0
aF14.0
ag39
aa(lp482
F2.0
aF4.0
aF1000.0
aF23.0
ag39
aa(lp483
F4.0
aF4.0
aF1000.0
aF18.0
ag39
aa(lp484
F5.0
aF6.0
aF1500.0
aF28.0
ag39
aa(lp485
F4.0
aF6.0
aF1500.0
aF30.0
ag39
aa(lp486
F14.0
aF5.0
aF1250.0
aF14.0
ag39
aa(lp487
F3.0
aF8.0
aF2000.0
aF50.0
ag39
aa(lp488
F4.0
aF11.0
aF2750.0
aF64.0
ag2
aa(lp489
F4.0
aF9.0
aF2250.0
aF52.0
ag39
aa(lp490
F4.0
aF16.0
aF4000.0
aF98.0
ag2
aa(lp491
F7.0
aF10.0
aF2500.0
aF47.0
ag39
aa(lp492
F4.0
aF14.0
aF3500.0
aF86.0
ag39
aa(lp493
F2.0
aF9.0
aF2250.0
aF75.0
ag39
aa(lp494
F4.0
aF6.0
aF1500.0
aF35.0
ag39
aa(lp495
F4.0
aF9.0
aF2250.0
aF55.0
ag39
aa(lp496
F4.0
aF6.0
aF1500.0
aF35.0
ag2
aa(lp497
F2.0
aF6.0
aF1500.0
aF45.0
ag39
aa(lp498
F2.0
aF6.0
aF1500.0
aF47.0
ag39
aa(lp499
F4.0
aF2.0
aF500.0
aF9.0
ag39
aa(lp500
F2.0
aF2.0
aF500.0
aF11.0
ag2
aa(lp501
F2.0
aF2.0
aF500.0
aF11.0
ag39
aa(lp502
F2.0
aF2.0
aF500.0
aF11.0
ag2
aa(lp503
F4.0
aF6.0
aF1500.0
aF38.0
ag2
aa(lp504
F3.0
aF4.0
aF1000.0
aF29.0
ag2
aa(lp505
F9.0
aF9.0
aF2250.0
aF38.0
ag39
aa(lp506
F11.0
aF5.0
aF1250.0
aF18.0
ag39
aa(lp507
F2.0
aF3.0
aF750.0
aF21.0
ag39
aa(lp508
F2.0
aF1.0
aF250.0
aF2.0
ag39
aa(lp509
F2.0
aF1.0
aF250.0
aF2.0
ag2
aa(lp510
F2.0
aF1.0
aF250.0
aF2.0
ag39
aa(lp511
F2.0
aF1.0
aF250.0
aF2.0
ag39
aa(lp512
F2.0
aF1.0
aF250.0
aF2.0
ag39
aa(lp513
F2.0
aF1.0
aF250.0
aF2.0
ag39
aa(lp514
F2.0
aF1.0
aF250.0
aF2.0
ag2
aa(lp515
F2.0
aF1.0
aF250.0
aF2.0
ag39
aa(lp516
F2.0
aF1.0
aF250.0
aF2.0
ag39
aa(lp517
F2.0
aF1.0
aF250.0
aF2.0
ag39
aa(lp518
F2.0
aF1.0
aF250.0
aF2.0
ag39
aa(lp519
F11.0
aF11.0
aF2750.0
aF38.0
ag39
aa(lp520
F2.0
aF3.0
aF750.0
aF22.0
ag39
aa(lp521
F9.0
aF11.0
aF2750.0
aF49.0
ag2
aa(lp522
F5.0
aF11.0
aF2750.0
aF75.0
ag39
aa(lp523
F3.0
aF5.0
aF1250.0
aF38.0
ag39
aa(lp524
F3.0
aF1.0
aF250.0
aF3.0
ag2
aa(lp525
F4.0
aF6.0
aF1500.0
aF43.0
ag39
aa(lp526
F2.0
aF3.0
aF750.0
aF24.0
ag39
aa(lp527
F12.0
aF11.0
aF2750.0
aF39.0
ag39
aa(lp528
F2.0
aF2.0
aF500.0
aF14.0
ag39
aa(lp529
F4.0
aF6.0
aF1500.0
aF46.0
ag39
aa(lp530
F9.0
aF3.0
aF750.0
aF14.0
ag39
aa(lp531
F14.0
aF8.0
aF2000.0
aF26.0
ag39
aa(lp532
F4.0
aF2.0
aF500.0
aF13.0
ag39
aa(lp533
F4.0
aF11.0
aF2750.0
aF95.0
ag39
aa(lp534
F2.0
aF7.0
aF1750.0
aF77.0
ag39
aa(lp535
F2.0
aF7.0
aF1750.0
aF77.0
ag39
aa(lp536
F4.0
aF1.0
aF250.0
aF4.0
ag39
aa(lp537
F4.0
aF1.0
aF250.0
aF4.0
ag39
aa(lp538
F4.0
aF1.0
aF250.0
aF4.0
ag39
aa(lp539
F4.0
aF1.0
aF250.0
aF4.0
ag39
aa(lp540
F4.0
aF1.0
aF250.0
aF4.0
ag2
aa(lp541
F4.0
aF1.0
aF250.0
aF4.0
ag39
aa(lp542
F4.0
aF1.0
aF250.0
aF4.0
ag39
aa(lp543
F4.0
aF1.0
aF250.0
aF4.0
ag39
aa(lp544
F4.0
aF1.0
aF250.0
aF4.0
ag39
aa(lp545
F4.0
aF1.0
aF250.0
aF4.0
ag39
aa(lp546
F4.0
aF1.0
aF250.0
aF4.0
ag2
aa(lp547
F4.0
aF1.0
aF250.0
aF4.0
ag39
aa(lp548
F4.0
aF7.0
aF1750.0
aF62.0
ag39
aa(lp549
F4.0
aF1.0
aF250.0
aF4.0
ag39
aa(lp550
F4.0
aF4.0
aF1000.0
aF34.0
ag2
aa(lp551
F11.0
aF6.0
aF1500.0
aF28.0
ag39
aa(lp552
F13.0
aF3.0
aF750.0
aF14.0
ag2
aa(lp553
F7.0
aF5.0
aF1250.0
aF35.0
ag39
aa(lp554
F9.0
aF9.0
aF2250.0
aF54.0
ag39
aa(lp555
F11.0
aF2.0
aF500.0
aF11.0
ag39
aa(lp556
F2.0
aF5.0
aF1250.0
aF63.0
ag39
aa(lp557
F7.0
aF11.0
aF2750.0
aF89.0
ag39
aa(lp558
F8.0
aF9.0
aF2250.0
aF64.0
ag39
aa(lp559
F2.0
aF2.0
aF500.0
aF22.0
ag39
aa(lp560
F6.0
aF3.0
aF750.0
aF26.0
ag39
aa(lp561
F12.0
aF15.0
aF3750.0
aF71.0
ag39
aa(lp562
F13.0
aF3.0
aF750.0
aF16.0
ag39
aa(lp563
F11.0
aF16.0
aF4000.0
aF89.0
ag39
aa(lp564
F4.0
aF5.0
aF1250.0
aF58.0
ag39
aa(lp565
F14.0
aF7.0
aF1750.0
aF35.0
ag39
aa(lp566
F11.0
aF4.0
aF1000.0
aF27.0
ag39
aa(lp567
F7.0
aF9.0
aF2250.0
aF89.0
ag2
aa(lp568
F11.0
aF8.0
aF2000.0
aF52.0
ag2
aa(lp569
F7.0
aF5.0
aF1250.0
aF52.0
ag39
aa(lp570
F11.0
aF6.0
aF1500.0
aF41.0
ag39
aa(lp571
F10.0
aF5.0
aF1250.0
aF38.0
ag39
aa(lp572
F14.0
aF2.0
aF500.0
aF14.0
ag2
aa(lp573
F14.0
aF2.0
aF500.0
aF14.0
ag39
aa(lp574
F14.0
aF2.0
aF500.0
aF14.0
ag39
aa(lp575
F2.0
aF2.0
aF500.0
aF33.0
ag39
aa(lp576
F11.0
aF3.0
aF750.0
aF23.0
ag39
aa(lp577
F14.0
aF8.0
aF2000.0
aF46.0
ag39
aa(lp578
F9.0
aF1.0
aF250.0
aF9.0
ag39
aa(lp579
F16.0
aF5.0
aF1250.0
aF27.0
ag39
aa(lp580
F14.0
aF4.0
aF1000.0
aF26.0
ag39
aa(lp581
F4.0
aF2.0
aF500.0
aF30.0
ag39
aa(lp582
F14.0
aF3.0
aF750.0
aF21.0
ag39
aa(lp583
F16.0
aF16.0
aF4000.0
aF77.0
ag39
aa(lp584
F4.0
aF2.0
aF500.0
aF31.0
ag39
aa(lp585
F14.0
aF8.0
aF2000.0
aF50.0
ag39
aa(lp586
F11.0
aF3.0
aF750.0
aF26.0
ag39
aa(lp587
F14.0
aF7.0
aF1750.0
aF45.0
ag39
aa(lp588
F15.0
aF5.0
aF1250.0
aF33.0
ag39
aa(lp589
F16.0
aF2.0
aF500.0
aF16.0
ag39
aa(lp590
F16.0
aF3.0
aF750.0
aF21.0
ag39
aa(lp591
F11.0
aF8.0
aF2000.0
aF72.0
ag39
aa(lp592
F11.0
aF1.0
aF250.0
aF11.0
ag39
aa(lp593
F11.0
aF1.0
aF250.0
aF11.0
ag39
aa(lp594
F11.0
aF1.0
aF250.0
aF11.0
ag39
aa(lp595
F11.0
aF1.0
aF250.0
aF11.0
ag2
aa(lp596
F11.0
aF1.0
aF250.0
aF11.0
ag39
aa(lp597
F2.0
aF3.0
aF750.0
aF75.0
ag2
aa(lp598
F2.0
aF3.0
aF750.0
aF77.0
ag39
aa(lp599
F16.0
aF4.0
aF1000.0
aF28.0
ag39
aa(lp600
F16.0
aF15.0
aF3750.0
aF87.0
ag39
aa(lp601
F16.0
aF14.0
aF3500.0
aF83.0
ag39
aa(lp602
F16.0
aF10.0
aF2500.0
aF62.0
ag39
aa(lp603
F16.0
aF3.0
aF750.0
aF23.0
ag39
aa(lp604
F14.0
aF3.0
aF750.0
aF26.0
ag39
aa(lp605
F23.0
aF19.0
aF4750.0
aF62.0
ag39
aa(lp606
F11.0
aF7.0
aF1750.0
aF75.0
ag39
aa(lp607
F14.0
aF3.0
aF750.0
aF28.0
ag39
aa(lp608
F20.0
aF14.0
aF3500.0
aF69.0
ag2
aa(lp609
F4.0
aF2.0
aF500.0
aF46.0
ag39
aa(lp610
F11.0
aF2.0
aF500.0
aF25.0
ag39
aa(lp611
F11.0
aF3.0
aF750.0
aF37.0
ag39
aa(lp612
F16.0
aF4.0
aF1000.0
aF33.0
ag39
aa(lp613
F21.0
aF7.0
aF1750.0
aF38.0
ag39
aa(lp614
F13.0
aF7.0
aF1750.0
aF76.0
ag39
aa(lp615
F16.0
aF6.0
aF1500.0
aF50.0
ag39
aa(lp616
F14.0
aF3.0
aF750.0
aF33.0
ag39
aa(lp617
F14.0
aF1.0
aF250.0
aF14.0
ag39
aa(lp618
F14.0
aF1.0
aF250.0
aF14.0
ag39
aa(lp619
F14.0
aF1.0
aF250.0
aF14.0
ag39
aa(lp620
F14.0
aF1.0
aF250.0
aF14.0
ag39
aa(lp621
F14.0
aF1.0
aF250.0
aF14.0
ag39
aa(lp622
F14.0
aF1.0
aF250.0
aF14.0
ag39
aa(lp623
F17.0
aF7.0
aF1750.0
aF58.0
ag2
aa(lp624
F14.0
aF3.0
aF750.0
aF35.0
ag39
aa(lp625
F14.0
aF3.0
aF750.0
aF35.0
ag39
aa(lp626
F16.0
aF7.0
aF1750.0
aF64.0
ag39
aa(lp627
F21.0
aF2.0
aF500.0
aF21.0
ag39
aa(lp628
F16.0
aF3.0
aF750.0
aF35.0
ag39
aa(lp629
F16.0
aF1.0
aF250.0
aF16.0
ag39
aa(lp630
F16.0
aF1.0
aF250.0
aF16.0
ag39
aa(lp631
F16.0
aF1.0
aF250.0
aF16.0
ag39
aa(lp632
F16.0
aF1.0
aF250.0
aF16.0
ag39
aa(lp633
F16.0
aF1.0
aF250.0
aF16.0
ag39
aa(lp634
F14.0
aF2.0
aF500.0
aF29.0
ag39
aa(lp635
F11.0
aF4.0
aF1000.0
aF74.0
ag39
aa(lp636
F11.0
aF2.0
aF500.0
aF38.0
ag2
aa(lp637
F21.0
aF6.0
aF1500.0
aF48.0
ag39
aa(lp638
F23.0
aF2.0
aF500.0
aF23.0
ag39
aa(lp639
F23.0
aF6.0
aF1500.0
aF45.0
ag39
aa(lp640
F14.0
aF2.0
aF500.0
aF35.0
ag2
aa(lp641
F16.0
aF6.0
aF1500.0
aF81.0
ag39
aa(lp642
F16.0
aF4.0
aF1000.0
aF58.0
ag39
aa(lp643
F16.0
aF5.0
aF1250.0
aF71.0
ag39
aa(lp644
F21.0
aF2.0
aF500.0
aF26.0
ag39
aa(lp645
F21.0
aF3.0
aF750.0
aF35.0
ag39
aa(lp646
F21.0
aF3.0
aF750.0
aF35.0
ag39
aa(lp647
F23.0
aF8.0
aF2000.0
aF69.0
ag39
aa(lp648
F21.0
aF3.0
aF750.0
aF38.0
ag39
aa(lp649
F23.0
aF3.0
aF750.0
aF35.0
ag39
aa(lp650
F21.0
aF3.0
aF750.0
aF40.0
ag39
aa(lp651
F23.0
aF2.0
aF500.0
aF28.0
ag39
aa(lp652
F21.0
aF1.0
aF250.0
aF21.0
ag39
aa(lp653
F21.0
aF1.0
aF250.0
aF21.0
ag39
aa(lp654
F25.0
aF6.0
aF1500.0
aF50.0
ag39
aa(lp655
F21.0
aF1.0
aF250.0
aF21.0
ag39
aa(lp656
F21.0
aF1.0
aF250.0
aF21.0
ag39
aa(lp657
F23.0
aF3.0
aF750.0
aF39.0
ag39
aa(lp658
F21.0
aF2.0
aF500.0
aF33.0
ag39
aa(lp659
F14.0
aF3.0
aF750.0
aF79.0
ag39
aa(lp660
F23.0
aF1.0
aF250.0
aF23.0
ag2
aa(lp661
F23.0
aF1.0
aF250.0
aF23.0
ag39
aa(lp662
F23.0
aF1.0
aF250.0
aF23.0
ag39
aa(lp663
F23.0
aF1.0
aF250.0
aF23.0
ag39
aa(lp664
F23.0
aF1.0
aF250.0
aF23.0
ag39
aa(lp665
F23.0
aF1.0
aF250.0
aF23.0
ag39
aa(lp666
F23.0
aF1.0
aF250.0
aF23.0
ag39
aa(lp667
F23.0
aF4.0
aF1000.0
aF52.0
ag39
aa(lp668
F23.0
aF1.0
aF250.0
aF23.0
ag39
aa(lp669
F23.0
aF7.0
aF1750.0
aF88.0
ag39
aa(lp670
F16.0
aF3.0
aF750.0
aF86.0
ag39
aa(lp671
F23.0
aF2.0
aF500.0
aF38.0
ag39
aa(lp672
F21.0
aF2.0
aF500.0
aF52.0
ag39
aa(lp673
F23.0
aF3.0
aF750.0
aF62.0
ag39
aa(lp674
F39.0
aF1.0
aF250.0
aF39.0
ag39
aa(lp675
F72.0
aF1.0
aF250.0
aF72.0
ag39
aa.