(lp0
(lp1
S'low'
p2
aS'high'
p3
aS'3'
p4
aS'more'
p5
aS'med'
p6
aS'med'
p7
aS'acc'
p8
aa(lp9
S'low'
p10
aS'high'
p11
ag4
aS'more'
p12
aS'big'
p13
aS'med'
p14
aS'acc'
p15
aa(lp16
S'low'
p17
aS'high'
p18
aS'4'
p19
ag19
aS'small'
p20
aS'med'
p21
aS'acc'
p22
aa(lp23
S'low'
p24
aS'high'
p25
ag19
ag19
aS'small'
p26
aS'high'
p27
aS'acc'
p28
aa(lp29
S'low'
p30
aS'high'
p31
ag19
ag19
aS'med'
p32
aS'med'
p33
aS'acc'
p34
aa(lp35
S'low'
p36
aS'high'
p37
ag19
ag19
aS'big'
p38
aS'med'
p39
aS'acc'
p40
aa(lp41
S'low'
p42
aS'high'
p43
ag19
aS'more'
p44
aS'small'
p45
aS'med'
p46
aS'acc'
p47
aa(lp48
S'low'
p49
aS'high'
p50
ag19
aS'more'
p51
aS'small'
p52
aS'high'
p53
aS'acc'
p54
aa(lp55
S'low'
p56
aS'high'
p57
ag19
aS'more'
p58
aS'med'
p59
aS'med'
p60
aS'acc'
p61
aa(lp62
S'low'
p63
aS'high'
p64
ag19
aS'more'
p65
aS'big'
p66
aS'med'
p67
aS'acc'
p68
aa(lp69
S'low'
p70
aS'high'
p71
aS'5more'
p72
ag19
aS'small'
p73
aS'med'
p74
aS'acc'
p75
aa(lp76
S'low'
p77
aS'high'
p78
aS'5more'
p79
ag19
aS'small'
p80
aS'high'
p81
aS'acc'
p82
aa(lp83
S'low'
p84
aS'high'
p85
aS'5more'
p86
ag19
aS'med'
p87
aS'med'
p88
aS'acc'
p89
aa(lp90
S'low'
p91
aS'high'
p92
aS'5more'
p93
ag19
aS'big'
p94
aS'med'
p95
aS'acc'
p96
aa(lp97
S'low'
p98
aS'high'
p99
aS'5more'
p100
aS'more'
p101
aS'small'
p102
aS'med'
p103
aS'acc'
p104
aa(lp105
S'low'
p106
aS'high'
p107
aS'5more'
p108
aS'more'
p109
aS'small'
p110
aS'high'
p111
aS'acc'
p112
aa(lp113
S'low'
p114
aS'high'
p115
aS'5more'
p116
aS'more'
p117
aS'med'
p118
aS'med'
p119
aS'acc'
p120
aa(lp121
S'low'
p122
aS'high'
p123
aS'5more'
p124
aS'more'
p125
aS'big'
p126
aS'med'
p127
aS'acc'
p128
aa(lp129
S'low'
p130
aS'med'
p131
aS'2'
p132
ag132
aS'med'
p133
aS'low'
p134
aS'unacc'
p135
aa(lp136
S'low'
p137
aS'med'
p138
ag132
ag132
aS'med'
p139
aS'med'
p140
aS'unacc'
p141
aa(lp142
S'low'
p143
aS'med'
p144
ag132
ag132
aS'med'
p145
aS'high'
p146
aS'unacc'
p147
aa(lp148
S'low'
p149
aS'med'
p150
ag132
ag132
aS'big'
p151
aS'low'
p152
aS'unacc'
p153
aa(lp154
S'low'
p155
aS'med'
p156
ag132
ag132
aS'big'
p157
aS'med'
p158
aS'unacc'
p159
aa(lp160
S'low'
p161
aS'med'
p162
ag132
ag132
aS'big'
p163
aS'high'
p164
aS'unacc'
p165
aa(lp166
S'low'
p167
aS'med'
p168
ag132
ag19
aS'small'
p169
aS'low'
p170
aS'unacc'
p171
aa(lp172
S'low'
p173
aS'med'
p174
ag132
ag19
aS'small'
p175
aS'med'
p176
aS'acc'
p177
aa(lp178
S'low'
p179
aS'med'
p180
ag132
ag19
aS'med'
p181
aS'low'
p182
aS'unacc'
p183
aa(lp184
S'low'
p185
aS'med'
p186
ag132
ag19
aS'med'
p187
aS'med'
p188
aS'acc'
p189
aa(lp190
S'low'
p191
aS'med'
p192
ag132
ag19
aS'big'
p193
aS'low'
p194
aS'unacc'
p195
aa(lp196
S'low'
p197
aS'med'
p198
ag132
aS'more'
p199
aS'small'
p200
aS'low'
p201
aS'unacc'
p202
aa(lp203
S'low'
p204
aS'med'
p205
ag132
aS'more'
p206
aS'small'
p207
aS'med'
p208
aS'unacc'
p209
aa(lp210
S'low'
p211
aS'med'
p212
ag132
aS'more'
p213
aS'small'
p214
aS'high'
p215
aS'unacc'
p216
aa(lp217
S'low'
p218
aS'med'
p219
ag132
aS'more'
p220
aS'med'
p221
aS'low'
p222
aS'unacc'
p223
aa(lp224
S'low'
p225
aS'med'
p226
ag132
aS'more'
p227
aS'med'
p228
aS'med'
p229
aS'acc'
p230
aa(lp231
S'low'
p232
aS'med'
p233
ag132
aS'more'
p234
aS'big'
p235
aS'low'
p236
aS'unacc'
p237
aa(lp238
S'low'
p239
aS'med'
p240
ag4
ag132
aS'small'
p241
aS'low'
p242
aS'unacc'
p243
aa(lp244
S'low'
p245
aS'med'
p246
ag4
ag132
aS'small'
p247
aS'med'
p248
aS'unacc'
p249
aa(lp250
S'low'
p251
aS'med'
p252
ag4
ag132
aS'small'
p253
aS'high'
p254
aS'unacc'
p255
aa(lp256
S'low'
p257
aS'med'
p258
ag4
ag132
aS'med'
p259
aS'low'
p260
aS'unacc'
p261
aa(lp262
S'low'
p263
aS'med'
p264
ag4
ag132
aS'med'
p265
aS'med'
p266
aS'unacc'
p267
aa(lp268
S'low'
p269
aS'med'
p270
ag4
ag132
aS'med'
p271
aS'high'
p272
aS'unacc'
p273
aa(lp274
S'low'
p275
aS'med'
p276
ag4
ag132
aS'big'
p277
aS'low'
p278
aS'unacc'
p279
aa(lp280
S'low'
p281
aS'med'
p282
ag4
ag132
aS'big'
p283
aS'med'
p284
aS'unacc'
p285
aa(lp286
S'low'
p287
aS'med'
p288
ag4
ag132
aS'big'
p289
aS'high'
p290
aS'unacc'
p291
aa(lp292
S'low'
p293
aS'med'
p294
ag4
ag19
aS'small'
p295
aS'low'
p296
aS'unacc'
p297
aa(lp298
S'low'
p299
aS'med'
p300
ag4
ag19
aS'small'
p301
aS'med'
p302
aS'acc'
p303
aa(lp304
S'low'
p305
aS'med'
p306
ag4
ag19
aS'med'
p307
aS'low'
p308
aS'unacc'
p309
aa(lp310
S'low'
p311
aS'med'
p312
ag4
ag19
aS'med'
p313
aS'med'
p314
aS'acc'
p315
aa(lp316
S'low'
p317
aS'med'
p318
ag4
ag19
aS'big'
p319
aS'low'
p320
aS'unacc'
p321
aa(lp322
S'low'
p323
aS'med'
p324
ag4
aS'more'
p325
aS'small'
p326
aS'low'
p327
aS'unacc'
p328
aa(lp329
S'low'
p330
aS'med'
p331
ag4
aS'more'
p332
aS'small'
p333
aS'med'
p334
aS'acc'
p335
aa(lp336
S'low'
p337
aS'med'
p338
ag4
aS'more'
p339
aS'med'
p340
aS'low'
p341
aS'unacc'
p342
aa(lp343
S'low'
p344
aS'med'
p345
ag4
aS'more'
p346
aS'big'
p347
aS'low'
p348
aS'unacc'
p349
aa(lp350
S'low'
p351
aS'med'
p352
ag19
ag132
aS'small'
p353
aS'low'
p354
aS'unacc'
p355
aa(lp356
S'low'
p357
aS'med'
p358
ag19
ag132
aS'small'
p359
aS'med'
p360
aS'unacc'
p361
aa(lp362
S'low'
p363
aS'med'
p364
ag19
ag132
aS'small'
p365
aS'high'
p366
aS'unacc'
p367
aa(lp368
S'low'
p369
aS'med'
p370
ag19
ag132
aS'med'
p371
aS'low'
p372
aS'unacc'
p373
aa(lp374
S'low'
p375
aS'med'
p376
ag19
ag132
aS'med'
p377
aS'med'
p378
aS'unacc'
p379
aa(lp380
S'low'
p381
aS'med'
p382
ag19
ag132
aS'med'
p383
aS'high'
p384
aS'unacc'
p385
aa(lp386
S'low'
p387
aS'med'
p388
ag19
ag132
aS'big'
p389
aS'low'
p390
aS'unacc'
p391
aa(lp392
S'low'
p393
aS'med'
p394
ag19
ag132
aS'big'
p395
aS'med'
p396
aS'unacc'
p397
aa(lp398
S'low'
p399
aS'med'
p400
ag19
ag132
aS'big'
p401
aS'high'
p402
aS'unacc'
p403
aa(lp404
S'low'
p405
aS'med'
p406
ag19
ag19
aS'small'
p407
aS'low'
p408
aS'unacc'
p409
aa(lp410
S'low'
p411
aS'med'
p412
ag19
ag19
aS'small'
p413
aS'med'
p414
aS'acc'
p415
aa(lp416
S'low'
p417
aS'med'
p418
ag19
ag19
aS'med'
p419
aS'low'
p420
aS'unacc'
p421
aa(lp422
S'low'
p423
aS'med'
p424
ag19
ag19
aS'big'
p425
aS'low'
p426
aS'unacc'
p427
aa(lp428
S'low'
p429
aS'med'
p430
ag19
aS'more'
p431
aS'small'
p432
aS'low'
p433
aS'unacc'
p434
aa(lp435
S'low'
p436
aS'med'
p437
ag19
aS'more'
p438
aS'small'
p439
aS'med'
p440
aS'acc'
p441
aa(lp442
S'low'
p443
aS'med'
p444
ag19
aS'more'
p445
aS'med'
p446
aS'low'
p447
aS'unacc'
p448
aa(lp449
S'low'
p450
aS'med'
p451
ag19
aS'more'
p452
aS'big'
p453
aS'low'
p454
aS'unacc'
p455
aa(lp456
S'low'
p457
aS'med'
p458
aS'5more'
p459
ag132
aS'small'
p460
aS'low'
p461
aS'unacc'
p462
aa(lp463
S'low'
p464
aS'med'
p465
aS'5more'
p466
ag132
aS'small'
p467
aS'med'
p468
aS'unacc'
p469
aa(lp470
S'low'
p471
aS'med'
p472
aS'5more'
p473
ag132
aS'small'
p474
aS'high'
p475
aS'unacc'
p476
aa(lp477
S'low'
p478
aS'med'
p479
aS'5more'
p480
ag132
aS'med'
p481
aS'low'
p482
aS'unacc'
p483
aa(lp484
S'low'
p485
aS'med'
p486
aS'5more'
p487
ag132
aS'med'
p488
aS'med'
p489
aS'unacc'
p490
aa(lp491
S'low'
p492
aS'med'
p493
aS'5more'
p494
ag132
aS'med'
p495
aS'high'
p496
aS'unacc'
p497
aa(lp498
S'low'
p499
aS'med'
p500
aS'5more'
p501
ag132
aS'big'
p502
aS'low'
p503
aS'unacc'
p504
aa(lp505
S'low'
p506
aS'med'
p507
aS'5more'
p508
ag132
aS'big'
p509
aS'med'
p510
aS'unacc'
p511
aa(lp512
S'low'
p513
aS'med'
p514
aS'5more'
p515
ag132
aS'big'
p516
aS'high'
p517
aS'unacc'
p518
aa(lp519
S'low'
p520
aS'med'
p521
aS'5more'
p522
ag19
aS'small'
p523
aS'low'
p524
aS'unacc'
p525
aa(lp526
S'low'
p527
aS'med'
p528
aS'5more'
p529
ag19
aS'small'
p530
aS'med'
p531
aS'acc'
p532
aa(lp533
S'low'
p534
aS'med'
p535
aS'5more'
p536
ag19
aS'med'
p537
aS'low'
p538
aS'unacc'
p539
aa(lp540
S'low'
p541
aS'med'
p542
aS'5more'
p543
ag19
aS'big'
p544
aS'low'
p545
aS'unacc'
p546
aa(lp547
S'low'
p548
aS'med'
p549
aS'5more'
p550
aS'more'
p551
aS'small'
p552
aS'low'
p553
aS'unacc'
p554
aa(lp555
S'low'
p556
aS'med'
p557
aS'5more'
p558
aS'more'
p559
aS'small'
p560
aS'med'
p561
aS'acc'
p562
aa(lp563
S'low'
p564
aS'med'
p565
aS'5more'
p566
aS'more'
p567
aS'med'
p568
aS'low'
p569
aS'unacc'
p570
aa(lp571
S'low'
p572
aS'med'
p573
aS'5more'
p574
aS'more'
p575
aS'big'
p576
aS'low'
p577
aS'unacc'
p578
aa(lp579
S'low'
p580
aS'low'
p581
ag132
ag132
aS'small'
p582
aS'low'
p583
aS'unacc'
p584
aa(lp585
S'low'
p586
aS'low'
p587
ag132
ag132
aS'small'
p588
aS'med'
p589
aS'unacc'
p590
aa(lp591
S'low'
p592
aS'low'
p593
ag132
ag132
aS'small'
p594
aS'high'
p595
aS'unacc'
p596
aa(lp597
S'low'
p598
aS'low'
p599
ag132
ag132
aS'med'
p600
aS'low'
p601
aS'unacc'
p602
aa(lp603
S'low'
p604
aS'low'
p605
ag132
ag132
aS'med'
p606
aS'med'
p607
aS'unacc'
p608
aa(lp609
S'low'
p610
aS'low'
p611
ag132
ag132
aS'med'
p612
aS'high'
p613
aS'unacc'
p614
aa(lp615
S'low'
p616
aS'low'
p617
ag132
ag132
aS'big'
p618
aS'low'
p619
aS'unacc'
p620
aa(lp621
S'low'
p622
aS'low'
p623
ag132
ag132
aS'big'
p624
aS'med'
p625
aS'unacc'
p626
aa(lp627
S'low'
p628
aS'low'
p629
ag132
ag132
aS'big'
p630
aS'high'
p631
aS'unacc'
p632
aa(lp633
S'low'
p634
aS'low'
p635
ag132
ag19
aS'small'
p636
aS'low'
p637
aS'unacc'
p638
aa(lp639
S'low'
p640
aS'low'
p641
ag132
ag19
aS'small'
p642
aS'med'
p643
aS'acc'
p644
aa(lp645
S'low'
p646
aS'low'
p647
ag132
ag19
aS'med'
p648
aS'low'
p649
aS'unacc'
p650
aa(lp651
S'low'
p652
aS'low'
p653
ag132
ag19
aS'med'
p654
aS'med'
p655
aS'acc'
p656
aa(lp657
S'low'
p658
aS'low'
p659
ag132
ag19
aS'big'
p660
aS'low'
p661
aS'unacc'
p662
aa(lp663
S'low'
p664
aS'low'
p665
ag132
aS'more'
p666
aS'small'
p667
aS'low'
p668
aS'unacc'
p669
aa(lp670
S'low'
p671
aS'low'
p672
ag132
aS'more'
p673
aS'small'
p674
aS'med'
p675
aS'unacc'
p676
aa(lp677
S'low'
p678
aS'low'
p679
ag132
aS'more'
p680
aS'small'
p681
aS'high'
p682
aS'unacc'
p683
aa(lp684
S'low'
p685
aS'low'
p686
ag132
aS'more'
p687
aS'med'
p688
aS'low'
p689
aS'unacc'
p690
aa(lp691
S'low'
p692
aS'low'
p693
ag132
aS'more'
p694
aS'med'
p695
aS'med'
p696
aS'acc'
p697
aa(lp698
S'low'
p699
aS'low'
p700
ag132
aS'more'
p701
aS'big'
p702
aS'low'
p703
aS'unacc'
p704
aa(lp705
S'low'
p706
aS'low'
p707
ag4
ag132
aS'small'
p708
aS'low'
p709
aS'unacc'
p710
aa(lp711
S'low'
p712
aS'low'
p713
ag4
ag132
aS'small'
p714
aS'med'
p715
aS'unacc'
p716
aa(lp717
S'low'
p718
aS'low'
p719
ag4
ag132
aS'small'
p720
aS'high'
p721
aS'unacc'
p722
aa(lp723
S'low'
p724
aS'low'
p725
ag4
ag132
aS'med'
p726
aS'low'
p727
aS'unacc'
p728
aa(lp729
S'low'
p730
aS'low'
p731
ag4
ag132
aS'med'
p732
aS'med'
p733
aS'unacc'
p734
aa(lp735
S'low'
p736
aS'low'
p737
ag4
ag132
aS'med'
p738
aS'high'
p739
aS'unacc'
p740
aa(lp741
S'low'
p742
aS'low'
p743
ag4
ag132
aS'big'
p744
aS'low'
p745
aS'unacc'
p746
aa(lp747
S'low'
p748
aS'low'
p749
ag4
ag132
aS'big'
p750
aS'med'
p751
aS'unacc'
p752
aa(lp753
S'low'
p754
aS'low'
p755
ag4
ag132
aS'big'
p756
aS'high'
p757
aS'unacc'
p758
aa(lp759
S'low'
p760
aS'low'
p761
ag4
ag19
aS'small'
p762
aS'low'
p763
aS'unacc'
p764
aa(lp765
S'low'
p766
aS'low'
p767
ag4
ag19
aS'small'
p768
aS'med'
p769
aS'acc'
p770
aa(lp771
S'low'
p772
aS'low'
p773
ag4
ag19
aS'med'
p774
aS'low'
p775
aS'unacc'
p776
aa(lp777
S'low'
p778
aS'low'
p779
ag4
ag19
aS'med'
p780
aS'med'
p781
aS'acc'
p782
aa(lp783
S'low'
p784
aS'low'
p785
ag4
ag19
aS'big'
p786
aS'low'
p787
aS'unacc'
p788
aa(lp789
S'low'
p790
aS'low'
p791
ag4
aS'more'
p792
aS'small'
p793
aS'low'
p794
aS'unacc'
p795
aa(lp796
S'low'
p797
aS'low'
p798
ag4
aS'more'
p799
aS'small'
p800
aS'med'
p801
aS'acc'
p802
aa(lp803
S'low'
p804
aS'low'
p805
ag4
aS'more'
p806
aS'med'
p807
aS'low'
p808
aS'unacc'
p809
aa(lp810
S'low'
p811
aS'low'
p812
ag4
aS'more'
p813
aS'big'
p814
aS'low'
p815
aS'unacc'
p816
aa(lp817
S'low'
p818
aS'low'
p819
ag19
ag132
aS'small'
p820
aS'low'
p821
aS'unacc'
p822
aa(lp823
S'low'
p824
aS'low'
p825
ag19
ag132
aS'small'
p826
aS'med'
p827
aS'unacc'
p828
aa(lp829
S'low'
p830
aS'low'
p831
ag19
ag132
aS'small'
p832
aS'high'
p833
aS'unacc'
p834
aa(lp835
S'low'
p836
aS'low'
p837
ag19
ag132
aS'med'
p838
aS'low'
p839
aS'unacc'
p840
aa(lp841
S'low'
p842
aS'low'
p843
ag19
ag132
aS'med'
p844
aS'med'
p845
aS'unacc'
p846
aa(lp847
S'low'
p848
aS'low'
p849
ag19
ag132
aS'med'
p850
aS'high'
p851
aS'unacc'
p852
aa(lp853
S'low'
p854
aS'low'
p855
ag19
ag132
aS'big'
p856
aS'low'
p857
aS'unacc'
p858
aa(lp859
S'low'
p860
aS'low'
p861
ag19
ag132
aS'big'
p862
aS'med'
p863
aS'unacc'
p864
aa(lp865
S'low'
p866
aS'low'
p867
ag19
ag132
aS'big'
p868
aS'high'
p869
aS'unacc'
p870
aa(lp871
S'low'
p872
aS'low'
p873
ag19
ag19
aS'small'
p874
aS'low'
p875
aS'unacc'
p876
aa(lp877
S'low'
p878
aS'low'
p879
ag19
ag19
aS'small'
p880
aS'med'
p881
aS'acc'
p882
aa(lp883
S'low'
p884
aS'low'
p885
ag19
ag19
aS'med'
p886
aS'low'
p887
aS'unacc'
p888
aa(lp889
S'low'
p890
aS'low'
p891
ag19
ag19
aS'big'
p892
aS'low'
p893
aS'unacc'
p894
aa(lp895
S'low'
p896
aS'low'
p897
ag19
aS'more'
p898
aS'small'
p899
aS'low'
p900
aS'unacc'
p901
aa(lp902
S'low'
p903
aS'low'
p904
ag19
aS'more'
p905
aS'small'
p906
aS'med'
p907
aS'acc'
p908
aa(lp909
S'low'
p910
aS'low'
p911
ag19
aS'more'
p912
aS'med'
p913
aS'low'
p914
aS'unacc'
p915
aa(lp916
S'low'
p917
aS'low'
p918
ag19
aS'more'
p919
aS'med'
p920
aS'high'
p921
aS'vgood'
p922
aa(lp923
S'low'
p924
aS'low'
p925
ag19
aS'more'
p926
aS'big'
p927
aS'low'
p928
aS'unacc'
p929
aa(lp930
S'low'
p931
aS'low'
p932
ag19
aS'more'
p933
aS'big'
p934
aS'high'
p935
aS'vgood'
p936
aa(lp937
S'low'
p938
aS'low'
p939
aS'5more'
p940
ag132
aS'small'
p941
aS'low'
p942
aS'unacc'
p943
aa(lp944
S'low'
p945
aS'low'
p946
aS'5more'
p947
ag132
aS'small'
p948
aS'med'
p949
aS'unacc'
p950
aa(lp951
S'low'
p952
aS'low'
p953
aS'5more'
p954
ag132
aS'small'
p955
aS'high'
p956
aS'unacc'
p957
aa(lp958
S'low'
p959
aS'low'
p960
aS'5more'
p961
ag132
aS'med'
p962
aS'low'
p963
aS'unacc'
p964
aa(lp965
S'low'
p966
aS'low'
p967
aS'5more'
p968
ag132
aS'med'
p969
aS'med'
p970
aS'unacc'
p971
aa(lp972
S'low'
p973
aS'low'
p974
aS'5more'
p975
ag132
aS'med'
p976
aS'high'
p977
aS'unacc'
p978
aa(lp979
S'low'
p980
aS'low'
p981
aS'5more'
p982
ag132
aS'big'
p983
aS'low'
p984
aS'unacc'
p985
aa(lp986
S'low'
p987
aS'low'
p988
aS'5more'
p989
ag132
aS'big'
p990
aS'med'
p991
aS'unacc'
p992
aa(lp993
S'low'
p994
aS'low'
p995
aS'5more'
p996
ag132
aS'big'
p997
aS'high'
p998
aS'unacc'
p999
aa(lp1000
S'low'
p1001
aS'low'
p1002
aS'5more'
p1003
ag19
aS'small'
p1004
aS'low'
p1005
aS'unacc'
p1006
aa(lp1007
S'low'
p1008
aS'low'
p1009
aS'5more'
p1010
ag19
aS'small'
p1011
aS'med'
p1012
aS'acc'
p1013
aa(lp1014
S'low'
p1015
aS'low'
p1016
aS'5more'
p1017
ag19
aS'small'
p1018
aS'high'
p1019
aS'good'
p1020
aa(lp1021
S'low'
p1022
aS'low'
p1023
aS'5more'
p1024
ag19
aS'med'
p1025
aS'low'
p1026
aS'unacc'
p1027
aa(lp1028
S'low'
p1029
aS'low'
p1030
aS'5more'
p1031
ag19
aS'med'
p1032
aS'med'
p1033
aS'good'
p1034
aa(lp1035
S'low'
p1036
aS'low'
p1037
aS'5more'
p1038
ag19
aS'med'
p1039
aS'high'
p1040
aS'vgood'
p1041
aa(lp1042
S'low'
p1043
aS'low'
p1044
aS'5more'
p1045
ag19
aS'big'
p1046
aS'low'
p1047
aS'unacc'
p1048
aa(lp1049
S'low'
p1050
aS'low'
p1051
aS'5more'
p1052
ag19
aS'big'
p1053
aS'med'
p1054
aS'good'
p1055
aa(lp1056
S'low'
p1057
aS'low'
p1058
aS'5more'
p1059
ag19
aS'big'
p1060
aS'high'
p1061
aS'vgood'
p1062
aa(lp1063
S'low'
p1064
aS'low'
p1065
aS'5more'
p1066
aS'more'
p1067
aS'small'
p1068
aS'low'
p1069
aS'unacc'
p1070
aa(lp1071
S'low'
p1072
aS'low'
p1073
aS'5more'
p1074
aS'more'
p1075
aS'small'
p1076
aS'med'
p1077
aS'acc'
p1078
aa(lp1079
S'low'
p1080
aS'low'
p1081
aS'5more'
p1082
aS'more'
p1083
aS'small'
p1084
aS'high'
p1085
aS'good'
p1086
aa(lp1087
S'low'
p1088
aS'low'
p1089
aS'5more'
p1090
aS'more'
p1091
aS'med'
p1092
aS'low'
p1093
aS'unacc'
p1094
aa(lp1095
S'low'
p1096
aS'low'
p1097
aS'5more'
p1098
aS'more'
p1099
aS'med'
p1100
aS'med'
p1101
aS'good'
p1102
aa(lp1103
S'low'
p1104
aS'low'
p1105
aS'5more'
p1106
aS'more'
p1107
aS'med'
p1108
aS'high'
p1109
aS'vgood'
p1110
aa(lp1111
S'low'
p1112
aS'low'
p1113
aS'5more'
p1114
aS'more'
p1115
aS'big'
p1116
aS'low'
p1117
aS'unacc'
p1118
aa(lp1119
S'low'
p1120
aS'low'
p1121
aS'5more'
p1122
aS'more'
p1123
aS'big'
p1124
aS'med'
p1125
aS'good'
p1126
aa(lp1127
S'low'
p1128
aS'low'
p1129
aS'5more'
p1130
aS'more'
p1131
aS'big'
p1132
aS'high'
p1133
aS'vgood'
p1134
aa.