(lp0
(lp1
S'vhigh'
p2
aS'vhigh'
p3
aS'2'
p4
ag4
aS'small'
p5
aS'low'
p6
aS'unacc'
p7
aa(lp8
S'vhigh'
p9
aS'vhigh'
p10
ag4
ag4
aS'small'
p11
aS'med'
p12
aS'unacc'
p13
aa(lp14
S'vhigh'
p15
aS'vhigh'
p16
ag4
ag4
aS'small'
p17
aS'high'
p18
aS'unacc'
p19
aa(lp20
S'vhigh'
p21
aS'vhigh'
p22
ag4
ag4
aS'med'
p23
aS'low'
p24
aS'unacc'
p25
aa(lp26
S'vhigh'
p27
aS'vhigh'
p28
ag4
ag4
aS'med'
p29
aS'med'
p30
aS'unacc'
p31
aa(lp32
S'vhigh'
p33
aS'vhigh'
p34
ag4
ag4
aS'med'
p35
aS'high'
p36
aS'unacc'
p37
aa(lp38
S'vhigh'
p39
aS'vhigh'
p40
ag4
ag4
aS'big'
p41
aS'low'
p42
aS'unacc'
p43
aa(lp44
S'vhigh'
p45
aS'vhigh'
p46
ag4
ag4
aS'big'
p47
aS'med'
p48
aS'unacc'
p49
aa(lp50
S'vhigh'
p51
aS'vhigh'
p52
ag4
ag4
aS'big'
p53
aS'high'
p54
aS'unacc'
p55
aa(lp56
S'vhigh'
p57
aS'vhigh'
p58
ag4
aS'4'
p59
aS'small'
p60
aS'low'
p61
aS'unacc'
p62
aa(lp63
S'vhigh'
p64
aS'vhigh'
p65
ag4
ag59
aS'small'
p66
aS'med'
p67
aS'unacc'
p68
aa(lp69
S'vhigh'
p70
aS'vhigh'
p71
ag4
ag59
aS'small'
p72
aS'high'
p73
aS'unacc'
p74
aa(lp75
S'vhigh'
p76
aS'vhigh'
p77
ag4
ag59
aS'med'
p78
aS'low'
p79
aS'unacc'
p80
aa(lp81
S'vhigh'
p82
aS'vhigh'
p83
ag4
ag59
aS'med'
p84
aS'med'
p85
aS'unacc'
p86
aa(lp87
S'vhigh'
p88
aS'vhigh'
p89
ag4
ag59
aS'med'
p90
aS'high'
p91
aS'unacc'
p92
aa(lp93
S'vhigh'
p94
aS'vhigh'
p95
ag4
ag59
aS'big'
p96
aS'low'
p97
aS'unacc'
p98
aa(lp99
S'vhigh'
p100
aS'vhigh'
p101
ag4
ag59
aS'big'
p102
aS'med'
p103
aS'unacc'
p104
aa(lp105
S'vhigh'
p106
aS'vhigh'
p107
ag4
ag59
aS'big'
p108
aS'high'
p109
aS'unacc'
p110
aa(lp111
S'vhigh'
p112
aS'vhigh'
p113
ag4
aS'more'
p114
aS'small'
p115
aS'low'
p116
aS'unacc'
p117
aa(lp118
S'vhigh'
p119
aS'vhigh'
p120
ag4
aS'more'
p121
aS'small'
p122
aS'med'
p123
aS'unacc'
p124
aa(lp125
S'vhigh'
p126
aS'vhigh'
p127
ag4
aS'more'
p128
aS'small'
p129
aS'high'
p130
aS'unacc'
p131
aa(lp132
S'vhigh'
p133
aS'vhigh'
p134
ag4
aS'more'
p135
aS'med'
p136
aS'low'
p137
aS'unacc'
p138
aa(lp139
S'vhigh'
p140
aS'vhigh'
p141
ag4
aS'more'
p142
aS'med'
p143
aS'med'
p144
aS'unacc'
p145
aa(lp146
S'vhigh'
p147
aS'vhigh'
p148
ag4
aS'more'
p149
aS'med'
p150
aS'high'
p151
aS'unacc'
p152
aa(lp153
S'vhigh'
p154
aS'vhigh'
p155
ag4
aS'more'
p156
aS'big'
p157
aS'low'
p158
aS'unacc'
p159
aa(lp160
S'vhigh'
p161
aS'vhigh'
p162
ag4
aS'more'
p163
aS'big'
p164
aS'med'
p165
aS'unacc'
p166
aa(lp167
S'vhigh'
p168
aS'vhigh'
p169
ag4
aS'more'
p170
aS'big'
p171
aS'high'
p172
aS'unacc'
p173
aa(lp174
S'vhigh'
p175
aS'vhigh'
p176
aS'3'
p177
ag4
aS'small'
p178
aS'low'
p179
aS'unacc'
p180
aa(lp181
S'vhigh'
p182
aS'vhigh'
p183
ag177
ag4
aS'small'
p184
aS'med'
p185
aS'unacc'
p186
aa(lp187
S'vhigh'
p188
aS'vhigh'
p189
ag177
ag4
aS'small'
p190
aS'high'
p191
aS'unacc'
p192
aa(lp193
S'vhigh'
p194
aS'vhigh'
p195
ag177
ag4
aS'med'
p196
aS'low'
p197
aS'unacc'
p198
aa(lp199
S'vhigh'
p200
aS'vhigh'
p201
ag177
ag4
aS'med'
p202
aS'med'
p203
aS'unacc'
p204
aa(lp205
S'vhigh'
p206
aS'vhigh'
p207
ag177
ag4
aS'med'
p208
aS'high'
p209
aS'unacc'
p210
aa(lp211
S'vhigh'
p212
aS'vhigh'
p213
ag177
ag4
aS'big'
p214
aS'low'
p215
aS'unacc'
p216
aa(lp217
S'vhigh'
p218
aS'vhigh'
p219
ag177
ag4
aS'big'
p220
aS'med'
p221
aS'unacc'
p222
aa(lp223
S'vhigh'
p224
aS'vhigh'
p225
ag177
ag4
aS'big'
p226
aS'high'
p227
aS'unacc'
p228
aa(lp229
S'vhigh'
p230
aS'vhigh'
p231
ag177
ag59
aS'small'
p232
aS'low'
p233
aS'unacc'
p234
aa(lp235
S'vhigh'
p236
aS'vhigh'
p237
ag177
ag59
aS'small'
p238
aS'med'
p239
aS'unacc'
p240
aa(lp241
S'vhigh'
p242
aS'vhigh'
p243
ag177
ag59
aS'small'
p244
aS'high'
p245
aS'unacc'
p246
aa(lp247
S'vhigh'
p248
aS'vhigh'
p249
ag177
ag59
aS'med'
p250
aS'low'
p251
aS'unacc'
p252
aa(lp253
S'vhigh'
p254
aS'vhigh'
p255
ag177
ag59
aS'med'
p256
aS'med'
p257
aS'unacc'
p258
aa(lp259
S'vhigh'
p260
aS'vhigh'
p261
ag177
ag59
aS'med'
p262
aS'high'
p263
aS'unacc'
p264
aa(lp265
S'vhigh'
p266
aS'vhigh'
p267
ag177
ag59
aS'big'
p268
aS'low'
p269
aS'unacc'
p270
aa(lp271
S'vhigh'
p272
aS'vhigh'
p273
ag177
ag59
aS'big'
p274
aS'med'
p275
aS'unacc'
p276
aa(lp277
S'vhigh'
p278
aS'vhigh'
p279
ag177
ag59
aS'big'
p280
aS'high'
p281
aS'unacc'
p282
aa(lp283
S'vhigh'
p284
aS'vhigh'
p285
ag177
aS'more'
p286
aS'small'
p287
aS'low'
p288
aS'unacc'
p289
aa(lp290
S'vhigh'
p291
aS'vhigh'
p292
ag177
aS'more'
p293
aS'small'
p294
aS'med'
p295
aS'unacc'
p296
aa(lp297
S'vhigh'
p298
aS'vhigh'
p299
ag177
aS'more'
p300
aS'small'
p301
aS'high'
p302
aS'unacc'
p303
aa(lp304
S'vhigh'
p305
aS'vhigh'
p306
ag177
aS'more'
p307
aS'med'
p308
aS'low'
p309
aS'unacc'
p310
aa(lp311
S'vhigh'
p312
aS'vhigh'
p313
ag177
aS'more'
p314
aS'med'
p315
aS'med'
p316
aS'unacc'
p317
aa(lp318
S'vhigh'
p319
aS'vhigh'
p320
ag177
aS'more'
p321
aS'med'
p322
aS'high'
p323
aS'unacc'
p324
aa(lp325
S'vhigh'
p326
aS'vhigh'
p327
ag177
aS'more'
p328
aS'big'
p329
aS'low'
p330
aS'unacc'
p331
aa(lp332
S'vhigh'
p333
aS'vhigh'
p334
ag177
aS'more'
p335
aS'big'
p336
aS'med'
p337
aS'unacc'
p338
aa(lp339
S'vhigh'
p340
aS'vhigh'
p341
ag177
aS'more'
p342
aS'big'
p343
aS'high'
p344
aS'unacc'
p345
aa(lp346
S'vhigh'
p347
aS'vhigh'
p348
ag59
ag4
aS'small'
p349
aS'low'
p350
aS'unacc'
p351
aa(lp352
S'vhigh'
p353
aS'vhigh'
p354
ag59
ag4
aS'small'
p355
aS'med'
p356
aS'unacc'
p357
aa(lp358
S'vhigh'
p359
aS'vhigh'
p360
ag59
ag4
aS'small'
p361
aS'high'
p362
aS'unacc'
p363
aa(lp364
S'vhigh'
p365
aS'vhigh'
p366
ag59
ag4
aS'med'
p367
aS'low'
p368
aS'unacc'
p369
aa(lp370
S'vhigh'
p371
aS'vhigh'
p372
ag59
ag4
aS'med'
p373
aS'med'
p374
aS'unacc'
p375
aa(lp376
S'vhigh'
p377
aS'vhigh'
p378
ag59
ag4
aS'med'
p379
aS'high'
p380
aS'unacc'
p381
aa(lp382
S'vhigh'
p383
aS'vhigh'
p384
ag59
ag4
aS'big'
p385
aS'low'
p386
aS'unacc'
p387
aa(lp388
S'vhigh'
p389
aS'vhigh'
p390
ag59
ag4
aS'big'
p391
aS'med'
p392
aS'unacc'
p393
aa(lp394
S'vhigh'
p395
aS'vhigh'
p396
ag59
ag4
aS'big'
p397
aS'high'
p398
aS'unacc'
p399
aa(lp400
S'vhigh'
p401
aS'vhigh'
p402
ag59
ag59
aS'small'
p403
aS'low'
p404
aS'unacc'
p405
aa(lp406
S'vhigh'
p407
aS'vhigh'
p408
ag59
ag59
aS'small'
p409
aS'med'
p410
aS'unacc'
p411
aa(lp412
S'vhigh'
p413
aS'vhigh'
p414
ag59
ag59
aS'small'
p415
aS'high'
p416
aS'unacc'
p417
aa(lp418
S'vhigh'
p419
aS'vhigh'
p420
ag59
ag59
aS'med'
p421
aS'low'
p422
aS'unacc'
p423
aa(lp424
S'vhigh'
p425
aS'vhigh'
p426
ag59
ag59
aS'med'
p427
aS'med'
p428
aS'unacc'
p429
aa(lp430
S'vhigh'
p431
aS'vhigh'
p432
ag59
ag59
aS'med'
p433
aS'high'
p434
aS'unacc'
p435
aa(lp436
S'vhigh'
p437
aS'vhigh'
p438
ag59
ag59
aS'big'
p439
aS'low'
p440
aS'unacc'
p441
aa(lp442
S'vhigh'
p443
aS'vhigh'
p444
ag59
ag59
aS'big'
p445
aS'med'
p446
aS'unacc'
p447
aa(lp448
S'vhigh'
p449
aS'vhigh'
p450
ag59
ag59
aS'big'
p451
aS'high'
p452
aS'unacc'
p453
aa(lp454
S'vhigh'
p455
aS'vhigh'
p456
ag59
aS'more'
p457
aS'small'
p458
aS'low'
p459
aS'unacc'
p460
aa(lp461
S'vhigh'
p462
aS'vhigh'
p463
ag59
aS'more'
p464
aS'small'
p465
aS'med'
p466
aS'unacc'
p467
aa(lp468
S'vhigh'
p469
aS'vhigh'
p470
ag59
aS'more'
p471
aS'small'
p472
aS'high'
p473
aS'unacc'
p474
aa(lp475
S'vhigh'
p476
aS'vhigh'
p477
ag59
aS'more'
p478
aS'med'
p479
aS'low'
p480
aS'unacc'
p481
aa(lp482
S'vhigh'
p483
aS'vhigh'
p484
ag59
aS'more'
p485
aS'med'
p486
aS'med'
p487
aS'unacc'
p488
aa(lp489
S'vhigh'
p490
aS'vhigh'
p491
ag59
aS'more'
p492
aS'med'
p493
aS'high'
p494
aS'unacc'
p495
aa(lp496
S'vhigh'
p497
aS'vhigh'
p498
ag59
aS'more'
p499
aS'big'
p500
aS'low'
p501
aS'unacc'
p502
aa(lp503
S'vhigh'
p504
aS'vhigh'
p505
ag59
aS'more'
p506
aS'big'
p507
aS'med'
p508
aS'unacc'
p509
aa(lp510
S'vhigh'
p511
aS'vhigh'
p512
ag59
aS'more'
p513
aS'big'
p514
aS'high'
p515
aS'unacc'
p516
aa(lp517
S'vhigh'
p518
aS'vhigh'
p519
aS'5more'
p520
ag4
aS'small'
p521
aS'low'
p522
aS'unacc'
p523
aa(lp524
S'vhigh'
p525
aS'vhigh'
p526
aS'5more'
p527
ag4
aS'small'
p528
aS'med'
p529
aS'unacc'
p530
aa(lp531
S'vhigh'
p532
aS'vhigh'
p533
aS'5more'
p534
ag4
aS'small'
p535
aS'high'
p536
aS'unacc'
p537
aa(lp538
S'vhigh'
p539
aS'vhigh'
p540
aS'5more'
p541
ag4
aS'med'
p542
aS'low'
p543
aS'unacc'
p544
aa(lp545
S'vhigh'
p546
aS'vhigh'
p547
aS'5more'
p548
ag4
aS'med'
p549
aS'med'
p550
aS'unacc'
p551
aa(lp552
S'vhigh'
p553
aS'vhigh'
p554
aS'5more'
p555
ag4
aS'med'
p556
aS'high'
p557
aS'unacc'
p558
aa(lp559
S'vhigh'
p560
aS'vhigh'
p561
aS'5more'
p562
ag4
aS'big'
p563
aS'low'
p564
aS'unacc'
p565
aa(lp566
S'vhigh'
p567
aS'vhigh'
p568
aS'5more'
p569
ag4
aS'big'
p570
aS'med'
p571
aS'unacc'
p572
aa(lp573
S'vhigh'
p574
aS'vhigh'
p575
aS'5more'
p576
ag4
aS'big'
p577
aS'high'
p578
aS'unacc'
p579
aa(lp580
S'vhigh'
p581
aS'vhigh'
p582
aS'5more'
p583
ag59
aS'small'
p584
aS'low'
p585
aS'unacc'
p586
aa(lp587
S'vhigh'
p588
aS'vhigh'
p589
aS'5more'
p590
ag59
aS'small'
p591
aS'med'
p592
aS'unacc'
p593
aa(lp594
S'vhigh'
p595
aS'vhigh'
p596
aS'5more'
p597
ag59
aS'small'
p598
aS'high'
p599
aS'unacc'
p600
aa(lp601
S'vhigh'
p602
aS'vhigh'
p603
aS'5more'
p604
ag59
aS'med'
p605
aS'low'
p606
aS'unacc'
p607
aa(lp608
S'vhigh'
p609
aS'vhigh'
p610
aS'5more'
p611
ag59
aS'med'
p612
aS'med'
p613
aS'unacc'
p614
aa(lp615
S'vhigh'
p616
aS'vhigh'
p617
aS'5more'
p618
ag59
aS'med'
p619
aS'high'
p620
aS'unacc'
p621
aa(lp622
S'vhigh'
p623
aS'vhigh'
p624
aS'5more'
p625
ag59
aS'big'
p626
aS'low'
p627
aS'unacc'
p628
aa(lp629
S'vhigh'
p630
aS'vhigh'
p631
aS'5more'
p632
ag59
aS'big'
p633
aS'med'
p634
aS'unacc'
p635
aa(lp636
S'vhigh'
p637
aS'vhigh'
p638
aS'5more'
p639
ag59
aS'big'
p640
aS'high'
p641
aS'unacc'
p642
aa(lp643
S'vhigh'
p644
aS'vhigh'
p645
aS'5more'
p646
aS'more'
p647
aS'small'
p648
aS'low'
p649
aS'unacc'
p650
aa(lp651
S'vhigh'
p652
aS'vhigh'
p653
aS'5more'
p654
aS'more'
p655
aS'small'
p656
aS'med'
p657
aS'unacc'
p658
aa(lp659
S'vhigh'
p660
aS'vhigh'
p661
aS'5more'
p662
aS'more'
p663
aS'small'
p664
aS'high'
p665
aS'unacc'
p666
aa(lp667
S'vhigh'
p668
aS'vhigh'
p669
aS'5more'
p670
aS'more'
p671
aS'med'
p672
aS'low'
p673
aS'unacc'
p674
aa(lp675
S'vhigh'
p676
aS'vhigh'
p677
aS'5more'
p678
aS'more'
p679
aS'med'
p680
aS'med'
p681
aS'unacc'
p682
aa(lp683
S'vhigh'
p684
aS'vhigh'
p685
aS'5more'
p686
aS'more'
p687
aS'med'
p688
aS'high'
p689
aS'unacc'
p690
aa(lp691
S'vhigh'
p692
aS'vhigh'
p693
aS'5more'
p694
aS'more'
p695
aS'big'
p696
aS'low'
p697
aS'unacc'
p698
aa(lp699
S'vhigh'
p700
aS'vhigh'
p701
aS'5more'
p702
aS'more'
p703
aS'big'
p704
aS'med'
p705
aS'unacc'
p706
aa(lp707
S'vhigh'
p708
aS'vhigh'
p709
aS'5more'
p710
aS'more'
p711
aS'big'
p712
aS'high'
p713
aS'unacc'
p714
aa(lp715
S'vhigh'
p716
aS'high'
p717
ag4
ag4
aS'small'
p718
aS'low'
p719
aS'unacc'
p720
aa(lp721
S'vhigh'
p722
aS'high'
p723
ag4
ag4
aS'small'
p724
aS'med'
p725
aS'unacc'
p726
aa(lp727
S'vhigh'
p728
aS'high'
p729
ag4
ag4
aS'small'
p730
aS'high'
p731
aS'unacc'
p732
aa(lp733
S'vhigh'
p734
aS'high'
p735
ag4
ag4
aS'med'
p736
aS'low'
p737
aS'unacc'
p738
aa(lp739
S'vhigh'
p740
aS'high'
p741
ag4
ag4
aS'med'
p742
aS'med'
p743
aS'unacc'
p744
aa(lp745
S'vhigh'
p746
aS'high'
p747
ag4
ag4
aS'med'
p748
aS'high'
p749
aS'unacc'
p750
aa(lp751
S'vhigh'
p752
aS'high'
p753
ag4
ag4
aS'big'
p754
aS'low'
p755
aS'unacc'
p756
aa(lp757
S'vhigh'
p758
aS'high'
p759
ag4
ag4
aS'big'
p760
aS'med'
p761
aS'unacc'
p762
aa(lp763
S'vhigh'
p764
aS'high'
p765
ag4
ag4
aS'big'
p766
aS'high'
p767
aS'unacc'
p768
aa(lp769
S'vhigh'
p770
aS'high'
p771
ag4
ag59
aS'small'
p772
aS'low'
p773
aS'unacc'
p774
aa(lp775
S'vhigh'
p776
aS'high'
p777
ag4
ag59
aS'small'
p778
aS'med'
p779
aS'unacc'
p780
aa(lp781
S'vhigh'
p782
aS'high'
p783
ag4
ag59
aS'small'
p784
aS'high'
p785
aS'unacc'
p786
aa(lp787
S'vhigh'
p788
aS'high'
p789
ag4
ag59
aS'med'
p790
aS'low'
p791
aS'unacc'
p792
aa(lp793
S'vhigh'
p794
aS'med'
p795
ag4
ag59
aS'small'
p796
aS'high'
p797
aS'acc'
p798
aa(lp799
S'vhigh'
p800
aS'med'
p801
ag4
ag59
aS'med'
p802
aS'high'
p803
aS'acc'
p804
aa(lp805
S'vhigh'
p806
aS'med'
p807
ag4
ag59
aS'big'
p808
aS'med'
p809
aS'acc'
p810
aa(lp811
S'vhigh'
p812
aS'med'
p813
ag4
ag59
aS'big'
p814
aS'high'
p815
aS'acc'
p816
aa(lp817
S'vhigh'
p818
aS'med'
p819
ag4
aS'more'
p820
aS'med'
p821
aS'high'
p822
aS'acc'
p823
aa(lp824
S'vhigh'
p825
aS'med'
p826
ag4
aS'more'
p827
aS'big'
p828
aS'med'
p829
aS'acc'
p830
aa(lp831
S'vhigh'
p832
aS'med'
p833
ag4
aS'more'
p834
aS'big'
p835
aS'high'
p836
aS'acc'
p837
aa(lp838
S'vhigh'
p839
aS'med'
p840
ag177
ag59
aS'small'
p841
aS'high'
p842
aS'acc'
p843
aa(lp844
S'vhigh'
p845
aS'med'
p846
ag177
ag59
aS'med'
p847
aS'high'
p848
aS'acc'
p849
aa(lp850
S'vhigh'
p851
aS'med'
p852
ag177
ag59
aS'big'
p853
aS'med'
p854
aS'acc'
p855
aa(lp856
S'vhigh'
p857
aS'med'
p858
ag177
ag59
aS'big'
p859
aS'high'
p860
aS'acc'
p861
aa(lp862
S'vhigh'
p863
aS'med'
p864
ag177
aS'more'
p865
aS'small'
p866
aS'high'
p867
aS'acc'
p868
aa(lp869
S'vhigh'
p870
aS'med'
p871
ag177
aS'more'
p872
aS'med'
p873
aS'med'
p874
aS'acc'
p875
aa(lp876
S'vhigh'
p877
aS'med'
p878
ag177
aS'more'
p879
aS'med'
p880
aS'high'
p881
aS'acc'
p882
aa(lp883
S'vhigh'
p884
aS'med'
p885
ag177
aS'more'
p886
aS'big'
p887
aS'med'
p888
aS'acc'
p889
aa(lp890
S'vhigh'
p891
aS'med'
p892
ag177
aS'more'
p893
aS'big'
p894
aS'high'
p895
aS'acc'
p896
aa(lp897
S'vhigh'
p898
aS'med'
p899
ag59
ag59
aS'small'
p900
aS'high'
p901
aS'acc'
p902
aa(lp903
S'vhigh'
p904
aS'med'
p905
ag59
ag59
aS'med'
p906
aS'med'
p907
aS'acc'
p908
aa(lp909
S'vhigh'
p910
aS'med'
p911
ag59
ag59
aS'med'
p912
aS'high'
p913
aS'acc'
p914
aa(lp915
S'vhigh'
p916
aS'med'
p917
ag59
ag59
aS'big'
p918
aS'med'
p919
aS'acc'
p920
aa(lp921
S'vhigh'
p922
aS'med'
p923
ag59
ag59
aS'big'
p924
aS'high'
p925
aS'acc'
p926
aa(lp927
S'vhigh'
p928
aS'med'
p929
ag59
aS'more'
p930
aS'small'
p931
aS'high'
p932
aS'acc'
p933
aa(lp934
S'vhigh'
p935
aS'med'
p936
ag59
aS'more'
p937
aS'med'
p938
aS'med'
p939
aS'acc'
p940
aa(lp941
S'vhigh'
p942
aS'med'
p943
ag59
aS'more'
p944
aS'med'
p945
aS'high'
p946
aS'acc'
p947
aa(lp948
S'vhigh'
p949
aS'med'
p950
ag59
aS'more'
p951
aS'big'
p952
aS'med'
p953
aS'acc'
p954
aa(lp955
S'vhigh'
p956
aS'med'
p957
ag59
aS'more'
p958
aS'big'
p959
aS'high'
p960
aS'acc'
p961
aa(lp962
S'vhigh'
p963
aS'med'
p964
aS'5more'
p965
ag59
aS'small'
p966
aS'high'
p967
aS'acc'
p968
aa(lp969
S'vhigh'
p970
aS'med'
p971
aS'5more'
p972
ag59
aS'med'
p973
aS'med'
p974
aS'acc'
p975
aa(lp976
S'vhigh'
p977
aS'med'
p978
aS'5more'
p979
ag59
aS'med'
p980
aS'high'
p981
aS'acc'
p982
aa(lp983
S'vhigh'
p984
aS'med'
p985
aS'5more'
p986
ag59
aS'big'
p987
aS'med'
p988
aS'acc'
p989
aa(lp990
S'vhigh'
p991
aS'med'
p992
aS'5more'
p993
ag59
aS'big'
p994
aS'high'
p995
aS'acc'
p996
aa(lp997
S'vhigh'
p998
aS'med'
p999
aS'5more'
p1000
aS'more'
p1001
aS'small'
p1002
aS'high'
p1003
aS'acc'
p1004
aa(lp1005
S'vhigh'
p1006
aS'med'
p1007
aS'5more'
p1008
aS'more'
p1009
aS'med'
p1010
aS'med'
p1011
aS'acc'
p1012
aa(lp1013
S'vhigh'
p1014
aS'med'
p1015
aS'5more'
p1016
aS'more'
p1017
aS'med'
p1018
aS'high'
p1019
aS'acc'
p1020
aa(lp1021
S'vhigh'
p1022
aS'med'
p1023
aS'5more'
p1024
aS'more'
p1025
aS'big'
p1026
aS'med'
p1027
aS'acc'
p1028
aa(lp1029
S'vhigh'
p1030
aS'med'
p1031
aS'5more'
p1032
aS'more'
p1033
aS'big'
p1034
aS'high'
p1035
aS'acc'
p1036
aa(lp1037
S'vhigh'
p1038
aS'low'
p1039
ag4
ag59
aS'small'
p1040
aS'high'
p1041
aS'acc'
p1042
aa(lp1043
S'vhigh'
p1044
aS'low'
p1045
ag4
ag59
aS'med'
p1046
aS'high'
p1047
aS'acc'
p1048
aa(lp1049
S'vhigh'
p1050
aS'low'
p1051
ag4
ag59
aS'big'
p1052
aS'med'
p1053
aS'acc'
p1054
aa(lp1055
S'med'
p1056
aS'med'
p1057
ag4
ag59
aS'big'
p1058
aS'high'
p1059
aS'vgood'
p1060
aa(lp1061
S'med'
p1062
aS'med'
p1063
ag4
aS'more'
p1064
aS'big'
p1065
aS'high'
p1066
aS'vgood'
p1067
aa(lp1068
S'med'
p1069
aS'med'
p1070
ag177
ag59
aS'big'
p1071
aS'high'
p1072
aS'vgood'
p1073
aa(lp1074
S'med'
p1075
aS'med'
p1076
ag177
aS'more'
p1077
aS'med'
p1078
aS'high'
p1079
aS'vgood'
p1080
aa(lp1081
S'med'
p1082
aS'med'
p1083
ag177
aS'more'
p1084
aS'big'
p1085
aS'high'
p1086
aS'vgood'
p1087
aa(lp1088
S'med'
p1089
aS'med'
p1090
ag59
ag59
aS'med'
p1091
aS'high'
p1092
aS'vgood'
p1093
aa(lp1094
S'med'
p1095
aS'med'
p1096
ag59
ag59
aS'big'
p1097
aS'high'
p1098
aS'vgood'
p1099
aa(lp1100
S'med'
p1101
aS'low'
p1102
ag4
ag59
aS'small'
p1103
aS'high'
p1104
aS'good'
p1105
aa(lp1106
S'med'
p1107
aS'low'
p1108
ag4
ag59
aS'med'
p1109
aS'high'
p1110
aS'good'
p1111
aa(lp1112
S'med'
p1113
aS'low'
p1114
ag4
ag59
aS'big'
p1115
aS'med'
p1116
aS'good'
p1117
aa(lp1118
S'med'
p1119
aS'low'
p1120
ag4
aS'more'
p1121
aS'med'
p1122
aS'high'
p1123
aS'good'
p1124
aa(lp1125
S'med'
p1126
aS'low'
p1127
ag4
aS'more'
p1128
aS'big'
p1129
aS'med'
p1130
aS'good'
p1131
aa(lp1132
S'med'
p1133
aS'low'
p1134
ag177
ag59
aS'small'
p1135
aS'high'
p1136
aS'good'
p1137
aa(lp1138
S'med'
p1139
aS'low'
p1140
ag177
ag59
aS'med'
p1141
aS'high'
p1142
aS'good'
p1143
aa.