(lp0
(lp1
S'vhigh'
p2
aS'high'
p3
aS'2'
p4
aS'4'
p5
aS'med'
p6
aS'med'
p7
aS'unacc'
p8
aa(lp9
S'vhigh'
p10
aS'high'
p11
ag4
ag5
aS'med'
p12
aS'high'
p13
aS'unacc'
p14
aa(lp15
S'vhigh'
p16
aS'high'
p17
ag4
ag5
aS'big'
p18
aS'low'
p19
aS'unacc'
p20
aa(lp21
S'vhigh'
p22
aS'high'
p23
ag4
ag5
aS'big'
p24
aS'med'
p25
aS'unacc'
p26
aa(lp27
S'vhigh'
p28
aS'high'
p29
ag4
ag5
aS'big'
p30
aS'high'
p31
aS'unacc'
p32
aa(lp33
S'vhigh'
p34
aS'high'
p35
ag4
aS'more'
p36
aS'small'
p37
aS'low'
p38
aS'unacc'
p39
aa(lp40
S'vhigh'
p41
aS'high'
p42
ag4
aS'more'
p43
aS'small'
p44
aS'med'
p45
aS'unacc'
p46
aa(lp47
S'vhigh'
p48
aS'high'
p49
ag4
aS'more'
p50
aS'small'
p51
aS'high'
p52
aS'unacc'
p53
aa(lp54
S'vhigh'
p55
aS'high'
p56
ag4
aS'more'
p57
aS'med'
p58
aS'low'
p59
aS'unacc'
p60
aa(lp61
S'vhigh'
p62
aS'high'
p63
ag4
aS'more'
p64
aS'med'
p65
aS'med'
p66
aS'unacc'
p67
aa(lp68
S'vhigh'
p69
aS'high'
p70
ag4
aS'more'
p71
aS'med'
p72
aS'high'
p73
aS'unacc'
p74
aa(lp75
S'vhigh'
p76
aS'high'
p77
ag4
aS'more'
p78
aS'big'
p79
aS'low'
p80
aS'unacc'
p81
aa(lp82
S'vhigh'
p83
aS'high'
p84
ag4
aS'more'
p85
aS'big'
p86
aS'med'
p87
aS'unacc'
p88
aa(lp89
S'vhigh'
p90
aS'high'
p91
ag4
aS'more'
p92
aS'big'
p93
aS'high'
p94
aS'unacc'
p95
aa(lp96
S'vhigh'
p97
aS'high'
p98
aS'3'
p99
ag4
aS'small'
p100
aS'low'
p101
aS'unacc'
p102
aa(lp103
S'vhigh'
p104
aS'high'
p105
ag99
ag4
aS'small'
p106
aS'med'
p107
aS'unacc'
p108
aa(lp109
S'vhigh'
p110
aS'high'
p111
ag99
ag4
aS'small'
p112
aS'high'
p113
aS'unacc'
p114
aa(lp115
S'vhigh'
p116
aS'high'
p117
ag99
ag4
aS'med'
p118
aS'low'
p119
aS'unacc'
p120
aa(lp121
S'vhigh'
p122
aS'high'
p123
ag99
ag4
aS'med'
p124
aS'med'
p125
aS'unacc'
p126
aa(lp127
S'vhigh'
p128
aS'high'
p129
ag99
ag4
aS'med'
p130
aS'high'
p131
aS'unacc'
p132
aa(lp133
S'vhigh'
p134
aS'high'
p135
ag99
ag4
aS'big'
p136
aS'low'
p137
aS'unacc'
p138
aa(lp139
S'vhigh'
p140
aS'high'
p141
ag99
ag4
aS'big'
p142
aS'med'
p143
aS'unacc'
p144
aa(lp145
S'vhigh'
p146
aS'high'
p147
ag99
ag4
aS'big'
p148
aS'high'
p149
aS'unacc'
p150
aa(lp151
S'vhigh'
p152
aS'high'
p153
ag99
ag5
aS'small'
p154
aS'low'
p155
aS'unacc'
p156
aa(lp157
S'vhigh'
p158
aS'high'
p159
ag99
ag5
aS'small'
p160
aS'med'
p161
aS'unacc'
p162
aa(lp163
S'vhigh'
p164
aS'high'
p165
ag99
ag5
aS'small'
p166
aS'high'
p167
aS'unacc'
p168
aa(lp169
S'vhigh'
p170
aS'high'
p171
ag99
ag5
aS'med'
p172
aS'low'
p173
aS'unacc'
p174
aa(lp175
S'vhigh'
p176
aS'high'
p177
ag99
ag5
aS'med'
p178
aS'med'
p179
aS'unacc'
p180
aa(lp181
S'vhigh'
p182
aS'high'
p183
ag99
ag5
aS'med'
p184
aS'high'
p185
aS'unacc'
p186
aa(lp187
S'vhigh'
p188
aS'high'
p189
ag99
ag5
aS'big'
p190
aS'low'
p191
aS'unacc'
p192
aa(lp193
S'vhigh'
p194
aS'high'
p195
ag99
ag5
aS'big'
p196
aS'med'
p197
aS'unacc'
p198
aa(lp199
S'vhigh'
p200
aS'high'
p201
ag99
ag5
aS'big'
p202
aS'high'
p203
aS'unacc'
p204
aa(lp205
S'vhigh'
p206
aS'high'
p207
ag99
aS'more'
p208
aS'small'
p209
aS'low'
p210
aS'unacc'
p211
aa(lp212
S'vhigh'
p213
aS'high'
p214
ag99
aS'more'
p215
aS'small'
p216
aS'med'
p217
aS'unacc'
p218
aa(lp219
S'vhigh'
p220
aS'high'
p221
ag99
aS'more'
p222
aS'small'
p223
aS'high'
p224
aS'unacc'
p225
aa(lp226
S'vhigh'
p227
aS'high'
p228
ag99
aS'more'
p229
aS'med'
p230
aS'low'
p231
aS'unacc'
p232
aa(lp233
S'vhigh'
p234
aS'high'
p235
ag99
aS'more'
p236
aS'med'
p237
aS'med'
p238
aS'unacc'
p239
aa(lp240
S'vhigh'
p241
aS'high'
p242
ag99
aS'more'
p243
aS'med'
p244
aS'high'
p245
aS'unacc'
p246
aa(lp247
S'vhigh'
p248
aS'high'
p249
ag99
aS'more'
p250
aS'big'
p251
aS'low'
p252
aS'unacc'
p253
aa(lp254
S'vhigh'
p255
aS'high'
p256
ag99
aS'more'
p257
aS'big'
p258
aS'med'
p259
aS'unacc'
p260
aa(lp261
S'vhigh'
p262
aS'high'
p263
ag99
aS'more'
p264
aS'big'
p265
aS'high'
p266
aS'unacc'
p267
aa(lp268
S'vhigh'
p269
aS'high'
p270
ag5
ag4
aS'small'
p271
aS'low'
p272
aS'unacc'
p273
aa(lp274
S'vhigh'
p275
aS'high'
p276
ag5
ag4
aS'small'
p277
aS'med'
p278
aS'unacc'
p279
aa(lp280
S'vhigh'
p281
aS'high'
p282
ag5
ag4
aS'small'
p283
aS'high'
p284
aS'unacc'
p285
aa(lp286
S'vhigh'
p287
aS'high'
p288
ag5
ag4
aS'med'
p289
aS'low'
p290
aS'unacc'
p291
aa(lp292
S'vhigh'
p293
aS'high'
p294
ag5
ag4
aS'med'
p295
aS'med'
p296
aS'unacc'
p297
aa(lp298
S'vhigh'
p299
aS'high'
p300
ag5
ag4
aS'med'
p301
aS'high'
p302
aS'unacc'
p303
aa(lp304
S'vhigh'
p305
aS'high'
p306
ag5
ag4
aS'big'
p307
aS'low'
p308
aS'unacc'
p309
aa(lp310
S'vhigh'
p311
aS'high'
p312
ag5
ag4
aS'big'
p313
aS'med'
p314
aS'unacc'
p315
aa(lp316
S'vhigh'
p317
aS'high'
p318
ag5
ag4
aS'big'
p319
aS'high'
p320
aS'unacc'
p321
aa(lp322
S'vhigh'
p323
aS'high'
p324
ag5
ag5
aS'small'
p325
aS'low'
p326
aS'unacc'
p327
aa(lp328
S'vhigh'
p329
aS'high'
p330
ag5
ag5
aS'small'
p331
aS'med'
p332
aS'unacc'
p333
aa(lp334
S'vhigh'
p335
aS'high'
p336
ag5
ag5
aS'small'
p337
aS'high'
p338
aS'unacc'
p339
aa(lp340
S'vhigh'
p341
aS'high'
p342
ag5
ag5
aS'med'
p343
aS'low'
p344
aS'unacc'
p345
aa(lp346
S'vhigh'
p347
aS'high'
p348
ag5
ag5
aS'med'
p349
aS'med'
p350
aS'unacc'
p351
aa(lp352
S'vhigh'
p353
aS'high'
p354
ag5
ag5
aS'med'
p355
aS'high'
p356
aS'unacc'
p357
aa(lp358
S'vhigh'
p359
aS'high'
p360
ag5
ag5
aS'big'
p361
aS'low'
p362
aS'unacc'
p363
aa(lp364
S'vhigh'
p365
aS'high'
p366
ag5
ag5
aS'big'
p367
aS'med'
p368
aS'unacc'
p369
aa(lp370
S'vhigh'
p371
aS'high'
p372
ag5
ag5
aS'big'
p373
aS'high'
p374
aS'unacc'
p375
aa(lp376
S'vhigh'
p377
aS'high'
p378
ag5
aS'more'
p379
aS'small'
p380
aS'low'
p381
aS'unacc'
p382
aa(lp383
S'vhigh'
p384
aS'high'
p385
ag5
aS'more'
p386
aS'small'
p387
aS'med'
p388
aS'unacc'
p389
aa(lp390
S'vhigh'
p391
aS'high'
p392
ag5
aS'more'
p393
aS'small'
p394
aS'high'
p395
aS'unacc'
p396
aa(lp397
S'vhigh'
p398
aS'high'
p399
ag5
aS'more'
p400
aS'med'
p401
aS'low'
p402
aS'unacc'
p403
aa(lp404
S'vhigh'
p405
aS'high'
p406
ag5
aS'more'
p407
aS'med'
p408
aS'med'
p409
aS'unacc'
p410
aa(lp411
S'vhigh'
p412
aS'high'
p413
ag5
aS'more'
p414
aS'med'
p415
aS'high'
p416
aS'unacc'
p417
aa(lp418
S'vhigh'
p419
aS'high'
p420
ag5
aS'more'
p421
aS'big'
p422
aS'low'
p423
aS'unacc'
p424
aa(lp425
S'vhigh'
p426
aS'high'
p427
ag5
aS'more'
p428
aS'big'
p429
aS'med'
p430
aS'unacc'
p431
aa(lp432
S'vhigh'
p433
aS'high'
p434
ag5
aS'more'
p435
aS'big'
p436
aS'high'
p437
aS'unacc'
p438
aa(lp439
S'vhigh'
p440
aS'high'
p441
aS'5more'
p442
ag4
aS'small'
p443
aS'low'
p444
aS'unacc'
p445
aa(lp446
S'vhigh'
p447
aS'high'
p448
aS'5more'
p449
ag4
aS'small'
p450
aS'med'
p451
aS'unacc'
p452
aa(lp453
S'vhigh'
p454
aS'high'
p455
aS'5more'
p456
ag4
aS'small'
p457
aS'high'
p458
aS'unacc'
p459
aa(lp460
S'vhigh'
p461
aS'high'
p462
aS'5more'
p463
ag4
aS'med'
p464
aS'low'
p465
aS'unacc'
p466
aa(lp467
S'vhigh'
p468
aS'high'
p469
aS'5more'
p470
ag4
aS'med'
p471
aS'med'
p472
aS'unacc'
p473
aa(lp474
S'vhigh'
p475
aS'high'
p476
aS'5more'
p477
ag4
aS'med'
p478
aS'high'
p479
aS'unacc'
p480
aa(lp481
S'vhigh'
p482
aS'high'
p483
aS'5more'
p484
ag4
aS'big'
p485
aS'low'
p486
aS'unacc'
p487
aa(lp488
S'vhigh'
p489
aS'high'
p490
aS'5more'
p491
ag4
aS'big'
p492
aS'med'
p493
aS'unacc'
p494
aa(lp495
S'vhigh'
p496
aS'high'
p497
aS'5more'
p498
ag4
aS'big'
p499
aS'high'
p500
aS'unacc'
p501
aa(lp502
S'vhigh'
p503
aS'high'
p504
aS'5more'
p505
ag5
aS'small'
p506
aS'low'
p507
aS'unacc'
p508
aa(lp509
S'vhigh'
p510
aS'high'
p511
aS'5more'
p512
ag5
aS'small'
p513
aS'med'
p514
aS'unacc'
p515
aa(lp516
S'vhigh'
p517
aS'high'
p518
aS'5more'
p519
ag5
aS'small'
p520
aS'high'
p521
aS'unacc'
p522
aa(lp523
S'vhigh'
p524
aS'high'
p525
aS'5more'
p526
ag5
aS'med'
p527
aS'low'
p528
aS'unacc'
p529
aa(lp530
S'vhigh'
p531
aS'high'
p532
aS'5more'
p533
ag5
aS'med'
p534
aS'med'
p535
aS'unacc'
p536
aa(lp537
S'vhigh'
p538
aS'high'
p539
aS'5more'
p540
ag5
aS'med'
p541
aS'high'
p542
aS'unacc'
p543
aa(lp544
S'vhigh'
p545
aS'high'
p546
aS'5more'
p547
ag5
aS'big'
p548
aS'low'
p549
aS'unacc'
p550
aa(lp551
S'vhigh'
p552
aS'high'
p553
aS'5more'
p554
ag5
aS'big'
p555
aS'med'
p556
aS'unacc'
p557
aa(lp558
S'vhigh'
p559
aS'high'
p560
aS'5more'
p561
ag5
aS'big'
p562
aS'high'
p563
aS'unacc'
p564
aa(lp565
S'vhigh'
p566
aS'high'
p567
aS'5more'
p568
aS'more'
p569
aS'small'
p570
aS'low'
p571
aS'unacc'
p572
aa(lp573
S'vhigh'
p574
aS'high'
p575
aS'5more'
p576
aS'more'
p577
aS'small'
p578
aS'med'
p579
aS'unacc'
p580
aa(lp581
S'vhigh'
p582
aS'high'
p583
aS'5more'
p584
aS'more'
p585
aS'small'
p586
aS'high'
p587
aS'unacc'
p588
aa(lp589
S'vhigh'
p590
aS'high'
p591
aS'5more'
p592
aS'more'
p593
aS'med'
p594
aS'low'
p595
aS'unacc'
p596
aa(lp597
S'vhigh'
p598
aS'high'
p599
aS'5more'
p600
aS'more'
p601
aS'med'
p602
aS'med'
p603
aS'unacc'
p604
aa(lp605
S'vhigh'
p606
aS'high'
p607
aS'5more'
p608
aS'more'
p609
aS'med'
p610
aS'high'
p611
aS'unacc'
p612
aa(lp613
S'vhigh'
p614
aS'high'
p615
aS'5more'
p616
aS'more'
p617
aS'big'
p618
aS'low'
p619
aS'unacc'
p620
aa(lp621
S'vhigh'
p622
aS'high'
p623
aS'5more'
p624
aS'more'
p625
aS'big'
p626
aS'med'
p627
aS'unacc'
p628
aa(lp629
S'vhigh'
p630
aS'high'
p631
aS'5more'
p632
aS'more'
p633
aS'big'
p634
aS'high'
p635
aS'unacc'
p636
aa(lp637
S'vhigh'
p638
aS'med'
p639
ag4
ag4
aS'small'
p640
aS'low'
p641
aS'unacc'
p642
aa(lp643
S'vhigh'
p644
aS'med'
p645
ag4
ag4
aS'small'
p646
aS'med'
p647
aS'unacc'
p648
aa(lp649
S'vhigh'
p650
aS'med'
p651
ag4
ag4
aS'small'
p652
aS'high'
p653
aS'unacc'
p654
aa(lp655
S'vhigh'
p656
aS'med'
p657
ag4
ag4
aS'med'
p658
aS'low'
p659
aS'unacc'
p660
aa(lp661
S'vhigh'
p662
aS'med'
p663
ag4
ag4
aS'med'
p664
aS'med'
p665
aS'unacc'
p666
aa(lp667
S'vhigh'
p668
aS'med'
p669
ag4
ag4
aS'med'
p670
aS'high'
p671
aS'unacc'
p672
aa(lp673
S'vhigh'
p674
aS'med'
p675
ag4
ag4
aS'big'
p676
aS'low'
p677
aS'unacc'
p678
aa(lp679
S'vhigh'
p680
aS'med'
p681
ag4
ag4
aS'big'
p682
aS'med'
p683
aS'unacc'
p684
aa(lp685
S'vhigh'
p686
aS'med'
p687
ag4
ag4
aS'big'
p688
aS'high'
p689
aS'unacc'
p690
aa(lp691
S'vhigh'
p692
aS'med'
p693
ag4
ag5
aS'small'
p694
aS'low'
p695
aS'unacc'
p696
aa(lp697
S'vhigh'
p698
aS'med'
p699
ag4
ag5
aS'small'
p700
aS'med'
p701
aS'unacc'
p702
aa(lp703
S'vhigh'
p704
aS'med'
p705
ag4
ag5
aS'med'
p706
aS'low'
p707
aS'unacc'
p708
aa(lp709
S'vhigh'
p710
aS'med'
p711
ag4
ag5
aS'med'
p712
aS'med'
p713
aS'unacc'
p714
aa(lp715
S'vhigh'
p716
aS'med'
p717
ag4
ag5
aS'big'
p718
aS'low'
p719
aS'unacc'
p720
aa(lp721
S'vhigh'
p722
aS'med'
p723
ag4
aS'more'
p724
aS'small'
p725
aS'low'
p726
aS'unacc'
p727
aa(lp728
S'vhigh'
p729
aS'med'
p730
ag4
aS'more'
p731
aS'small'
p732
aS'med'
p733
aS'unacc'
p734
aa(lp735
S'vhigh'
p736
aS'med'
p737
ag4
aS'more'
p738
aS'small'
p739
aS'high'
p740
aS'unacc'
p741
aa(lp742
S'vhigh'
p743
aS'med'
p744
ag4
aS'more'
p745
aS'med'
p746
aS'low'
p747
aS'unacc'
p748
aa(lp749
S'vhigh'
p750
aS'med'
p751
ag4
aS'more'
p752
aS'med'
p753
aS'med'
p754
aS'unacc'
p755
aa(lp756
S'vhigh'
p757
aS'med'
p758
ag4
aS'more'
p759
aS'big'
p760
aS'low'
p761
aS'unacc'
p762
aa(lp763
S'vhigh'
p764
aS'med'
p765
ag99
ag4
aS'small'
p766
aS'low'
p767
aS'unacc'
p768
aa(lp769
S'vhigh'
p770
aS'med'
p771
ag99
ag4
aS'small'
p772
aS'med'
p773
aS'unacc'
p774
aa(lp775
S'vhigh'
p776
aS'med'
p777
ag99
ag4
aS'small'
p778
aS'high'
p779
aS'unacc'
p780
aa(lp781
S'vhigh'
p782
aS'med'
p783
ag99
ag4
aS'med'
p784
aS'low'
p785
aS'unacc'
p786
aa(lp787
S'vhigh'
p788
aS'med'
p789
ag99
ag4
aS'med'
p790
aS'med'
p791
aS'unacc'
p792
aa(lp793
S'vhigh'
p794
aS'med'
p795
ag99
ag4
aS'med'
p796
aS'high'
p797
aS'unacc'
p798
aa(lp799
S'vhigh'
p800
aS'low'
p801
ag4
ag5
aS'big'
p802
aS'high'
p803
aS'acc'
p804
aa(lp805
S'vhigh'
p806
aS'low'
p807
ag4
aS'more'
p808
aS'med'
p809
aS'high'
p810
aS'acc'
p811
aa(lp812
S'vhigh'
p813
aS'low'
p814
ag4
aS'more'
p815
aS'big'
p816
aS'med'
p817
aS'acc'
p818
aa(lp819
S'vhigh'
p820
aS'low'
p821
ag4
aS'more'
p822
aS'big'
p823
aS'high'
p824
aS'acc'
p825
aa(lp826
S'vhigh'
p827
aS'low'
p828
ag99
ag5
aS'small'
p829
aS'high'
p830
aS'acc'
p831
aa(lp832
S'vhigh'
p833
aS'low'
p834
ag99
ag5
aS'med'
p835
aS'high'
p836
aS'acc'
p837
aa(lp838
S'vhigh'
p839
aS'low'
p840
ag99
ag5
aS'big'
p841
aS'med'
p842
aS'acc'
p843
aa(lp844
S'vhigh'
p845
aS'low'
p846
ag99
ag5
aS'big'
p847
aS'high'
p848
aS'acc'
p849
aa(lp850
S'vhigh'
p851
aS'low'
p852
ag99
aS'more'
p853
aS'small'
p854
aS'high'
p855
aS'acc'
p856
aa(lp857
S'vhigh'
p858
aS'low'
p859
ag99
aS'more'
p860
aS'med'
p861
aS'med'
p862
aS'acc'
p863
aa(lp864
S'vhigh'
p865
aS'low'
p866
ag99
aS'more'
p867
aS'med'
p868
aS'high'
p869
aS'acc'
p870
aa(lp871
S'vhigh'
p872
aS'low'
p873
ag99
aS'more'
p874
aS'big'
p875
aS'med'
p876
aS'acc'
p877
aa(lp878
S'vhigh'
p879
aS'low'
p880
ag99
aS'more'
p881
aS'big'
p882
aS'high'
p883
aS'acc'
p884
aa(lp885
S'vhigh'
p886
aS'low'
p887
ag5
ag5
aS'small'
p888
aS'high'
p889
aS'acc'
p890
aa(lp891
S'vhigh'
p892
aS'low'
p893
ag5
ag5
aS'med'
p894
aS'med'
p895
aS'acc'
p896
aa(lp897
S'vhigh'
p898
aS'low'
p899
ag5
ag5
aS'med'
p900
aS'high'
p901
aS'acc'
p902
aa(lp903
S'vhigh'
p904
aS'low'
p905
ag5
ag5
aS'big'
p906
aS'med'
p907
aS'acc'
p908
aa(lp909
S'vhigh'
p910
aS'low'
p911
ag5
ag5
aS'big'
p912
aS'high'
p913
aS'acc'
p914
aa(lp915
S'vhigh'
p916
aS'low'
p917
ag5
aS'more'
p918
aS'small'
p919
aS'high'
p920
aS'acc'
p921
aa(lp922
S'vhigh'
p923
aS'low'
p924
ag5
aS'more'
p925
aS'med'
p926
aS'med'
p927
aS'acc'
p928
aa(lp929
S'vhigh'
p930
aS'low'
p931
ag5
aS'more'
p932
aS'med'
p933
aS'high'
p934
aS'acc'
p935
aa(lp936
S'vhigh'
p937
aS'low'
p938
ag5
aS'more'
p939
aS'big'
p940
aS'med'
p941
aS'acc'
p942
aa(lp943
S'vhigh'
p944
aS'low'
p945
ag5
aS'more'
p946
aS'big'
p947
aS'high'
p948
aS'acc'
p949
aa(lp950
S'vhigh'
p951
aS'low'
p952
aS'5more'
p953
ag5
aS'small'
p954
aS'high'
p955
aS'acc'
p956
aa(lp957
S'vhigh'
p958
aS'low'
p959
aS'5more'
p960
ag5
aS'med'
p961
aS'med'
p962
aS'acc'
p963
aa(lp964
S'vhigh'
p965
aS'low'
p966
aS'5more'
p967
ag5
aS'med'
p968
aS'high'
p969
aS'acc'
p970
aa(lp971
S'vhigh'
p972
aS'low'
p973
aS'5more'
p974
ag5
aS'big'
p975
aS'med'
p976
aS'acc'
p977
aa(lp978
S'vhigh'
p979
aS'low'
p980
aS'5more'
p981
ag5
aS'big'
p982
aS'high'
p983
aS'acc'
p984
aa(lp985
S'vhigh'
p986
aS'low'
p987
aS'5more'
p988
aS'more'
p989
aS'small'
p990
aS'high'
p991
aS'acc'
p992
aa(lp993
S'vhigh'
p994
aS'low'
p995
aS'5more'
p996
aS'more'
p997
aS'med'
p998
aS'med'
p999
aS'acc'
p1000
aa(lp1001
S'vhigh'
p1002
aS'low'
p1003
aS'5more'
p1004
aS'more'
p1005
aS'med'
p1006
aS'high'
p1007
aS'acc'
p1008
aa(lp1009
S'vhigh'
p1010
aS'low'
p1011
aS'5more'
p1012
aS'more'
p1013
aS'big'
p1014
aS'med'
p1015
aS'acc'
p1016
aa(lp1017
S'vhigh'
p1018
aS'low'
p1019
aS'5more'
p1020
aS'more'
p1021
aS'big'
p1022
aS'high'
p1023
aS'acc'
p1024
aa(lp1025
S'high'
p1026
aS'high'
p1027
ag4
ag5
aS'small'
p1028
aS'high'
p1029
aS'acc'
p1030
aa(lp1031
S'high'
p1032
aS'high'
p1033
ag4
ag5
aS'med'
p1034
aS'high'
p1035
aS'acc'
p1036
aa(lp1037
S'high'
p1038
aS'high'
p1039
ag4
ag5
aS'big'
p1040
aS'med'
p1041
aS'acc'
p1042
aa(lp1043
S'high'
p1044
aS'high'
p1045
ag4
ag5
aS'big'
p1046
aS'high'
p1047
aS'acc'
p1048
aa(lp1049
S'high'
p1050
aS'high'
p1051
ag4
aS'more'
p1052
aS'med'
p1053
aS'high'
p1054
aS'acc'
p1055
aa(lp1056
S'high'
p1057
aS'high'
p1058
ag4
aS'more'
p1059
aS'big'
p1060
aS'med'
p1061
aS'acc'
p1062
aa(lp1063
S'med'
p1064
aS'med'
p1065
ag5
aS'more'
p1066
aS'med'
p1067
aS'high'
p1068
aS'vgood'
p1069
aa(lp1070
S'med'
p1071
aS'med'
p1072
ag5
aS'more'
p1073
aS'big'
p1074
aS'high'
p1075
aS'vgood'
p1076
aa(lp1077
S'med'
p1078
aS'med'
p1079
aS'5more'
p1080
ag5
aS'med'
p1081
aS'high'
p1082
aS'vgood'
p1083
aa(lp1084
S'med'
p1085
aS'med'
p1086
aS'5more'
p1087
ag5
aS'big'
p1088
aS'high'
p1089
aS'vgood'
p1090
aa(lp1091
S'med'
p1092
aS'med'
p1093
aS'5more'
p1094
aS'more'
p1095
aS'med'
p1096
aS'high'
p1097
aS'vgood'
p1098
aa(lp1099
S'med'
p1100
aS'med'
p1101
aS'5more'
p1102
aS'more'
p1103
aS'big'
p1104
aS'high'
p1105
aS'vgood'
p1106
aa(lp1107
S'med'
p1108
aS'low'
p1109
ag4
ag5
aS'big'
p1110
aS'high'
p1111
aS'vgood'
p1112
aa(lp1113
S'med'
p1114
aS'low'
p1115
ag99
ag5
aS'big'
p1116
aS'med'
p1117
aS'good'
p1118
aa(lp1119
S'med'
p1120
aS'low'
p1121
ag99
aS'more'
p1122
aS'small'
p1123
aS'high'
p1124
aS'good'
p1125
aa(lp1126
S'med'
p1127
aS'low'
p1128
ag99
aS'more'
p1129
aS'med'
p1130
aS'med'
p1131
aS'good'
p1132
aa(lp1133
S'med'
p1134
aS'low'
p1135
ag99
aS'more'
p1136
aS'big'
p1137
aS'med'
p1138
aS'good'
p1139
aa(lp1140
S'med'
p1141
aS'low'
p1142
ag5
ag5
aS'small'
p1143
aS'high'
p1144
aS'good'
p1145
aa(lp1146
S'med'
p1147
aS'low'
p1148
ag5
ag5
aS'med'
p1149
aS'med'
p1150
aS'good'
p1151
aa(lp1152
S'med'
p1153
aS'low'
p1154
ag5
ag5
aS'big'
p1155
aS'med'
p1156
aS'good'
p1157
aa.