(lp0
(lp1
S'high'
p2
aS'high'
p3
aS'2'
p4
aS'more'
p5
aS'small'
p6
aS'high'
p7
aS'unacc'
p8
aa(lp9
S'high'
p10
aS'high'
p11
ag4
aS'more'
p12
aS'med'
p13
aS'low'
p14
aS'unacc'
p15
aa(lp16
S'high'
p17
aS'high'
p18
ag4
aS'more'
p19
aS'med'
p20
aS'med'
p21
aS'unacc'
p22
aa(lp23
S'high'
p24
aS'high'
p25
ag4
aS'more'
p26
aS'big'
p27
aS'low'
p28
aS'unacc'
p29
aa(lp30
S'high'
p31
aS'high'
p32
aS'3'
p33
ag4
aS'small'
p34
aS'low'
p35
aS'unacc'
p36
aa(lp37
S'high'
p38
aS'high'
p39
ag33
ag4
aS'small'
p40
aS'med'
p41
aS'unacc'
p42
aa(lp43
S'high'
p44
aS'high'
p45
ag33
ag4
aS'small'
p46
aS'high'
p47
aS'unacc'
p48
aa(lp49
S'high'
p50
aS'high'
p51
ag33
ag4
aS'med'
p52
aS'low'
p53
aS'unacc'
p54
aa(lp55
S'high'
p56
aS'high'
p57
ag33
ag4
aS'med'
p58
aS'med'
p59
aS'unacc'
p60
aa(lp61
S'high'
p62
aS'high'
p63
ag33
ag4
aS'med'
p64
aS'high'
p65
aS'unacc'
p66
aa(lp67
S'high'
p68
aS'high'
p69
ag33
ag4
aS'big'
p70
aS'low'
p71
aS'unacc'
p72
aa(lp73
S'high'
p74
aS'high'
p75
ag33
ag4
aS'big'
p76
aS'med'
p77
aS'unacc'
p78
aa(lp79
S'high'
p80
aS'high'
p81
ag33
ag4
aS'big'
p82
aS'high'
p83
aS'unacc'
p84
aa(lp85
S'high'
p86
aS'high'
p87
ag33
aS'4'
p88
aS'small'
p89
aS'low'
p90
aS'unacc'
p91
aa(lp92
S'high'
p93
aS'high'
p94
ag33
ag88
aS'small'
p95
aS'med'
p96
aS'unacc'
p97
aa(lp98
S'high'
p99
aS'high'
p100
ag33
ag88
aS'med'
p101
aS'low'
p102
aS'unacc'
p103
aa(lp104
S'high'
p105
aS'high'
p106
ag33
ag88
aS'med'
p107
aS'med'
p108
aS'unacc'
p109
aa(lp110
S'high'
p111
aS'high'
p112
ag33
ag88
aS'big'
p113
aS'low'
p114
aS'unacc'
p115
aa(lp116
S'high'
p117
aS'high'
p118
ag33
aS'more'
p119
aS'small'
p120
aS'low'
p121
aS'unacc'
p122
aa(lp123
S'high'
p124
aS'high'
p125
ag33
aS'more'
p126
aS'small'
p127
aS'med'
p128
aS'unacc'
p129
aa(lp130
S'high'
p131
aS'high'
p132
ag33
aS'more'
p133
aS'med'
p134
aS'low'
p135
aS'unacc'
p136
aa(lp137
S'high'
p138
aS'high'
p139
ag33
aS'more'
p140
aS'big'
p141
aS'low'
p142
aS'unacc'
p143
aa(lp144
S'high'
p145
aS'high'
p146
ag88
ag4
aS'small'
p147
aS'low'
p148
aS'unacc'
p149
aa(lp150
S'high'
p151
aS'high'
p152
ag88
ag4
aS'small'
p153
aS'med'
p154
aS'unacc'
p155
aa(lp156
S'high'
p157
aS'high'
p158
ag88
ag4
aS'small'
p159
aS'high'
p160
aS'unacc'
p161
aa(lp162
S'high'
p163
aS'high'
p164
ag88
ag4
aS'med'
p165
aS'low'
p166
aS'unacc'
p167
aa(lp168
S'high'
p169
aS'high'
p170
ag88
ag4
aS'med'
p171
aS'med'
p172
aS'unacc'
p173
aa(lp174
S'high'
p175
aS'high'
p176
ag88
ag4
aS'med'
p177
aS'high'
p178
aS'unacc'
p179
aa(lp180
S'high'
p181
aS'high'
p182
ag88
ag4
aS'big'
p183
aS'low'
p184
aS'unacc'
p185
aa(lp186
S'high'
p187
aS'high'
p188
ag88
ag4
aS'big'
p189
aS'med'
p190
aS'unacc'
p191
aa(lp192
S'high'
p193
aS'high'
p194
ag88
ag4
aS'big'
p195
aS'high'
p196
aS'unacc'
p197
aa(lp198
S'high'
p199
aS'high'
p200
ag88
ag88
aS'small'
p201
aS'low'
p202
aS'unacc'
p203
aa(lp204
S'high'
p205
aS'high'
p206
ag88
ag88
aS'small'
p207
aS'med'
p208
aS'unacc'
p209
aa(lp210
S'high'
p211
aS'high'
p212
ag88
ag88
aS'med'
p213
aS'low'
p214
aS'unacc'
p215
aa(lp216
S'high'
p217
aS'high'
p218
ag88
ag88
aS'big'
p219
aS'low'
p220
aS'unacc'
p221
aa(lp222
S'high'
p223
aS'high'
p224
ag88
aS'more'
p225
aS'small'
p226
aS'low'
p227
aS'unacc'
p228
aa(lp229
S'high'
p230
aS'high'
p231
ag88
aS'more'
p232
aS'small'
p233
aS'med'
p234
aS'unacc'
p235
aa(lp236
S'high'
p237
aS'high'
p238
ag88
aS'more'
p239
aS'med'
p240
aS'low'
p241
aS'unacc'
p242
aa(lp243
S'high'
p244
aS'high'
p245
ag88
aS'more'
p246
aS'big'
p247
aS'low'
p248
aS'unacc'
p249
aa(lp250
S'high'
p251
aS'high'
p252
aS'5more'
p253
ag4
aS'small'
p254
aS'low'
p255
aS'unacc'
p256
aa(lp257
S'high'
p258
aS'high'
p259
aS'5more'
p260
ag4
aS'small'
p261
aS'med'
p262
aS'unacc'
p263
aa(lp264
S'high'
p265
aS'high'
p266
aS'5more'
p267
ag4
aS'small'
p268
aS'high'
p269
aS'unacc'
p270
aa(lp271
S'high'
p272
aS'high'
p273
aS'5more'
p274
ag4
aS'med'
p275
aS'low'
p276
aS'unacc'
p277
aa(lp278
S'high'
p279
aS'high'
p280
aS'5more'
p281
ag4
aS'med'
p282
aS'med'
p283
aS'unacc'
p284
aa(lp285
S'high'
p286
aS'high'
p287
aS'5more'
p288
ag4
aS'med'
p289
aS'high'
p290
aS'unacc'
p291
aa(lp292
S'high'
p293
aS'high'
p294
aS'5more'
p295
ag4
aS'big'
p296
aS'low'
p297
aS'unacc'
p298
aa(lp299
S'high'
p300
aS'high'
p301
aS'5more'
p302
ag4
aS'big'
p303
aS'med'
p304
aS'unacc'
p305
aa(lp306
S'high'
p307
aS'high'
p308
aS'5more'
p309
ag4
aS'big'
p310
aS'high'
p311
aS'unacc'
p312
aa(lp313
S'high'
p314
aS'high'
p315
aS'5more'
p316
ag88
aS'small'
p317
aS'low'
p318
aS'unacc'
p319
aa(lp320
S'high'
p321
aS'high'
p322
aS'5more'
p323
ag88
aS'small'
p324
aS'med'
p325
aS'unacc'
p326
aa(lp327
S'high'
p328
aS'high'
p329
aS'5more'
p330
ag88
aS'med'
p331
aS'low'
p332
aS'unacc'
p333
aa(lp334
S'high'
p335
aS'high'
p336
aS'5more'
p337
ag88
aS'big'
p338
aS'low'
p339
aS'unacc'
p340
aa(lp341
S'high'
p342
aS'high'
p343
aS'5more'
p344
aS'more'
p345
aS'small'
p346
aS'low'
p347
aS'unacc'
p348
aa(lp349
S'high'
p350
aS'high'
p351
aS'5more'
p352
aS'more'
p353
aS'small'
p354
aS'med'
p355
aS'unacc'
p356
aa(lp357
S'high'
p358
aS'high'
p359
aS'5more'
p360
aS'more'
p361
aS'med'
p362
aS'low'
p363
aS'unacc'
p364
aa(lp365
S'high'
p366
aS'high'
p367
aS'5more'
p368
aS'more'
p369
aS'big'
p370
aS'low'
p371
aS'unacc'
p372
aa(lp373
S'high'
p374
aS'med'
p375
ag4
ag4
aS'small'
p376
aS'low'
p377
aS'unacc'
p378
aa(lp379
S'high'
p380
aS'med'
p381
ag4
ag4
aS'small'
p382
aS'med'
p383
aS'unacc'
p384
aa(lp385
S'high'
p386
aS'med'
p387
ag4
ag4
aS'small'
p388
aS'high'
p389
aS'unacc'
p390
aa(lp391
S'high'
p392
aS'med'
p393
ag4
ag4
aS'med'
p394
aS'low'
p395
aS'unacc'
p396
aa(lp397
S'high'
p398
aS'med'
p399
ag4
ag4
aS'med'
p400
aS'med'
p401
aS'unacc'
p402
aa(lp403
S'high'
p404
aS'med'
p405
ag4
ag4
aS'med'
p406
aS'high'
p407
aS'unacc'
p408
aa(lp409
S'high'
p410
aS'med'
p411
ag4
ag4
aS'big'
p412
aS'low'
p413
aS'unacc'
p414
aa(lp415
S'high'
p416
aS'med'
p417
ag4
ag4
aS'big'
p418
aS'med'
p419
aS'unacc'
p420
aa(lp421
S'high'
p422
aS'med'
p423
ag4
ag4
aS'big'
p424
aS'high'
p425
aS'unacc'
p426
aa(lp427
S'high'
p428
aS'med'
p429
ag4
ag88
aS'small'
p430
aS'low'
p431
aS'unacc'
p432
aa(lp433
S'high'
p434
aS'med'
p435
ag4
ag88
aS'small'
p436
aS'med'
p437
aS'unacc'
p438
aa(lp439
S'high'
p440
aS'med'
p441
ag4
ag88
aS'med'
p442
aS'low'
p443
aS'unacc'
p444
aa(lp445
S'high'
p446
aS'med'
p447
ag4
ag88
aS'med'
p448
aS'med'
p449
aS'unacc'
p450
aa(lp451
S'high'
p452
aS'med'
p453
ag4
ag88
aS'big'
p454
aS'low'
p455
aS'unacc'
p456
aa(lp457
S'high'
p458
aS'med'
p459
ag4
aS'more'
p460
aS'small'
p461
aS'low'
p462
aS'unacc'
p463
aa(lp464
S'high'
p465
aS'med'
p466
ag4
aS'more'
p467
aS'small'
p468
aS'med'
p469
aS'unacc'
p470
aa(lp471
S'high'
p472
aS'med'
p473
ag4
aS'more'
p474
aS'small'
p475
aS'high'
p476
aS'unacc'
p477
aa(lp478
S'high'
p479
aS'med'
p480
ag4
aS'more'
p481
aS'med'
p482
aS'low'
p483
aS'unacc'
p484
aa(lp485
S'high'
p486
aS'med'
p487
ag4
aS'more'
p488
aS'med'
p489
aS'med'
p490
aS'unacc'
p491
aa(lp492
S'high'
p493
aS'med'
p494
ag4
aS'more'
p495
aS'big'
p496
aS'low'
p497
aS'unacc'
p498
aa(lp499
S'high'
p500
aS'med'
p501
ag33
ag4
aS'small'
p502
aS'low'
p503
aS'unacc'
p504
aa(lp505
S'high'
p506
aS'med'
p507
ag33
ag4
aS'small'
p508
aS'med'
p509
aS'unacc'
p510
aa(lp511
S'high'
p512
aS'med'
p513
ag33
ag4
aS'small'
p514
aS'high'
p515
aS'unacc'
p516
aa(lp517
S'high'
p518
aS'med'
p519
ag33
ag4
aS'med'
p520
aS'low'
p521
aS'unacc'
p522
aa(lp523
S'high'
p524
aS'med'
p525
ag33
ag4
aS'med'
p526
aS'med'
p527
aS'unacc'
p528
aa(lp529
S'high'
p530
aS'med'
p531
ag33
ag4
aS'med'
p532
aS'high'
p533
aS'unacc'
p534
aa(lp535
S'high'
p536
aS'med'
p537
ag33
ag4
aS'big'
p538
aS'low'
p539
aS'unacc'
p540
aa(lp541
S'high'
p542
aS'med'
p543
ag33
ag4
aS'big'
p544
aS'med'
p545
aS'unacc'
p546
aa(lp547
S'high'
p548
aS'med'
p549
ag33
ag4
aS'big'
p550
aS'high'
p551
aS'unacc'
p552
aa(lp553
S'high'
p554
aS'med'
p555
ag33
ag88
aS'small'
p556
aS'low'
p557
aS'unacc'
p558
aa(lp559
S'high'
p560
aS'med'
p561
ag33
ag88
aS'small'
p562
aS'med'
p563
aS'unacc'
p564
aa(lp565
S'high'
p566
aS'med'
p567
ag33
ag88
aS'med'
p568
aS'low'
p569
aS'unacc'
p570
aa(lp571
S'high'
p572
aS'med'
p573
ag33
ag88
aS'med'
p574
aS'med'
p575
aS'unacc'
p576
aa(lp577
S'high'
p578
aS'med'
p579
ag33
ag88
aS'big'
p580
aS'low'
p581
aS'unacc'
p582
aa(lp583
S'high'
p584
aS'med'
p585
ag33
aS'more'
p586
aS'small'
p587
aS'low'
p588
aS'unacc'
p589
aa(lp590
S'high'
p591
aS'med'
p592
ag33
aS'more'
p593
aS'small'
p594
aS'med'
p595
aS'unacc'
p596
aa(lp597
S'high'
p598
aS'med'
p599
ag33
aS'more'
p600
aS'med'
p601
aS'low'
p602
aS'unacc'
p603
aa(lp604
S'high'
p605
aS'med'
p606
ag33
aS'more'
p607
aS'big'
p608
aS'low'
p609
aS'unacc'
p610
aa(lp611
S'high'
p612
aS'med'
p613
ag88
ag4
aS'small'
p614
aS'low'
p615
aS'unacc'
p616
aa(lp617
S'high'
p618
aS'med'
p619
ag88
ag4
aS'small'
p620
aS'med'
p621
aS'unacc'
p622
aa(lp623
S'high'
p624
aS'med'
p625
ag88
ag4
aS'small'
p626
aS'high'
p627
aS'unacc'
p628
aa(lp629
S'high'
p630
aS'med'
p631
ag88
ag4
aS'med'
p632
aS'low'
p633
aS'unacc'
p634
aa(lp635
S'high'
p636
aS'med'
p637
ag88
ag4
aS'med'
p638
aS'med'
p639
aS'unacc'
p640
aa(lp641
S'high'
p642
aS'med'
p643
ag88
ag4
aS'med'
p644
aS'high'
p645
aS'unacc'
p646
aa(lp647
S'high'
p648
aS'med'
p649
ag88
ag4
aS'big'
p650
aS'low'
p651
aS'unacc'
p652
aa(lp653
S'high'
p654
aS'med'
p655
ag88
ag4
aS'big'
p656
aS'med'
p657
aS'unacc'
p658
aa(lp659
S'high'
p660
aS'med'
p661
ag88
ag4
aS'big'
p662
aS'high'
p663
aS'unacc'
p664
aa(lp665
S'high'
p666
aS'med'
p667
ag88
ag88
aS'small'
p668
aS'low'
p669
aS'unacc'
p670
aa(lp671
S'high'
p672
aS'med'
p673
ag88
ag88
aS'small'
p674
aS'med'
p675
aS'unacc'
p676
aa(lp677
S'high'
p678
aS'med'
p679
ag88
ag88
aS'med'
p680
aS'low'
p681
aS'unacc'
p682
aa(lp683
S'high'
p684
aS'med'
p685
ag88
ag88
aS'big'
p686
aS'low'
p687
aS'unacc'
p688
aa(lp689
S'high'
p690
aS'med'
p691
ag88
aS'more'
p692
aS'small'
p693
aS'low'
p694
aS'unacc'
p695
aa(lp696
S'high'
p697
aS'med'
p698
ag88
aS'more'
p699
aS'small'
p700
aS'med'
p701
aS'unacc'
p702
aa(lp703
S'high'
p704
aS'med'
p705
ag88
aS'more'
p706
aS'med'
p707
aS'low'
p708
aS'unacc'
p709
aa(lp710
S'high'
p711
aS'med'
p712
ag88
aS'more'
p713
aS'big'
p714
aS'low'
p715
aS'unacc'
p716
aa(lp717
S'high'
p718
aS'med'
p719
aS'5more'
p720
ag4
aS'small'
p721
aS'low'
p722
aS'unacc'
p723
aa(lp724
S'high'
p725
aS'med'
p726
aS'5more'
p727
ag4
aS'small'
p728
aS'med'
p729
aS'unacc'
p730
aa(lp731
S'high'
p732
aS'med'
p733
aS'5more'
p734
ag4
aS'small'
p735
aS'high'
p736
aS'unacc'
p737
aa(lp738
S'high'
p739
aS'med'
p740
aS'5more'
p741
ag4
aS'med'
p742
aS'low'
p743
aS'unacc'
p744
aa(lp745
S'high'
p746
aS'med'
p747
aS'5more'
p748
ag4
aS'med'
p749
aS'med'
p750
aS'unacc'
p751
aa(lp752
S'high'
p753
aS'med'
p754
aS'5more'
p755
ag4
aS'med'
p756
aS'high'
p757
aS'unacc'
p758
aa(lp759
S'high'
p760
aS'med'
p761
aS'5more'
p762
ag4
aS'big'
p763
aS'low'
p764
aS'unacc'
p765
aa(lp766
S'high'
p767
aS'med'
p768
aS'5more'
p769
ag4
aS'big'
p770
aS'med'
p771
aS'unacc'
p772
aa(lp773
S'high'
p774
aS'med'
p775
aS'5more'
p776
ag4
aS'big'
p777
aS'high'
p778
aS'unacc'
p779
aa(lp780
S'high'
p781
aS'med'
p782
aS'5more'
p783
ag88
aS'small'
p784
aS'low'
p785
aS'unacc'
p786
aa(lp787
S'high'
p788
aS'low'
p789
ag33
aS'more'
p790
aS'med'
p791
aS'med'
p792
aS'acc'
p793
aa(lp794
S'high'
p795
aS'low'
p796
ag33
aS'more'
p797
aS'med'
p798
aS'high'
p799
aS'acc'
p800
aa(lp801
S'high'
p802
aS'low'
p803
ag33
aS'more'
p804
aS'big'
p805
aS'med'
p806
aS'acc'
p807
aa(lp808
S'high'
p809
aS'low'
p810
ag33
aS'more'
p811
aS'big'
p812
aS'high'
p813
aS'acc'
p814
aa(lp815
S'high'
p816
aS'low'
p817
ag88
ag88
aS'small'
p818
aS'high'
p819
aS'acc'
p820
aa(lp821
S'high'
p822
aS'low'
p823
ag88
ag88
aS'med'
p824
aS'med'
p825
aS'acc'
p826
aa(lp827
S'high'
p828
aS'low'
p829
ag88
ag88
aS'med'
p830
aS'high'
p831
aS'acc'
p832
aa(lp833
S'high'
p834
aS'low'
p835
ag88
ag88
aS'big'
p836
aS'med'
p837
aS'acc'
p838
aa(lp839
S'high'
p840
aS'low'
p841
ag88
ag88
aS'big'
p842
aS'high'
p843
aS'acc'
p844
aa(lp845
S'high'
p846
aS'low'
p847
ag88
aS'more'
p848
aS'small'
p849
aS'high'
p850
aS'acc'
p851
aa(lp852
S'high'
p853
aS'low'
p854
ag88
aS'more'
p855
aS'med'
p856
aS'med'
p857
aS'acc'
p858
aa(lp859
S'high'
p860
aS'low'
p861
ag88
aS'more'
p862
aS'med'
p863
aS'high'
p864
aS'acc'
p865
aa(lp866
S'high'
p867
aS'low'
p868
ag88
aS'more'
p869
aS'big'
p870
aS'med'
p871
aS'acc'
p872
aa(lp873
S'high'
p874
aS'low'
p875
ag88
aS'more'
p876
aS'big'
p877
aS'high'
p878
aS'acc'
p879
aa(lp880
S'high'
p881
aS'low'
p882
aS'5more'
p883
ag88
aS'small'
p884
aS'high'
p885
aS'acc'
p886
aa(lp887
S'high'
p888
aS'low'
p889
aS'5more'
p890
ag88
aS'med'
p891
aS'med'
p892
aS'acc'
p893
aa(lp894
S'high'
p895
aS'low'
p896
aS'5more'
p897
ag88
aS'med'
p898
aS'high'
p899
aS'acc'
p900
aa(lp901
S'high'
p902
aS'low'
p903
aS'5more'
p904
ag88
aS'big'
p905
aS'med'
p906
aS'acc'
p907
aa(lp908
S'high'
p909
aS'low'
p910
aS'5more'
p911
ag88
aS'big'
p912
aS'high'
p913
aS'acc'
p914
aa(lp915
S'high'
p916
aS'low'
p917
aS'5more'
p918
aS'more'
p919
aS'small'
p920
aS'high'
p921
aS'acc'
p922
aa(lp923
S'high'
p924
aS'low'
p925
aS'5more'
p926
aS'more'
p927
aS'med'
p928
aS'med'
p929
aS'acc'
p930
aa(lp931
S'high'
p932
aS'low'
p933
aS'5more'
p934
aS'more'
p935
aS'med'
p936
aS'high'
p937
aS'acc'
p938
aa(lp939
S'high'
p940
aS'low'
p941
aS'5more'
p942
aS'more'
p943
aS'big'
p944
aS'med'
p945
aS'acc'
p946
aa(lp947
S'high'
p948
aS'low'
p949
aS'5more'
p950
aS'more'
p951
aS'big'
p952
aS'high'
p953
aS'acc'
p954
aa(lp955
S'med'
p956
aS'vhigh'
p957
ag4
ag88
aS'small'
p958
aS'high'
p959
aS'acc'
p960
aa(lp961
S'med'
p962
aS'vhigh'
p963
ag4
ag88
aS'med'
p964
aS'high'
p965
aS'acc'
p966
aa(lp967
S'med'
p968
aS'vhigh'
p969
ag4
ag88
aS'big'
p970
aS'med'
p971
aS'acc'
p972
aa(lp973
S'med'
p974
aS'vhigh'
p975
ag4
ag88
aS'big'
p976
aS'high'
p977
aS'acc'
p978
aa(lp979
S'med'
p980
aS'vhigh'
p981
ag4
aS'more'
p982
aS'med'
p983
aS'high'
p984
aS'acc'
p985
aa(lp986
S'med'
p987
aS'vhigh'
p988
ag4
aS'more'
p989
aS'big'
p990
aS'med'
p991
aS'acc'
p992
aa(lp993
S'med'
p994
aS'vhigh'
p995
ag4
aS'more'
p996
aS'big'
p997
aS'high'
p998
aS'acc'
p999
aa(lp1000
S'med'
p1001
aS'vhigh'
p1002
ag33
ag88
aS'small'
p1003
aS'high'
p1004
aS'acc'
p1005
aa(lp1006
S'med'
p1007
aS'vhigh'
p1008
ag33
ag88
aS'med'
p1009
aS'high'
p1010
aS'acc'
p1011
aa(lp1012
S'med'
p1013
aS'vhigh'
p1014
ag33
ag88
aS'big'
p1015
aS'med'
p1016
aS'acc'
p1017
aa(lp1018
S'med'
p1019
aS'vhigh'
p1020
ag33
ag88
aS'big'
p1021
aS'high'
p1022
aS'acc'
p1023
aa(lp1024
S'med'
p1025
aS'vhigh'
p1026
ag33
aS'more'
p1027
aS'small'
p1028
aS'high'
p1029
aS'acc'
p1030
aa(lp1031
S'med'
p1032
aS'vhigh'
p1033
ag33
aS'more'
p1034
aS'med'
p1035
aS'med'
p1036
aS'acc'
p1037
aa(lp1038
S'med'
p1039
aS'vhigh'
p1040
ag33
aS'more'
p1041
aS'med'
p1042
aS'high'
p1043
aS'acc'
p1044
aa(lp1045
S'low'
p1046
aS'high'
p1047
ag33
ag88
aS'big'
p1048
aS'high'
p1049
aS'vgood'
p1050
aa(lp1051
S'low'
p1052
aS'high'
p1053
ag33
aS'more'
p1054
aS'med'
p1055
aS'high'
p1056
aS'vgood'
p1057
aa(lp1058
S'low'
p1059
aS'high'
p1060
ag33
aS'more'
p1061
aS'big'
p1062
aS'high'
p1063
aS'vgood'
p1064
aa(lp1065
S'low'
p1066
aS'high'
p1067
ag88
ag88
aS'med'
p1068
aS'high'
p1069
aS'vgood'
p1070
aa(lp1071
S'low'
p1072
aS'high'
p1073
ag88
ag88
aS'big'
p1074
aS'high'
p1075
aS'vgood'
p1076
aa(lp1077
S'low'
p1078
aS'high'
p1079
ag88
aS'more'
p1080
aS'med'
p1081
aS'high'
p1082
aS'vgood'
p1083
aa(lp1084
S'low'
p1085
aS'high'
p1086
ag88
aS'more'
p1087
aS'big'
p1088
aS'high'
p1089
aS'vgood'
p1090
aa(lp1091
S'low'
p1092
aS'med'
p1093
ag33
ag88
aS'small'
p1094
aS'high'
p1095
aS'good'
p1096
aa(lp1097
S'low'
p1098
aS'med'
p1099
ag33
ag88
aS'med'
p1100
aS'high'
p1101
aS'good'
p1102
aa(lp1103
S'low'
p1104
aS'med'
p1105
ag33
ag88
aS'big'
p1106
aS'med'
p1107
aS'good'
p1108
aa(lp1109
S'low'
p1110
aS'med'
p1111
ag33
aS'more'
p1112
aS'small'
p1113
aS'high'
p1114
aS'good'
p1115
aa(lp1116
S'low'
p1117
aS'med'
p1118
ag33
aS'more'
p1119
aS'med'
p1120
aS'med'
p1121
aS'good'
p1122
aa(lp1123
S'low'
p1124
aS'med'
p1125
ag33
aS'more'
p1126
aS'big'
p1127
aS'med'
p1128
aS'good'
p1129
aa(lp1130
S'low'
p1131
aS'med'
p1132
ag88
ag88
aS'small'
p1133
aS'high'
p1134
aS'good'
p1135
aa.