(lp0
(lp1
S'high'
p2
aS'med'
p3
aS'5more'
p4
aS'4'
p5
aS'small'
p6
aS'med'
p7
aS'unacc'
p8
aa(lp9
S'high'
p10
aS'med'
p11
aS'5more'
p12
ag5
aS'med'
p13
aS'low'
p14
aS'unacc'
p15
aa(lp16
S'high'
p17
aS'med'
p18
aS'5more'
p19
ag5
aS'big'
p20
aS'low'
p21
aS'unacc'
p22
aa(lp23
S'high'
p24
aS'med'
p25
aS'5more'
p26
aS'more'
p27
aS'small'
p28
aS'low'
p29
aS'unacc'
p30
aa(lp31
S'high'
p32
aS'med'
p33
aS'5more'
p34
aS'more'
p35
aS'small'
p36
aS'med'
p37
aS'unacc'
p38
aa(lp39
S'high'
p40
aS'med'
p41
aS'5more'
p42
aS'more'
p43
aS'med'
p44
aS'low'
p45
aS'unacc'
p46
aa(lp47
S'high'
p48
aS'med'
p49
aS'5more'
p50
aS'more'
p51
aS'big'
p52
aS'low'
p53
aS'unacc'
p54
aa(lp55
S'high'
p56
aS'low'
p57
aS'2'
p58
ag58
aS'small'
p59
aS'low'
p60
aS'unacc'
p61
aa(lp62
S'high'
p63
aS'low'
p64
ag58
ag58
aS'small'
p65
aS'med'
p66
aS'unacc'
p67
aa(lp68
S'high'
p69
aS'low'
p70
ag58
ag58
aS'small'
p71
aS'high'
p72
aS'unacc'
p73
aa(lp74
S'high'
p75
aS'low'
p76
ag58
ag58
aS'med'
p77
aS'low'
p78
aS'unacc'
p79
aa(lp80
S'high'
p81
aS'low'
p82
ag58
ag58
aS'med'
p83
aS'med'
p84
aS'unacc'
p85
aa(lp86
S'high'
p87
aS'low'
p88
ag58
ag58
aS'med'
p89
aS'high'
p90
aS'unacc'
p91
aa(lp92
S'high'
p93
aS'low'
p94
ag58
ag58
aS'big'
p95
aS'low'
p96
aS'unacc'
p97
aa(lp98
S'high'
p99
aS'low'
p100
ag58
ag58
aS'big'
p101
aS'med'
p102
aS'unacc'
p103
aa(lp104
S'high'
p105
aS'low'
p106
ag58
ag58
aS'big'
p107
aS'high'
p108
aS'unacc'
p109
aa(lp110
S'high'
p111
aS'low'
p112
ag58
ag5
aS'small'
p113
aS'low'
p114
aS'unacc'
p115
aa(lp116
S'high'
p117
aS'low'
p118
ag58
ag5
aS'small'
p119
aS'med'
p120
aS'unacc'
p121
aa(lp122
S'high'
p123
aS'low'
p124
ag58
ag5
aS'med'
p125
aS'low'
p126
aS'unacc'
p127
aa(lp128
S'high'
p129
aS'low'
p130
ag58
ag5
aS'med'
p131
aS'med'
p132
aS'unacc'
p133
aa(lp134
S'high'
p135
aS'low'
p136
ag58
ag5
aS'big'
p137
aS'low'
p138
aS'unacc'
p139
aa(lp140
S'high'
p141
aS'low'
p142
ag58
aS'more'
p143
aS'small'
p144
aS'low'
p145
aS'unacc'
p146
aa(lp147
S'high'
p148
aS'low'
p149
ag58
aS'more'
p150
aS'small'
p151
aS'med'
p152
aS'unacc'
p153
aa(lp154
S'high'
p155
aS'low'
p156
ag58
aS'more'
p157
aS'small'
p158
aS'high'
p159
aS'unacc'
p160
aa(lp161
S'high'
p162
aS'low'
p163
ag58
aS'more'
p164
aS'med'
p165
aS'low'
p166
aS'unacc'
p167
aa(lp168
S'high'
p169
aS'low'
p170
ag58
aS'more'
p171
aS'med'
p172
aS'med'
p173
aS'unacc'
p174
aa(lp175
S'high'
p176
aS'low'
p177
ag58
aS'more'
p178
aS'big'
p179
aS'low'
p180
aS'unacc'
p181
aa(lp182
S'high'
p183
aS'low'
p184
aS'3'
p185
ag58
aS'small'
p186
aS'low'
p187
aS'unacc'
p188
aa(lp189
S'high'
p190
aS'low'
p191
ag185
ag58
aS'small'
p192
aS'med'
p193
aS'unacc'
p194
aa(lp195
S'high'
p196
aS'low'
p197
ag185
ag58
aS'small'
p198
aS'high'
p199
aS'unacc'
p200
aa(lp201
S'high'
p202
aS'low'
p203
ag185
ag58
aS'med'
p204
aS'low'
p205
aS'unacc'
p206
aa(lp207
S'high'
p208
aS'low'
p209
ag185
ag58
aS'med'
p210
aS'med'
p211
aS'unacc'
p212
aa(lp213
S'high'
p214
aS'low'
p215
ag185
ag58
aS'med'
p216
aS'high'
p217
aS'unacc'
p218
aa(lp219
S'high'
p220
aS'low'
p221
ag185
ag58
aS'big'
p222
aS'low'
p223
aS'unacc'
p224
aa(lp225
S'high'
p226
aS'low'
p227
ag185
ag58
aS'big'
p228
aS'med'
p229
aS'unacc'
p230
aa(lp231
S'high'
p232
aS'low'
p233
ag185
ag58
aS'big'
p234
aS'high'
p235
aS'unacc'
p236
aa(lp237
S'high'
p238
aS'low'
p239
ag185
ag5
aS'small'
p240
aS'low'
p241
aS'unacc'
p242
aa(lp243
S'high'
p244
aS'low'
p245
ag185
ag5
aS'small'
p246
aS'med'
p247
aS'unacc'
p248
aa(lp249
S'high'
p250
aS'low'
p251
ag185
ag5
aS'med'
p252
aS'low'
p253
aS'unacc'
p254
aa(lp255
S'high'
p256
aS'low'
p257
ag185
ag5
aS'med'
p258
aS'med'
p259
aS'unacc'
p260
aa(lp261
S'high'
p262
aS'low'
p263
ag185
ag5
aS'big'
p264
aS'low'
p265
aS'unacc'
p266
aa(lp267
S'high'
p268
aS'low'
p269
ag185
aS'more'
p270
aS'small'
p271
aS'low'
p272
aS'unacc'
p273
aa(lp274
S'high'
p275
aS'low'
p276
ag185
aS'more'
p277
aS'small'
p278
aS'med'
p279
aS'unacc'
p280
aa(lp281
S'high'
p282
aS'low'
p283
ag185
aS'more'
p284
aS'med'
p285
aS'low'
p286
aS'unacc'
p287
aa(lp288
S'high'
p289
aS'low'
p290
ag185
aS'more'
p291
aS'big'
p292
aS'low'
p293
aS'unacc'
p294
aa(lp295
S'high'
p296
aS'low'
p297
ag5
ag58
aS'small'
p298
aS'low'
p299
aS'unacc'
p300
aa(lp301
S'high'
p302
aS'low'
p303
ag5
ag58
aS'small'
p304
aS'med'
p305
aS'unacc'
p306
aa(lp307
S'high'
p308
aS'low'
p309
ag5
ag58
aS'small'
p310
aS'high'
p311
aS'unacc'
p312
aa(lp313
S'high'
p314
aS'low'
p315
ag5
ag58
aS'med'
p316
aS'low'
p317
aS'unacc'
p318
aa(lp319
S'high'
p320
aS'low'
p321
ag5
ag58
aS'med'
p322
aS'med'
p323
aS'unacc'
p324
aa(lp325
S'high'
p326
aS'low'
p327
ag5
ag58
aS'med'
p328
aS'high'
p329
aS'unacc'
p330
aa(lp331
S'high'
p332
aS'low'
p333
ag5
ag58
aS'big'
p334
aS'low'
p335
aS'unacc'
p336
aa(lp337
S'high'
p338
aS'low'
p339
ag5
ag58
aS'big'
p340
aS'med'
p341
aS'unacc'
p342
aa(lp343
S'high'
p344
aS'low'
p345
ag5
ag58
aS'big'
p346
aS'high'
p347
aS'unacc'
p348
aa(lp349
S'high'
p350
aS'low'
p351
ag5
ag5
aS'small'
p352
aS'low'
p353
aS'unacc'
p354
aa(lp355
S'high'
p356
aS'low'
p357
ag5
ag5
aS'small'
p358
aS'med'
p359
aS'unacc'
p360
aa(lp361
S'high'
p362
aS'low'
p363
ag5
ag5
aS'med'
p364
aS'low'
p365
aS'unacc'
p366
aa(lp367
S'high'
p368
aS'low'
p369
ag5
ag5
aS'big'
p370
aS'low'
p371
aS'unacc'
p372
aa(lp373
S'high'
p374
aS'low'
p375
ag5
aS'more'
p376
aS'small'
p377
aS'low'
p378
aS'unacc'
p379
aa(lp380
S'high'
p381
aS'low'
p382
ag5
aS'more'
p383
aS'small'
p384
aS'med'
p385
aS'unacc'
p386
aa(lp387
S'high'
p388
aS'low'
p389
ag5
aS'more'
p390
aS'med'
p391
aS'low'
p392
aS'unacc'
p393
aa(lp394
S'high'
p395
aS'low'
p396
ag5
aS'more'
p397
aS'big'
p398
aS'low'
p399
aS'unacc'
p400
aa(lp401
S'high'
p402
aS'low'
p403
aS'5more'
p404
ag58
aS'small'
p405
aS'low'
p406
aS'unacc'
p407
aa(lp408
S'high'
p409
aS'low'
p410
aS'5more'
p411
ag58
aS'small'
p412
aS'med'
p413
aS'unacc'
p414
aa(lp415
S'high'
p416
aS'low'
p417
aS'5more'
p418
ag58
aS'small'
p419
aS'high'
p420
aS'unacc'
p421
aa(lp422
S'high'
p423
aS'low'
p424
aS'5more'
p425
ag58
aS'med'
p426
aS'low'
p427
aS'unacc'
p428
aa(lp429
S'high'
p430
aS'low'
p431
aS'5more'
p432
ag58
aS'med'
p433
aS'med'
p434
aS'unacc'
p435
aa(lp436
S'high'
p437
aS'low'
p438
aS'5more'
p439
ag58
aS'med'
p440
aS'high'
p441
aS'unacc'
p442
aa(lp443
S'high'
p444
aS'low'
p445
aS'5more'
p446
ag58
aS'big'
p447
aS'low'
p448
aS'unacc'
p449
aa(lp450
S'high'
p451
aS'low'
p452
aS'5more'
p453
ag58
aS'big'
p454
aS'med'
p455
aS'unacc'
p456
aa(lp457
S'high'
p458
aS'low'
p459
aS'5more'
p460
ag58
aS'big'
p461
aS'high'
p462
aS'unacc'
p463
aa(lp464
S'high'
p465
aS'low'
p466
aS'5more'
p467
ag5
aS'small'
p468
aS'low'
p469
aS'unacc'
p470
aa(lp471
S'high'
p472
aS'low'
p473
aS'5more'
p474
ag5
aS'small'
p475
aS'med'
p476
aS'unacc'
p477
aa(lp478
S'high'
p479
aS'low'
p480
aS'5more'
p481
ag5
aS'med'
p482
aS'low'
p483
aS'unacc'
p484
aa(lp485
S'high'
p486
aS'low'
p487
aS'5more'
p488
ag5
aS'big'
p489
aS'low'
p490
aS'unacc'
p491
aa(lp492
S'high'
p493
aS'low'
p494
aS'5more'
p495
aS'more'
p496
aS'small'
p497
aS'low'
p498
aS'unacc'
p499
aa(lp500
S'high'
p501
aS'low'
p502
aS'5more'
p503
aS'more'
p504
aS'small'
p505
aS'med'
p506
aS'unacc'
p507
aa(lp508
S'high'
p509
aS'low'
p510
aS'5more'
p511
aS'more'
p512
aS'med'
p513
aS'low'
p514
aS'unacc'
p515
aa(lp516
S'high'
p517
aS'low'
p518
aS'5more'
p519
aS'more'
p520
aS'big'
p521
aS'low'
p522
aS'unacc'
p523
aa(lp524
S'med'
p525
aS'vhigh'
p526
ag58
ag58
aS'small'
p527
aS'low'
p528
aS'unacc'
p529
aa(lp530
S'med'
p531
aS'vhigh'
p532
ag58
ag58
aS'small'
p533
aS'med'
p534
aS'unacc'
p535
aa(lp536
S'med'
p537
aS'vhigh'
p538
ag58
ag58
aS'small'
p539
aS'high'
p540
aS'unacc'
p541
aa(lp542
S'med'
p543
aS'vhigh'
p544
ag58
ag58
aS'med'
p545
aS'low'
p546
aS'unacc'
p547
aa(lp548
S'med'
p549
aS'vhigh'
p550
ag58
ag58
aS'med'
p551
aS'med'
p552
aS'unacc'
p553
aa(lp554
S'med'
p555
aS'vhigh'
p556
ag58
ag58
aS'med'
p557
aS'high'
p558
aS'unacc'
p559
aa(lp560
S'med'
p561
aS'vhigh'
p562
ag58
ag58
aS'big'
p563
aS'low'
p564
aS'unacc'
p565
aa(lp566
S'med'
p567
aS'vhigh'
p568
ag58
ag58
aS'big'
p569
aS'med'
p570
aS'unacc'
p571
aa(lp572
S'med'
p573
aS'vhigh'
p574
ag58
ag58
aS'big'
p575
aS'high'
p576
aS'unacc'
p577
aa(lp578
S'med'
p579
aS'vhigh'
p580
ag58
ag5
aS'small'
p581
aS'low'
p582
aS'unacc'
p583
aa(lp584
S'med'
p585
aS'vhigh'
p586
ag58
ag5
aS'small'
p587
aS'med'
p588
aS'unacc'
p589
aa(lp590
S'med'
p591
aS'vhigh'
p592
ag58
ag5
aS'med'
p593
aS'low'
p594
aS'unacc'
p595
aa(lp596
S'med'
p597
aS'vhigh'
p598
ag58
ag5
aS'med'
p599
aS'med'
p600
aS'unacc'
p601
aa(lp602
S'med'
p603
aS'vhigh'
p604
ag58
ag5
aS'big'
p605
aS'low'
p606
aS'unacc'
p607
aa(lp608
S'med'
p609
aS'vhigh'
p610
ag58
aS'more'
p611
aS'small'
p612
aS'low'
p613
aS'unacc'
p614
aa(lp615
S'med'
p616
aS'vhigh'
p617
ag58
aS'more'
p618
aS'small'
p619
aS'med'
p620
aS'unacc'
p621
aa(lp622
S'med'
p623
aS'vhigh'
p624
ag58
aS'more'
p625
aS'small'
p626
aS'high'
p627
aS'unacc'
p628
aa(lp629
S'med'
p630
aS'vhigh'
p631
ag58
aS'more'
p632
aS'med'
p633
aS'low'
p634
aS'unacc'
p635
aa(lp636
S'med'
p637
aS'vhigh'
p638
ag58
aS'more'
p639
aS'med'
p640
aS'med'
p641
aS'unacc'
p642
aa(lp643
S'med'
p644
aS'vhigh'
p645
ag58
aS'more'
p646
aS'big'
p647
aS'low'
p648
aS'unacc'
p649
aa(lp650
S'med'
p651
aS'vhigh'
p652
ag185
ag58
aS'small'
p653
aS'low'
p654
aS'unacc'
p655
aa(lp656
S'med'
p657
aS'vhigh'
p658
ag185
ag58
aS'small'
p659
aS'med'
p660
aS'unacc'
p661
aa(lp662
S'med'
p663
aS'vhigh'
p664
ag185
ag58
aS'small'
p665
aS'high'
p666
aS'unacc'
p667
aa(lp668
S'med'
p669
aS'vhigh'
p670
ag185
ag58
aS'med'
p671
aS'low'
p672
aS'unacc'
p673
aa(lp674
S'med'
p675
aS'vhigh'
p676
ag185
ag58
aS'med'
p677
aS'med'
p678
aS'unacc'
p679
aa(lp680
S'med'
p681
aS'vhigh'
p682
ag185
ag58
aS'med'
p683
aS'high'
p684
aS'unacc'
p685
aa(lp686
S'med'
p687
aS'vhigh'
p688
ag185
ag58
aS'big'
p689
aS'low'
p690
aS'unacc'
p691
aa(lp692
S'med'
p693
aS'vhigh'
p694
ag185
ag58
aS'big'
p695
aS'med'
p696
aS'unacc'
p697
aa(lp698
S'med'
p699
aS'vhigh'
p700
ag185
ag58
aS'big'
p701
aS'high'
p702
aS'unacc'
p703
aa(lp704
S'med'
p705
aS'vhigh'
p706
ag185
ag5
aS'small'
p707
aS'low'
p708
aS'unacc'
p709
aa(lp710
S'med'
p711
aS'vhigh'
p712
ag185
ag5
aS'small'
p713
aS'med'
p714
aS'unacc'
p715
aa(lp716
S'med'
p717
aS'vhigh'
p718
ag185
ag5
aS'med'
p719
aS'low'
p720
aS'unacc'
p721
aa(lp722
S'med'
p723
aS'vhigh'
p724
ag185
ag5
aS'med'
p725
aS'med'
p726
aS'unacc'
p727
aa(lp728
S'med'
p729
aS'vhigh'
p730
ag185
ag5
aS'big'
p731
aS'low'
p732
aS'unacc'
p733
aa(lp734
S'med'
p735
aS'vhigh'
p736
ag185
aS'more'
p737
aS'small'
p738
aS'low'
p739
aS'unacc'
p740
aa(lp741
S'med'
p742
aS'vhigh'
p743
ag185
aS'more'
p744
aS'small'
p745
aS'med'
p746
aS'unacc'
p747
aa(lp748
S'med'
p749
aS'vhigh'
p750
ag185
aS'more'
p751
aS'med'
p752
aS'low'
p753
aS'unacc'
p754
aa(lp755
S'med'
p756
aS'vhigh'
p757
ag185
aS'more'
p758
aS'big'
p759
aS'low'
p760
aS'unacc'
p761
aa(lp762
S'med'
p763
aS'vhigh'
p764
ag185
aS'more'
p765
aS'big'
p766
aS'med'
p767
aS'acc'
p768
aa(lp769
S'med'
p770
aS'vhigh'
p771
ag185
aS'more'
p772
aS'big'
p773
aS'high'
p774
aS'acc'
p775
aa(lp776
S'med'
p777
aS'vhigh'
p778
ag5
ag58
aS'small'
p779
aS'low'
p780
aS'unacc'
p781
aa(lp782
S'med'
p783
aS'vhigh'
p784
ag5
ag58
aS'small'
p785
aS'med'
p786
aS'unacc'
p787
aa(lp788
S'med'
p789
aS'vhigh'
p790
ag5
ag58
aS'small'
p791
aS'high'
p792
aS'unacc'
p793
aa(lp794
S'med'
p795
aS'vhigh'
p796
ag5
ag58
aS'med'
p797
aS'low'
p798
aS'unacc'
p799
aa(lp800
S'med'
p801
aS'vhigh'
p802
ag5
ag5
aS'small'
p803
aS'high'
p804
aS'acc'
p805
aa(lp806
S'med'
p807
aS'vhigh'
p808
ag5
ag5
aS'med'
p809
aS'med'
p810
aS'acc'
p811
aa(lp812
S'med'
p813
aS'vhigh'
p814
ag5
ag5
aS'med'
p815
aS'high'
p816
aS'acc'
p817
aa(lp818
S'med'
p819
aS'vhigh'
p820
ag5
ag5
aS'big'
p821
aS'med'
p822
aS'acc'
p823
aa(lp824
S'med'
p825
aS'vhigh'
p826
ag5
ag5
aS'big'
p827
aS'high'
p828
aS'acc'
p829
aa(lp830
S'med'
p831
aS'vhigh'
p832
ag5
aS'more'
p833
aS'small'
p834
aS'high'
p835
aS'acc'
p836
aa(lp837
S'med'
p838
aS'vhigh'
p839
ag5
aS'more'
p840
aS'med'
p841
aS'med'
p842
aS'acc'
p843
aa(lp844
S'med'
p845
aS'vhigh'
p846
ag5
aS'more'
p847
aS'med'
p848
aS'high'
p849
aS'acc'
p850
aa(lp851
S'med'
p852
aS'vhigh'
p853
ag5
aS'more'
p854
aS'big'
p855
aS'med'
p856
aS'acc'
p857
aa(lp858
S'med'
p859
aS'vhigh'
p860
ag5
aS'more'
p861
aS'big'
p862
aS'high'
p863
aS'acc'
p864
aa(lp865
S'med'
p866
aS'vhigh'
p867
aS'5more'
p868
ag5
aS'small'
p869
aS'high'
p870
aS'acc'
p871
aa(lp872
S'med'
p873
aS'vhigh'
p874
aS'5more'
p875
ag5
aS'med'
p876
aS'med'
p877
aS'acc'
p878
aa(lp879
S'med'
p880
aS'vhigh'
p881
aS'5more'
p882
ag5
aS'med'
p883
aS'high'
p884
aS'acc'
p885
aa(lp886
S'med'
p887
aS'vhigh'
p888
aS'5more'
p889
ag5
aS'big'
p890
aS'med'
p891
aS'acc'
p892
aa(lp893
S'med'
p894
aS'vhigh'
p895
aS'5more'
p896
ag5
aS'big'
p897
aS'high'
p898
aS'acc'
p899
aa(lp900
S'med'
p901
aS'vhigh'
p902
aS'5more'
p903
aS'more'
p904
aS'small'
p905
aS'high'
p906
aS'acc'
p907
aa(lp908
S'med'
p909
aS'vhigh'
p910
aS'5more'
p911
aS'more'
p912
aS'med'
p913
aS'med'
p914
aS'acc'
p915
aa(lp916
S'med'
p917
aS'vhigh'
p918
aS'5more'
p919
aS'more'
p920
aS'med'
p921
aS'high'
p922
aS'acc'
p923
aa(lp924
S'med'
p925
aS'vhigh'
p926
aS'5more'
p927
aS'more'
p928
aS'big'
p929
aS'med'
p930
aS'acc'
p931
aa(lp932
S'med'
p933
aS'vhigh'
p934
aS'5more'
p935
aS'more'
p936
aS'big'
p937
aS'high'
p938
aS'acc'
p939
aa(lp940
S'med'
p941
aS'high'
p942
ag58
ag5
aS'small'
p943
aS'high'
p944
aS'acc'
p945
aa(lp946
S'med'
p947
aS'high'
p948
ag58
ag5
aS'med'
p949
aS'high'
p950
aS'acc'
p951
aa(lp952
S'med'
p953
aS'high'
p954
ag58
ag5
aS'big'
p955
aS'med'
p956
aS'acc'
p957
aa(lp958
S'med'
p959
aS'high'
p960
ag58
ag5
aS'big'
p961
aS'high'
p962
aS'acc'
p963
aa(lp964
S'med'
p965
aS'high'
p966
ag58
aS'more'
p967
aS'med'
p968
aS'high'
p969
aS'acc'
p970
aa(lp971
S'med'
p972
aS'high'
p973
ag58
aS'more'
p974
aS'big'
p975
aS'med'
p976
aS'acc'
p977
aa(lp978
S'med'
p979
aS'high'
p980
ag58
aS'more'
p981
aS'big'
p982
aS'high'
p983
aS'acc'
p984
aa(lp985
S'med'
p986
aS'high'
p987
ag185
ag5
aS'small'
p988
aS'high'
p989
aS'acc'
p990
aa(lp991
S'med'
p992
aS'high'
p993
ag185
ag5
aS'med'
p994
aS'high'
p995
aS'acc'
p996
aa(lp997
S'med'
p998
aS'high'
p999
ag185
ag5
aS'big'
p1000
aS'med'
p1001
aS'acc'
p1002
aa(lp1003
S'med'
p1004
aS'high'
p1005
ag185
ag5
aS'big'
p1006
aS'high'
p1007
aS'acc'
p1008
aa(lp1009
S'med'
p1010
aS'high'
p1011
ag185
aS'more'
p1012
aS'small'
p1013
aS'high'
p1014
aS'acc'
p1015
aa(lp1016
S'med'
p1017
aS'high'
p1018
ag185
aS'more'
p1019
aS'med'
p1020
aS'med'
p1021
aS'acc'
p1022
aa(lp1023
S'med'
p1024
aS'high'
p1025
ag185
aS'more'
p1026
aS'med'
p1027
aS'high'
p1028
aS'acc'
p1029
aa(lp1030
S'med'
p1031
aS'high'
p1032
ag185
aS'more'
p1033
aS'big'
p1034
aS'med'
p1035
aS'acc'
p1036
aa(lp1037
S'med'
p1038
aS'high'
p1039
ag185
aS'more'
p1040
aS'big'
p1041
aS'high'
p1042
aS'acc'
p1043
aa(lp1044
S'low'
p1045
aS'high'
p1046
aS'5more'
p1047
ag5
aS'med'
p1048
aS'high'
p1049
aS'vgood'
p1050
aa(lp1051
S'low'
p1052
aS'high'
p1053
aS'5more'
p1054
ag5
aS'big'
p1055
aS'high'
p1056
aS'vgood'
p1057
aa(lp1058
S'low'
p1059
aS'high'
p1060
aS'5more'
p1061
aS'more'
p1062
aS'med'
p1063
aS'high'
p1064
aS'vgood'
p1065
aa(lp1066
S'low'
p1067
aS'high'
p1068
aS'5more'
p1069
aS'more'
p1070
aS'big'
p1071
aS'high'
p1072
aS'vgood'
p1073
aa(lp1074
S'low'
p1075
aS'med'
p1076
ag58
ag5
aS'big'
p1077
aS'high'
p1078
aS'vgood'
p1079
aa(lp1080
S'low'
p1081
aS'med'
p1082
ag58
aS'more'
p1083
aS'big'
p1084
aS'high'
p1085
aS'vgood'
p1086
aa(lp1087
S'low'
p1088
aS'med'
p1089
ag5
ag5
aS'med'
p1090
aS'med'
p1091
aS'good'
p1092
aa(lp1093
S'low'
p1094
aS'med'
p1095
ag5
ag5
aS'big'
p1096
aS'med'
p1097
aS'good'
p1098
aa(lp1099
S'low'
p1100
aS'med'
p1101
ag5
aS'more'
p1102
aS'small'
p1103
aS'high'
p1104
aS'good'
p1105
aa(lp1106
S'low'
p1107
aS'med'
p1108
ag5
aS'more'
p1109
aS'med'
p1110
aS'med'
p1111
aS'good'
p1112
aa(lp1113
S'low'
p1114
aS'med'
p1115
ag5
aS'more'
p1116
aS'big'
p1117
aS'med'
p1118
aS'good'
p1119
aa(lp1120
S'low'
p1121
aS'med'
p1122
aS'5more'
p1123
ag5
aS'small'
p1124
aS'high'
p1125
aS'good'
p1126
aa(lp1127
S'low'
p1128
aS'med'
p1129
aS'5more'
p1130
ag5
aS'med'
p1131
aS'med'
p1132
aS'good'
p1133
aa.