(lp0
(lp1
S'high'
p2
aS'vhigh'
p3
aS'2'
p4
ag4
aS'med'
p5
aS'low'
p6
aS'unacc'
p7
aa(lp8
S'high'
p9
aS'vhigh'
p10
ag4
ag4
aS'med'
p11
aS'med'
p12
aS'unacc'
p13
aa(lp14
S'high'
p15
aS'vhigh'
p16
ag4
ag4
aS'med'
p17
aS'high'
p18
aS'unacc'
p19
aa(lp20
S'high'
p21
aS'vhigh'
p22
ag4
ag4
aS'big'
p23
aS'low'
p24
aS'unacc'
p25
aa(lp26
S'high'
p27
aS'vhigh'
p28
ag4
ag4
aS'big'
p29
aS'med'
p30
aS'unacc'
p31
aa(lp32
S'high'
p33
aS'vhigh'
p34
ag4
ag4
aS'big'
p35
aS'high'
p36
aS'unacc'
p37
aa(lp38
S'high'
p39
aS'vhigh'
p40
ag4
aS'4'
p41
aS'small'
p42
aS'low'
p43
aS'unacc'
p44
aa(lp45
S'high'
p46
aS'vhigh'
p47
ag4
ag41
aS'small'
p48
aS'med'
p49
aS'unacc'
p50
aa(lp51
S'high'
p52
aS'vhigh'
p53
ag4
ag41
aS'small'
p54
aS'high'
p55
aS'unacc'
p56
aa(lp57
S'high'
p58
aS'vhigh'
p59
ag4
ag41
aS'med'
p60
aS'low'
p61
aS'unacc'
p62
aa(lp63
S'high'
p64
aS'vhigh'
p65
ag4
ag41
aS'med'
p66
aS'med'
p67
aS'unacc'
p68
aa(lp69
S'high'
p70
aS'vhigh'
p71
ag4
ag41
aS'med'
p72
aS'high'
p73
aS'unacc'
p74
aa(lp75
S'high'
p76
aS'vhigh'
p77
ag4
ag41
aS'big'
p78
aS'low'
p79
aS'unacc'
p80
aa(lp81
S'high'
p82
aS'vhigh'
p83
ag4
ag41
aS'big'
p84
aS'med'
p85
aS'unacc'
p86
aa(lp87
S'high'
p88
aS'vhigh'
p89
ag4
ag41
aS'big'
p90
aS'high'
p91
aS'unacc'
p92
aa(lp93
S'high'
p94
aS'vhigh'
p95
ag4
aS'more'
p96
aS'small'
p97
aS'low'
p98
aS'unacc'
p99
aa(lp100
S'high'
p101
aS'vhigh'
p102
ag4
aS'more'
p103
aS'small'
p104
aS'med'
p105
aS'unacc'
p106
aa(lp107
S'high'
p108
aS'vhigh'
p109
ag4
aS'more'
p110
aS'small'
p111
aS'high'
p112
aS'unacc'
p113
aa(lp114
S'high'
p115
aS'vhigh'
p116
ag4
aS'more'
p117
aS'med'
p118
aS'low'
p119
aS'unacc'
p120
aa(lp121
S'high'
p122
aS'vhigh'
p123
ag4
aS'more'
p124
aS'med'
p125
aS'med'
p126
aS'unacc'
p127
aa(lp128
S'high'
p129
aS'vhigh'
p130
ag4
aS'more'
p131
aS'med'
p132
aS'high'
p133
aS'unacc'
p134
aa(lp135
S'high'
p136
aS'vhigh'
p137
ag4
aS'more'
p138
aS'big'
p139
aS'low'
p140
aS'unacc'
p141
aa(lp142
S'high'
p143
aS'vhigh'
p144
ag4
aS'more'
p145
aS'big'
p146
aS'med'
p147
aS'unacc'
p148
aa(lp149
S'high'
p150
aS'vhigh'
p151
ag4
aS'more'
p152
aS'big'
p153
aS'high'
p154
aS'unacc'
p155
aa(lp156
S'high'
p157
aS'vhigh'
p158
aS'3'
p159
ag4
aS'small'
p160
aS'low'
p161
aS'unacc'
p162
aa(lp163
S'high'
p164
aS'vhigh'
p165
ag159
ag4
aS'small'
p166
aS'med'
p167
aS'unacc'
p168
aa(lp169
S'high'
p170
aS'vhigh'
p171
ag159
ag4
aS'small'
p172
aS'high'
p173
aS'unacc'
p174
aa(lp175
S'high'
p176
aS'vhigh'
p177
ag159
ag4
aS'med'
p178
aS'low'
p179
aS'unacc'
p180
aa(lp181
S'high'
p182
aS'vhigh'
p183
ag159
ag4
aS'med'
p184
aS'med'
p185
aS'unacc'
p186
aa(lp187
S'high'
p188
aS'vhigh'
p189
ag159
ag4
aS'med'
p190
aS'high'
p191
aS'unacc'
p192
aa(lp193
S'high'
p194
aS'vhigh'
p195
ag159
ag4
aS'big'
p196
aS'low'
p197
aS'unacc'
p198
aa(lp199
S'high'
p200
aS'vhigh'
p201
ag159
ag4
aS'big'
p202
aS'med'
p203
aS'unacc'
p204
aa(lp205
S'high'
p206
aS'vhigh'
p207
ag159
ag4
aS'big'
p208
aS'high'
p209
aS'unacc'
p210
aa(lp211
S'high'
p212
aS'vhigh'
p213
ag159
ag41
aS'small'
p214
aS'low'
p215
aS'unacc'
p216
aa(lp217
S'high'
p218
aS'vhigh'
p219
ag159
ag41
aS'small'
p220
aS'med'
p221
aS'unacc'
p222
aa(lp223
S'high'
p224
aS'vhigh'
p225
ag159
ag41
aS'small'
p226
aS'high'
p227
aS'unacc'
p228
aa(lp229
S'high'
p230
aS'vhigh'
p231
ag159
ag41
aS'med'
p232
aS'low'
p233
aS'unacc'
p234
aa(lp235
S'high'
p236
aS'vhigh'
p237
ag159
ag41
aS'med'
p238
aS'med'
p239
aS'unacc'
p240
aa(lp241
S'high'
p242
aS'vhigh'
p243
ag159
ag41
aS'med'
p244
aS'high'
p245
aS'unacc'
p246
aa(lp247
S'high'
p248
aS'vhigh'
p249
ag159
ag41
aS'big'
p250
aS'low'
p251
aS'unacc'
p252
aa(lp253
S'high'
p254
aS'vhigh'
p255
ag159
ag41
aS'big'
p256
aS'med'
p257
aS'unacc'
p258
aa(lp259
S'high'
p260
aS'vhigh'
p261
ag159
ag41
aS'big'
p262
aS'high'
p263
aS'unacc'
p264
aa(lp265
S'high'
p266
aS'vhigh'
p267
ag159
aS'more'
p268
aS'small'
p269
aS'low'
p270
aS'unacc'
p271
aa(lp272
S'high'
p273
aS'vhigh'
p274
ag159
aS'more'
p275
aS'small'
p276
aS'med'
p277
aS'unacc'
p278
aa(lp279
S'high'
p280
aS'vhigh'
p281
ag159
aS'more'
p282
aS'small'
p283
aS'high'
p284
aS'unacc'
p285
aa(lp286
S'high'
p287
aS'vhigh'
p288
ag159
aS'more'
p289
aS'med'
p290
aS'low'
p291
aS'unacc'
p292
aa(lp293
S'high'
p294
aS'vhigh'
p295
ag159
aS'more'
p296
aS'med'
p297
aS'med'
p298
aS'unacc'
p299
aa(lp300
S'high'
p301
aS'vhigh'
p302
ag159
aS'more'
p303
aS'med'
p304
aS'high'
p305
aS'unacc'
p306
aa(lp307
S'high'
p308
aS'vhigh'
p309
ag159
aS'more'
p310
aS'big'
p311
aS'low'
p312
aS'unacc'
p313
aa(lp314
S'high'
p315
aS'vhigh'
p316
ag159
aS'more'
p317
aS'big'
p318
aS'med'
p319
aS'unacc'
p320
aa(lp321
S'high'
p322
aS'vhigh'
p323
ag159
aS'more'
p324
aS'big'
p325
aS'high'
p326
aS'unacc'
p327
aa(lp328
S'high'
p329
aS'vhigh'
p330
ag41
ag4
aS'small'
p331
aS'low'
p332
aS'unacc'
p333
aa(lp334
S'high'
p335
aS'vhigh'
p336
ag41
ag4
aS'small'
p337
aS'med'
p338
aS'unacc'
p339
aa(lp340
S'high'
p341
aS'vhigh'
p342
ag41
ag4
aS'small'
p343
aS'high'
p344
aS'unacc'
p345
aa(lp346
S'high'
p347
aS'vhigh'
p348
ag41
ag4
aS'med'
p349
aS'low'
p350
aS'unacc'
p351
aa(lp352
S'high'
p353
aS'vhigh'
p354
ag41
ag4
aS'med'
p355
aS'med'
p356
aS'unacc'
p357
aa(lp358
S'high'
p359
aS'vhigh'
p360
ag41
ag4
aS'med'
p361
aS'high'
p362
aS'unacc'
p363
aa(lp364
S'high'
p365
aS'vhigh'
p366
ag41
ag4
aS'big'
p367
aS'low'
p368
aS'unacc'
p369
aa(lp370
S'high'
p371
aS'vhigh'
p372
ag41
ag4
aS'big'
p373
aS'med'
p374
aS'unacc'
p375
aa(lp376
S'high'
p377
aS'vhigh'
p378
ag41
ag4
aS'big'
p379
aS'high'
p380
aS'unacc'
p381
aa(lp382
S'high'
p383
aS'vhigh'
p384
ag41
ag41
aS'small'
p385
aS'low'
p386
aS'unacc'
p387
aa(lp388
S'high'
p389
aS'vhigh'
p390
ag41
ag41
aS'small'
p391
aS'med'
p392
aS'unacc'
p393
aa(lp394
S'high'
p395
aS'vhigh'
p396
ag41
ag41
aS'small'
p397
aS'high'
p398
aS'unacc'
p399
aa(lp400
S'high'
p401
aS'vhigh'
p402
ag41
ag41
aS'med'
p403
aS'low'
p404
aS'unacc'
p405
aa(lp406
S'high'
p407
aS'vhigh'
p408
ag41
ag41
aS'med'
p409
aS'med'
p410
aS'unacc'
p411
aa(lp412
S'high'
p413
aS'vhigh'
p414
ag41
ag41
aS'med'
p415
aS'high'
p416
aS'unacc'
p417
aa(lp418
S'high'
p419
aS'vhigh'
p420
ag41
ag41
aS'big'
p421
aS'low'
p422
aS'unacc'
p423
aa(lp424
S'high'
p425
aS'vhigh'
p426
ag41
ag41
aS'big'
p427
aS'med'
p428
aS'unacc'
p429
aa(lp430
S'high'
p431
aS'vhigh'
p432
ag41
ag41
aS'big'
p433
aS'high'
p434
aS'unacc'
p435
aa(lp436
S'high'
p437
aS'vhigh'
p438
ag41
aS'more'
p439
aS'small'
p440
aS'low'
p441
aS'unacc'
p442
aa(lp443
S'high'
p444
aS'vhigh'
p445
ag41
aS'more'
p446
aS'small'
p447
aS'med'
p448
aS'unacc'
p449
aa(lp450
S'high'
p451
aS'vhigh'
p452
ag41
aS'more'
p453
aS'small'
p454
aS'high'
p455
aS'unacc'
p456
aa(lp457
S'high'
p458
aS'vhigh'
p459
ag41
aS'more'
p460
aS'med'
p461
aS'low'
p462
aS'unacc'
p463
aa(lp464
S'high'
p465
aS'vhigh'
p466
ag41
aS'more'
p467
aS'med'
p468
aS'med'
p469
aS'unacc'
p470
aa(lp471
S'high'
p472
aS'vhigh'
p473
ag41
aS'more'
p474
aS'med'
p475
aS'high'
p476
aS'unacc'
p477
aa(lp478
S'high'
p479
aS'vhigh'
p480
ag41
aS'more'
p481
aS'big'
p482
aS'low'
p483
aS'unacc'
p484
aa(lp485
S'high'
p486
aS'vhigh'
p487
ag41
aS'more'
p488
aS'big'
p489
aS'med'
p490
aS'unacc'
p491
aa(lp492
S'high'
p493
aS'vhigh'
p494
ag41
aS'more'
p495
aS'big'
p496
aS'high'
p497
aS'unacc'
p498
aa(lp499
S'high'
p500
aS'vhigh'
p501
aS'5more'
p502
ag4
aS'small'
p503
aS'low'
p504
aS'unacc'
p505
aa(lp506
S'high'
p507
aS'vhigh'
p508
aS'5more'
p509
ag4
aS'small'
p510
aS'med'
p511
aS'unacc'
p512
aa(lp513
S'high'
p514
aS'vhigh'
p515
aS'5more'
p516
ag4
aS'small'
p517
aS'high'
p518
aS'unacc'
p519
aa(lp520
S'high'
p521
aS'vhigh'
p522
aS'5more'
p523
ag4
aS'med'
p524
aS'low'
p525
aS'unacc'
p526
aa(lp527
S'high'
p528
aS'vhigh'
p529
aS'5more'
p530
ag4
aS'med'
p531
aS'med'
p532
aS'unacc'
p533
aa(lp534
S'high'
p535
aS'vhigh'
p536
aS'5more'
p537
ag4
aS'med'
p538
aS'high'
p539
aS'unacc'
p540
aa(lp541
S'high'
p542
aS'vhigh'
p543
aS'5more'
p544
ag4
aS'big'
p545
aS'low'
p546
aS'unacc'
p547
aa(lp548
S'high'
p549
aS'vhigh'
p550
aS'5more'
p551
ag4
aS'big'
p552
aS'med'
p553
aS'unacc'
p554
aa(lp555
S'high'
p556
aS'vhigh'
p557
aS'5more'
p558
ag4
aS'big'
p559
aS'high'
p560
aS'unacc'
p561
aa(lp562
S'high'
p563
aS'vhigh'
p564
aS'5more'
p565
ag41
aS'small'
p566
aS'low'
p567
aS'unacc'
p568
aa(lp569
S'high'
p570
aS'vhigh'
p571
aS'5more'
p572
ag41
aS'small'
p573
aS'med'
p574
aS'unacc'
p575
aa(lp576
S'high'
p577
aS'vhigh'
p578
aS'5more'
p579
ag41
aS'small'
p580
aS'high'
p581
aS'unacc'
p582
aa(lp583
S'high'
p584
aS'vhigh'
p585
aS'5more'
p586
ag41
aS'med'
p587
aS'low'
p588
aS'unacc'
p589
aa(lp590
S'high'
p591
aS'vhigh'
p592
aS'5more'
p593
ag41
aS'med'
p594
aS'med'
p595
aS'unacc'
p596
aa(lp597
S'high'
p598
aS'vhigh'
p599
aS'5more'
p600
ag41
aS'med'
p601
aS'high'
p602
aS'unacc'
p603
aa(lp604
S'high'
p605
aS'vhigh'
p606
aS'5more'
p607
ag41
aS'big'
p608
aS'low'
p609
aS'unacc'
p610
aa(lp611
S'high'
p612
aS'vhigh'
p613
aS'5more'
p614
ag41
aS'big'
p615
aS'med'
p616
aS'unacc'
p617
aa(lp618
S'high'
p619
aS'vhigh'
p620
aS'5more'
p621
ag41
aS'big'
p622
aS'high'
p623
aS'unacc'
p624
aa(lp625
S'high'
p626
aS'vhigh'
p627
aS'5more'
p628
aS'more'
p629
aS'small'
p630
aS'low'
p631
aS'unacc'
p632
aa(lp633
S'high'
p634
aS'vhigh'
p635
aS'5more'
p636
aS'more'
p637
aS'small'
p638
aS'med'
p639
aS'unacc'
p640
aa(lp641
S'high'
p642
aS'vhigh'
p643
aS'5more'
p644
aS'more'
p645
aS'small'
p646
aS'high'
p647
aS'unacc'
p648
aa(lp649
S'high'
p650
aS'vhigh'
p651
aS'5more'
p652
aS'more'
p653
aS'med'
p654
aS'low'
p655
aS'unacc'
p656
aa(lp657
S'high'
p658
aS'vhigh'
p659
aS'5more'
p660
aS'more'
p661
aS'med'
p662
aS'med'
p663
aS'unacc'
p664
aa(lp665
S'high'
p666
aS'vhigh'
p667
aS'5more'
p668
aS'more'
p669
aS'med'
p670
aS'high'
p671
aS'unacc'
p672
aa(lp673
S'high'
p674
aS'vhigh'
p675
aS'5more'
p676
aS'more'
p677
aS'big'
p678
aS'low'
p679
aS'unacc'
p680
aa(lp681
S'high'
p682
aS'vhigh'
p683
aS'5more'
p684
aS'more'
p685
aS'big'
p686
aS'med'
p687
aS'unacc'
p688
aa(lp689
S'high'
p690
aS'vhigh'
p691
aS'5more'
p692
aS'more'
p693
aS'big'
p694
aS'high'
p695
aS'unacc'
p696
aa(lp697
S'high'
p698
aS'high'
p699
ag4
ag4
aS'small'
p700
aS'low'
p701
aS'unacc'
p702
aa(lp703
S'high'
p704
aS'high'
p705
ag4
ag4
aS'small'
p706
aS'med'
p707
aS'unacc'
p708
aa(lp709
S'high'
p710
aS'high'
p711
ag4
ag4
aS'small'
p712
aS'high'
p713
aS'unacc'
p714
aa(lp715
S'high'
p716
aS'high'
p717
ag4
ag4
aS'med'
p718
aS'low'
p719
aS'unacc'
p720
aa(lp721
S'high'
p722
aS'high'
p723
ag4
ag4
aS'med'
p724
aS'med'
p725
aS'unacc'
p726
aa(lp727
S'high'
p728
aS'high'
p729
ag4
ag4
aS'med'
p730
aS'high'
p731
aS'unacc'
p732
aa(lp733
S'high'
p734
aS'high'
p735
ag4
ag4
aS'big'
p736
aS'low'
p737
aS'unacc'
p738
aa(lp739
S'high'
p740
aS'high'
p741
ag4
ag4
aS'big'
p742
aS'med'
p743
aS'unacc'
p744
aa(lp745
S'high'
p746
aS'high'
p747
ag4
ag4
aS'big'
p748
aS'high'
p749
aS'unacc'
p750
aa(lp751
S'high'
p752
aS'high'
p753
ag4
ag41
aS'small'
p754
aS'low'
p755
aS'unacc'
p756
aa(lp757
S'high'
p758
aS'high'
p759
ag4
ag41
aS'small'
p760
aS'med'
p761
aS'unacc'
p762
aa(lp763
S'high'
p764
aS'high'
p765
ag4
ag41
aS'med'
p766
aS'low'
p767
aS'unacc'
p768
aa(lp769
S'high'
p770
aS'high'
p771
ag4
ag41
aS'med'
p772
aS'med'
p773
aS'unacc'
p774
aa(lp775
S'high'
p776
aS'high'
p777
ag4
ag41
aS'big'
p778
aS'low'
p779
aS'unacc'
p780
aa(lp781
S'high'
p782
aS'high'
p783
ag4
aS'more'
p784
aS'small'
p785
aS'low'
p786
aS'unacc'
p787
aa(lp788
S'high'
p789
aS'high'
p790
ag4
aS'more'
p791
aS'small'
p792
aS'med'
p793
aS'unacc'
p794
aa(lp795
S'high'
p796
aS'med'
p797
ag159
ag41
aS'big'
p798
aS'med'
p799
aS'acc'
p800
aa(lp801
S'high'
p802
aS'med'
p803
ag159
ag41
aS'big'
p804
aS'high'
p805
aS'acc'
p806
aa(lp807
S'high'
p808
aS'med'
p809
ag159
aS'more'
p810
aS'small'
p811
aS'high'
p812
aS'acc'
p813
aa(lp814
S'high'
p815
aS'med'
p816
ag159
aS'more'
p817
aS'med'
p818
aS'med'
p819
aS'acc'
p820
aa(lp821
S'high'
p822
aS'med'
p823
ag159
aS'more'
p824
aS'med'
p825
aS'high'
p826
aS'acc'
p827
aa(lp828
S'high'
p829
aS'med'
p830
ag159
aS'more'
p831
aS'big'
p832
aS'med'
p833
aS'acc'
p834
aa(lp835
S'high'
p836
aS'med'
p837
ag159
aS'more'
p838
aS'big'
p839
aS'high'
p840
aS'acc'
p841
aa(lp842
S'high'
p843
aS'med'
p844
ag41
ag41
aS'small'
p845
aS'high'
p846
aS'acc'
p847
aa(lp848
S'high'
p849
aS'med'
p850
ag41
ag41
aS'med'
p851
aS'med'
p852
aS'acc'
p853
aa(lp854
S'high'
p855
aS'med'
p856
ag41
ag41
aS'med'
p857
aS'high'
p858
aS'acc'
p859
aa(lp860
S'high'
p861
aS'med'
p862
ag41
ag41
aS'big'
p863
aS'med'
p864
aS'acc'
p865
aa(lp866
S'high'
p867
aS'med'
p868
ag41
ag41
aS'big'
p869
aS'high'
p870
aS'acc'
p871
aa(lp872
S'high'
p873
aS'med'
p874
ag41
aS'more'
p875
aS'small'
p876
aS'high'
p877
aS'acc'
p878
aa(lp879
S'high'
p880
aS'med'
p881
ag41
aS'more'
p882
aS'med'
p883
aS'med'
p884
aS'acc'
p885
aa(lp886
S'high'
p887
aS'med'
p888
ag41
aS'more'
p889
aS'med'
p890
aS'high'
p891
aS'acc'
p892
aa(lp893
S'high'
p894
aS'med'
p895
ag41
aS'more'
p896
aS'big'
p897
aS'med'
p898
aS'acc'
p899
aa(lp900
S'high'
p901
aS'med'
p902
ag41
aS'more'
p903
aS'big'
p904
aS'high'
p905
aS'acc'
p906
aa(lp907
S'high'
p908
aS'med'
p909
aS'5more'
p910
ag41
aS'small'
p911
aS'high'
p912
aS'acc'
p913
aa(lp914
S'high'
p915
aS'med'
p916
aS'5more'
p917
ag41
aS'med'
p918
aS'med'
p919
aS'acc'
p920
aa(lp921
S'high'
p922
aS'med'
p923
aS'5more'
p924
ag41
aS'med'
p925
aS'high'
p926
aS'acc'
p927
aa(lp928
S'high'
p929
aS'med'
p930
aS'5more'
p931
ag41
aS'big'
p932
aS'med'
p933
aS'acc'
p934
aa(lp935
S'high'
p936
aS'med'
p937
aS'5more'
p938
ag41
aS'big'
p939
aS'high'
p940
aS'acc'
p941
aa(lp942
S'high'
p943
aS'med'
p944
aS'5more'
p945
aS'more'
p946
aS'small'
p947
aS'high'
p948
aS'acc'
p949
aa(lp950
S'high'
p951
aS'med'
p952
aS'5more'
p953
aS'more'
p954
aS'med'
p955
aS'med'
p956
aS'acc'
p957
aa(lp958
S'high'
p959
aS'med'
p960
aS'5more'
p961
aS'more'
p962
aS'med'
p963
aS'high'
p964
aS'acc'
p965
aa(lp966
S'high'
p967
aS'med'
p968
aS'5more'
p969
aS'more'
p970
aS'big'
p971
aS'med'
p972
aS'acc'
p973
aa(lp974
S'high'
p975
aS'med'
p976
aS'5more'
p977
aS'more'
p978
aS'big'
p979
aS'high'
p980
aS'acc'
p981
aa(lp982
S'high'
p983
aS'low'
p984
ag4
ag41
aS'small'
p985
aS'high'
p986
aS'acc'
p987
aa(lp988
S'high'
p989
aS'low'
p990
ag4
ag41
aS'med'
p991
aS'high'
p992
aS'acc'
p993
aa(lp994
S'high'
p995
aS'low'
p996
ag4
ag41
aS'big'
p997
aS'med'
p998
aS'acc'
p999
aa(lp1000
S'high'
p1001
aS'low'
p1002
ag4
ag41
aS'big'
p1003
aS'high'
p1004
aS'acc'
p1005
aa(lp1006
S'high'
p1007
aS'low'
p1008
ag4
aS'more'
p1009
aS'med'
p1010
aS'high'
p1011
aS'acc'
p1012
aa(lp1013
S'high'
p1014
aS'low'
p1015
ag4
aS'more'
p1016
aS'big'
p1017
aS'med'
p1018
aS'acc'
p1019
aa(lp1020
S'high'
p1021
aS'low'
p1022
ag4
aS'more'
p1023
aS'big'
p1024
aS'high'
p1025
aS'acc'
p1026
aa(lp1027
S'high'
p1028
aS'low'
p1029
ag159
ag41
aS'small'
p1030
aS'high'
p1031
aS'acc'
p1032
aa(lp1033
S'high'
p1034
aS'low'
p1035
ag159
ag41
aS'med'
p1036
aS'high'
p1037
aS'acc'
p1038
aa(lp1039
S'high'
p1040
aS'low'
p1041
ag159
ag41
aS'big'
p1042
aS'med'
p1043
aS'acc'
p1044
aa(lp1045
S'high'
p1046
aS'low'
p1047
ag159
ag41
aS'big'
p1048
aS'high'
p1049
aS'acc'
p1050
aa(lp1051
S'high'
p1052
aS'low'
p1053
ag159
aS'more'
p1054
aS'small'
p1055
aS'high'
p1056
aS'acc'
p1057
aa(lp1058
S'med'
p1059
aS'low'
p1060
ag41
aS'more'
p1061
aS'big'
p1062
aS'high'
p1063
aS'vgood'
p1064
aa(lp1065
S'med'
p1066
aS'low'
p1067
aS'5more'
p1068
ag41
aS'med'
p1069
aS'high'
p1070
aS'vgood'
p1071
aa(lp1072
S'med'
p1073
aS'low'
p1074
aS'5more'
p1075
ag41
aS'big'
p1076
aS'high'
p1077
aS'vgood'
p1078
aa(lp1079
S'med'
p1080
aS'low'
p1081
aS'5more'
p1082
aS'more'
p1083
aS'med'
p1084
aS'med'
p1085
aS'good'
p1086
aa(lp1087
S'med'
p1088
aS'low'
p1089
aS'5more'
p1090
aS'more'
p1091
aS'med'
p1092
aS'high'
p1093
aS'vgood'
p1094
aa(lp1095
S'med'
p1096
aS'low'
p1097
aS'5more'
p1098
aS'more'
p1099
aS'big'
p1100
aS'med'
p1101
aS'good'
p1102
aa(lp1103
S'med'
p1104
aS'low'
p1105
aS'5more'
p1106
aS'more'
p1107
aS'big'
p1108
aS'high'
p1109
aS'vgood'
p1110
aa(lp1111
S'low'
p1112
aS'high'
p1113
ag4
ag41
aS'big'
p1114
aS'high'
p1115
aS'vgood'
p1116
aa(lp1117
S'low'
p1118
aS'high'
p1119
ag4
aS'more'
p1120
aS'big'
p1121
aS'high'
p1122
aS'vgood'
p1123
aa(lp1124
S'low'
p1125
aS'med'
p1126
ag4
ag41
aS'small'
p1127
aS'high'
p1128
aS'good'
p1129
aa(lp1130
S'low'
p1131
aS'med'
p1132
ag4
ag41
aS'med'
p1133
aS'high'
p1134
aS'good'
p1135
aa(lp1136
S'low'
p1137
aS'med'
p1138
ag4
ag41
aS'big'
p1139
aS'med'
p1140
aS'good'
p1141
aa(lp1142
S'low'
p1143
aS'med'
p1144
ag4
aS'more'
p1145
aS'med'
p1146
aS'high'
p1147
aS'good'
p1148
aa(lp1149
S'low'
p1150
aS'med'
p1151
ag4
aS'more'
p1152
aS'big'
p1153
aS'med'
p1154
aS'good'
p1155
aa.