(lp0
(lp1
S'vhigh'
p2
aS'med'
p3
aS'3'
p4
aS'2'
p5
aS'big'
p6
aS'low'
p7
aS'unacc'
p8
aa(lp9
S'vhigh'
p10
aS'med'
p11
ag4
ag5
aS'big'
p12
aS'med'
p13
aS'unacc'
p14
aa(lp15
S'vhigh'
p16
aS'med'
p17
ag4
ag5
aS'big'
p18
aS'high'
p19
aS'unacc'
p20
aa(lp21
S'vhigh'
p22
aS'med'
p23
ag4
aS'4'
p24
aS'small'
p25
aS'low'
p26
aS'unacc'
p27
aa(lp28
S'vhigh'
p29
aS'med'
p30
ag4
ag24
aS'small'
p31
aS'med'
p32
aS'unacc'
p33
aa(lp34
S'vhigh'
p35
aS'med'
p36
ag4
ag24
aS'med'
p37
aS'low'
p38
aS'unacc'
p39
aa(lp40
S'vhigh'
p41
aS'med'
p42
ag4
ag24
aS'med'
p43
aS'med'
p44
aS'unacc'
p45
aa(lp46
S'vhigh'
p47
aS'med'
p48
ag4
ag24
aS'big'
p49
aS'low'
p50
aS'unacc'
p51
aa(lp52
S'vhigh'
p53
aS'med'
p54
ag4
aS'more'
p55
aS'small'
p56
aS'low'
p57
aS'unacc'
p58
aa(lp59
S'vhigh'
p60
aS'med'
p61
ag4
aS'more'
p62
aS'small'
p63
aS'med'
p64
aS'unacc'
p65
aa(lp66
S'vhigh'
p67
aS'med'
p68
ag4
aS'more'
p69
aS'med'
p70
aS'low'
p71
aS'unacc'
p72
aa(lp73
S'vhigh'
p74
aS'med'
p75
ag4
aS'more'
p76
aS'big'
p77
aS'low'
p78
aS'unacc'
p79
aa(lp80
S'vhigh'
p81
aS'med'
p82
ag24
ag5
aS'small'
p83
aS'low'
p84
aS'unacc'
p85
aa(lp86
S'vhigh'
p87
aS'med'
p88
ag24
ag5
aS'small'
p89
aS'med'
p90
aS'unacc'
p91
aa(lp92
S'vhigh'
p93
aS'med'
p94
ag24
ag5
aS'small'
p95
aS'high'
p96
aS'unacc'
p97
aa(lp98
S'vhigh'
p99
aS'med'
p100
ag24
ag5
aS'med'
p101
aS'low'
p102
aS'unacc'
p103
aa(lp104
S'vhigh'
p105
aS'med'
p106
ag24
ag5
aS'med'
p107
aS'med'
p108
aS'unacc'
p109
aa(lp110
S'vhigh'
p111
aS'med'
p112
ag24
ag5
aS'med'
p113
aS'high'
p114
aS'unacc'
p115
aa(lp116
S'vhigh'
p117
aS'med'
p118
ag24
ag5
aS'big'
p119
aS'low'
p120
aS'unacc'
p121
aa(lp122
S'vhigh'
p123
aS'med'
p124
ag24
ag5
aS'big'
p125
aS'med'
p126
aS'unacc'
p127
aa(lp128
S'vhigh'
p129
aS'med'
p130
ag24
ag5
aS'big'
p131
aS'high'
p132
aS'unacc'
p133
aa(lp134
S'vhigh'
p135
aS'med'
p136
ag24
ag24
aS'small'
p137
aS'low'
p138
aS'unacc'
p139
aa(lp140
S'vhigh'
p141
aS'med'
p142
ag24
ag24
aS'small'
p143
aS'med'
p144
aS'unacc'
p145
aa(lp146
S'vhigh'
p147
aS'med'
p148
ag24
ag24
aS'med'
p149
aS'low'
p150
aS'unacc'
p151
aa(lp152
S'vhigh'
p153
aS'med'
p154
ag24
ag24
aS'big'
p155
aS'low'
p156
aS'unacc'
p157
aa(lp158
S'vhigh'
p159
aS'med'
p160
ag24
aS'more'
p161
aS'small'
p162
aS'low'
p163
aS'unacc'
p164
aa(lp165
S'vhigh'
p166
aS'med'
p167
ag24
aS'more'
p168
aS'small'
p169
aS'med'
p170
aS'unacc'
p171
aa(lp172
S'vhigh'
p173
aS'med'
p174
ag24
aS'more'
p175
aS'med'
p176
aS'low'
p177
aS'unacc'
p178
aa(lp179
S'vhigh'
p180
aS'med'
p181
ag24
aS'more'
p182
aS'big'
p183
aS'low'
p184
aS'unacc'
p185
aa(lp186
S'vhigh'
p187
aS'med'
p188
aS'5more'
p189
ag5
aS'small'
p190
aS'low'
p191
aS'unacc'
p192
aa(lp193
S'vhigh'
p194
aS'med'
p195
aS'5more'
p196
ag5
aS'small'
p197
aS'med'
p198
aS'unacc'
p199
aa(lp200
S'vhigh'
p201
aS'med'
p202
aS'5more'
p203
ag5
aS'small'
p204
aS'high'
p205
aS'unacc'
p206
aa(lp207
S'vhigh'
p208
aS'med'
p209
aS'5more'
p210
ag5
aS'med'
p211
aS'low'
p212
aS'unacc'
p213
aa(lp214
S'vhigh'
p215
aS'med'
p216
aS'5more'
p217
ag5
aS'med'
p218
aS'med'
p219
aS'unacc'
p220
aa(lp221
S'vhigh'
p222
aS'med'
p223
aS'5more'
p224
ag5
aS'med'
p225
aS'high'
p226
aS'unacc'
p227
aa(lp228
S'vhigh'
p229
aS'med'
p230
aS'5more'
p231
ag5
aS'big'
p232
aS'low'
p233
aS'unacc'
p234
aa(lp235
S'vhigh'
p236
aS'med'
p237
aS'5more'
p238
ag5
aS'big'
p239
aS'med'
p240
aS'unacc'
p241
aa(lp242
S'vhigh'
p243
aS'med'
p244
aS'5more'
p245
ag5
aS'big'
p246
aS'high'
p247
aS'unacc'
p248
aa(lp249
S'vhigh'
p250
aS'med'
p251
aS'5more'
p252
ag24
aS'small'
p253
aS'low'
p254
aS'unacc'
p255
aa(lp256
S'vhigh'
p257
aS'med'
p258
aS'5more'
p259
ag24
aS'small'
p260
aS'med'
p261
aS'unacc'
p262
aa(lp263
S'vhigh'
p264
aS'med'
p265
aS'5more'
p266
ag24
aS'med'
p267
aS'low'
p268
aS'unacc'
p269
aa(lp270
S'vhigh'
p271
aS'med'
p272
aS'5more'
p273
ag24
aS'big'
p274
aS'low'
p275
aS'unacc'
p276
aa(lp277
S'vhigh'
p278
aS'med'
p279
aS'5more'
p280
aS'more'
p281
aS'small'
p282
aS'low'
p283
aS'unacc'
p284
aa(lp285
S'vhigh'
p286
aS'med'
p287
aS'5more'
p288
aS'more'
p289
aS'small'
p290
aS'med'
p291
aS'unacc'
p292
aa(lp293
S'vhigh'
p294
aS'med'
p295
aS'5more'
p296
aS'more'
p297
aS'med'
p298
aS'low'
p299
aS'unacc'
p300
aa(lp301
S'vhigh'
p302
aS'med'
p303
aS'5more'
p304
aS'more'
p305
aS'big'
p306
aS'low'
p307
aS'unacc'
p308
aa(lp309
S'vhigh'
p310
aS'low'
p311
ag5
ag5
aS'small'
p312
aS'low'
p313
aS'unacc'
p314
aa(lp315
S'vhigh'
p316
aS'low'
p317
ag5
ag5
aS'small'
p318
aS'med'
p319
aS'unacc'
p320
aa(lp321
S'vhigh'
p322
aS'low'
p323
ag5
ag5
aS'small'
p324
aS'high'
p325
aS'unacc'
p326
aa(lp327
S'vhigh'
p328
aS'low'
p329
ag5
ag5
aS'med'
p330
aS'low'
p331
aS'unacc'
p332
aa(lp333
S'vhigh'
p334
aS'low'
p335
ag5
ag5
aS'med'
p336
aS'med'
p337
aS'unacc'
p338
aa(lp339
S'vhigh'
p340
aS'low'
p341
ag5
ag5
aS'med'
p342
aS'high'
p343
aS'unacc'
p344
aa(lp345
S'vhigh'
p346
aS'low'
p347
ag5
ag5
aS'big'
p348
aS'low'
p349
aS'unacc'
p350
aa(lp351
S'vhigh'
p352
aS'low'
p353
ag5
ag5
aS'big'
p354
aS'med'
p355
aS'unacc'
p356
aa(lp357
S'vhigh'
p358
aS'low'
p359
ag5
ag5
aS'big'
p360
aS'high'
p361
aS'unacc'
p362
aa(lp363
S'vhigh'
p364
aS'low'
p365
ag5
ag24
aS'small'
p366
aS'low'
p367
aS'unacc'
p368
aa(lp369
S'vhigh'
p370
aS'low'
p371
ag5
ag24
aS'small'
p372
aS'med'
p373
aS'unacc'
p374
aa(lp375
S'vhigh'
p376
aS'low'
p377
ag5
ag24
aS'med'
p378
aS'low'
p379
aS'unacc'
p380
aa(lp381
S'vhigh'
p382
aS'low'
p383
ag5
ag24
aS'med'
p384
aS'med'
p385
aS'unacc'
p386
aa(lp387
S'vhigh'
p388
aS'low'
p389
ag5
ag24
aS'big'
p390
aS'low'
p391
aS'unacc'
p392
aa(lp393
S'vhigh'
p394
aS'low'
p395
ag5
aS'more'
p396
aS'small'
p397
aS'low'
p398
aS'unacc'
p399
aa(lp400
S'vhigh'
p401
aS'low'
p402
ag5
aS'more'
p403
aS'small'
p404
aS'med'
p405
aS'unacc'
p406
aa(lp407
S'vhigh'
p408
aS'low'
p409
ag5
aS'more'
p410
aS'small'
p411
aS'high'
p412
aS'unacc'
p413
aa(lp414
S'vhigh'
p415
aS'low'
p416
ag5
aS'more'
p417
aS'med'
p418
aS'low'
p419
aS'unacc'
p420
aa(lp421
S'vhigh'
p422
aS'low'
p423
ag5
aS'more'
p424
aS'med'
p425
aS'med'
p426
aS'unacc'
p427
aa(lp428
S'vhigh'
p429
aS'low'
p430
ag5
aS'more'
p431
aS'big'
p432
aS'low'
p433
aS'unacc'
p434
aa(lp435
S'vhigh'
p436
aS'low'
p437
ag4
ag5
aS'small'
p438
aS'low'
p439
aS'unacc'
p440
aa(lp441
S'vhigh'
p442
aS'low'
p443
ag4
ag5
aS'small'
p444
aS'med'
p445
aS'unacc'
p446
aa(lp447
S'vhigh'
p448
aS'low'
p449
ag4
ag5
aS'small'
p450
aS'high'
p451
aS'unacc'
p452
aa(lp453
S'vhigh'
p454
aS'low'
p455
ag4
ag5
aS'med'
p456
aS'low'
p457
aS'unacc'
p458
aa(lp459
S'vhigh'
p460
aS'low'
p461
ag4
ag5
aS'med'
p462
aS'med'
p463
aS'unacc'
p464
aa(lp465
S'vhigh'
p466
aS'low'
p467
ag4
ag5
aS'med'
p468
aS'high'
p469
aS'unacc'
p470
aa(lp471
S'vhigh'
p472
aS'low'
p473
ag4
ag5
aS'big'
p474
aS'low'
p475
aS'unacc'
p476
aa(lp477
S'vhigh'
p478
aS'low'
p479
ag4
ag5
aS'big'
p480
aS'med'
p481
aS'unacc'
p482
aa(lp483
S'vhigh'
p484
aS'low'
p485
ag4
ag5
aS'big'
p486
aS'high'
p487
aS'unacc'
p488
aa(lp489
S'vhigh'
p490
aS'low'
p491
ag4
ag24
aS'small'
p492
aS'low'
p493
aS'unacc'
p494
aa(lp495
S'vhigh'
p496
aS'low'
p497
ag4
ag24
aS'small'
p498
aS'med'
p499
aS'unacc'
p500
aa(lp501
S'vhigh'
p502
aS'low'
p503
ag4
ag24
aS'med'
p504
aS'low'
p505
aS'unacc'
p506
aa(lp507
S'vhigh'
p508
aS'low'
p509
ag4
ag24
aS'med'
p510
aS'med'
p511
aS'unacc'
p512
aa(lp513
S'vhigh'
p514
aS'low'
p515
ag4
ag24
aS'big'
p516
aS'low'
p517
aS'unacc'
p518
aa(lp519
S'vhigh'
p520
aS'low'
p521
ag4
aS'more'
p522
aS'small'
p523
aS'low'
p524
aS'unacc'
p525
aa(lp526
S'vhigh'
p527
aS'low'
p528
ag4
aS'more'
p529
aS'small'
p530
aS'med'
p531
aS'unacc'
p532
aa(lp533
S'vhigh'
p534
aS'low'
p535
ag4
aS'more'
p536
aS'med'
p537
aS'low'
p538
aS'unacc'
p539
aa(lp540
S'vhigh'
p541
aS'low'
p542
ag4
aS'more'
p543
aS'big'
p544
aS'low'
p545
aS'unacc'
p546
aa(lp547
S'vhigh'
p548
aS'low'
p549
ag24
ag5
aS'small'
p550
aS'low'
p551
aS'unacc'
p552
aa(lp553
S'vhigh'
p554
aS'low'
p555
ag24
ag5
aS'small'
p556
aS'med'
p557
aS'unacc'
p558
aa(lp559
S'vhigh'
p560
aS'low'
p561
ag24
ag5
aS'small'
p562
aS'high'
p563
aS'unacc'
p564
aa(lp565
S'vhigh'
p566
aS'low'
p567
ag24
ag5
aS'med'
p568
aS'low'
p569
aS'unacc'
p570
aa(lp571
S'vhigh'
p572
aS'low'
p573
ag24
ag5
aS'med'
p574
aS'med'
p575
aS'unacc'
p576
aa(lp577
S'vhigh'
p578
aS'low'
p579
ag24
ag5
aS'med'
p580
aS'high'
p581
aS'unacc'
p582
aa(lp583
S'vhigh'
p584
aS'low'
p585
ag24
ag5
aS'big'
p586
aS'low'
p587
aS'unacc'
p588
aa(lp589
S'vhigh'
p590
aS'low'
p591
ag24
ag5
aS'big'
p592
aS'med'
p593
aS'unacc'
p594
aa(lp595
S'vhigh'
p596
aS'low'
p597
ag24
ag5
aS'big'
p598
aS'high'
p599
aS'unacc'
p600
aa(lp601
S'vhigh'
p602
aS'low'
p603
ag24
ag24
aS'small'
p604
aS'low'
p605
aS'unacc'
p606
aa(lp607
S'vhigh'
p608
aS'low'
p609
ag24
ag24
aS'small'
p610
aS'med'
p611
aS'unacc'
p612
aa(lp613
S'vhigh'
p614
aS'low'
p615
ag24
ag24
aS'med'
p616
aS'low'
p617
aS'unacc'
p618
aa(lp619
S'vhigh'
p620
aS'low'
p621
ag24
ag24
aS'big'
p622
aS'low'
p623
aS'unacc'
p624
aa(lp625
S'vhigh'
p626
aS'low'
p627
ag24
aS'more'
p628
aS'small'
p629
aS'low'
p630
aS'unacc'
p631
aa(lp632
S'vhigh'
p633
aS'low'
p634
ag24
aS'more'
p635
aS'small'
p636
aS'med'
p637
aS'unacc'
p638
aa(lp639
S'vhigh'
p640
aS'low'
p641
ag24
aS'more'
p642
aS'med'
p643
aS'low'
p644
aS'unacc'
p645
aa(lp646
S'vhigh'
p647
aS'low'
p648
ag24
aS'more'
p649
aS'big'
p650
aS'low'
p651
aS'unacc'
p652
aa(lp653
S'vhigh'
p654
aS'low'
p655
aS'5more'
p656
ag5
aS'small'
p657
aS'low'
p658
aS'unacc'
p659
aa(lp660
S'vhigh'
p661
aS'low'
p662
aS'5more'
p663
ag5
aS'small'
p664
aS'med'
p665
aS'unacc'
p666
aa(lp667
S'vhigh'
p668
aS'low'
p669
aS'5more'
p670
ag5
aS'small'
p671
aS'high'
p672
aS'unacc'
p673
aa(lp674
S'vhigh'
p675
aS'low'
p676
aS'5more'
p677
ag5
aS'med'
p678
aS'low'
p679
aS'unacc'
p680
aa(lp681
S'vhigh'
p682
aS'low'
p683
aS'5more'
p684
ag5
aS'med'
p685
aS'med'
p686
aS'unacc'
p687
aa(lp688
S'vhigh'
p689
aS'low'
p690
aS'5more'
p691
ag5
aS'med'
p692
aS'high'
p693
aS'unacc'
p694
aa(lp695
S'vhigh'
p696
aS'low'
p697
aS'5more'
p698
ag5
aS'big'
p699
aS'low'
p700
aS'unacc'
p701
aa(lp702
S'vhigh'
p703
aS'low'
p704
aS'5more'
p705
ag5
aS'big'
p706
aS'med'
p707
aS'unacc'
p708
aa(lp709
S'vhigh'
p710
aS'low'
p711
aS'5more'
p712
ag5
aS'big'
p713
aS'high'
p714
aS'unacc'
p715
aa(lp716
S'vhigh'
p717
aS'low'
p718
aS'5more'
p719
ag24
aS'small'
p720
aS'low'
p721
aS'unacc'
p722
aa(lp723
S'vhigh'
p724
aS'low'
p725
aS'5more'
p726
ag24
aS'small'
p727
aS'med'
p728
aS'unacc'
p729
aa(lp730
S'vhigh'
p731
aS'low'
p732
aS'5more'
p733
ag24
aS'med'
p734
aS'low'
p735
aS'unacc'
p736
aa(lp737
S'vhigh'
p738
aS'low'
p739
aS'5more'
p740
ag24
aS'big'
p741
aS'low'
p742
aS'unacc'
p743
aa(lp744
S'vhigh'
p745
aS'low'
p746
aS'5more'
p747
aS'more'
p748
aS'small'
p749
aS'low'
p750
aS'unacc'
p751
aa(lp752
S'vhigh'
p753
aS'low'
p754
aS'5more'
p755
aS'more'
p756
aS'small'
p757
aS'med'
p758
aS'unacc'
p759
aa(lp760
S'vhigh'
p761
aS'low'
p762
aS'5more'
p763
aS'more'
p764
aS'med'
p765
aS'low'
p766
aS'unacc'
p767
aa(lp768
S'vhigh'
p769
aS'low'
p770
aS'5more'
p771
aS'more'
p772
aS'big'
p773
aS'low'
p774
aS'unacc'
p775
aa(lp776
S'high'
p777
aS'vhigh'
p778
ag5
ag5
aS'small'
p779
aS'low'
p780
aS'unacc'
p781
aa(lp782
S'high'
p783
aS'vhigh'
p784
ag5
ag5
aS'small'
p785
aS'med'
p786
aS'unacc'
p787
aa(lp788
S'high'
p789
aS'vhigh'
p790
ag5
ag5
aS'small'
p791
aS'high'
p792
aS'unacc'
p793
aa(lp794
S'high'
p795
aS'high'
p796
ag5
aS'more'
p797
aS'big'
p798
aS'high'
p799
aS'acc'
p800
aa(lp801
S'high'
p802
aS'high'
p803
ag4
ag24
aS'small'
p804
aS'high'
p805
aS'acc'
p806
aa(lp807
S'high'
p808
aS'high'
p809
ag4
ag24
aS'med'
p810
aS'high'
p811
aS'acc'
p812
aa(lp813
S'high'
p814
aS'high'
p815
ag4
ag24
aS'big'
p816
aS'med'
p817
aS'acc'
p818
aa(lp819
S'high'
p820
aS'high'
p821
ag4
ag24
aS'big'
p822
aS'high'
p823
aS'acc'
p824
aa(lp825
S'high'
p826
aS'high'
p827
ag4
aS'more'
p828
aS'small'
p829
aS'high'
p830
aS'acc'
p831
aa(lp832
S'high'
p833
aS'high'
p834
ag4
aS'more'
p835
aS'med'
p836
aS'med'
p837
aS'acc'
p838
aa(lp839
S'high'
p840
aS'high'
p841
ag4
aS'more'
p842
aS'med'
p843
aS'high'
p844
aS'acc'
p845
aa(lp846
S'high'
p847
aS'high'
p848
ag4
aS'more'
p849
aS'big'
p850
aS'med'
p851
aS'acc'
p852
aa(lp853
S'high'
p854
aS'high'
p855
ag4
aS'more'
p856
aS'big'
p857
aS'high'
p858
aS'acc'
p859
aa(lp860
S'high'
p861
aS'high'
p862
ag24
ag24
aS'small'
p863
aS'high'
p864
aS'acc'
p865
aa(lp866
S'high'
p867
aS'high'
p868
ag24
ag24
aS'med'
p869
aS'med'
p870
aS'acc'
p871
aa(lp872
S'high'
p873
aS'high'
p874
ag24
ag24
aS'med'
p875
aS'high'
p876
aS'acc'
p877
aa(lp878
S'high'
p879
aS'high'
p880
ag24
ag24
aS'big'
p881
aS'med'
p882
aS'acc'
p883
aa(lp884
S'high'
p885
aS'high'
p886
ag24
ag24
aS'big'
p887
aS'high'
p888
aS'acc'
p889
aa(lp890
S'high'
p891
aS'high'
p892
ag24
aS'more'
p893
aS'small'
p894
aS'high'
p895
aS'acc'
p896
aa(lp897
S'high'
p898
aS'high'
p899
ag24
aS'more'
p900
aS'med'
p901
aS'med'
p902
aS'acc'
p903
aa(lp904
S'high'
p905
aS'high'
p906
ag24
aS'more'
p907
aS'med'
p908
aS'high'
p909
aS'acc'
p910
aa(lp911
S'high'
p912
aS'high'
p913
ag24
aS'more'
p914
aS'big'
p915
aS'med'
p916
aS'acc'
p917
aa(lp918
S'high'
p919
aS'high'
p920
ag24
aS'more'
p921
aS'big'
p922
aS'high'
p923
aS'acc'
p924
aa(lp925
S'high'
p926
aS'high'
p927
aS'5more'
p928
ag24
aS'small'
p929
aS'high'
p930
aS'acc'
p931
aa(lp932
S'high'
p933
aS'high'
p934
aS'5more'
p935
ag24
aS'med'
p936
aS'med'
p937
aS'acc'
p938
aa(lp939
S'high'
p940
aS'high'
p941
aS'5more'
p942
ag24
aS'med'
p943
aS'high'
p944
aS'acc'
p945
aa(lp946
S'high'
p947
aS'high'
p948
aS'5more'
p949
ag24
aS'big'
p950
aS'med'
p951
aS'acc'
p952
aa(lp953
S'high'
p954
aS'high'
p955
aS'5more'
p956
ag24
aS'big'
p957
aS'high'
p958
aS'acc'
p959
aa(lp960
S'high'
p961
aS'high'
p962
aS'5more'
p963
aS'more'
p964
aS'small'
p965
aS'high'
p966
aS'acc'
p967
aa(lp968
S'high'
p969
aS'high'
p970
aS'5more'
p971
aS'more'
p972
aS'med'
p973
aS'med'
p974
aS'acc'
p975
aa(lp976
S'high'
p977
aS'high'
p978
aS'5more'
p979
aS'more'
p980
aS'med'
p981
aS'high'
p982
aS'acc'
p983
aa(lp984
S'high'
p985
aS'high'
p986
aS'5more'
p987
aS'more'
p988
aS'big'
p989
aS'med'
p990
aS'acc'
p991
aa(lp992
S'high'
p993
aS'high'
p994
aS'5more'
p995
aS'more'
p996
aS'big'
p997
aS'high'
p998
aS'acc'
p999
aa(lp1000
S'high'
p1001
aS'med'
p1002
ag5
ag24
aS'small'
p1003
aS'high'
p1004
aS'acc'
p1005
aa(lp1006
S'high'
p1007
aS'med'
p1008
ag5
ag24
aS'med'
p1009
aS'high'
p1010
aS'acc'
p1011
aa(lp1012
S'high'
p1013
aS'med'
p1014
ag5
ag24
aS'big'
p1015
aS'med'
p1016
aS'acc'
p1017
aa(lp1018
S'high'
p1019
aS'med'
p1020
ag5
ag24
aS'big'
p1021
aS'high'
p1022
aS'acc'
p1023
aa(lp1024
S'high'
p1025
aS'med'
p1026
ag5
aS'more'
p1027
aS'med'
p1028
aS'high'
p1029
aS'acc'
p1030
aa(lp1031
S'high'
p1032
aS'med'
p1033
ag5
aS'more'
p1034
aS'big'
p1035
aS'med'
p1036
aS'acc'
p1037
aa(lp1038
S'high'
p1039
aS'med'
p1040
ag5
aS'more'
p1041
aS'big'
p1042
aS'high'
p1043
aS'acc'
p1044
aa(lp1045
S'high'
p1046
aS'med'
p1047
ag4
ag24
aS'small'
p1048
aS'high'
p1049
aS'acc'
p1050
aa(lp1051
S'high'
p1052
aS'med'
p1053
ag4
ag24
aS'med'
p1054
aS'high'
p1055
aS'acc'
p1056
aa(lp1057
S'med'
p1058
aS'low'
p1059
ag5
aS'more'
p1060
aS'big'
p1061
aS'high'
p1062
aS'vgood'
p1063
aa(lp1064
S'med'
p1065
aS'low'
p1066
ag4
ag24
aS'big'
p1067
aS'high'
p1068
aS'vgood'
p1069
aa(lp1070
S'med'
p1071
aS'low'
p1072
ag4
aS'more'
p1073
aS'med'
p1074
aS'high'
p1075
aS'vgood'
p1076
aa(lp1077
S'med'
p1078
aS'low'
p1079
ag4
aS'more'
p1080
aS'big'
p1081
aS'high'
p1082
aS'vgood'
p1083
aa(lp1084
S'med'
p1085
aS'low'
p1086
ag24
ag24
aS'med'
p1087
aS'high'
p1088
aS'vgood'
p1089
aa(lp1090
S'med'
p1091
aS'low'
p1092
ag24
ag24
aS'big'
p1093
aS'high'
p1094
aS'vgood'
p1095
aa(lp1096
S'med'
p1097
aS'low'
p1098
ag24
aS'more'
p1099
aS'small'
p1100
aS'high'
p1101
aS'good'
p1102
aa(lp1103
S'med'
p1104
aS'low'
p1105
ag24
aS'more'
p1106
aS'med'
p1107
aS'med'
p1108
aS'good'
p1109
aa(lp1110
S'med'
p1111
aS'low'
p1112
ag24
aS'more'
p1113
aS'med'
p1114
aS'high'
p1115
aS'vgood'
p1116
aa(lp1117
S'med'
p1118
aS'low'
p1119
ag24
aS'more'
p1120
aS'big'
p1121
aS'med'
p1122
aS'good'
p1123
aa(lp1124
S'med'
p1125
aS'low'
p1126
aS'5more'
p1127
ag24
aS'small'
p1128
aS'high'
p1129
aS'good'
p1130
aa(lp1131
S'med'
p1132
aS'low'
p1133
aS'5more'
p1134
ag24
aS'med'
p1135
aS'med'
p1136
aS'good'
p1137
aa(lp1138
S'med'
p1139
aS'low'
p1140
aS'5more'
p1141
ag24
aS'big'
p1142
aS'med'
p1143
aS'good'
p1144
aa(lp1145
S'med'
p1146
aS'low'
p1147
aS'5more'
p1148
aS'more'
p1149
aS'small'
p1150
aS'high'
p1151
aS'good'
p1152
aa.