(lp0
(lp1
S'low'
p2
aS'vhigh'
p3
aS'2'
p4
aS'more'
p5
aS'small'
p6
aS'high'
p7
aS'unacc'
p8
aa(lp9
S'low'
p10
aS'vhigh'
p11
ag4
aS'more'
p12
aS'med'
p13
aS'low'
p14
aS'unacc'
p15
aa(lp16
S'low'
p17
aS'vhigh'
p18
ag4
aS'more'
p19
aS'med'
p20
aS'med'
p21
aS'unacc'
p22
aa(lp23
S'low'
p24
aS'vhigh'
p25
ag4
aS'more'
p26
aS'big'
p27
aS'low'
p28
aS'unacc'
p29
aa(lp30
S'low'
p31
aS'vhigh'
p32
aS'3'
p33
ag4
aS'small'
p34
aS'low'
p35
aS'unacc'
p36
aa(lp37
S'low'
p38
aS'vhigh'
p39
ag33
ag4
aS'small'
p40
aS'med'
p41
aS'unacc'
p42
aa(lp43
S'low'
p44
aS'vhigh'
p45
ag33
ag4
aS'small'
p46
aS'high'
p47
aS'unacc'
p48
aa(lp49
S'low'
p50
aS'vhigh'
p51
ag33
ag4
aS'med'
p52
aS'low'
p53
aS'unacc'
p54
aa(lp55
S'low'
p56
aS'vhigh'
p57
ag33
ag4
aS'med'
p58
aS'med'
p59
aS'unacc'
p60
aa(lp61
S'low'
p62
aS'vhigh'
p63
ag33
ag4
aS'med'
p64
aS'high'
p65
aS'unacc'
p66
aa(lp67
S'low'
p68
aS'vhigh'
p69
ag33
ag4
aS'big'
p70
aS'low'
p71
aS'unacc'
p72
aa(lp73
S'low'
p74
aS'vhigh'
p75
ag33
ag4
aS'big'
p76
aS'med'
p77
aS'unacc'
p78
aa(lp79
S'low'
p80
aS'vhigh'
p81
ag33
ag4
aS'big'
p82
aS'high'
p83
aS'unacc'
p84
aa(lp85
S'low'
p86
aS'vhigh'
p87
ag33
aS'4'
p88
aS'small'
p89
aS'low'
p90
aS'unacc'
p91
aa(lp92
S'low'
p93
aS'vhigh'
p94
ag33
ag88
aS'small'
p95
aS'med'
p96
aS'unacc'
p97
aa(lp98
S'low'
p99
aS'vhigh'
p100
ag33
ag88
aS'med'
p101
aS'low'
p102
aS'unacc'
p103
aa(lp104
S'low'
p105
aS'vhigh'
p106
ag33
ag88
aS'med'
p107
aS'med'
p108
aS'unacc'
p109
aa(lp110
S'low'
p111
aS'vhigh'
p112
ag33
ag88
aS'big'
p113
aS'low'
p114
aS'unacc'
p115
aa(lp116
S'low'
p117
aS'vhigh'
p118
ag33
aS'more'
p119
aS'small'
p120
aS'low'
p121
aS'unacc'
p122
aa(lp123
S'low'
p124
aS'vhigh'
p125
ag33
aS'more'
p126
aS'small'
p127
aS'med'
p128
aS'unacc'
p129
aa(lp130
S'low'
p131
aS'vhigh'
p132
ag33
aS'more'
p133
aS'med'
p134
aS'low'
p135
aS'unacc'
p136
aa(lp137
S'low'
p138
aS'vhigh'
p139
ag33
aS'more'
p140
aS'med'
p141
aS'high'
p142
aS'acc'
p143
aa(lp144
S'low'
p145
aS'vhigh'
p146
ag33
aS'more'
p147
aS'big'
p148
aS'low'
p149
aS'unacc'
p150
aa(lp151
S'low'
p152
aS'vhigh'
p153
ag33
aS'more'
p154
aS'big'
p155
aS'med'
p156
aS'acc'
p157
aa(lp158
S'low'
p159
aS'vhigh'
p160
ag33
aS'more'
p161
aS'big'
p162
aS'high'
p163
aS'acc'
p164
aa(lp165
S'low'
p166
aS'vhigh'
p167
ag88
ag4
aS'small'
p168
aS'low'
p169
aS'unacc'
p170
aa(lp171
S'low'
p172
aS'vhigh'
p173
ag88
ag4
aS'small'
p174
aS'med'
p175
aS'unacc'
p176
aa(lp177
S'low'
p178
aS'vhigh'
p179
ag88
ag4
aS'small'
p180
aS'high'
p181
aS'unacc'
p182
aa(lp183
S'low'
p184
aS'vhigh'
p185
ag88
ag4
aS'med'
p186
aS'low'
p187
aS'unacc'
p188
aa(lp189
S'low'
p190
aS'vhigh'
p191
ag88
ag4
aS'med'
p192
aS'med'
p193
aS'unacc'
p194
aa(lp195
S'low'
p196
aS'vhigh'
p197
ag88
ag4
aS'med'
p198
aS'high'
p199
aS'unacc'
p200
aa(lp201
S'low'
p202
aS'vhigh'
p203
ag88
ag4
aS'big'
p204
aS'low'
p205
aS'unacc'
p206
aa(lp207
S'low'
p208
aS'vhigh'
p209
ag88
ag4
aS'big'
p210
aS'med'
p211
aS'unacc'
p212
aa(lp213
S'low'
p214
aS'vhigh'
p215
ag88
ag4
aS'big'
p216
aS'high'
p217
aS'unacc'
p218
aa(lp219
S'low'
p220
aS'vhigh'
p221
ag88
ag88
aS'small'
p222
aS'low'
p223
aS'unacc'
p224
aa(lp225
S'low'
p226
aS'vhigh'
p227
ag88
ag88
aS'small'
p228
aS'med'
p229
aS'unacc'
p230
aa(lp231
S'low'
p232
aS'vhigh'
p233
ag88
ag88
aS'small'
p234
aS'high'
p235
aS'acc'
p236
aa(lp237
S'low'
p238
aS'vhigh'
p239
ag88
ag88
aS'med'
p240
aS'low'
p241
aS'unacc'
p242
aa(lp243
S'low'
p244
aS'vhigh'
p245
ag88
ag88
aS'med'
p246
aS'med'
p247
aS'acc'
p248
aa(lp249
S'low'
p250
aS'vhigh'
p251
ag88
ag88
aS'med'
p252
aS'high'
p253
aS'acc'
p254
aa(lp255
S'low'
p256
aS'vhigh'
p257
ag88
ag88
aS'big'
p258
aS'low'
p259
aS'unacc'
p260
aa(lp261
S'low'
p262
aS'vhigh'
p263
ag88
ag88
aS'big'
p264
aS'med'
p265
aS'acc'
p266
aa(lp267
S'low'
p268
aS'vhigh'
p269
ag88
ag88
aS'big'
p270
aS'high'
p271
aS'acc'
p272
aa(lp273
S'low'
p274
aS'vhigh'
p275
ag88
aS'more'
p276
aS'small'
p277
aS'low'
p278
aS'unacc'
p279
aa(lp280
S'low'
p281
aS'vhigh'
p282
ag88
aS'more'
p283
aS'small'
p284
aS'med'
p285
aS'unacc'
p286
aa(lp287
S'low'
p288
aS'vhigh'
p289
ag88
aS'more'
p290
aS'small'
p291
aS'high'
p292
aS'acc'
p293
aa(lp294
S'low'
p295
aS'vhigh'
p296
ag88
aS'more'
p297
aS'med'
p298
aS'low'
p299
aS'unacc'
p300
aa(lp301
S'low'
p302
aS'vhigh'
p303
ag88
aS'more'
p304
aS'med'
p305
aS'med'
p306
aS'acc'
p307
aa(lp308
S'low'
p309
aS'vhigh'
p310
ag88
aS'more'
p311
aS'med'
p312
aS'high'
p313
aS'acc'
p314
aa(lp315
S'low'
p316
aS'vhigh'
p317
ag88
aS'more'
p318
aS'big'
p319
aS'low'
p320
aS'unacc'
p321
aa(lp322
S'low'
p323
aS'vhigh'
p324
ag88
aS'more'
p325
aS'big'
p326
aS'med'
p327
aS'acc'
p328
aa(lp329
S'low'
p330
aS'vhigh'
p331
ag88
aS'more'
p332
aS'big'
p333
aS'high'
p334
aS'acc'
p335
aa(lp336
S'low'
p337
aS'vhigh'
p338
aS'5more'
p339
ag4
aS'small'
p340
aS'low'
p341
aS'unacc'
p342
aa(lp343
S'low'
p344
aS'vhigh'
p345
aS'5more'
p346
ag4
aS'small'
p347
aS'med'
p348
aS'unacc'
p349
aa(lp350
S'low'
p351
aS'vhigh'
p352
aS'5more'
p353
ag4
aS'small'
p354
aS'high'
p355
aS'unacc'
p356
aa(lp357
S'low'
p358
aS'vhigh'
p359
aS'5more'
p360
ag4
aS'med'
p361
aS'low'
p362
aS'unacc'
p363
aa(lp364
S'low'
p365
aS'vhigh'
p366
aS'5more'
p367
ag4
aS'med'
p368
aS'med'
p369
aS'unacc'
p370
aa(lp371
S'low'
p372
aS'vhigh'
p373
aS'5more'
p374
ag4
aS'med'
p375
aS'high'
p376
aS'unacc'
p377
aa(lp378
S'low'
p379
aS'vhigh'
p380
aS'5more'
p381
ag4
aS'big'
p382
aS'low'
p383
aS'unacc'
p384
aa(lp385
S'low'
p386
aS'vhigh'
p387
aS'5more'
p388
ag4
aS'big'
p389
aS'med'
p390
aS'unacc'
p391
aa(lp392
S'low'
p393
aS'vhigh'
p394
aS'5more'
p395
ag4
aS'big'
p396
aS'high'
p397
aS'unacc'
p398
aa(lp399
S'low'
p400
aS'vhigh'
p401
aS'5more'
p402
ag88
aS'small'
p403
aS'low'
p404
aS'unacc'
p405
aa(lp406
S'low'
p407
aS'vhigh'
p408
aS'5more'
p409
ag88
aS'small'
p410
aS'med'
p411
aS'unacc'
p412
aa(lp413
S'low'
p414
aS'vhigh'
p415
aS'5more'
p416
ag88
aS'small'
p417
aS'high'
p418
aS'acc'
p419
aa(lp420
S'low'
p421
aS'vhigh'
p422
aS'5more'
p423
ag88
aS'med'
p424
aS'low'
p425
aS'unacc'
p426
aa(lp427
S'low'
p428
aS'vhigh'
p429
aS'5more'
p430
ag88
aS'med'
p431
aS'med'
p432
aS'acc'
p433
aa(lp434
S'low'
p435
aS'vhigh'
p436
aS'5more'
p437
ag88
aS'med'
p438
aS'high'
p439
aS'acc'
p440
aa(lp441
S'low'
p442
aS'vhigh'
p443
aS'5more'
p444
ag88
aS'big'
p445
aS'low'
p446
aS'unacc'
p447
aa(lp448
S'low'
p449
aS'vhigh'
p450
aS'5more'
p451
ag88
aS'big'
p452
aS'med'
p453
aS'acc'
p454
aa(lp455
S'low'
p456
aS'vhigh'
p457
aS'5more'
p458
ag88
aS'big'
p459
aS'high'
p460
aS'acc'
p461
aa(lp462
S'low'
p463
aS'vhigh'
p464
aS'5more'
p465
aS'more'
p466
aS'small'
p467
aS'low'
p468
aS'unacc'
p469
aa(lp470
S'low'
p471
aS'vhigh'
p472
aS'5more'
p473
aS'more'
p474
aS'small'
p475
aS'med'
p476
aS'unacc'
p477
aa(lp478
S'low'
p479
aS'vhigh'
p480
aS'5more'
p481
aS'more'
p482
aS'small'
p483
aS'high'
p484
aS'acc'
p485
aa(lp486
S'low'
p487
aS'vhigh'
p488
aS'5more'
p489
aS'more'
p490
aS'med'
p491
aS'low'
p492
aS'unacc'
p493
aa(lp494
S'low'
p495
aS'vhigh'
p496
aS'5more'
p497
aS'more'
p498
aS'med'
p499
aS'med'
p500
aS'acc'
p501
aa(lp502
S'low'
p503
aS'vhigh'
p504
aS'5more'
p505
aS'more'
p506
aS'med'
p507
aS'high'
p508
aS'acc'
p509
aa(lp510
S'low'
p511
aS'vhigh'
p512
aS'5more'
p513
aS'more'
p514
aS'big'
p515
aS'low'
p516
aS'unacc'
p517
aa(lp518
S'low'
p519
aS'vhigh'
p520
aS'5more'
p521
aS'more'
p522
aS'big'
p523
aS'med'
p524
aS'acc'
p525
aa(lp526
S'low'
p527
aS'vhigh'
p528
aS'5more'
p529
aS'more'
p530
aS'big'
p531
aS'high'
p532
aS'acc'
p533
aa(lp534
S'low'
p535
aS'high'
p536
ag4
ag4
aS'small'
p537
aS'low'
p538
aS'unacc'
p539
aa(lp540
S'low'
p541
aS'high'
p542
ag4
ag4
aS'small'
p543
aS'med'
p544
aS'unacc'
p545
aa(lp546
S'low'
p547
aS'high'
p548
ag4
ag4
aS'small'
p549
aS'high'
p550
aS'unacc'
p551
aa(lp552
S'low'
p553
aS'high'
p554
ag4
ag4
aS'med'
p555
aS'low'
p556
aS'unacc'
p557
aa(lp558
S'low'
p559
aS'high'
p560
ag4
ag4
aS'med'
p561
aS'med'
p562
aS'unacc'
p563
aa(lp564
S'low'
p565
aS'high'
p566
ag4
ag4
aS'med'
p567
aS'high'
p568
aS'unacc'
p569
aa(lp570
S'low'
p571
aS'high'
p572
ag4
ag4
aS'big'
p573
aS'low'
p574
aS'unacc'
p575
aa(lp576
S'low'
p577
aS'high'
p578
ag4
ag4
aS'big'
p579
aS'med'
p580
aS'unacc'
p581
aa(lp582
S'low'
p583
aS'high'
p584
ag4
ag4
aS'big'
p585
aS'high'
p586
aS'unacc'
p587
aa(lp588
S'low'
p589
aS'high'
p590
ag4
ag88
aS'small'
p591
aS'low'
p592
aS'unacc'
p593
aa(lp594
S'low'
p595
aS'high'
p596
ag4
ag88
aS'small'
p597
aS'med'
p598
aS'acc'
p599
aa(lp600
S'low'
p601
aS'high'
p602
ag4
ag88
aS'small'
p603
aS'high'
p604
aS'acc'
p605
aa(lp606
S'low'
p607
aS'high'
p608
ag4
ag88
aS'med'
p609
aS'low'
p610
aS'unacc'
p611
aa(lp612
S'low'
p613
aS'high'
p614
ag4
ag88
aS'med'
p615
aS'med'
p616
aS'acc'
p617
aa(lp618
S'low'
p619
aS'high'
p620
ag4
ag88
aS'med'
p621
aS'high'
p622
aS'acc'
p623
aa(lp624
S'low'
p625
aS'high'
p626
ag4
ag88
aS'big'
p627
aS'low'
p628
aS'unacc'
p629
aa(lp630
S'low'
p631
aS'high'
p632
ag4
ag88
aS'big'
p633
aS'med'
p634
aS'acc'
p635
aa(lp636
S'low'
p637
aS'high'
p638
ag4
aS'more'
p639
aS'small'
p640
aS'low'
p641
aS'unacc'
p642
aa(lp643
S'low'
p644
aS'high'
p645
ag4
aS'more'
p646
aS'small'
p647
aS'med'
p648
aS'unacc'
p649
aa(lp650
S'low'
p651
aS'high'
p652
ag4
aS'more'
p653
aS'small'
p654
aS'high'
p655
aS'unacc'
p656
aa(lp657
S'low'
p658
aS'high'
p659
ag4
aS'more'
p660
aS'med'
p661
aS'low'
p662
aS'unacc'
p663
aa(lp664
S'low'
p665
aS'high'
p666
ag4
aS'more'
p667
aS'med'
p668
aS'med'
p669
aS'acc'
p670
aa(lp671
S'low'
p672
aS'high'
p673
ag4
aS'more'
p674
aS'med'
p675
aS'high'
p676
aS'acc'
p677
aa(lp678
S'low'
p679
aS'high'
p680
ag4
aS'more'
p681
aS'big'
p682
aS'low'
p683
aS'unacc'
p684
aa(lp685
S'low'
p686
aS'high'
p687
ag4
aS'more'
p688
aS'big'
p689
aS'med'
p690
aS'acc'
p691
aa(lp692
S'low'
p693
aS'high'
p694
ag33
ag4
aS'small'
p695
aS'low'
p696
aS'unacc'
p697
aa(lp698
S'low'
p699
aS'high'
p700
ag33
ag4
aS'small'
p701
aS'med'
p702
aS'unacc'
p703
aa(lp704
S'low'
p705
aS'high'
p706
ag33
ag4
aS'small'
p707
aS'high'
p708
aS'unacc'
p709
aa(lp710
S'low'
p711
aS'high'
p712
ag33
ag4
aS'med'
p713
aS'low'
p714
aS'unacc'
p715
aa(lp716
S'low'
p717
aS'high'
p718
ag33
ag4
aS'med'
p719
aS'med'
p720
aS'unacc'
p721
aa(lp722
S'low'
p723
aS'high'
p724
ag33
ag4
aS'med'
p725
aS'high'
p726
aS'unacc'
p727
aa(lp728
S'low'
p729
aS'high'
p730
ag33
ag4
aS'big'
p731
aS'low'
p732
aS'unacc'
p733
aa(lp734
S'low'
p735
aS'high'
p736
ag33
ag4
aS'big'
p737
aS'med'
p738
aS'unacc'
p739
aa(lp740
S'low'
p741
aS'high'
p742
ag33
ag4
aS'big'
p743
aS'high'
p744
aS'unacc'
p745
aa(lp746
S'low'
p747
aS'high'
p748
ag33
ag88
aS'small'
p749
aS'low'
p750
aS'unacc'
p751
aa(lp752
S'low'
p753
aS'high'
p754
ag33
ag88
aS'small'
p755
aS'med'
p756
aS'acc'
p757
aa(lp758
S'low'
p759
aS'high'
p760
ag33
ag88
aS'small'
p761
aS'high'
p762
aS'acc'
p763
aa(lp764
S'low'
p765
aS'high'
p766
ag33
ag88
aS'med'
p767
aS'low'
p768
aS'unacc'
p769
aa(lp770
S'low'
p771
aS'high'
p772
ag33
ag88
aS'med'
p773
aS'med'
p774
aS'acc'
p775
aa(lp776
S'low'
p777
aS'high'
p778
ag33
ag88
aS'med'
p779
aS'high'
p780
aS'acc'
p781
aa(lp782
S'low'
p783
aS'high'
p784
ag33
ag88
aS'big'
p785
aS'low'
p786
aS'unacc'
p787
aa(lp788
S'low'
p789
aS'high'
p790
ag33
ag88
aS'big'
p791
aS'med'
p792
aS'acc'
p793
aa(lp794
S'low'
p795
aS'high'
p796
ag33
aS'more'
p797
aS'small'
p798
aS'low'
p799
aS'unacc'
p800
aa(lp801
S'low'
p802
aS'high'
p803
ag33
aS'more'
p804
aS'small'
p805
aS'med'
p806
aS'acc'
p807
aa(lp808
S'low'
p809
aS'high'
p810
ag33
aS'more'
p811
aS'small'
p812
aS'high'
p813
aS'acc'
p814
aa(lp815
S'low'
p816
aS'high'
p817
ag33
aS'more'
p818
aS'med'
p819
aS'low'
p820
aS'unacc'
p821
aa(lp822
S'low'
p823
aS'high'
p824
ag33
aS'more'
p825
aS'big'
p826
aS'low'
p827
aS'unacc'
p828
aa(lp829
S'low'
p830
aS'high'
p831
ag88
ag4
aS'small'
p832
aS'low'
p833
aS'unacc'
p834
aa(lp835
S'low'
p836
aS'high'
p837
ag88
ag4
aS'small'
p838
aS'med'
p839
aS'unacc'
p840
aa(lp841
S'low'
p842
aS'high'
p843
ag88
ag4
aS'small'
p844
aS'high'
p845
aS'unacc'
p846
aa(lp847
S'low'
p848
aS'high'
p849
ag88
ag4
aS'med'
p850
aS'low'
p851
aS'unacc'
p852
aa(lp853
S'low'
p854
aS'high'
p855
ag88
ag4
aS'med'
p856
aS'med'
p857
aS'unacc'
p858
aa(lp859
S'low'
p860
aS'high'
p861
ag88
ag4
aS'med'
p862
aS'high'
p863
aS'unacc'
p864
aa(lp865
S'low'
p866
aS'high'
p867
ag88
ag4
aS'big'
p868
aS'low'
p869
aS'unacc'
p870
aa(lp871
S'low'
p872
aS'high'
p873
ag88
ag4
aS'big'
p874
aS'med'
p875
aS'unacc'
p876
aa(lp877
S'low'
p878
aS'high'
p879
ag88
ag4
aS'big'
p880
aS'high'
p881
aS'unacc'
p882
aa(lp883
S'low'
p884
aS'high'
p885
ag88
ag88
aS'small'
p886
aS'low'
p887
aS'unacc'
p888
aa(lp889
S'low'
p890
aS'high'
p891
ag88
ag88
aS'med'
p892
aS'low'
p893
aS'unacc'
p894
aa(lp895
S'low'
p896
aS'high'
p897
ag88
ag88
aS'big'
p898
aS'low'
p899
aS'unacc'
p900
aa(lp901
S'low'
p902
aS'high'
p903
ag88
aS'more'
p904
aS'small'
p905
aS'low'
p906
aS'unacc'
p907
aa(lp908
S'low'
p909
aS'high'
p910
ag88
aS'more'
p911
aS'med'
p912
aS'low'
p913
aS'unacc'
p914
aa(lp915
S'low'
p916
aS'high'
p917
ag88
aS'more'
p918
aS'big'
p919
aS'low'
p920
aS'unacc'
p921
aa(lp922
S'low'
p923
aS'high'
p924
aS'5more'
p925
ag4
aS'small'
p926
aS'low'
p927
aS'unacc'
p928
aa(lp929
S'low'
p930
aS'high'
p931
aS'5more'
p932
ag4
aS'small'
p933
aS'med'
p934
aS'unacc'
p935
aa(lp936
S'low'
p937
aS'high'
p938
aS'5more'
p939
ag4
aS'small'
p940
aS'high'
p941
aS'unacc'
p942
aa(lp943
S'low'
p944
aS'high'
p945
aS'5more'
p946
ag4
aS'med'
p947
aS'low'
p948
aS'unacc'
p949
aa(lp950
S'low'
p951
aS'high'
p952
aS'5more'
p953
ag4
aS'med'
p954
aS'med'
p955
aS'unacc'
p956
aa(lp957
S'low'
p958
aS'high'
p959
aS'5more'
p960
ag4
aS'med'
p961
aS'high'
p962
aS'unacc'
p963
aa(lp964
S'low'
p965
aS'high'
p966
aS'5more'
p967
ag4
aS'big'
p968
aS'low'
p969
aS'unacc'
p970
aa(lp971
S'low'
p972
aS'high'
p973
aS'5more'
p974
ag4
aS'big'
p975
aS'med'
p976
aS'unacc'
p977
aa(lp978
S'low'
p979
aS'high'
p980
aS'5more'
p981
ag4
aS'big'
p982
aS'high'
p983
aS'unacc'
p984
aa(lp985
S'low'
p986
aS'high'
p987
aS'5more'
p988
ag88
aS'small'
p989
aS'low'
p990
aS'unacc'
p991
aa(lp992
S'low'
p993
aS'high'
p994
aS'5more'
p995
ag88
aS'med'
p996
aS'low'
p997
aS'unacc'
p998
aa(lp999
S'low'
p1000
aS'high'
p1001
aS'5more'
p1002
ag88
aS'big'
p1003
aS'low'
p1004
aS'unacc'
p1005
aa(lp1006
S'low'
p1007
aS'high'
p1008
aS'5more'
p1009
aS'more'
p1010
aS'small'
p1011
aS'low'
p1012
aS'unacc'
p1013
aa(lp1014
S'low'
p1015
aS'high'
p1016
aS'5more'
p1017
aS'more'
p1018
aS'med'
p1019
aS'low'
p1020
aS'unacc'
p1021
aa(lp1022
S'low'
p1023
aS'high'
p1024
aS'5more'
p1025
aS'more'
p1026
aS'big'
p1027
aS'low'
p1028
aS'unacc'
p1029
aa(lp1030
S'low'
p1031
aS'med'
p1032
ag4
ag4
aS'small'
p1033
aS'low'
p1034
aS'unacc'
p1035
aa(lp1036
S'low'
p1037
aS'med'
p1038
ag4
ag4
aS'small'
p1039
aS'med'
p1040
aS'unacc'
p1041
aa(lp1042
S'low'
p1043
aS'med'
p1044
ag4
ag4
aS'small'
p1045
aS'high'
p1046
aS'unacc'
p1047
aa(lp1048
S'low'
p1049
aS'low'
p1050
ag4
aS'more'
p1051
aS'big'
p1052
aS'high'
p1053
aS'vgood'
p1054
aa(lp1055
S'low'
p1056
aS'low'
p1057
ag33
ag88
aS'big'
p1058
aS'high'
p1059
aS'vgood'
p1060
aa(lp1061
S'low'
p1062
aS'low'
p1063
ag33
aS'more'
p1064
aS'med'
p1065
aS'high'
p1066
aS'vgood'
p1067
aa(lp1068
S'low'
p1069
aS'low'
p1070
ag33
aS'more'
p1071
aS'big'
p1072
aS'med'
p1073
aS'good'
p1074
aa(lp1075
S'low'
p1076
aS'low'
p1077
ag33
aS'more'
p1078
aS'big'
p1079
aS'high'
p1080
aS'vgood'
p1081
aa(lp1082
S'low'
p1083
aS'low'
p1084
ag88
ag88
aS'small'
p1085
aS'high'
p1086
aS'good'
p1087
aa(lp1088
S'low'
p1089
aS'low'
p1090
ag88
ag88
aS'med'
p1091
aS'med'
p1092
aS'good'
p1093
aa(lp1094
S'low'
p1095
aS'low'
p1096
ag88
ag88
aS'med'
p1097
aS'high'
p1098
aS'vgood'
p1099
aa(lp1100
S'low'
p1101
aS'low'
p1102
ag88
ag88
aS'big'
p1103
aS'med'
p1104
aS'good'
p1105
aa(lp1106
S'low'
p1107
aS'low'
p1108
ag88
ag88
aS'big'
p1109
aS'high'
p1110
aS'vgood'
p1111
aa(lp1112
S'low'
p1113
aS'low'
p1114
ag88
aS'more'
p1115
aS'small'
p1116
aS'high'
p1117
aS'good'
p1118
aa(lp1119
S'low'
p1120
aS'low'
p1121
ag88
aS'more'
p1122
aS'med'
p1123
aS'med'
p1124
aS'good'
p1125
aa(lp1126
S'low'
p1127
aS'low'
p1128
ag88
aS'more'
p1129
aS'big'
p1130
aS'med'
p1131
aS'good'
p1132
aa.