(lp0
(lp1
S'med'
p2
aS'med'
p3
aS'3'
p4
aS'2'
p5
aS'small'
p6
aS'high'
p7
aS'unacc'
p8
aa(lp9
S'med'
p10
aS'med'
p11
ag4
ag5
aS'med'
p12
aS'low'
p13
aS'unacc'
p14
aa(lp15
S'med'
p16
aS'med'
p17
ag4
ag5
aS'med'
p18
aS'med'
p19
aS'unacc'
p20
aa(lp21
S'med'
p22
aS'med'
p23
ag4
ag5
aS'med'
p24
aS'high'
p25
aS'unacc'
p26
aa(lp27
S'med'
p28
aS'med'
p29
ag4
ag5
aS'big'
p30
aS'low'
p31
aS'unacc'
p32
aa(lp33
S'med'
p34
aS'med'
p35
ag4
ag5
aS'big'
p36
aS'med'
p37
aS'unacc'
p38
aa(lp39
S'med'
p40
aS'med'
p41
ag4
ag5
aS'big'
p42
aS'high'
p43
aS'unacc'
p44
aa(lp45
S'med'
p46
aS'med'
p47
ag4
aS'4'
p48
aS'small'
p49
aS'low'
p50
aS'unacc'
p51
aa(lp52
S'med'
p53
aS'med'
p54
ag4
ag48
aS'med'
p55
aS'low'
p56
aS'unacc'
p57
aa(lp58
S'med'
p59
aS'med'
p60
ag4
ag48
aS'big'
p61
aS'low'
p62
aS'unacc'
p63
aa(lp64
S'med'
p65
aS'med'
p66
ag4
aS'more'
p67
aS'small'
p68
aS'low'
p69
aS'unacc'
p70
aa(lp71
S'med'
p72
aS'med'
p73
ag4
aS'more'
p74
aS'med'
p75
aS'low'
p76
aS'unacc'
p77
aa(lp78
S'med'
p79
aS'med'
p80
ag4
aS'more'
p81
aS'big'
p82
aS'low'
p83
aS'unacc'
p84
aa(lp85
S'med'
p86
aS'med'
p87
ag48
ag5
aS'small'
p88
aS'low'
p89
aS'unacc'
p90
aa(lp91
S'med'
p92
aS'med'
p93
ag48
ag5
aS'small'
p94
aS'med'
p95
aS'unacc'
p96
aa(lp97
S'med'
p98
aS'med'
p99
ag48
ag5
aS'small'
p100
aS'high'
p101
aS'unacc'
p102
aa(lp103
S'med'
p104
aS'med'
p105
ag48
ag5
aS'med'
p106
aS'low'
p107
aS'unacc'
p108
aa(lp109
S'med'
p110
aS'med'
p111
ag48
ag5
aS'med'
p112
aS'med'
p113
aS'unacc'
p114
aa(lp115
S'med'
p116
aS'med'
p117
ag48
ag5
aS'med'
p118
aS'high'
p119
aS'unacc'
p120
aa(lp121
S'med'
p122
aS'med'
p123
ag48
ag5
aS'big'
p124
aS'low'
p125
aS'unacc'
p126
aa(lp127
S'med'
p128
aS'med'
p129
ag48
ag5
aS'big'
p130
aS'med'
p131
aS'unacc'
p132
aa(lp133
S'med'
p134
aS'med'
p135
ag48
ag5
aS'big'
p136
aS'high'
p137
aS'unacc'
p138
aa(lp139
S'med'
p140
aS'med'
p141
ag48
ag48
aS'small'
p142
aS'low'
p143
aS'unacc'
p144
aa(lp145
S'med'
p146
aS'med'
p147
ag48
ag48
aS'small'
p148
aS'high'
p149
aS'acc'
p150
aa(lp151
S'med'
p152
aS'med'
p153
ag48
ag48
aS'med'
p154
aS'low'
p155
aS'unacc'
p156
aa(lp157
S'med'
p158
aS'med'
p159
ag48
ag48
aS'med'
p160
aS'med'
p161
aS'acc'
p162
aa(lp163
S'med'
p164
aS'med'
p165
ag48
ag48
aS'big'
p166
aS'low'
p167
aS'unacc'
p168
aa(lp169
S'med'
p170
aS'med'
p171
ag48
ag48
aS'big'
p172
aS'med'
p173
aS'acc'
p174
aa(lp175
S'med'
p176
aS'med'
p177
ag48
aS'more'
p178
aS'small'
p179
aS'low'
p180
aS'unacc'
p181
aa(lp182
S'med'
p183
aS'med'
p184
ag48
aS'more'
p185
aS'small'
p186
aS'med'
p187
aS'acc'
p188
aa(lp189
S'med'
p190
aS'med'
p191
ag48
aS'more'
p192
aS'small'
p193
aS'high'
p194
aS'acc'
p195
aa(lp196
S'med'
p197
aS'med'
p198
ag48
aS'more'
p199
aS'med'
p200
aS'low'
p201
aS'unacc'
p202
aa(lp203
S'med'
p204
aS'med'
p205
ag48
aS'more'
p206
aS'med'
p207
aS'med'
p208
aS'acc'
p209
aa(lp210
S'med'
p211
aS'med'
p212
ag48
aS'more'
p213
aS'big'
p214
aS'low'
p215
aS'unacc'
p216
aa(lp217
S'med'
p218
aS'med'
p219
ag48
aS'more'
p220
aS'big'
p221
aS'med'
p222
aS'acc'
p223
aa(lp224
S'med'
p225
aS'med'
p226
aS'5more'
p227
ag5
aS'small'
p228
aS'low'
p229
aS'unacc'
p230
aa(lp231
S'med'
p232
aS'med'
p233
aS'5more'
p234
ag5
aS'small'
p235
aS'med'
p236
aS'unacc'
p237
aa(lp238
S'med'
p239
aS'med'
p240
aS'5more'
p241
ag5
aS'small'
p242
aS'high'
p243
aS'unacc'
p244
aa(lp245
S'med'
p246
aS'med'
p247
aS'5more'
p248
ag5
aS'med'
p249
aS'low'
p250
aS'unacc'
p251
aa(lp252
S'med'
p253
aS'med'
p254
aS'5more'
p255
ag5
aS'med'
p256
aS'med'
p257
aS'unacc'
p258
aa(lp259
S'med'
p260
aS'med'
p261
aS'5more'
p262
ag5
aS'med'
p263
aS'high'
p264
aS'unacc'
p265
aa(lp266
S'med'
p267
aS'med'
p268
aS'5more'
p269
ag5
aS'big'
p270
aS'low'
p271
aS'unacc'
p272
aa(lp273
S'med'
p274
aS'med'
p275
aS'5more'
p276
ag5
aS'big'
p277
aS'med'
p278
aS'unacc'
p279
aa(lp280
S'med'
p281
aS'med'
p282
aS'5more'
p283
ag5
aS'big'
p284
aS'high'
p285
aS'unacc'
p286
aa(lp287
S'med'
p288
aS'med'
p289
aS'5more'
p290
ag48
aS'small'
p291
aS'low'
p292
aS'unacc'
p293
aa(lp294
S'med'
p295
aS'med'
p296
aS'5more'
p297
ag48
aS'small'
p298
aS'med'
p299
aS'acc'
p300
aa(lp301
S'med'
p302
aS'med'
p303
aS'5more'
p304
ag48
aS'small'
p305
aS'high'
p306
aS'acc'
p307
aa(lp308
S'med'
p309
aS'med'
p310
aS'5more'
p311
ag48
aS'med'
p312
aS'low'
p313
aS'unacc'
p314
aa(lp315
S'med'
p316
aS'med'
p317
aS'5more'
p318
ag48
aS'med'
p319
aS'med'
p320
aS'acc'
p321
aa(lp322
S'med'
p323
aS'med'
p324
aS'5more'
p325
ag48
aS'big'
p326
aS'low'
p327
aS'unacc'
p328
aa(lp329
S'med'
p330
aS'med'
p331
aS'5more'
p332
ag48
aS'big'
p333
aS'med'
p334
aS'acc'
p335
aa(lp336
S'med'
p337
aS'med'
p338
aS'5more'
p339
aS'more'
p340
aS'small'
p341
aS'low'
p342
aS'unacc'
p343
aa(lp344
S'med'
p345
aS'med'
p346
aS'5more'
p347
aS'more'
p348
aS'small'
p349
aS'med'
p350
aS'acc'
p351
aa(lp352
S'med'
p353
aS'med'
p354
aS'5more'
p355
aS'more'
p356
aS'small'
p357
aS'high'
p358
aS'acc'
p359
aa(lp360
S'med'
p361
aS'med'
p362
aS'5more'
p363
aS'more'
p364
aS'med'
p365
aS'low'
p366
aS'unacc'
p367
aa(lp368
S'med'
p369
aS'med'
p370
aS'5more'
p371
aS'more'
p372
aS'med'
p373
aS'med'
p374
aS'acc'
p375
aa(lp376
S'med'
p377
aS'med'
p378
aS'5more'
p379
aS'more'
p380
aS'big'
p381
aS'low'
p382
aS'unacc'
p383
aa(lp384
S'med'
p385
aS'med'
p386
aS'5more'
p387
aS'more'
p388
aS'big'
p389
aS'med'
p390
aS'acc'
p391
aa(lp392
S'med'
p393
aS'low'
p394
ag5
ag5
aS'small'
p395
aS'low'
p396
aS'unacc'
p397
aa(lp398
S'med'
p399
aS'low'
p400
ag5
ag5
aS'small'
p401
aS'med'
p402
aS'unacc'
p403
aa(lp404
S'med'
p405
aS'low'
p406
ag5
ag5
aS'small'
p407
aS'high'
p408
aS'unacc'
p409
aa(lp410
S'med'
p411
aS'low'
p412
ag5
ag5
aS'med'
p413
aS'low'
p414
aS'unacc'
p415
aa(lp416
S'med'
p417
aS'low'
p418
ag5
ag5
aS'med'
p419
aS'med'
p420
aS'unacc'
p421
aa(lp422
S'med'
p423
aS'low'
p424
ag5
ag5
aS'med'
p425
aS'high'
p426
aS'unacc'
p427
aa(lp428
S'med'
p429
aS'low'
p430
ag5
ag5
aS'big'
p431
aS'low'
p432
aS'unacc'
p433
aa(lp434
S'med'
p435
aS'low'
p436
ag5
ag5
aS'big'
p437
aS'med'
p438
aS'unacc'
p439
aa(lp440
S'med'
p441
aS'low'
p442
ag5
ag5
aS'big'
p443
aS'high'
p444
aS'unacc'
p445
aa(lp446
S'med'
p447
aS'low'
p448
ag5
ag48
aS'small'
p449
aS'low'
p450
aS'unacc'
p451
aa(lp452
S'med'
p453
aS'low'
p454
ag5
ag48
aS'small'
p455
aS'med'
p456
aS'acc'
p457
aa(lp458
S'med'
p459
aS'low'
p460
ag5
ag48
aS'med'
p461
aS'low'
p462
aS'unacc'
p463
aa(lp464
S'med'
p465
aS'low'
p466
ag5
ag48
aS'med'
p467
aS'med'
p468
aS'acc'
p469
aa(lp470
S'med'
p471
aS'low'
p472
ag5
ag48
aS'big'
p473
aS'low'
p474
aS'unacc'
p475
aa(lp476
S'med'
p477
aS'low'
p478
ag5
aS'more'
p479
aS'small'
p480
aS'low'
p481
aS'unacc'
p482
aa(lp483
S'med'
p484
aS'low'
p485
ag5
aS'more'
p486
aS'small'
p487
aS'med'
p488
aS'unacc'
p489
aa(lp490
S'med'
p491
aS'low'
p492
ag5
aS'more'
p493
aS'small'
p494
aS'high'
p495
aS'unacc'
p496
aa(lp497
S'med'
p498
aS'low'
p499
ag5
aS'more'
p500
aS'med'
p501
aS'low'
p502
aS'unacc'
p503
aa(lp504
S'med'
p505
aS'low'
p506
ag5
aS'more'
p507
aS'med'
p508
aS'med'
p509
aS'acc'
p510
aa(lp511
S'med'
p512
aS'low'
p513
ag5
aS'more'
p514
aS'big'
p515
aS'low'
p516
aS'unacc'
p517
aa(lp518
S'med'
p519
aS'low'
p520
ag4
ag5
aS'small'
p521
aS'low'
p522
aS'unacc'
p523
aa(lp524
S'med'
p525
aS'low'
p526
ag4
ag5
aS'small'
p527
aS'med'
p528
aS'unacc'
p529
aa(lp530
S'med'
p531
aS'low'
p532
ag4
ag5
aS'small'
p533
aS'high'
p534
aS'unacc'
p535
aa(lp536
S'med'
p537
aS'low'
p538
ag4
ag5
aS'med'
p539
aS'low'
p540
aS'unacc'
p541
aa(lp542
S'med'
p543
aS'low'
p544
ag4
ag5
aS'med'
p545
aS'med'
p546
aS'unacc'
p547
aa(lp548
S'med'
p549
aS'low'
p550
ag4
ag5
aS'med'
p551
aS'high'
p552
aS'unacc'
p553
aa(lp554
S'med'
p555
aS'low'
p556
ag4
ag5
aS'big'
p557
aS'low'
p558
aS'unacc'
p559
aa(lp560
S'med'
p561
aS'low'
p562
ag4
ag5
aS'big'
p563
aS'med'
p564
aS'unacc'
p565
aa(lp566
S'med'
p567
aS'low'
p568
ag4
ag5
aS'big'
p569
aS'high'
p570
aS'unacc'
p571
aa(lp572
S'med'
p573
aS'low'
p574
ag4
ag48
aS'small'
p575
aS'low'
p576
aS'unacc'
p577
aa(lp578
S'med'
p579
aS'low'
p580
ag4
ag48
aS'small'
p581
aS'med'
p582
aS'acc'
p583
aa(lp584
S'med'
p585
aS'low'
p586
ag4
ag48
aS'med'
p587
aS'low'
p588
aS'unacc'
p589
aa(lp590
S'med'
p591
aS'low'
p592
ag4
ag48
aS'med'
p593
aS'med'
p594
aS'acc'
p595
aa(lp596
S'med'
p597
aS'low'
p598
ag4
ag48
aS'big'
p599
aS'low'
p600
aS'unacc'
p601
aa(lp602
S'med'
p603
aS'low'
p604
ag4
aS'more'
p605
aS'small'
p606
aS'low'
p607
aS'unacc'
p608
aa(lp609
S'med'
p610
aS'low'
p611
ag4
aS'more'
p612
aS'small'
p613
aS'med'
p614
aS'acc'
p615
aa(lp616
S'med'
p617
aS'low'
p618
ag4
aS'more'
p619
aS'med'
p620
aS'low'
p621
aS'unacc'
p622
aa(lp623
S'med'
p624
aS'low'
p625
ag4
aS'more'
p626
aS'big'
p627
aS'low'
p628
aS'unacc'
p629
aa(lp630
S'med'
p631
aS'low'
p632
ag48
ag5
aS'small'
p633
aS'low'
p634
aS'unacc'
p635
aa(lp636
S'med'
p637
aS'low'
p638
ag48
ag5
aS'small'
p639
aS'med'
p640
aS'unacc'
p641
aa(lp642
S'med'
p643
aS'low'
p644
ag48
ag5
aS'small'
p645
aS'high'
p646
aS'unacc'
p647
aa(lp648
S'med'
p649
aS'low'
p650
ag48
ag5
aS'med'
p651
aS'low'
p652
aS'unacc'
p653
aa(lp654
S'med'
p655
aS'low'
p656
ag48
ag5
aS'med'
p657
aS'med'
p658
aS'unacc'
p659
aa(lp660
S'med'
p661
aS'low'
p662
ag48
ag5
aS'med'
p663
aS'high'
p664
aS'unacc'
p665
aa(lp666
S'med'
p667
aS'low'
p668
ag48
ag5
aS'big'
p669
aS'low'
p670
aS'unacc'
p671
aa(lp672
S'med'
p673
aS'low'
p674
ag48
ag5
aS'big'
p675
aS'med'
p676
aS'unacc'
p677
aa(lp678
S'med'
p679
aS'low'
p680
ag48
ag5
aS'big'
p681
aS'high'
p682
aS'unacc'
p683
aa(lp684
S'med'
p685
aS'low'
p686
ag48
ag48
aS'small'
p687
aS'low'
p688
aS'unacc'
p689
aa(lp690
S'med'
p691
aS'low'
p692
ag48
ag48
aS'small'
p693
aS'med'
p694
aS'acc'
p695
aa(lp696
S'med'
p697
aS'low'
p698
ag48
ag48
aS'med'
p699
aS'low'
p700
aS'unacc'
p701
aa(lp702
S'med'
p703
aS'low'
p704
ag48
ag48
aS'big'
p705
aS'low'
p706
aS'unacc'
p707
aa(lp708
S'med'
p709
aS'low'
p710
ag48
aS'more'
p711
aS'small'
p712
aS'low'
p713
aS'unacc'
p714
aa(lp715
S'med'
p716
aS'low'
p717
ag48
aS'more'
p718
aS'small'
p719
aS'med'
p720
aS'acc'
p721
aa(lp722
S'med'
p723
aS'low'
p724
ag48
aS'more'
p725
aS'med'
p726
aS'low'
p727
aS'unacc'
p728
aa(lp729
S'med'
p730
aS'low'
p731
ag48
aS'more'
p732
aS'big'
p733
aS'low'
p734
aS'unacc'
p735
aa(lp736
S'med'
p737
aS'low'
p738
aS'5more'
p739
ag5
aS'small'
p740
aS'low'
p741
aS'unacc'
p742
aa(lp743
S'med'
p744
aS'low'
p745
aS'5more'
p746
ag5
aS'small'
p747
aS'med'
p748
aS'unacc'
p749
aa(lp750
S'med'
p751
aS'low'
p752
aS'5more'
p753
ag5
aS'small'
p754
aS'high'
p755
aS'unacc'
p756
aa(lp757
S'med'
p758
aS'low'
p759
aS'5more'
p760
ag5
aS'med'
p761
aS'low'
p762
aS'unacc'
p763
aa(lp764
S'med'
p765
aS'low'
p766
aS'5more'
p767
ag5
aS'med'
p768
aS'med'
p769
aS'unacc'
p770
aa(lp771
S'med'
p772
aS'low'
p773
aS'5more'
p774
ag5
aS'med'
p775
aS'high'
p776
aS'unacc'
p777
aa(lp778
S'med'
p779
aS'low'
p780
aS'5more'
p781
ag5
aS'big'
p782
aS'low'
p783
aS'unacc'
p784
aa(lp785
S'med'
p786
aS'low'
p787
aS'5more'
p788
ag5
aS'big'
p789
aS'med'
p790
aS'unacc'
p791
aa(lp792
S'med'
p793
aS'low'
p794
aS'5more'
p795
ag5
aS'big'
p796
aS'high'
p797
aS'unacc'
p798
aa(lp799
S'med'
p800
aS'low'
p801
aS'5more'
p802
ag48
aS'small'
p803
aS'low'
p804
aS'unacc'
p805
aa(lp806
S'med'
p807
aS'low'
p808
aS'5more'
p809
ag48
aS'small'
p810
aS'med'
p811
aS'acc'
p812
aa(lp813
S'med'
p814
aS'low'
p815
aS'5more'
p816
ag48
aS'med'
p817
aS'low'
p818
aS'unacc'
p819
aa(lp820
S'med'
p821
aS'low'
p822
aS'5more'
p823
ag48
aS'big'
p824
aS'low'
p825
aS'unacc'
p826
aa(lp827
S'med'
p828
aS'low'
p829
aS'5more'
p830
aS'more'
p831
aS'small'
p832
aS'low'
p833
aS'unacc'
p834
aa(lp835
S'med'
p836
aS'low'
p837
aS'5more'
p838
aS'more'
p839
aS'small'
p840
aS'med'
p841
aS'acc'
p842
aa(lp843
S'med'
p844
aS'low'
p845
aS'5more'
p846
aS'more'
p847
aS'med'
p848
aS'low'
p849
aS'unacc'
p850
aa(lp851
S'med'
p852
aS'low'
p853
aS'5more'
p854
aS'more'
p855
aS'big'
p856
aS'low'
p857
aS'unacc'
p858
aa(lp859
S'low'
p860
aS'vhigh'
p861
ag5
ag5
aS'small'
p862
aS'low'
p863
aS'unacc'
p864
aa(lp865
S'low'
p866
aS'vhigh'
p867
ag5
ag5
aS'small'
p868
aS'med'
p869
aS'unacc'
p870
aa(lp871
S'low'
p872
aS'vhigh'
p873
ag5
ag5
aS'small'
p874
aS'high'
p875
aS'unacc'
p876
aa(lp877
S'low'
p878
aS'vhigh'
p879
ag5
ag5
aS'med'
p880
aS'low'
p881
aS'unacc'
p882
aa(lp883
S'low'
p884
aS'vhigh'
p885
ag5
ag5
aS'med'
p886
aS'med'
p887
aS'unacc'
p888
aa(lp889
S'low'
p890
aS'vhigh'
p891
ag5
ag5
aS'med'
p892
aS'high'
p893
aS'unacc'
p894
aa(lp895
S'low'
p896
aS'vhigh'
p897
ag5
ag5
aS'big'
p898
aS'low'
p899
aS'unacc'
p900
aa(lp901
S'low'
p902
aS'vhigh'
p903
ag5
ag5
aS'big'
p904
aS'med'
p905
aS'unacc'
p906
aa(lp907
S'low'
p908
aS'vhigh'
p909
ag5
ag5
aS'big'
p910
aS'high'
p911
aS'unacc'
p912
aa(lp913
S'low'
p914
aS'vhigh'
p915
ag5
ag48
aS'small'
p916
aS'low'
p917
aS'unacc'
p918
aa(lp919
S'low'
p920
aS'vhigh'
p921
ag5
ag48
aS'small'
p922
aS'med'
p923
aS'unacc'
p924
aa(lp925
S'low'
p926
aS'vhigh'
p927
ag5
ag48
aS'small'
p928
aS'high'
p929
aS'acc'
p930
aa(lp931
S'low'
p932
aS'vhigh'
p933
ag5
ag48
aS'med'
p934
aS'low'
p935
aS'unacc'
p936
aa(lp937
S'low'
p938
aS'vhigh'
p939
ag5
ag48
aS'med'
p940
aS'med'
p941
aS'unacc'
p942
aa(lp943
S'low'
p944
aS'vhigh'
p945
ag5
ag48
aS'med'
p946
aS'high'
p947
aS'acc'
p948
aa(lp949
S'low'
p950
aS'vhigh'
p951
ag5
ag48
aS'big'
p952
aS'low'
p953
aS'unacc'
p954
aa(lp955
S'low'
p956
aS'vhigh'
p957
ag5
ag48
aS'big'
p958
aS'med'
p959
aS'acc'
p960
aa(lp961
S'low'
p962
aS'vhigh'
p963
ag5
ag48
aS'big'
p964
aS'high'
p965
aS'acc'
p966
aa(lp967
S'low'
p968
aS'vhigh'
p969
ag5
aS'more'
p970
aS'small'
p971
aS'low'
p972
aS'unacc'
p973
aa(lp974
S'low'
p975
aS'vhigh'
p976
ag5
aS'more'
p977
aS'small'
p978
aS'med'
p979
aS'unacc'
p980
aa(lp981
S'low'
p982
aS'vhigh'
p983
ag5
aS'more'
p984
aS'med'
p985
aS'high'
p986
aS'acc'
p987
aa(lp988
S'low'
p989
aS'vhigh'
p990
ag5
aS'more'
p991
aS'big'
p992
aS'med'
p993
aS'acc'
p994
aa(lp995
S'low'
p996
aS'vhigh'
p997
ag5
aS'more'
p998
aS'big'
p999
aS'high'
p1000
aS'acc'
p1001
aa(lp1002
S'low'
p1003
aS'vhigh'
p1004
ag4
ag48
aS'small'
p1005
aS'high'
p1006
aS'acc'
p1007
aa(lp1008
S'low'
p1009
aS'vhigh'
p1010
ag4
ag48
aS'med'
p1011
aS'high'
p1012
aS'acc'
p1013
aa(lp1014
S'low'
p1015
aS'vhigh'
p1016
ag4
ag48
aS'big'
p1017
aS'med'
p1018
aS'acc'
p1019
aa(lp1020
S'low'
p1021
aS'vhigh'
p1022
ag4
ag48
aS'big'
p1023
aS'high'
p1024
aS'acc'
p1025
aa(lp1026
S'low'
p1027
aS'vhigh'
p1028
ag4
aS'more'
p1029
aS'small'
p1030
aS'high'
p1031
aS'acc'
p1032
aa(lp1033
S'low'
p1034
aS'vhigh'
p1035
ag4
aS'more'
p1036
aS'med'
p1037
aS'med'
p1038
aS'acc'
p1039
aa(lp1040
S'low'
p1041
aS'med'
p1042
ag48
aS'more'
p1043
aS'big'
p1044
aS'high'
p1045
aS'vgood'
p1046
aa(lp1047
S'low'
p1048
aS'med'
p1049
aS'5more'
p1050
ag48
aS'med'
p1051
aS'high'
p1052
aS'vgood'
p1053
aa(lp1054
S'low'
p1055
aS'med'
p1056
aS'5more'
p1057
ag48
aS'big'
p1058
aS'high'
p1059
aS'vgood'
p1060
aa(lp1061
S'low'
p1062
aS'med'
p1063
aS'5more'
p1064
aS'more'
p1065
aS'med'
p1066
aS'high'
p1067
aS'vgood'
p1068
aa(lp1069
S'low'
p1070
aS'med'
p1071
aS'5more'
p1072
aS'more'
p1073
aS'big'
p1074
aS'high'
p1075
aS'vgood'
p1076
aa(lp1077
S'low'
p1078
aS'low'
p1079
ag5
ag48
aS'big'
p1080
aS'high'
p1081
aS'vgood'
p1082
aa(lp1083
S'low'
p1084
aS'low'
p1085
ag5
aS'more'
p1086
aS'med'
p1087
aS'high'
p1088
aS'good'
p1089
aa(lp1090
S'low'
p1091
aS'low'
p1092
ag5
aS'more'
p1093
aS'big'
p1094
aS'med'
p1095
aS'good'
p1096
aa(lp1097
S'low'
p1098
aS'low'
p1099
ag4
ag48
aS'small'
p1100
aS'high'
p1101
aS'good'
p1102
aa(lp1103
S'low'
p1104
aS'low'
p1105
ag4
ag48
aS'med'
p1106
aS'high'
p1107
aS'good'
p1108
aa(lp1109
S'low'
p1110
aS'low'
p1111
ag4
ag48
aS'big'
p1112
aS'med'
p1113
aS'good'
p1114
aa(lp1115
S'low'
p1116
aS'low'
p1117
ag4
aS'more'
p1118
aS'small'
p1119
aS'high'
p1120
aS'good'
p1121
aa(lp1122
S'low'
p1123
aS'low'
p1124
ag4
aS'more'
p1125
aS'med'
p1126
aS'med'
p1127
aS'good'
p1128
aa.