(lp0
(lp1
S'med'
p2
aS'vhigh'
p3
aS'4'
p4
aS'2'
p5
aS'med'
p6
aS'med'
p7
aS'unacc'
p8
aa(lp9
S'med'
p10
aS'vhigh'
p11
ag4
ag5
aS'med'
p12
aS'high'
p13
aS'unacc'
p14
aa(lp15
S'med'
p16
aS'vhigh'
p17
ag4
ag5
aS'big'
p18
aS'low'
p19
aS'unacc'
p20
aa(lp21
S'med'
p22
aS'vhigh'
p23
ag4
ag5
aS'big'
p24
aS'med'
p25
aS'unacc'
p26
aa(lp27
S'med'
p28
aS'vhigh'
p29
ag4
ag5
aS'big'
p30
aS'high'
p31
aS'unacc'
p32
aa(lp33
S'med'
p34
aS'vhigh'
p35
ag4
ag4
aS'small'
p36
aS'low'
p37
aS'unacc'
p38
aa(lp39
S'med'
p40
aS'vhigh'
p41
ag4
ag4
aS'small'
p42
aS'med'
p43
aS'unacc'
p44
aa(lp45
S'med'
p46
aS'vhigh'
p47
ag4
ag4
aS'med'
p48
aS'low'
p49
aS'unacc'
p50
aa(lp51
S'med'
p52
aS'vhigh'
p53
ag4
ag4
aS'big'
p54
aS'low'
p55
aS'unacc'
p56
aa(lp57
S'med'
p58
aS'vhigh'
p59
ag4
aS'more'
p60
aS'small'
p61
aS'low'
p62
aS'unacc'
p63
aa(lp64
S'med'
p65
aS'vhigh'
p66
ag4
aS'more'
p67
aS'small'
p68
aS'med'
p69
aS'unacc'
p70
aa(lp71
S'med'
p72
aS'vhigh'
p73
ag4
aS'more'
p74
aS'med'
p75
aS'low'
p76
aS'unacc'
p77
aa(lp78
S'med'
p79
aS'vhigh'
p80
ag4
aS'more'
p81
aS'big'
p82
aS'low'
p83
aS'unacc'
p84
aa(lp85
S'med'
p86
aS'vhigh'
p87
aS'5more'
p88
ag5
aS'small'
p89
aS'low'
p90
aS'unacc'
p91
aa(lp92
S'med'
p93
aS'vhigh'
p94
aS'5more'
p95
ag5
aS'small'
p96
aS'med'
p97
aS'unacc'
p98
aa(lp99
S'med'
p100
aS'vhigh'
p101
aS'5more'
p102
ag5
aS'small'
p103
aS'high'
p104
aS'unacc'
p105
aa(lp106
S'med'
p107
aS'vhigh'
p108
aS'5more'
p109
ag5
aS'med'
p110
aS'low'
p111
aS'unacc'
p112
aa(lp113
S'med'
p114
aS'vhigh'
p115
aS'5more'
p116
ag5
aS'med'
p117
aS'med'
p118
aS'unacc'
p119
aa(lp120
S'med'
p121
aS'vhigh'
p122
aS'5more'
p123
ag5
aS'med'
p124
aS'high'
p125
aS'unacc'
p126
aa(lp127
S'med'
p128
aS'vhigh'
p129
aS'5more'
p130
ag5
aS'big'
p131
aS'low'
p132
aS'unacc'
p133
aa(lp134
S'med'
p135
aS'vhigh'
p136
aS'5more'
p137
ag5
aS'big'
p138
aS'med'
p139
aS'unacc'
p140
aa(lp141
S'med'
p142
aS'vhigh'
p143
aS'5more'
p144
ag5
aS'big'
p145
aS'high'
p146
aS'unacc'
p147
aa(lp148
S'med'
p149
aS'vhigh'
p150
aS'5more'
p151
ag4
aS'small'
p152
aS'low'
p153
aS'unacc'
p154
aa(lp155
S'med'
p156
aS'vhigh'
p157
aS'5more'
p158
ag4
aS'small'
p159
aS'med'
p160
aS'unacc'
p161
aa(lp162
S'med'
p163
aS'vhigh'
p164
aS'5more'
p165
ag4
aS'med'
p166
aS'low'
p167
aS'unacc'
p168
aa(lp169
S'med'
p170
aS'vhigh'
p171
aS'5more'
p172
ag4
aS'big'
p173
aS'low'
p174
aS'unacc'
p175
aa(lp176
S'med'
p177
aS'vhigh'
p178
aS'5more'
p179
aS'more'
p180
aS'small'
p181
aS'low'
p182
aS'unacc'
p183
aa(lp184
S'med'
p185
aS'vhigh'
p186
aS'5more'
p187
aS'more'
p188
aS'small'
p189
aS'med'
p190
aS'unacc'
p191
aa(lp192
S'med'
p193
aS'vhigh'
p194
aS'5more'
p195
aS'more'
p196
aS'med'
p197
aS'low'
p198
aS'unacc'
p199
aa(lp200
S'med'
p201
aS'vhigh'
p202
aS'5more'
p203
aS'more'
p204
aS'big'
p205
aS'low'
p206
aS'unacc'
p207
aa(lp208
S'med'
p209
aS'high'
p210
ag5
ag5
aS'small'
p211
aS'low'
p212
aS'unacc'
p213
aa(lp214
S'med'
p215
aS'high'
p216
ag5
ag5
aS'small'
p217
aS'med'
p218
aS'unacc'
p219
aa(lp220
S'med'
p221
aS'high'
p222
ag5
ag5
aS'small'
p223
aS'high'
p224
aS'unacc'
p225
aa(lp226
S'med'
p227
aS'high'
p228
ag5
ag5
aS'med'
p229
aS'low'
p230
aS'unacc'
p231
aa(lp232
S'med'
p233
aS'high'
p234
ag5
ag5
aS'med'
p235
aS'med'
p236
aS'unacc'
p237
aa(lp238
S'med'
p239
aS'high'
p240
ag5
ag5
aS'med'
p241
aS'high'
p242
aS'unacc'
p243
aa(lp244
S'med'
p245
aS'high'
p246
ag5
ag5
aS'big'
p247
aS'low'
p248
aS'unacc'
p249
aa(lp250
S'med'
p251
aS'high'
p252
ag5
ag5
aS'big'
p253
aS'med'
p254
aS'unacc'
p255
aa(lp256
S'med'
p257
aS'high'
p258
ag5
ag5
aS'big'
p259
aS'high'
p260
aS'unacc'
p261
aa(lp262
S'med'
p263
aS'high'
p264
ag5
ag4
aS'small'
p265
aS'low'
p266
aS'unacc'
p267
aa(lp268
S'med'
p269
aS'high'
p270
ag5
ag4
aS'small'
p271
aS'med'
p272
aS'unacc'
p273
aa(lp274
S'med'
p275
aS'high'
p276
ag5
ag4
aS'med'
p277
aS'low'
p278
aS'unacc'
p279
aa(lp280
S'med'
p281
aS'high'
p282
ag5
ag4
aS'med'
p283
aS'med'
p284
aS'unacc'
p285
aa(lp286
S'med'
p287
aS'high'
p288
ag5
ag4
aS'big'
p289
aS'low'
p290
aS'unacc'
p291
aa(lp292
S'med'
p293
aS'high'
p294
ag5
aS'more'
p295
aS'small'
p296
aS'low'
p297
aS'unacc'
p298
aa(lp299
S'med'
p300
aS'high'
p301
ag5
aS'more'
p302
aS'small'
p303
aS'med'
p304
aS'unacc'
p305
aa(lp306
S'med'
p307
aS'high'
p308
ag5
aS'more'
p309
aS'small'
p310
aS'high'
p311
aS'unacc'
p312
aa(lp313
S'med'
p314
aS'high'
p315
ag5
aS'more'
p316
aS'med'
p317
aS'low'
p318
aS'unacc'
p319
aa(lp320
S'med'
p321
aS'high'
p322
ag5
aS'more'
p323
aS'med'
p324
aS'med'
p325
aS'unacc'
p326
aa(lp327
S'med'
p328
aS'high'
p329
ag5
aS'more'
p330
aS'big'
p331
aS'low'
p332
aS'unacc'
p333
aa(lp334
S'med'
p335
aS'high'
p336
aS'3'
p337
ag5
aS'small'
p338
aS'low'
p339
aS'unacc'
p340
aa(lp341
S'med'
p342
aS'high'
p343
ag337
ag5
aS'small'
p344
aS'med'
p345
aS'unacc'
p346
aa(lp347
S'med'
p348
aS'high'
p349
ag337
ag5
aS'small'
p350
aS'high'
p351
aS'unacc'
p352
aa(lp353
S'med'
p354
aS'high'
p355
ag337
ag5
aS'med'
p356
aS'low'
p357
aS'unacc'
p358
aa(lp359
S'med'
p360
aS'high'
p361
ag337
ag5
aS'med'
p362
aS'med'
p363
aS'unacc'
p364
aa(lp365
S'med'
p366
aS'high'
p367
ag337
ag5
aS'med'
p368
aS'high'
p369
aS'unacc'
p370
aa(lp371
S'med'
p372
aS'high'
p373
ag337
ag5
aS'big'
p374
aS'low'
p375
aS'unacc'
p376
aa(lp377
S'med'
p378
aS'high'
p379
ag337
ag5
aS'big'
p380
aS'med'
p381
aS'unacc'
p382
aa(lp383
S'med'
p384
aS'high'
p385
ag337
ag5
aS'big'
p386
aS'high'
p387
aS'unacc'
p388
aa(lp389
S'med'
p390
aS'high'
p391
ag337
ag4
aS'small'
p392
aS'low'
p393
aS'unacc'
p394
aa(lp395
S'med'
p396
aS'high'
p397
ag337
ag4
aS'small'
p398
aS'med'
p399
aS'unacc'
p400
aa(lp401
S'med'
p402
aS'high'
p403
ag337
ag4
aS'med'
p404
aS'low'
p405
aS'unacc'
p406
aa(lp407
S'med'
p408
aS'high'
p409
ag337
ag4
aS'med'
p410
aS'med'
p411
aS'unacc'
p412
aa(lp413
S'med'
p414
aS'high'
p415
ag337
ag4
aS'big'
p416
aS'low'
p417
aS'unacc'
p418
aa(lp419
S'med'
p420
aS'high'
p421
ag337
aS'more'
p422
aS'small'
p423
aS'low'
p424
aS'unacc'
p425
aa(lp426
S'med'
p427
aS'high'
p428
ag337
aS'more'
p429
aS'small'
p430
aS'med'
p431
aS'unacc'
p432
aa(lp433
S'med'
p434
aS'high'
p435
ag337
aS'more'
p436
aS'med'
p437
aS'low'
p438
aS'unacc'
p439
aa(lp440
S'med'
p441
aS'high'
p442
ag337
aS'more'
p443
aS'big'
p444
aS'low'
p445
aS'unacc'
p446
aa(lp447
S'med'
p448
aS'high'
p449
ag4
ag5
aS'small'
p450
aS'low'
p451
aS'unacc'
p452
aa(lp453
S'med'
p454
aS'high'
p455
ag4
ag5
aS'small'
p456
aS'med'
p457
aS'unacc'
p458
aa(lp459
S'med'
p460
aS'high'
p461
ag4
ag5
aS'small'
p462
aS'high'
p463
aS'unacc'
p464
aa(lp465
S'med'
p466
aS'high'
p467
ag4
ag5
aS'med'
p468
aS'low'
p469
aS'unacc'
p470
aa(lp471
S'med'
p472
aS'high'
p473
ag4
ag5
aS'med'
p474
aS'med'
p475
aS'unacc'
p476
aa(lp477
S'med'
p478
aS'high'
p479
ag4
ag5
aS'med'
p480
aS'high'
p481
aS'unacc'
p482
aa(lp483
S'med'
p484
aS'high'
p485
ag4
ag5
aS'big'
p486
aS'low'
p487
aS'unacc'
p488
aa(lp489
S'med'
p490
aS'high'
p491
ag4
ag5
aS'big'
p492
aS'med'
p493
aS'unacc'
p494
aa(lp495
S'med'
p496
aS'high'
p497
ag4
ag5
aS'big'
p498
aS'high'
p499
aS'unacc'
p500
aa(lp501
S'med'
p502
aS'high'
p503
ag4
ag4
aS'small'
p504
aS'low'
p505
aS'unacc'
p506
aa(lp507
S'med'
p508
aS'high'
p509
ag4
ag4
aS'small'
p510
aS'med'
p511
aS'unacc'
p512
aa(lp513
S'med'
p514
aS'high'
p515
ag4
ag4
aS'small'
p516
aS'high'
p517
aS'acc'
p518
aa(lp519
S'med'
p520
aS'high'
p521
ag4
ag4
aS'med'
p522
aS'low'
p523
aS'unacc'
p524
aa(lp525
S'med'
p526
aS'high'
p527
ag4
ag4
aS'med'
p528
aS'med'
p529
aS'acc'
p530
aa(lp531
S'med'
p532
aS'high'
p533
ag4
ag4
aS'med'
p534
aS'high'
p535
aS'acc'
p536
aa(lp537
S'med'
p538
aS'high'
p539
ag4
ag4
aS'big'
p540
aS'low'
p541
aS'unacc'
p542
aa(lp543
S'med'
p544
aS'high'
p545
ag4
ag4
aS'big'
p546
aS'med'
p547
aS'acc'
p548
aa(lp549
S'med'
p550
aS'high'
p551
ag4
ag4
aS'big'
p552
aS'high'
p553
aS'acc'
p554
aa(lp555
S'med'
p556
aS'high'
p557
ag4
aS'more'
p558
aS'small'
p559
aS'low'
p560
aS'unacc'
p561
aa(lp562
S'med'
p563
aS'high'
p564
ag4
aS'more'
p565
aS'small'
p566
aS'med'
p567
aS'unacc'
p568
aa(lp569
S'med'
p570
aS'high'
p571
ag4
aS'more'
p572
aS'small'
p573
aS'high'
p574
aS'acc'
p575
aa(lp576
S'med'
p577
aS'high'
p578
ag4
aS'more'
p579
aS'med'
p580
aS'low'
p581
aS'unacc'
p582
aa(lp583
S'med'
p584
aS'high'
p585
ag4
aS'more'
p586
aS'med'
p587
aS'med'
p588
aS'acc'
p589
aa(lp590
S'med'
p591
aS'high'
p592
ag4
aS'more'
p593
aS'med'
p594
aS'high'
p595
aS'acc'
p596
aa(lp597
S'med'
p598
aS'high'
p599
ag4
aS'more'
p600
aS'big'
p601
aS'low'
p602
aS'unacc'
p603
aa(lp604
S'med'
p605
aS'high'
p606
ag4
aS'more'
p607
aS'big'
p608
aS'med'
p609
aS'acc'
p610
aa(lp611
S'med'
p612
aS'high'
p613
ag4
aS'more'
p614
aS'big'
p615
aS'high'
p616
aS'acc'
p617
aa(lp618
S'med'
p619
aS'high'
p620
aS'5more'
p621
ag5
aS'small'
p622
aS'low'
p623
aS'unacc'
p624
aa(lp625
S'med'
p626
aS'high'
p627
aS'5more'
p628
ag5
aS'small'
p629
aS'med'
p630
aS'unacc'
p631
aa(lp632
S'med'
p633
aS'high'
p634
aS'5more'
p635
ag5
aS'small'
p636
aS'high'
p637
aS'unacc'
p638
aa(lp639
S'med'
p640
aS'high'
p641
aS'5more'
p642
ag5
aS'med'
p643
aS'low'
p644
aS'unacc'
p645
aa(lp646
S'med'
p647
aS'high'
p648
aS'5more'
p649
ag5
aS'med'
p650
aS'med'
p651
aS'unacc'
p652
aa(lp653
S'med'
p654
aS'high'
p655
aS'5more'
p656
ag5
aS'med'
p657
aS'high'
p658
aS'unacc'
p659
aa(lp660
S'med'
p661
aS'high'
p662
aS'5more'
p663
ag5
aS'big'
p664
aS'low'
p665
aS'unacc'
p666
aa(lp667
S'med'
p668
aS'high'
p669
aS'5more'
p670
ag5
aS'big'
p671
aS'med'
p672
aS'unacc'
p673
aa(lp674
S'med'
p675
aS'high'
p676
aS'5more'
p677
ag5
aS'big'
p678
aS'high'
p679
aS'unacc'
p680
aa(lp681
S'med'
p682
aS'high'
p683
aS'5more'
p684
ag4
aS'small'
p685
aS'low'
p686
aS'unacc'
p687
aa(lp688
S'med'
p689
aS'high'
p690
aS'5more'
p691
ag4
aS'small'
p692
aS'med'
p693
aS'unacc'
p694
aa(lp695
S'med'
p696
aS'high'
p697
aS'5more'
p698
ag4
aS'small'
p699
aS'high'
p700
aS'acc'
p701
aa(lp702
S'med'
p703
aS'high'
p704
aS'5more'
p705
ag4
aS'med'
p706
aS'low'
p707
aS'unacc'
p708
aa(lp709
S'med'
p710
aS'high'
p711
aS'5more'
p712
ag4
aS'med'
p713
aS'med'
p714
aS'acc'
p715
aa(lp716
S'med'
p717
aS'high'
p718
aS'5more'
p719
ag4
aS'med'
p720
aS'high'
p721
aS'acc'
p722
aa(lp723
S'med'
p724
aS'high'
p725
aS'5more'
p726
ag4
aS'big'
p727
aS'low'
p728
aS'unacc'
p729
aa(lp730
S'med'
p731
aS'high'
p732
aS'5more'
p733
ag4
aS'big'
p734
aS'med'
p735
aS'acc'
p736
aa(lp737
S'med'
p738
aS'high'
p739
aS'5more'
p740
ag4
aS'big'
p741
aS'high'
p742
aS'acc'
p743
aa(lp744
S'med'
p745
aS'high'
p746
aS'5more'
p747
aS'more'
p748
aS'small'
p749
aS'low'
p750
aS'unacc'
p751
aa(lp752
S'med'
p753
aS'high'
p754
aS'5more'
p755
aS'more'
p756
aS'small'
p757
aS'med'
p758
aS'unacc'
p759
aa(lp760
S'med'
p761
aS'high'
p762
aS'5more'
p763
aS'more'
p764
aS'small'
p765
aS'high'
p766
aS'acc'
p767
aa(lp768
S'med'
p769
aS'high'
p770
aS'5more'
p771
aS'more'
p772
aS'med'
p773
aS'low'
p774
aS'unacc'
p775
aa(lp776
S'med'
p777
aS'high'
p778
aS'5more'
p779
aS'more'
p780
aS'med'
p781
aS'med'
p782
aS'acc'
p783
aa(lp784
S'med'
p785
aS'high'
p786
aS'5more'
p787
aS'more'
p788
aS'med'
p789
aS'high'
p790
aS'acc'
p791
aa(lp792
S'med'
p793
aS'high'
p794
aS'5more'
p795
aS'more'
p796
aS'big'
p797
aS'low'
p798
aS'unacc'
p799
aa(lp800
S'med'
p801
aS'high'
p802
aS'5more'
p803
aS'more'
p804
aS'big'
p805
aS'med'
p806
aS'acc'
p807
aa(lp808
S'med'
p809
aS'high'
p810
aS'5more'
p811
aS'more'
p812
aS'big'
p813
aS'high'
p814
aS'acc'
p815
aa(lp816
S'med'
p817
aS'med'
p818
ag5
ag5
aS'small'
p819
aS'low'
p820
aS'unacc'
p821
aa(lp822
S'med'
p823
aS'med'
p824
ag5
ag5
aS'small'
p825
aS'med'
p826
aS'unacc'
p827
aa(lp828
S'med'
p829
aS'med'
p830
ag5
ag5
aS'small'
p831
aS'high'
p832
aS'unacc'
p833
aa(lp834
S'med'
p835
aS'med'
p836
ag5
ag5
aS'med'
p837
aS'low'
p838
aS'unacc'
p839
aa(lp840
S'med'
p841
aS'med'
p842
ag5
ag5
aS'med'
p843
aS'med'
p844
aS'unacc'
p845
aa(lp846
S'med'
p847
aS'med'
p848
ag5
ag5
aS'med'
p849
aS'high'
p850
aS'unacc'
p851
aa(lp852
S'med'
p853
aS'med'
p854
ag5
ag5
aS'big'
p855
aS'low'
p856
aS'unacc'
p857
aa(lp858
S'med'
p859
aS'med'
p860
ag5
ag5
aS'big'
p861
aS'med'
p862
aS'unacc'
p863
aa(lp864
S'med'
p865
aS'med'
p866
ag5
ag5
aS'big'
p867
aS'high'
p868
aS'unacc'
p869
aa(lp870
S'med'
p871
aS'med'
p872
ag5
ag4
aS'small'
p873
aS'low'
p874
aS'unacc'
p875
aa(lp876
S'med'
p877
aS'med'
p878
ag5
ag4
aS'small'
p879
aS'med'
p880
aS'acc'
p881
aa(lp882
S'med'
p883
aS'med'
p884
ag5
ag4
aS'small'
p885
aS'high'
p886
aS'acc'
p887
aa(lp888
S'med'
p889
aS'med'
p890
ag5
ag4
aS'med'
p891
aS'low'
p892
aS'unacc'
p893
aa(lp894
S'med'
p895
aS'med'
p896
ag5
ag4
aS'med'
p897
aS'med'
p898
aS'acc'
p899
aa(lp900
S'med'
p901
aS'med'
p902
ag5
ag4
aS'med'
p903
aS'high'
p904
aS'acc'
p905
aa(lp906
S'med'
p907
aS'med'
p908
ag5
ag4
aS'big'
p909
aS'low'
p910
aS'unacc'
p911
aa(lp912
S'med'
p913
aS'med'
p914
ag5
ag4
aS'big'
p915
aS'med'
p916
aS'acc'
p917
aa(lp918
S'med'
p919
aS'med'
p920
ag5
aS'more'
p921
aS'small'
p922
aS'low'
p923
aS'unacc'
p924
aa(lp925
S'med'
p926
aS'med'
p927
ag5
aS'more'
p928
aS'small'
p929
aS'med'
p930
aS'unacc'
p931
aa(lp932
S'med'
p933
aS'med'
p934
ag5
aS'more'
p935
aS'small'
p936
aS'high'
p937
aS'unacc'
p938
aa(lp939
S'med'
p940
aS'med'
p941
ag5
aS'more'
p942
aS'med'
p943
aS'low'
p944
aS'unacc'
p945
aa(lp946
S'med'
p947
aS'med'
p948
ag5
aS'more'
p949
aS'med'
p950
aS'med'
p951
aS'acc'
p952
aa(lp953
S'med'
p954
aS'med'
p955
ag5
aS'more'
p956
aS'med'
p957
aS'high'
p958
aS'acc'
p959
aa(lp960
S'med'
p961
aS'med'
p962
ag5
aS'more'
p963
aS'big'
p964
aS'low'
p965
aS'unacc'
p966
aa(lp967
S'med'
p968
aS'med'
p969
ag5
aS'more'
p970
aS'big'
p971
aS'med'
p972
aS'acc'
p973
aa(lp974
S'med'
p975
aS'med'
p976
ag337
ag5
aS'small'
p977
aS'low'
p978
aS'unacc'
p979
aa(lp980
S'med'
p981
aS'med'
p982
ag337
ag5
aS'small'
p983
aS'med'
p984
aS'unacc'
p985
aa(lp986
S'med'
p987
aS'med'
p988
ag337
ag4
aS'small'
p989
aS'med'
p990
aS'acc'
p991
aa(lp992
S'med'
p993
aS'med'
p994
ag337
ag4
aS'small'
p995
aS'high'
p996
aS'acc'
p997
aa(lp998
S'med'
p999
aS'med'
p1000
ag337
ag4
aS'med'
p1001
aS'med'
p1002
aS'acc'
p1003
aa(lp1004
S'med'
p1005
aS'med'
p1006
ag337
ag4
aS'med'
p1007
aS'high'
p1008
aS'acc'
p1009
aa(lp1010
S'med'
p1011
aS'med'
p1012
ag337
ag4
aS'big'
p1013
aS'med'
p1014
aS'acc'
p1015
aa(lp1016
S'med'
p1017
aS'med'
p1018
ag337
aS'more'
p1019
aS'small'
p1020
aS'med'
p1021
aS'acc'
p1022
aa(lp1023
S'med'
p1024
aS'med'
p1025
ag337
aS'more'
p1026
aS'small'
p1027
aS'high'
p1028
aS'acc'
p1029
aa(lp1030
S'med'
p1031
aS'med'
p1032
ag337
aS'more'
p1033
aS'med'
p1034
aS'med'
p1035
aS'acc'
p1036
aa(lp1037
S'med'
p1038
aS'med'
p1039
ag337
aS'more'
p1040
aS'big'
p1041
aS'med'
p1042
aS'acc'
p1043
aa(lp1044
S'med'
p1045
aS'med'
p1046
ag4
ag4
aS'small'
p1047
aS'med'
p1048
aS'acc'
p1049
aa(lp1050
S'low'
p1051
aS'med'
p1052
ag337
ag4
aS'big'
p1053
aS'high'
p1054
aS'vgood'
p1055
aa(lp1056
S'low'
p1057
aS'med'
p1058
ag337
aS'more'
p1059
aS'med'
p1060
aS'high'
p1061
aS'vgood'
p1062
aa(lp1063
S'low'
p1064
aS'med'
p1065
ag337
aS'more'
p1066
aS'big'
p1067
aS'high'
p1068
aS'vgood'
p1069
aa(lp1070
S'low'
p1071
aS'med'
p1072
ag4
ag4
aS'med'
p1073
aS'high'
p1074
aS'vgood'
p1075
aa(lp1076
S'low'
p1077
aS'med'
p1078
ag4
ag4
aS'big'
p1079
aS'high'
p1080
aS'vgood'
p1081
aa(lp1082
S'low'
p1083
aS'med'
p1084
ag4
aS'more'
p1085
aS'med'
p1086
aS'high'
p1087
aS'vgood'
p1088
aa(lp1089
S'low'
p1090
aS'med'
p1091
aS'5more'
p1092
ag4
aS'big'
p1093
aS'med'
p1094
aS'good'
p1095
aa(lp1096
S'low'
p1097
aS'med'
p1098
aS'5more'
p1099
aS'more'
p1100
aS'small'
p1101
aS'high'
p1102
aS'good'
p1103
aa(lp1104
S'low'
p1105
aS'med'
p1106
aS'5more'
p1107
aS'more'
p1108
aS'med'
p1109
aS'med'
p1110
aS'good'
p1111
aa(lp1112
S'low'
p1113
aS'med'
p1114
aS'5more'
p1115
aS'more'
p1116
aS'big'
p1117
aS'med'
p1118
aS'good'
p1119
aa(lp1120
S'low'
p1121
aS'low'
p1122
ag5
ag4
aS'small'
p1123
aS'high'
p1124
aS'good'
p1125
aa(lp1126
S'low'
p1127
aS'low'
p1128
ag5
ag4
aS'med'
p1129
aS'high'
p1130
aS'good'
p1131
aa(lp1132
S'low'
p1133
aS'low'
p1134
ag5
ag4
aS'big'
p1135
aS'med'
p1136
aS'good'
p1137
aa.