(lp0
(lp1
S'vhigh'
p2
aS'vhigh'
p3
aS'2'
p4
ag4
aS'small'
p5
aS'low'
p6
aS'unacc'
p7
aa(lp8
S'vhigh'
p9
aS'vhigh'
p10
ag4
ag4
aS'small'
p11
aS'med'
p12
aS'unacc'
p13
aa(lp14
S'vhigh'
p15
aS'vhigh'
p16
ag4
ag4
aS'small'
p17
aS'high'
p18
aS'unacc'
p19
aa(lp20
S'vhigh'
p21
aS'vhigh'
p22
ag4
ag4
aS'med'
p23
aS'low'
p24
aS'unacc'
p25
aa(lp26
S'vhigh'
p27
aS'vhigh'
p28
ag4
ag4
aS'med'
p29
aS'med'
p30
aS'unacc'
p31
aa(lp32
S'vhigh'
p33
aS'vhigh'
p34
ag4
ag4
aS'med'
p35
aS'high'
p36
aS'unacc'
p37
aa(lp38
S'vhigh'
p39
aS'vhigh'
p40
ag4
ag4
aS'big'
p41
aS'low'
p42
aS'unacc'
p43
aa(lp44
S'vhigh'
p45
aS'vhigh'
p46
ag4
ag4
aS'big'
p47
aS'med'
p48
aS'unacc'
p49
aa(lp50
S'vhigh'
p51
aS'vhigh'
p52
ag4
ag4
aS'big'
p53
aS'high'
p54
aS'unacc'
p55
aa(lp56
S'vhigh'
p57
aS'vhigh'
p58
ag4
aS'4'
p59
aS'small'
p60
aS'low'
p61
aS'unacc'
p62
aa(lp63
S'vhigh'
p64
aS'vhigh'
p65
ag4
ag59
aS'small'
p66
aS'med'
p67
aS'unacc'
p68
aa(lp69
S'vhigh'
p70
aS'vhigh'
p71
ag4
ag59
aS'small'
p72
aS'high'
p73
aS'unacc'
p74
aa(lp75
S'vhigh'
p76
aS'vhigh'
p77
ag4
ag59
aS'med'
p78
aS'low'
p79
aS'unacc'
p80
aa(lp81
S'vhigh'
p82
aS'vhigh'
p83
ag4
ag59
aS'med'
p84
aS'med'
p85
aS'unacc'
p86
aa(lp87
S'vhigh'
p88
aS'vhigh'
p89
ag4
ag59
aS'med'
p90
aS'high'
p91
aS'unacc'
p92
aa(lp93
S'vhigh'
p94
aS'vhigh'
p95
ag4
ag59
aS'big'
p96
aS'low'
p97
aS'unacc'
p98
aa(lp99
S'vhigh'
p100
aS'vhigh'
p101
ag4
ag59
aS'big'
p102
aS'med'
p103
aS'unacc'
p104
aa(lp105
S'vhigh'
p106
aS'vhigh'
p107
ag4
ag59
aS'big'
p108
aS'high'
p109
aS'unacc'
p110
aa(lp111
S'vhigh'
p112
aS'vhigh'
p113
ag4
aS'more'
p114
aS'small'
p115
aS'low'
p116
aS'unacc'
p117
aa(lp118
S'vhigh'
p119
aS'vhigh'
p120
ag4
aS'more'
p121
aS'small'
p122
aS'med'
p123
aS'unacc'
p124
aa(lp125
S'vhigh'
p126
aS'vhigh'
p127
ag4
aS'more'
p128
aS'small'
p129
aS'high'
p130
aS'unacc'
p131
aa(lp132
S'vhigh'
p133
aS'vhigh'
p134
ag4
aS'more'
p135
aS'med'
p136
aS'low'
p137
aS'unacc'
p138
aa(lp139
S'vhigh'
p140
aS'vhigh'
p141
ag4
aS'more'
p142
aS'med'
p143
aS'med'
p144
aS'unacc'
p145
aa(lp146
S'vhigh'
p147
aS'vhigh'
p148
ag4
aS'more'
p149
aS'med'
p150
aS'high'
p151
aS'unacc'
p152
aa(lp153
S'vhigh'
p154
aS'vhigh'
p155
ag4
aS'more'
p156
aS'big'
p157
aS'low'
p158
aS'unacc'
p159
aa(lp160
S'vhigh'
p161
aS'vhigh'
p162
ag4
aS'more'
p163
aS'big'
p164
aS'med'
p165
aS'unacc'
p166
aa(lp167
S'vhigh'
p168
aS'vhigh'
p169
ag4
aS'more'
p170
aS'big'
p171
aS'high'
p172
aS'unacc'
p173
aa(lp174
S'vhigh'
p175
aS'vhigh'
p176
aS'3'
p177
ag4
aS'small'
p178
aS'low'
p179
aS'unacc'
p180
aa(lp181
S'vhigh'
p182
aS'vhigh'
p183
ag177
ag4
aS'small'
p184
aS'med'
p185
aS'unacc'
p186
aa(lp187
S'vhigh'
p188
aS'vhigh'
p189
ag177
ag4
aS'small'
p190
aS'high'
p191
aS'unacc'
p192
aa(lp193
S'vhigh'
p194
aS'vhigh'
p195
ag177
ag4
aS'med'
p196
aS'low'
p197
aS'unacc'
p198
aa(lp199
S'vhigh'
p200
aS'vhigh'
p201
ag177
ag4
aS'med'
p202
aS'med'
p203
aS'unacc'
p204
aa(lp205
S'vhigh'
p206
aS'vhigh'
p207
ag177
ag4
aS'med'
p208
aS'high'
p209
aS'unacc'
p210
aa(lp211
S'vhigh'
p212
aS'vhigh'
p213
ag177
ag4
aS'big'
p214
aS'low'
p215
aS'unacc'
p216
aa(lp217
S'vhigh'
p218
aS'vhigh'
p219
ag177
ag4
aS'big'
p220
aS'med'
p221
aS'unacc'
p222
aa(lp223
S'vhigh'
p224
aS'vhigh'
p225
ag177
ag4
aS'big'
p226
aS'high'
p227
aS'unacc'
p228
aa(lp229
S'vhigh'
p230
aS'vhigh'
p231
ag177
ag59
aS'small'
p232
aS'low'
p233
aS'unacc'
p234
aa(lp235
S'vhigh'
p236
aS'vhigh'
p237
ag177
ag59
aS'small'
p238
aS'med'
p239
aS'unacc'
p240
aa(lp241
S'vhigh'
p242
aS'vhigh'
p243
ag177
ag59
aS'small'
p244
aS'high'
p245
aS'unacc'
p246
aa(lp247
S'vhigh'
p248
aS'vhigh'
p249
ag177
ag59
aS'med'
p250
aS'low'
p251
aS'unacc'
p252
aa(lp253
S'vhigh'
p254
aS'vhigh'
p255
ag177
ag59
aS'med'
p256
aS'med'
p257
aS'unacc'
p258
aa(lp259
S'vhigh'
p260
aS'vhigh'
p261
ag177
ag59
aS'med'
p262
aS'high'
p263
aS'unacc'
p264
aa(lp265
S'vhigh'
p266
aS'vhigh'
p267
ag177
ag59
aS'big'
p268
aS'low'
p269
aS'unacc'
p270
aa(lp271
S'vhigh'
p272
aS'vhigh'
p273
ag177
ag59
aS'big'
p274
aS'med'
p275
aS'unacc'
p276
aa(lp277
S'vhigh'
p278
aS'vhigh'
p279
ag177
ag59
aS'big'
p280
aS'high'
p281
aS'unacc'
p282
aa(lp283
S'vhigh'
p284
aS'vhigh'
p285
ag177
aS'more'
p286
aS'small'
p287
aS'low'
p288
aS'unacc'
p289
aa(lp290
S'vhigh'
p291
aS'vhigh'
p292
ag177
aS'more'
p293
aS'small'
p294
aS'med'
p295
aS'unacc'
p296
aa(lp297
S'vhigh'
p298
aS'vhigh'
p299
ag177
aS'more'
p300
aS'small'
p301
aS'high'
p302
aS'unacc'
p303
aa(lp304
S'vhigh'
p305
aS'vhigh'
p306
ag177
aS'more'
p307
aS'med'
p308
aS'low'
p309
aS'unacc'
p310
aa(lp311
S'vhigh'
p312
aS'vhigh'
p313
ag177
aS'more'
p314
aS'med'
p315
aS'med'
p316
aS'unacc'
p317
aa(lp318
S'vhigh'
p319
aS'vhigh'
p320
ag177
aS'more'
p321
aS'med'
p322
aS'high'
p323
aS'unacc'
p324
aa(lp325
S'vhigh'
p326
aS'vhigh'
p327
ag177
aS'more'
p328
aS'big'
p329
aS'low'
p330
aS'unacc'
p331
aa(lp332
S'vhigh'
p333
aS'vhigh'
p334
ag177
aS'more'
p335
aS'big'
p336
aS'med'
p337
aS'unacc'
p338
aa(lp339
S'vhigh'
p340
aS'vhigh'
p341
ag177
aS'more'
p342
aS'big'
p343
aS'high'
p344
aS'unacc'
p345
aa(lp346
S'vhigh'
p347
aS'vhigh'
p348
ag59
ag4
aS'small'
p349
aS'low'
p350
aS'unacc'
p351
aa(lp352
S'vhigh'
p353
aS'vhigh'
p354
ag59
ag4
aS'small'
p355
aS'med'
p356
aS'unacc'
p357
aa(lp358
S'vhigh'
p359
aS'vhigh'
p360
ag59
ag4
aS'small'
p361
aS'high'
p362
aS'unacc'
p363
aa(lp364
S'vhigh'
p365
aS'vhigh'
p366
ag59
ag4
aS'med'
p367
aS'low'
p368
aS'unacc'
p369
aa(lp370
S'vhigh'
p371
aS'vhigh'
p372
ag59
ag4
aS'med'
p373
aS'med'
p374
aS'unacc'
p375
aa(lp376
S'vhigh'
p377
aS'vhigh'
p378
ag59
ag4
aS'med'
p379
aS'high'
p380
aS'unacc'
p381
aa(lp382
S'vhigh'
p383
aS'vhigh'
p384
ag59
ag4
aS'big'
p385
aS'low'
p386
aS'unacc'
p387
aa(lp388
S'vhigh'
p389
aS'vhigh'
p390
ag59
ag4
aS'big'
p391
aS'med'
p392
aS'unacc'
p393
aa(lp394
S'vhigh'
p395
aS'vhigh'
p396
ag59
ag4
aS'big'
p397
aS'high'
p398
aS'unacc'
p399
aa(lp400
S'vhigh'
p401
aS'vhigh'
p402
ag59
ag59
aS'small'
p403
aS'low'
p404
aS'unacc'
p405
aa(lp406
S'vhigh'
p407
aS'vhigh'
p408
ag59
ag59
aS'small'
p409
aS'med'
p410
aS'unacc'
p411
aa(lp412
S'vhigh'
p413
aS'vhigh'
p414
ag59
ag59
aS'small'
p415
aS'high'
p416
aS'unacc'
p417
aa(lp418
S'vhigh'
p419
aS'vhigh'
p420
ag59
ag59
aS'med'
p421
aS'low'
p422
aS'unacc'
p423
aa(lp424
S'vhigh'
p425
aS'vhigh'
p426
ag59
ag59
aS'med'
p427
aS'med'
p428
aS'unacc'
p429
aa(lp430
S'vhigh'
p431
aS'vhigh'
p432
ag59
ag59
aS'med'
p433
aS'high'
p434
aS'unacc'
p435
aa(lp436
S'vhigh'
p437
aS'vhigh'
p438
ag59
ag59
aS'big'
p439
aS'low'
p440
aS'unacc'
p441
aa(lp442
S'vhigh'
p443
aS'vhigh'
p444
ag59
ag59
aS'big'
p445
aS'med'
p446
aS'unacc'
p447
aa(lp448
S'vhigh'
p449
aS'vhigh'
p450
ag59
ag59
aS'big'
p451
aS'high'
p452
aS'unacc'
p453
aa(lp454
S'vhigh'
p455
aS'vhigh'
p456
ag59
aS'more'
p457
aS'small'
p458
aS'low'
p459
aS'unacc'
p460
aa(lp461
S'vhigh'
p462
aS'vhigh'
p463
ag59
aS'more'
p464
aS'small'
p465
aS'med'
p466
aS'unacc'
p467
aa(lp468
S'vhigh'
p469
aS'vhigh'
p470
ag59
aS'more'
p471
aS'small'
p472
aS'high'
p473
aS'unacc'
p474
aa(lp475
S'vhigh'
p476
aS'vhigh'
p477
ag59
aS'more'
p478
aS'med'
p479
aS'low'
p480
aS'unacc'
p481
aa(lp482
S'vhigh'
p483
aS'vhigh'
p484
ag59
aS'more'
p485
aS'med'
p486
aS'med'
p487
aS'unacc'
p488
aa(lp489
S'vhigh'
p490
aS'vhigh'
p491
ag59
aS'more'
p492
aS'med'
p493
aS'high'
p494
aS'unacc'
p495
aa(lp496
S'vhigh'
p497
aS'vhigh'
p498
ag59
aS'more'
p499
aS'big'
p500
aS'low'
p501
aS'unacc'
p502
aa(lp503
S'vhigh'
p504
aS'vhigh'
p505
ag59
aS'more'
p506
aS'big'
p507
aS'med'
p508
aS'unacc'
p509
aa(lp510
S'vhigh'
p511
aS'vhigh'
p512
ag59
aS'more'
p513
aS'big'
p514
aS'high'
p515
aS'unacc'
p516
aa(lp517
S'vhigh'
p518
aS'vhigh'
p519
aS'5more'
p520
ag4
aS'small'
p521
aS'low'
p522
aS'unacc'
p523
aa(lp524
S'vhigh'
p525
aS'vhigh'
p526
aS'5more'
p527
ag4
aS'small'
p528
aS'med'
p529
aS'unacc'
p530
aa(lp531
S'vhigh'
p532
aS'vhigh'
p533
aS'5more'
p534
ag4
aS'small'
p535
aS'high'
p536
aS'unacc'
p537
aa(lp538
S'vhigh'
p539
aS'vhigh'
p540
aS'5more'
p541
ag4
aS'med'
p542
aS'low'
p543
aS'unacc'
p544
aa(lp545
S'vhigh'
p546
aS'vhigh'
p547
aS'5more'
p548
ag4
aS'med'
p549
aS'med'
p550
aS'unacc'
p551
aa(lp552
S'vhigh'
p553
aS'vhigh'
p554
aS'5more'
p555
ag4
aS'med'
p556
aS'high'
p557
aS'unacc'
p558
aa(lp559
S'vhigh'
p560
aS'vhigh'
p561
aS'5more'
p562
ag4
aS'big'
p563
aS'low'
p564
aS'unacc'
p565
aa(lp566
S'vhigh'
p567
aS'vhigh'
p568
aS'5more'
p569
ag4
aS'big'
p570
aS'med'
p571
aS'unacc'
p572
aa(lp573
S'vhigh'
p574
aS'vhigh'
p575
aS'5more'
p576
ag4
aS'big'
p577
aS'high'
p578
aS'unacc'
p579
aa(lp580
S'vhigh'
p581
aS'vhigh'
p582
aS'5more'
p583
ag59
aS'small'
p584
aS'low'
p585
aS'unacc'
p586
aa(lp587
S'vhigh'
p588
aS'vhigh'
p589
aS'5more'
p590
ag59
aS'small'
p591
aS'med'
p592
aS'unacc'
p593
aa(lp594
S'vhigh'
p595
aS'vhigh'
p596
aS'5more'
p597
ag59
aS'small'
p598
aS'high'
p599
aS'unacc'
p600
aa(lp601
S'vhigh'
p602
aS'vhigh'
p603
aS'5more'
p604
ag59
aS'med'
p605
aS'low'
p606
aS'unacc'
p607
aa(lp608
S'vhigh'
p609
aS'vhigh'
p610
aS'5more'
p611
ag59
aS'med'
p612
aS'med'
p613
aS'unacc'
p614
aa(lp615
S'vhigh'
p616
aS'vhigh'
p617
aS'5more'
p618
ag59
aS'med'
p619
aS'high'
p620
aS'unacc'
p621
aa(lp622
S'vhigh'
p623
aS'vhigh'
p624
aS'5more'
p625
ag59
aS'big'
p626
aS'low'
p627
aS'unacc'
p628
aa(lp629
S'vhigh'
p630
aS'vhigh'
p631
aS'5more'
p632
ag59
aS'big'
p633
aS'med'
p634
aS'unacc'
p635
aa(lp636
S'vhigh'
p637
aS'vhigh'
p638
aS'5more'
p639
ag59
aS'big'
p640
aS'high'
p641
aS'unacc'
p642
aa(lp643
S'vhigh'
p644
aS'vhigh'
p645
aS'5more'
p646
aS'more'
p647
aS'small'
p648
aS'low'
p649
aS'unacc'
p650
aa(lp651
S'vhigh'
p652
aS'vhigh'
p653
aS'5more'
p654
aS'more'
p655
aS'small'
p656
aS'med'
p657
aS'unacc'
p658
aa(lp659
S'vhigh'
p660
aS'vhigh'
p661
aS'5more'
p662
aS'more'
p663
aS'small'
p664
aS'high'
p665
aS'unacc'
p666
aa(lp667
S'vhigh'
p668
aS'vhigh'
p669
aS'5more'
p670
aS'more'
p671
aS'med'
p672
aS'low'
p673
aS'unacc'
p674
aa(lp675
S'vhigh'
p676
aS'vhigh'
p677
aS'5more'
p678
aS'more'
p679
aS'med'
p680
aS'med'
p681
aS'unacc'
p682
aa(lp683
S'vhigh'
p684
aS'vhigh'
p685
aS'5more'
p686
aS'more'
p687
aS'med'
p688
aS'high'
p689
aS'unacc'
p690
aa(lp691
S'vhigh'
p692
aS'vhigh'
p693
aS'5more'
p694
aS'more'
p695
aS'big'
p696
aS'low'
p697
aS'unacc'
p698
aa(lp699
S'vhigh'
p700
aS'vhigh'
p701
aS'5more'
p702
aS'more'
p703
aS'big'
p704
aS'med'
p705
aS'unacc'
p706
aa(lp707
S'vhigh'
p708
aS'vhigh'
p709
aS'5more'
p710
aS'more'
p711
aS'big'
p712
aS'high'
p713
aS'unacc'
p714
aa(lp715
S'vhigh'
p716
aS'high'
p717
ag4
ag4
aS'small'
p718
aS'low'
p719
aS'unacc'
p720
aa(lp721
S'vhigh'
p722
aS'high'
p723
ag4
ag4
aS'small'
p724
aS'med'
p725
aS'unacc'
p726
aa(lp727
S'vhigh'
p728
aS'high'
p729
ag4
ag4
aS'small'
p730
aS'high'
p731
aS'unacc'
p732
aa(lp733
S'vhigh'
p734
aS'high'
p735
ag4
ag4
aS'med'
p736
aS'low'
p737
aS'unacc'
p738
aa(lp739
S'vhigh'
p740
aS'high'
p741
ag4
ag4
aS'med'
p742
aS'med'
p743
aS'unacc'
p744
aa(lp745
S'vhigh'
p746
aS'high'
p747
ag4
ag4
aS'med'
p748
aS'high'
p749
aS'unacc'
p750
aa(lp751
S'vhigh'
p752
aS'high'
p753
ag4
ag4
aS'big'
p754
aS'low'
p755
aS'unacc'
p756
aa(lp757
S'vhigh'
p758
aS'high'
p759
ag4
ag4
aS'big'
p760
aS'med'
p761
aS'unacc'
p762
aa(lp763
S'vhigh'
p764
aS'high'
p765
ag4
ag4
aS'big'
p766
aS'high'
p767
aS'unacc'
p768
aa(lp769
S'vhigh'
p770
aS'high'
p771
ag4
ag59
aS'small'
p772
aS'low'
p773
aS'unacc'
p774
aa(lp775
S'vhigh'
p776
aS'high'
p777
ag4
ag59
aS'small'
p778
aS'med'
p779
aS'unacc'
p780
aa(lp781
S'vhigh'
p782
aS'high'
p783
ag4
ag59
aS'small'
p784
aS'high'
p785
aS'unacc'
p786
aa(lp787
S'vhigh'
p788
aS'high'
p789
ag4
ag59
aS'med'
p790
aS'low'
p791
aS'unacc'
p792
aa(lp793
S'vhigh'
p794
aS'high'
p795
ag4
ag59
aS'med'
p796
aS'med'
p797
aS'unacc'
p798
aa(lp799
S'vhigh'
p800
aS'high'
p801
ag4
ag59
aS'med'
p802
aS'high'
p803
aS'unacc'
p804
aa(lp805
S'vhigh'
p806
aS'high'
p807
ag4
ag59
aS'big'
p808
aS'low'
p809
aS'unacc'
p810
aa(lp811
S'vhigh'
p812
aS'high'
p813
ag4
ag59
aS'big'
p814
aS'med'
p815
aS'unacc'
p816
aa(lp817
S'vhigh'
p818
aS'high'
p819
ag4
ag59
aS'big'
p820
aS'high'
p821
aS'unacc'
p822
aa(lp823
S'vhigh'
p824
aS'high'
p825
ag4
aS'more'
p826
aS'small'
p827
aS'low'
p828
aS'unacc'
p829
aa(lp830
S'vhigh'
p831
aS'high'
p832
ag4
aS'more'
p833
aS'small'
p834
aS'med'
p835
aS'unacc'
p836
aa(lp837
S'vhigh'
p838
aS'high'
p839
ag4
aS'more'
p840
aS'small'
p841
aS'high'
p842
aS'unacc'
p843
aa(lp844
S'vhigh'
p845
aS'high'
p846
ag4
aS'more'
p847
aS'med'
p848
aS'low'
p849
aS'unacc'
p850
aa(lp851
S'vhigh'
p852
aS'high'
p853
ag4
aS'more'
p854
aS'med'
p855
aS'med'
p856
aS'unacc'
p857
aa(lp858
S'vhigh'
p859
aS'high'
p860
ag4
aS'more'
p861
aS'med'
p862
aS'high'
p863
aS'unacc'
p864
aa(lp865
S'vhigh'
p866
aS'high'
p867
ag4
aS'more'
p868
aS'big'
p869
aS'low'
p870
aS'unacc'
p871
aa(lp872
S'vhigh'
p873
aS'high'
p874
ag4
aS'more'
p875
aS'big'
p876
aS'med'
p877
aS'unacc'
p878
aa(lp879
S'vhigh'
p880
aS'high'
p881
ag4
aS'more'
p882
aS'big'
p883
aS'high'
p884
aS'unacc'
p885
aa(lp886
S'vhigh'
p887
aS'high'
p888
ag177
ag4
aS'small'
p889
aS'low'
p890
aS'unacc'
p891
aa(lp892
S'vhigh'
p893
aS'high'
p894
ag177
ag4
aS'small'
p895
aS'med'
p896
aS'unacc'
p897
aa(lp898
S'vhigh'
p899
aS'high'
p900
ag177
ag4
aS'small'
p901
aS'high'
p902
aS'unacc'
p903
aa(lp904
S'vhigh'
p905
aS'high'
p906
ag177
ag4
aS'med'
p907
aS'low'
p908
aS'unacc'
p909
aa(lp910
S'vhigh'
p911
aS'high'
p912
ag177
ag4
aS'med'
p913
aS'med'
p914
aS'unacc'
p915
aa(lp916
S'vhigh'
p917
aS'high'
p918
ag177
ag4
aS'med'
p919
aS'high'
p920
aS'unacc'
p921
aa(lp922
S'vhigh'
p923
aS'high'
p924
ag177
ag4
aS'big'
p925
aS'low'
p926
aS'unacc'
p927
aa(lp928
S'vhigh'
p929
aS'high'
p930
ag177
ag4
aS'big'
p931
aS'med'
p932
aS'unacc'
p933
aa(lp934
S'vhigh'
p935
aS'high'
p936
ag177
ag4
aS'big'
p937
aS'high'
p938
aS'unacc'
p939
aa(lp940
S'vhigh'
p941
aS'high'
p942
ag177
ag59
aS'small'
p943
aS'low'
p944
aS'unacc'
p945
aa(lp946
S'vhigh'
p947
aS'high'
p948
ag177
ag59
aS'small'
p949
aS'med'
p950
aS'unacc'
p951
aa(lp952
S'vhigh'
p953
aS'high'
p954
ag177
ag59
aS'small'
p955
aS'high'
p956
aS'unacc'
p957
aa(lp958
S'vhigh'
p959
aS'high'
p960
ag177
ag59
aS'med'
p961
aS'low'
p962
aS'unacc'
p963
aa(lp964
S'vhigh'
p965
aS'high'
p966
ag177
ag59
aS'med'
p967
aS'med'
p968
aS'unacc'
p969
aa(lp970
S'vhigh'
p971
aS'high'
p972
ag177
ag59
aS'med'
p973
aS'high'
p974
aS'unacc'
p975
aa(lp976
S'vhigh'
p977
aS'high'
p978
ag177
ag59
aS'big'
p979
aS'low'
p980
aS'unacc'
p981
aa(lp982
S'vhigh'
p983
aS'high'
p984
ag177
ag59
aS'big'
p985
aS'med'
p986
aS'unacc'
p987
aa(lp988
S'vhigh'
p989
aS'high'
p990
ag177
ag59
aS'big'
p991
aS'high'
p992
aS'unacc'
p993
aa(lp994
S'vhigh'
p995
aS'high'
p996
ag177
aS'more'
p997
aS'small'
p998
aS'low'
p999
aS'unacc'
p1000
aa(lp1001
S'vhigh'
p1002
aS'high'
p1003
ag177
aS'more'
p1004
aS'small'
p1005
aS'med'
p1006
aS'unacc'
p1007
aa(lp1008
S'vhigh'
p1009
aS'high'
p1010
ag177
aS'more'
p1011
aS'small'
p1012
aS'high'
p1013
aS'unacc'
p1014
aa(lp1015
S'vhigh'
p1016
aS'high'
p1017
ag177
aS'more'
p1018
aS'med'
p1019
aS'low'
p1020
aS'unacc'
p1021
aa(lp1022
S'vhigh'
p1023
aS'high'
p1024
ag177
aS'more'
p1025
aS'med'
p1026
aS'med'
p1027
aS'unacc'
p1028
aa(lp1029
S'vhigh'
p1030
aS'high'
p1031
ag177
aS'more'
p1032
aS'med'
p1033
aS'high'
p1034
aS'unacc'
p1035
aa(lp1036
S'vhigh'
p1037
aS'high'
p1038
ag177
aS'more'
p1039
aS'big'
p1040
aS'low'
p1041
aS'unacc'
p1042
aa(lp1043
S'vhigh'
p1044
aS'high'
p1045
ag177
aS'more'
p1046
aS'big'
p1047
aS'med'
p1048
aS'unacc'
p1049
aa(lp1050
S'vhigh'
p1051
aS'high'
p1052
ag177
aS'more'
p1053
aS'big'
p1054
aS'high'
p1055
aS'unacc'
p1056
aa(lp1057
S'vhigh'
p1058
aS'high'
p1059
ag59
ag4
aS'small'
p1060
aS'low'
p1061
aS'unacc'
p1062
aa(lp1063
S'vhigh'
p1064
aS'high'
p1065
ag59
ag4
aS'small'
p1066
aS'med'
p1067
aS'unacc'
p1068
aa(lp1069
S'vhigh'
p1070
aS'high'
p1071
ag59
ag4
aS'small'
p1072
aS'high'
p1073
aS'unacc'
p1074
aa(lp1075
S'vhigh'
p1076
aS'high'
p1077
ag59
ag4
aS'med'
p1078
aS'low'
p1079
aS'unacc'
p1080
aa(lp1081
S'vhigh'
p1082
aS'high'
p1083
ag59
ag4
aS'med'
p1084
aS'med'
p1085
aS'unacc'
p1086
aa(lp1087
S'vhigh'
p1088
aS'high'
p1089
ag59
ag4
aS'med'
p1090
aS'high'
p1091
aS'unacc'
p1092
aa(lp1093
S'vhigh'
p1094
aS'high'
p1095
ag59
ag4
aS'big'
p1096
aS'low'
p1097
aS'unacc'
p1098
aa(lp1099
S'vhigh'
p1100
aS'high'
p1101
ag59
ag4
aS'big'
p1102
aS'med'
p1103
aS'unacc'
p1104
aa(lp1105
S'vhigh'
p1106
aS'high'
p1107
ag59
ag4
aS'big'
p1108
aS'high'
p1109
aS'unacc'
p1110
aa(lp1111
S'vhigh'
p1112
aS'high'
p1113
ag59
ag59
aS'small'
p1114
aS'low'
p1115
aS'unacc'
p1116
aa(lp1117
S'vhigh'
p1118
aS'high'
p1119
ag59
ag59
aS'small'
p1120
aS'med'
p1121
aS'unacc'
p1122
aa(lp1123
S'vhigh'
p1124
aS'high'
p1125
ag59
ag59
aS'small'
p1126
aS'high'
p1127
aS'unacc'
p1128
aa(lp1129
S'vhigh'
p1130
aS'high'
p1131
ag59
ag59
aS'med'
p1132
aS'low'
p1133
aS'unacc'
p1134
aa(lp1135
S'vhigh'
p1136
aS'high'
p1137
ag59
ag59
aS'med'
p1138
aS'med'
p1139
aS'unacc'
p1140
aa(lp1141
S'vhigh'
p1142
aS'high'
p1143
ag59
ag59
aS'med'
p1144
aS'high'
p1145
aS'unacc'
p1146
aa(lp1147
S'vhigh'
p1148
aS'high'
p1149
ag59
ag59
aS'big'
p1150
aS'low'
p1151
aS'unacc'
p1152
aa(lp1153
S'vhigh'
p1154
aS'high'
p1155
ag59
ag59
aS'big'
p1156
aS'med'
p1157
aS'unacc'
p1158
aa(lp1159
S'vhigh'
p1160
aS'high'
p1161
ag59
ag59
aS'big'
p1162
aS'high'
p1163
aS'unacc'
p1164
aa(lp1165
S'vhigh'
p1166
aS'high'
p1167
ag59
aS'more'
p1168
aS'small'
p1169
aS'low'
p1170
aS'unacc'
p1171
aa(lp1172
S'vhigh'
p1173
aS'high'
p1174
ag59
aS'more'
p1175
aS'small'
p1176
aS'med'
p1177
aS'unacc'
p1178
aa(lp1179
S'vhigh'
p1180
aS'high'
p1181
ag59
aS'more'
p1182
aS'small'
p1183
aS'high'
p1184
aS'unacc'
p1185
aa(lp1186
S'vhigh'
p1187
aS'high'
p1188
ag59
aS'more'
p1189
aS'med'
p1190
aS'low'
p1191
aS'unacc'
p1192
aa(lp1193
S'vhigh'
p1194
aS'high'
p1195
ag59
aS'more'
p1196
aS'med'
p1197
aS'med'
p1198
aS'unacc'
p1199
aa(lp1200
S'vhigh'
p1201
aS'high'
p1202
ag59
aS'more'
p1203
aS'med'
p1204
aS'high'
p1205
aS'unacc'
p1206
aa(lp1207
S'vhigh'
p1208
aS'high'
p1209
ag59
aS'more'
p1210
aS'big'
p1211
aS'low'
p1212
aS'unacc'
p1213
aa(lp1214
S'vhigh'
p1215
aS'high'
p1216
ag59
aS'more'
p1217
aS'big'
p1218
aS'med'
p1219
aS'unacc'
p1220
aa(lp1221
S'vhigh'
p1222
aS'high'
p1223
ag59
aS'more'
p1224
aS'big'
p1225
aS'high'
p1226
aS'unacc'
p1227
aa(lp1228
S'vhigh'
p1229
aS'high'
p1230
aS'5more'
p1231
ag4
aS'small'
p1232
aS'low'
p1233
aS'unacc'
p1234
aa(lp1235
S'vhigh'
p1236
aS'high'
p1237
aS'5more'
p1238
ag4
aS'small'
p1239
aS'med'
p1240
aS'unacc'
p1241
aa(lp1242
S'vhigh'
p1243
aS'high'
p1244
aS'5more'
p1245
ag4
aS'small'
p1246
aS'high'
p1247
aS'unacc'
p1248
aa(lp1249
S'vhigh'
p1250
aS'high'
p1251
aS'5more'
p1252
ag4
aS'med'
p1253
aS'low'
p1254
aS'unacc'
p1255
aa(lp1256
S'vhigh'
p1257
aS'high'
p1258
aS'5more'
p1259
ag4
aS'med'
p1260
aS'med'
p1261
aS'unacc'
p1262
aa(lp1263
S'vhigh'
p1264
aS'high'
p1265
aS'5more'
p1266
ag4
aS'med'
p1267
aS'high'
p1268
aS'unacc'
p1269
aa(lp1270
S'vhigh'
p1271
aS'high'
p1272
aS'5more'
p1273
ag4
aS'big'
p1274
aS'low'
p1275
aS'unacc'
p1276
aa(lp1277
S'vhigh'
p1278
aS'high'
p1279
aS'5more'
p1280
ag4
aS'big'
p1281
aS'med'
p1282
aS'unacc'
p1283
aa(lp1284
S'vhigh'
p1285
aS'high'
p1286
aS'5more'
p1287
ag4
aS'big'
p1288
aS'high'
p1289
aS'unacc'
p1290
aa(lp1291
S'vhigh'
p1292
aS'high'
p1293
aS'5more'
p1294
ag59
aS'small'
p1295
aS'low'
p1296
aS'unacc'
p1297
aa(lp1298
S'vhigh'
p1299
aS'high'
p1300
aS'5more'
p1301
ag59
aS'small'
p1302
aS'med'
p1303
aS'unacc'
p1304
aa(lp1305
S'vhigh'
p1306
aS'high'
p1307
aS'5more'
p1308
ag59
aS'small'
p1309
aS'high'
p1310
aS'unacc'
p1311
aa(lp1312
S'vhigh'
p1313
aS'high'
p1314
aS'5more'
p1315
ag59
aS'med'
p1316
aS'low'
p1317
aS'unacc'
p1318
aa(lp1319
S'vhigh'
p1320
aS'high'
p1321
aS'5more'
p1322
ag59
aS'med'
p1323
aS'med'
p1324
aS'unacc'
p1325
aa(lp1326
S'vhigh'
p1327
aS'high'
p1328
aS'5more'
p1329
ag59
aS'med'
p1330
aS'high'
p1331
aS'unacc'
p1332
aa(lp1333
S'vhigh'
p1334
aS'high'
p1335
aS'5more'
p1336
ag59
aS'big'
p1337
aS'low'
p1338
aS'unacc'
p1339
aa(lp1340
S'vhigh'
p1341
aS'high'
p1342
aS'5more'
p1343
ag59
aS'big'
p1344
aS'med'
p1345
aS'unacc'
p1346
aa(lp1347
S'vhigh'
p1348
aS'high'
p1349
aS'5more'
p1350
ag59
aS'big'
p1351
aS'high'
p1352
aS'unacc'
p1353
aa(lp1354
S'vhigh'
p1355
aS'high'
p1356
aS'5more'
p1357
aS'more'
p1358
aS'small'
p1359
aS'low'
p1360
aS'unacc'
p1361
aa(lp1362
S'vhigh'
p1363
aS'high'
p1364
aS'5more'
p1365
aS'more'
p1366
aS'small'
p1367
aS'med'
p1368
aS'unacc'
p1369
aa(lp1370
S'vhigh'
p1371
aS'high'
p1372
aS'5more'
p1373
aS'more'
p1374
aS'small'
p1375
aS'high'
p1376
aS'unacc'
p1377
aa(lp1378
S'vhigh'
p1379
aS'high'
p1380
aS'5more'
p1381
aS'more'
p1382
aS'med'
p1383
aS'low'
p1384
aS'unacc'
p1385
aa(lp1386
S'vhigh'
p1387
aS'high'
p1388
aS'5more'
p1389
aS'more'
p1390
aS'med'
p1391
aS'med'
p1392
aS'unacc'
p1393
aa(lp1394
S'vhigh'
p1395
aS'high'
p1396
aS'5more'
p1397
aS'more'
p1398
aS'med'
p1399
aS'high'
p1400
aS'unacc'
p1401
aa(lp1402
S'vhigh'
p1403
aS'high'
p1404
aS'5more'
p1405
aS'more'
p1406
aS'big'
p1407
aS'low'
p1408
aS'unacc'
p1409
aa(lp1410
S'vhigh'
p1411
aS'high'
p1412
aS'5more'
p1413
aS'more'
p1414
aS'big'
p1415
aS'med'
p1416
aS'unacc'
p1417
aa(lp1418
S'vhigh'
p1419
aS'high'
p1420
aS'5more'
p1421
aS'more'
p1422
aS'big'
p1423
aS'high'
p1424
aS'unacc'
p1425
aa(lp1426
S'vhigh'
p1427
aS'med'
p1428
ag4
ag4
aS'small'
p1429
aS'low'
p1430
aS'unacc'
p1431
aa(lp1432
S'vhigh'
p1433
aS'med'
p1434
ag4
ag4
aS'small'
p1435
aS'med'
p1436
aS'unacc'
p1437
aa(lp1438
S'vhigh'
p1439
aS'med'
p1440
ag4
ag4
aS'small'
p1441
aS'high'
p1442
aS'unacc'
p1443
aa(lp1444
S'vhigh'
p1445
aS'med'
p1446
ag4
ag4
aS'med'
p1447
aS'low'
p1448
aS'unacc'
p1449
aa(lp1450
S'vhigh'
p1451
aS'med'
p1452
ag4
ag4
aS'med'
p1453
aS'med'
p1454
aS'unacc'
p1455
aa(lp1456
S'vhigh'
p1457
aS'med'
p1458
ag4
ag4
aS'med'
p1459
aS'high'
p1460
aS'unacc'
p1461
aa(lp1462
S'vhigh'
p1463
aS'med'
p1464
ag4
ag4
aS'big'
p1465
aS'low'
p1466
aS'unacc'
p1467
aa(lp1468
S'vhigh'
p1469
aS'med'
p1470
ag4
ag4
aS'big'
p1471
aS'med'
p1472
aS'unacc'
p1473
aa(lp1474
S'vhigh'
p1475
aS'med'
p1476
ag4
ag4
aS'big'
p1477
aS'high'
p1478
aS'unacc'
p1479
aa(lp1480
S'vhigh'
p1481
aS'med'
p1482
ag4
ag59
aS'small'
p1483
aS'low'
p1484
aS'unacc'
p1485
aa(lp1486
S'vhigh'
p1487
aS'med'
p1488
ag4
ag59
aS'small'
p1489
aS'med'
p1490
aS'unacc'
p1491
aa(lp1492
S'vhigh'
p1493
aS'med'
p1494
ag4
ag59
aS'small'
p1495
aS'high'
p1496
aS'acc'
p1497
aa(lp1498
S'vhigh'
p1499
aS'med'
p1500
ag4
ag59
aS'med'
p1501
aS'low'
p1502
aS'unacc'
p1503
aa(lp1504
S'vhigh'
p1505
aS'med'
p1506
ag4
ag59
aS'med'
p1507
aS'med'
p1508
aS'unacc'
p1509
aa(lp1510
S'vhigh'
p1511
aS'med'
p1512
ag4
ag59
aS'med'
p1513
aS'high'
p1514
aS'acc'
p1515
aa(lp1516
S'vhigh'
p1517
aS'med'
p1518
ag4
ag59
aS'big'
p1519
aS'low'
p1520
aS'unacc'
p1521
aa(lp1522
S'vhigh'
p1523
aS'med'
p1524
ag4
ag59
aS'big'
p1525
aS'med'
p1526
aS'acc'
p1527
aa(lp1528
S'vhigh'
p1529
aS'med'
p1530
ag4
ag59
aS'big'
p1531
aS'high'
p1532
aS'acc'
p1533
aa(lp1534
S'vhigh'
p1535
aS'med'
p1536
ag4
aS'more'
p1537
aS'small'
p1538
aS'low'
p1539
aS'unacc'
p1540
aa(lp1541
S'vhigh'
p1542
aS'med'
p1543
ag4
aS'more'
p1544
aS'small'
p1545
aS'med'
p1546
aS'unacc'
p1547
aa(lp1548
S'vhigh'
p1549
aS'med'
p1550
ag4
aS'more'
p1551
aS'small'
p1552
aS'high'
p1553
aS'unacc'
p1554
aa(lp1555
S'vhigh'
p1556
aS'med'
p1557
ag4
aS'more'
p1558
aS'med'
p1559
aS'low'
p1560
aS'unacc'
p1561
aa(lp1562
S'vhigh'
p1563
aS'med'
p1564
ag4
aS'more'
p1565
aS'med'
p1566
aS'med'
p1567
aS'unacc'
p1568
aa(lp1569
S'vhigh'
p1570
aS'med'
p1571
ag4
aS'more'
p1572
aS'med'
p1573
aS'high'
p1574
aS'acc'
p1575
aa(lp1576
S'vhigh'
p1577
aS'med'
p1578
ag4
aS'more'
p1579
aS'big'
p1580
aS'low'
p1581
aS'unacc'
p1582
aa(lp1583
S'vhigh'
p1584
aS'med'
p1585
ag4
aS'more'
p1586
aS'big'
p1587
aS'med'
p1588
aS'acc'
p1589
aa(lp1590
S'vhigh'
p1591
aS'med'
p1592
ag4
aS'more'
p1593
aS'big'
p1594
aS'high'
p1595
aS'acc'
p1596
aa(lp1597
S'vhigh'
p1598
aS'med'
p1599
ag177
ag4
aS'small'
p1600
aS'low'
p1601
aS'unacc'
p1602
aa(lp1603
S'vhigh'
p1604
aS'med'
p1605
ag177
ag4
aS'small'
p1606
aS'med'
p1607
aS'unacc'
p1608
aa(lp1609
S'vhigh'
p1610
aS'med'
p1611
ag177
ag4
aS'small'
p1612
aS'high'
p1613
aS'unacc'
p1614
aa(lp1615
S'vhigh'
p1616
aS'med'
p1617
ag177
ag4
aS'med'
p1618
aS'low'
p1619
aS'unacc'
p1620
aa(lp1621
S'vhigh'
p1622
aS'med'
p1623
ag177
ag4
aS'med'
p1624
aS'med'
p1625
aS'unacc'
p1626
aa(lp1627
S'vhigh'
p1628
aS'med'
p1629
ag177
ag4
aS'med'
p1630
aS'high'
p1631
aS'unacc'
p1632
aa(lp1633
S'vhigh'
p1634
aS'med'
p1635
ag177
ag4
aS'big'
p1636
aS'low'
p1637
aS'unacc'
p1638
aa(lp1639
S'vhigh'
p1640
aS'med'
p1641
ag177
ag4
aS'big'
p1642
aS'med'
p1643
aS'unacc'
p1644
aa(lp1645
S'vhigh'
p1646
aS'med'
p1647
ag177
ag4
aS'big'
p1648
aS'high'
p1649
aS'unacc'
p1650
aa(lp1651
S'vhigh'
p1652
aS'med'
p1653
ag177
ag59
aS'small'
p1654
aS'low'
p1655
aS'unacc'
p1656
aa(lp1657
S'vhigh'
p1658
aS'med'
p1659
ag177
ag59
aS'small'
p1660
aS'med'
p1661
aS'unacc'
p1662
aa(lp1663
S'vhigh'
p1664
aS'med'
p1665
ag177
ag59
aS'small'
p1666
aS'high'
p1667
aS'acc'
p1668
aa(lp1669
S'vhigh'
p1670
aS'med'
p1671
ag177
ag59
aS'med'
p1672
aS'low'
p1673
aS'unacc'
p1674
aa(lp1675
S'vhigh'
p1676
aS'med'
p1677
ag177
ag59
aS'med'
p1678
aS'med'
p1679
aS'unacc'
p1680
aa(lp1681
S'vhigh'
p1682
aS'med'
p1683
ag177
ag59
aS'med'
p1684
aS'high'
p1685
aS'acc'
p1686
aa(lp1687
S'vhigh'
p1688
aS'med'
p1689
ag177
ag59
aS'big'
p1690
aS'low'
p1691
aS'unacc'
p1692
aa(lp1693
S'vhigh'
p1694
aS'med'
p1695
ag177
ag59
aS'big'
p1696
aS'med'
p1697
aS'acc'
p1698
aa(lp1699
S'vhigh'
p1700
aS'med'
p1701
ag177
ag59
aS'big'
p1702
aS'high'
p1703
aS'acc'
p1704
aa(lp1705
S'vhigh'
p1706
aS'med'
p1707
ag177
aS'more'
p1708
aS'small'
p1709
aS'low'
p1710
aS'unacc'
p1711
aa(lp1712
S'vhigh'
p1713
aS'med'
p1714
ag177
aS'more'
p1715
aS'small'
p1716
aS'med'
p1717
aS'unacc'
p1718
aa(lp1719
S'vhigh'
p1720
aS'med'
p1721
ag177
aS'more'
p1722
aS'small'
p1723
aS'high'
p1724
aS'acc'
p1725
aa(lp1726
S'vhigh'
p1727
aS'med'
p1728
ag177
aS'more'
p1729
aS'med'
p1730
aS'low'
p1731
aS'unacc'
p1732
aa(lp1733
S'vhigh'
p1734
aS'med'
p1735
ag177
aS'more'
p1736
aS'med'
p1737
aS'med'
p1738
aS'acc'
p1739
aa(lp1740
S'vhigh'
p1741
aS'med'
p1742
ag177
aS'more'
p1743
aS'med'
p1744
aS'high'
p1745
aS'acc'
p1746
aa(lp1747
S'vhigh'
p1748
aS'med'
p1749
ag177
aS'more'
p1750
aS'big'
p1751
aS'low'
p1752
aS'unacc'
p1753
aa(lp1754
S'vhigh'
p1755
aS'med'
p1756
ag177
aS'more'
p1757
aS'big'
p1758
aS'med'
p1759
aS'acc'
p1760
aa(lp1761
S'vhigh'
p1762
aS'med'
p1763
ag177
aS'more'
p1764
aS'big'
p1765
aS'high'
p1766
aS'acc'
p1767
aa(lp1768
S'vhigh'
p1769
aS'med'
p1770
ag59
ag4
aS'small'
p1771
aS'low'
p1772
aS'unacc'
p1773
aa(lp1774
S'vhigh'
p1775
aS'med'
p1776
ag59
ag4
aS'small'
p1777
aS'med'
p1778
aS'unacc'
p1779
aa(lp1780
S'vhigh'
p1781
aS'med'
p1782
ag59
ag4
aS'small'
p1783
aS'high'
p1784
aS'unacc'
p1785
aa(lp1786
S'vhigh'
p1787
aS'med'
p1788
ag59
ag4
aS'med'
p1789
aS'low'
p1790
aS'unacc'
p1791
aa(lp1792
S'vhigh'
p1793
aS'med'
p1794
ag59
ag4
aS'med'
p1795
aS'med'
p1796
aS'unacc'
p1797
aa(lp1798
S'vhigh'
p1799
aS'med'
p1800
ag59
ag4
aS'med'
p1801
aS'high'
p1802
aS'unacc'
p1803
aa(lp1804
S'vhigh'
p1805
aS'med'
p1806
ag59
ag4
aS'big'
p1807
aS'low'
p1808
aS'unacc'
p1809
aa(lp1810
S'vhigh'
p1811
aS'med'
p1812
ag59
ag4
aS'big'
p1813
aS'med'
p1814
aS'unacc'
p1815
aa(lp1816
S'vhigh'
p1817
aS'med'
p1818
ag59
ag4
aS'big'
p1819
aS'high'
p1820
aS'unacc'
p1821
aa(lp1822
S'vhigh'
p1823
aS'med'
p1824
ag59
ag59
aS'small'
p1825
aS'low'
p1826
aS'unacc'
p1827
aa(lp1828
S'vhigh'
p1829
aS'med'
p1830
ag59
ag59
aS'small'
p1831
aS'med'
p1832
aS'unacc'
p1833
aa(lp1834
S'vhigh'
p1835
aS'med'
p1836
ag59
ag59
aS'small'
p1837
aS'high'
p1838
aS'acc'
p1839
aa(lp1840
S'vhigh'
p1841
aS'med'
p1842
ag59
ag59
aS'med'
p1843
aS'low'
p1844
aS'unacc'
p1845
aa(lp1846
S'vhigh'
p1847
aS'med'
p1848
ag59
ag59
aS'med'
p1849
aS'med'
p1850
aS'acc'
p1851
aa(lp1852
S'vhigh'
p1853
aS'med'
p1854
ag59
ag59
aS'med'
p1855
aS'high'
p1856
aS'acc'
p1857
aa(lp1858
S'vhigh'
p1859
aS'med'
p1860
ag59
ag59
aS'big'
p1861
aS'low'
p1862
aS'unacc'
p1863
aa(lp1864
S'vhigh'
p1865
aS'med'
p1866
ag59
ag59
aS'big'
p1867
aS'med'
p1868
aS'acc'
p1869
aa(lp1870
S'vhigh'
p1871
aS'med'
p1872
ag59
ag59
aS'big'
p1873
aS'high'
p1874
aS'acc'
p1875
aa(lp1876
S'vhigh'
p1877
aS'med'
p1878
ag59
aS'more'
p1879
aS'small'
p1880
aS'low'
p1881
aS'unacc'
p1882
aa(lp1883
S'vhigh'
p1884
aS'med'
p1885
ag59
aS'more'
p1886
aS'small'
p1887
aS'med'
p1888
aS'unacc'
p1889
aa(lp1890
S'vhigh'
p1891
aS'med'
p1892
ag59
aS'more'
p1893
aS'small'
p1894
aS'high'
p1895
aS'acc'
p1896
aa(lp1897
S'vhigh'
p1898
aS'med'
p1899
ag59
aS'more'
p1900
aS'med'
p1901
aS'low'
p1902
aS'unacc'
p1903
aa(lp1904
S'vhigh'
p1905
aS'med'
p1906
ag59
aS'more'
p1907
aS'med'
p1908
aS'med'
p1909
aS'acc'
p1910
aa(lp1911
S'vhigh'
p1912
aS'med'
p1913
ag59
aS'more'
p1914
aS'med'
p1915
aS'high'
p1916
aS'acc'
p1917
aa(lp1918
S'vhigh'
p1919
aS'med'
p1920
ag59
aS'more'
p1921
aS'big'
p1922
aS'low'
p1923
aS'unacc'
p1924
aa(lp1925
S'vhigh'
p1926
aS'med'
p1927
ag59
aS'more'
p1928
aS'big'
p1929
aS'med'
p1930
aS'acc'
p1931
aa(lp1932
S'vhigh'
p1933
aS'med'
p1934
ag59
aS'more'
p1935
aS'big'
p1936
aS'high'
p1937
aS'acc'
p1938
aa(lp1939
S'vhigh'
p1940
aS'med'
p1941
aS'5more'
p1942
ag4
aS'small'
p1943
aS'low'
p1944
aS'unacc'
p1945
aa(lp1946
S'vhigh'
p1947
aS'med'
p1948
aS'5more'
p1949
ag4
aS'small'
p1950
aS'med'
p1951
aS'unacc'
p1952
aa(lp1953
S'vhigh'
p1954
aS'med'
p1955
aS'5more'
p1956
ag4
aS'small'
p1957
aS'high'
p1958
aS'unacc'
p1959
aa(lp1960
S'vhigh'
p1961
aS'med'
p1962
aS'5more'
p1963
ag4
aS'med'
p1964
aS'low'
p1965
aS'unacc'
p1966
aa(lp1967
S'vhigh'
p1968
aS'med'
p1969
aS'5more'
p1970
ag4
aS'med'
p1971
aS'med'
p1972
aS'unacc'
p1973
aa(lp1974
S'vhigh'
p1975
aS'med'
p1976
aS'5more'
p1977
ag4
aS'med'
p1978
aS'high'
p1979
aS'unacc'
p1980
aa(lp1981
S'vhigh'
p1982
aS'med'
p1983
aS'5more'
p1984
ag4
aS'big'
p1985
aS'low'
p1986
aS'unacc'
p1987
aa(lp1988
S'vhigh'
p1989
aS'med'
p1990
aS'5more'
p1991
ag4
aS'big'
p1992
aS'med'
p1993
aS'unacc'
p1994
aa(lp1995
S'vhigh'
p1996
aS'med'
p1997
aS'5more'
p1998
ag4
aS'big'
p1999
aS'high'
p2000
aS'unacc'
p2001
aa(lp2002
S'vhigh'
p2003
aS'med'
p2004
aS'5more'
p2005
ag59
aS'small'
p2006
aS'low'
p2007
aS'unacc'
p2008
aa(lp2009
S'vhigh'
p2010
aS'med'
p2011
aS'5more'
p2012
ag59
aS'small'
p2013
aS'med'
p2014
aS'unacc'
p2015
aa(lp2016
S'vhigh'
p2017
aS'med'
p2018
aS'5more'
p2019
ag59
aS'small'
p2020
aS'high'
p2021
aS'acc'
p2022
aa(lp2023
S'vhigh'
p2024
aS'med'
p2025
aS'5more'
p2026
ag59
aS'med'
p2027
aS'low'
p2028
aS'unacc'
p2029
aa(lp2030
S'vhigh'
p2031
aS'med'
p2032
aS'5more'
p2033
ag59
aS'med'
p2034
aS'med'
p2035
aS'acc'
p2036
aa(lp2037
S'vhigh'
p2038
aS'med'
p2039
aS'5more'
p2040
ag59
aS'med'
p2041
aS'high'
p2042
aS'acc'
p2043
aa(lp2044
S'vhigh'
p2045
aS'med'
p2046
aS'5more'
p2047
ag59
aS'big'
p2048
aS'low'
p2049
aS'unacc'
p2050
aa(lp2051
S'vhigh'
p2052
aS'med'
p2053
aS'5more'
p2054
ag59
aS'big'
p2055
aS'med'
p2056
aS'acc'
p2057
aa(lp2058
S'vhigh'
p2059
aS'med'
p2060
aS'5more'
p2061
ag59
aS'big'
p2062
aS'high'
p2063
aS'acc'
p2064
aa(lp2065
S'vhigh'
p2066
aS'med'
p2067
aS'5more'
p2068
aS'more'
p2069
aS'small'
p2070
aS'low'
p2071
aS'unacc'
p2072
aa(lp2073
S'vhigh'
p2074
aS'med'
p2075
aS'5more'
p2076
aS'more'
p2077
aS'small'
p2078
aS'med'
p2079
aS'unacc'
p2080
aa(lp2081
S'vhigh'
p2082
aS'med'
p2083
aS'5more'
p2084
aS'more'
p2085
aS'small'
p2086
aS'high'
p2087
aS'acc'
p2088
aa(lp2089
S'vhigh'
p2090
aS'med'
p2091
aS'5more'
p2092
aS'more'
p2093
aS'med'
p2094
aS'low'
p2095
aS'unacc'
p2096
aa(lp2097
S'vhigh'
p2098
aS'med'
p2099
aS'5more'
p2100
aS'more'
p2101
aS'med'
p2102
aS'med'
p2103
aS'acc'
p2104
aa(lp2105
S'vhigh'
p2106
aS'med'
p2107
aS'5more'
p2108
aS'more'
p2109
aS'med'
p2110
aS'high'
p2111
aS'acc'
p2112
aa(lp2113
S'vhigh'
p2114
aS'med'
p2115
aS'5more'
p2116
aS'more'
p2117
aS'big'
p2118
aS'low'
p2119
aS'unacc'
p2120
aa(lp2121
S'vhigh'
p2122
aS'med'
p2123
aS'5more'
p2124
aS'more'
p2125
aS'big'
p2126
aS'med'
p2127
aS'acc'
p2128
aa(lp2129
S'vhigh'
p2130
aS'med'
p2131
aS'5more'
p2132
aS'more'
p2133
aS'big'
p2134
aS'high'
p2135
aS'acc'
p2136
aa(lp2137
S'vhigh'
p2138
aS'low'
p2139
ag4
ag4
aS'small'
p2140
aS'low'
p2141
aS'unacc'
p2142
aa(lp2143
S'vhigh'
p2144
aS'low'
p2145
ag4
ag4
aS'small'
p2146
aS'med'
p2147
aS'unacc'
p2148
aa(lp2149
S'vhigh'
p2150
aS'low'
p2151
ag4
ag4
aS'small'
p2152
aS'high'
p2153
aS'unacc'
p2154
aa(lp2155
S'vhigh'
p2156
aS'low'
p2157
ag4
ag4
aS'med'
p2158
aS'low'
p2159
aS'unacc'
p2160
aa(lp2161
S'vhigh'
p2162
aS'low'
p2163
ag4
ag4
aS'med'
p2164
aS'med'
p2165
aS'unacc'
p2166
aa(lp2167
S'vhigh'
p2168
aS'low'
p2169
ag4
ag4
aS'med'
p2170
aS'high'
p2171
aS'unacc'
p2172
aa(lp2173
S'vhigh'
p2174
aS'low'
p2175
ag4
ag4
aS'big'
p2176
aS'low'
p2177
aS'unacc'
p2178
aa(lp2179
S'vhigh'
p2180
aS'low'
p2181
ag4
ag4
aS'big'
p2182
aS'med'
p2183
aS'unacc'
p2184
aa(lp2185
S'vhigh'
p2186
aS'low'
p2187
ag4
ag4
aS'big'
p2188
aS'high'
p2189
aS'unacc'
p2190
aa(lp2191
S'vhigh'
p2192
aS'low'
p2193
ag4
ag59
aS'small'
p2194
aS'low'
p2195
aS'unacc'
p2196
aa(lp2197
S'vhigh'
p2198
aS'low'
p2199
ag4
ag59
aS'small'
p2200
aS'med'
p2201
aS'unacc'
p2202
aa(lp2203
S'vhigh'
p2204
aS'low'
p2205
ag4
ag59
aS'small'
p2206
aS'high'
p2207
aS'acc'
p2208
aa(lp2209
S'vhigh'
p2210
aS'low'
p2211
ag4
ag59
aS'med'
p2212
aS'low'
p2213
aS'unacc'
p2214
aa(lp2215
S'vhigh'
p2216
aS'low'
p2217
ag4
ag59
aS'med'
p2218
aS'med'
p2219
aS'unacc'
p2220
aa(lp2221
S'vhigh'
p2222
aS'low'
p2223
ag4
ag59
aS'med'
p2224
aS'high'
p2225
aS'acc'
p2226
aa(lp2227
S'vhigh'
p2228
aS'low'
p2229
ag4
ag59
aS'big'
p2230
aS'low'
p2231
aS'unacc'
p2232
aa(lp2233
S'vhigh'
p2234
aS'low'
p2235
ag4
ag59
aS'big'
p2236
aS'med'
p2237
aS'acc'
p2238
aa(lp2239
S'vhigh'
p2240
aS'low'
p2241
ag4
ag59
aS'big'
p2242
aS'high'
p2243
aS'acc'
p2244
aa(lp2245
S'vhigh'
p2246
aS'low'
p2247
ag4
aS'more'
p2248
aS'small'
p2249
aS'low'
p2250
aS'unacc'
p2251
aa(lp2252
S'vhigh'
p2253
aS'low'
p2254
ag4
aS'more'
p2255
aS'small'
p2256
aS'med'
p2257
aS'unacc'
p2258
aa(lp2259
S'vhigh'
p2260
aS'low'
p2261
ag4
aS'more'
p2262
aS'small'
p2263
aS'high'
p2264
aS'unacc'
p2265
aa(lp2266
S'vhigh'
p2267
aS'low'
p2268
ag4
aS'more'
p2269
aS'med'
p2270
aS'low'
p2271
aS'unacc'
p2272
aa(lp2273
S'vhigh'
p2274
aS'low'
p2275
ag4
aS'more'
p2276
aS'med'
p2277
aS'med'
p2278
aS'unacc'
p2279
aa(lp2280
S'vhigh'
p2281
aS'low'
p2282
ag4
aS'more'
p2283
aS'med'
p2284
aS'high'
p2285
aS'acc'
p2286
aa(lp2287
S'vhigh'
p2288
aS'low'
p2289
ag4
aS'more'
p2290
aS'big'
p2291
aS'low'
p2292
aS'unacc'
p2293
aa(lp2294
S'vhigh'
p2295
aS'low'
p2296
ag4
aS'more'
p2297
aS'big'
p2298
aS'med'
p2299
aS'acc'
p2300
aa(lp2301
S'vhigh'
p2302
aS'low'
p2303
ag4
aS'more'
p2304
aS'big'
p2305
aS'high'
p2306
aS'acc'
p2307
aa(lp2308
S'vhigh'
p2309
aS'low'
p2310
ag177
ag4
aS'small'
p2311
aS'low'
p2312
aS'unacc'
p2313
aa(lp2314
S'vhigh'
p2315
aS'low'
p2316
ag177
ag4
aS'small'
p2317
aS'med'
p2318
aS'unacc'
p2319
aa(lp2320
S'vhigh'
p2321
aS'low'
p2322
ag177
ag4
aS'small'
p2323
aS'high'
p2324
aS'unacc'
p2325
aa(lp2326
S'vhigh'
p2327
aS'low'
p2328
ag177
ag4
aS'med'
p2329
aS'low'
p2330
aS'unacc'
p2331
aa(lp2332
S'vhigh'
p2333
aS'low'
p2334
ag177
ag4
aS'med'
p2335
aS'med'
p2336
aS'unacc'
p2337
aa(lp2338
S'vhigh'
p2339
aS'low'
p2340
ag177
ag4
aS'med'
p2341
aS'high'
p2342
aS'unacc'
p2343
aa(lp2344
S'vhigh'
p2345
aS'low'
p2346
ag177
ag4
aS'big'
p2347
aS'low'
p2348
aS'unacc'
p2349
aa(lp2350
S'vhigh'
p2351
aS'low'
p2352
ag177
ag4
aS'big'
p2353
aS'med'
p2354
aS'unacc'
p2355
aa(lp2356
S'vhigh'
p2357
aS'low'
p2358
ag177
ag4
aS'big'
p2359
aS'high'
p2360
aS'unacc'
p2361
aa(lp2362
S'vhigh'
p2363
aS'low'
p2364
ag177
ag59
aS'small'
p2365
aS'low'
p2366
aS'unacc'
p2367
aa(lp2368
S'vhigh'
p2369
aS'low'
p2370
ag177
ag59
aS'small'
p2371
aS'med'
p2372
aS'unacc'
p2373
aa(lp2374
S'vhigh'
p2375
aS'low'
p2376
ag177
ag59
aS'small'
p2377
aS'high'
p2378
aS'acc'
p2379
aa(lp2380
S'vhigh'
p2381
aS'low'
p2382
ag177
ag59
aS'med'
p2383
aS'low'
p2384
aS'unacc'
p2385
aa(lp2386
S'vhigh'
p2387
aS'low'
p2388
ag177
ag59
aS'med'
p2389
aS'med'
p2390
aS'unacc'
p2391
aa(lp2392
S'vhigh'
p2393
aS'low'
p2394
ag177
ag59
aS'med'
p2395
aS'high'
p2396
aS'acc'
p2397
aa(lp2398
S'vhigh'
p2399
aS'low'
p2400
ag177
ag59
aS'big'
p2401
aS'low'
p2402
aS'unacc'
p2403
aa(lp2404
S'vhigh'
p2405
aS'low'
p2406
ag177
ag59
aS'big'
p2407
aS'med'
p2408
aS'acc'
p2409
aa(lp2410
S'vhigh'
p2411
aS'low'
p2412
ag177
ag59
aS'big'
p2413
aS'high'
p2414
aS'acc'
p2415
aa(lp2416
S'vhigh'
p2417
aS'low'
p2418
ag177
aS'more'
p2419
aS'small'
p2420
aS'low'
p2421
aS'unacc'
p2422
aa(lp2423
S'vhigh'
p2424
aS'low'
p2425
ag177
aS'more'
p2426
aS'small'
p2427
aS'med'
p2428
aS'unacc'
p2429
aa(lp2430
S'vhigh'
p2431
aS'low'
p2432
ag177
aS'more'
p2433
aS'small'
p2434
aS'high'
p2435
aS'acc'
p2436
aa(lp2437
S'vhigh'
p2438
aS'low'
p2439
ag177
aS'more'
p2440
aS'med'
p2441
aS'low'
p2442
aS'unacc'
p2443
aa(lp2444
S'vhigh'
p2445
aS'low'
p2446
ag177
aS'more'
p2447
aS'med'
p2448
aS'med'
p2449
aS'acc'
p2450
aa(lp2451
S'vhigh'
p2452
aS'low'
p2453
ag177
aS'more'
p2454
aS'med'
p2455
aS'high'
p2456
aS'acc'
p2457
aa(lp2458
S'vhigh'
p2459
aS'low'
p2460
ag177
aS'more'
p2461
aS'big'
p2462
aS'low'
p2463
aS'unacc'
p2464
aa(lp2465
S'vhigh'
p2466
aS'low'
p2467
ag177
aS'more'
p2468
aS'big'
p2469
aS'med'
p2470
aS'acc'
p2471
aa(lp2472
S'vhigh'
p2473
aS'low'
p2474
ag177
aS'more'
p2475
aS'big'
p2476
aS'high'
p2477
aS'acc'
p2478
aa(lp2479
S'vhigh'
p2480
aS'low'
p2481
ag59
ag4
aS'small'
p2482
aS'low'
p2483
aS'unacc'
p2484
aa(lp2485
S'vhigh'
p2486
aS'low'
p2487
ag59
ag4
aS'small'
p2488
aS'med'
p2489
aS'unacc'
p2490
aa(lp2491
S'vhigh'
p2492
aS'low'
p2493
ag59
ag4
aS'small'
p2494
aS'high'
p2495
aS'unacc'
p2496
aa(lp2497
S'vhigh'
p2498
aS'low'
p2499
ag59
ag4
aS'med'
p2500
aS'low'
p2501
aS'unacc'
p2502
aa(lp2503
S'vhigh'
p2504
aS'low'
p2505
ag59
ag4
aS'med'
p2506
aS'med'
p2507
aS'unacc'
p2508
aa(lp2509
S'vhigh'
p2510
aS'low'
p2511
ag59
ag4
aS'med'
p2512
aS'high'
p2513
aS'unacc'
p2514
aa(lp2515
S'vhigh'
p2516
aS'low'
p2517
ag59
ag4
aS'big'
p2518
aS'low'
p2519
aS'unacc'
p2520
aa(lp2521
S'vhigh'
p2522
aS'low'
p2523
ag59
ag4
aS'big'
p2524
aS'med'
p2525
aS'unacc'
p2526
aa(lp2527
S'vhigh'
p2528
aS'low'
p2529
ag59
ag4
aS'big'
p2530
aS'high'
p2531
aS'unacc'
p2532
aa(lp2533
S'vhigh'
p2534
aS'low'
p2535
ag59
ag59
aS'small'
p2536
aS'low'
p2537
aS'unacc'
p2538
aa(lp2539
S'vhigh'
p2540
aS'low'
p2541
ag59
ag59
aS'small'
p2542
aS'med'
p2543
aS'unacc'
p2544
aa(lp2545
S'vhigh'
p2546
aS'low'
p2547
ag59
ag59
aS'small'
p2548
aS'high'
p2549
aS'acc'
p2550
aa(lp2551
S'vhigh'
p2552
aS'low'
p2553
ag59
ag59
aS'med'
p2554
aS'low'
p2555
aS'unacc'
p2556
aa(lp2557
S'vhigh'
p2558
aS'low'
p2559
ag59
ag59
aS'med'
p2560
aS'med'
p2561
aS'acc'
p2562
aa(lp2563
S'vhigh'
p2564
aS'low'
p2565
ag59
ag59
aS'med'
p2566
aS'high'
p2567
aS'acc'
p2568
aa(lp2569
S'vhigh'
p2570
aS'low'
p2571
ag59
ag59
aS'big'
p2572
aS'low'
p2573
aS'unacc'
p2574
aa(lp2575
S'vhigh'
p2576
aS'low'
p2577
ag59
ag59
aS'big'
p2578
aS'med'
p2579
aS'acc'
p2580
aa(lp2581
S'vhigh'
p2582
aS'low'
p2583
ag59
ag59
aS'big'
p2584
aS'high'
p2585
aS'acc'
p2586
aa(lp2587
S'vhigh'
p2588
aS'low'
p2589
ag59
aS'more'
p2590
aS'small'
p2591
aS'low'
p2592
aS'unacc'
p2593
aa(lp2594
S'vhigh'
p2595
aS'low'
p2596
ag59
aS'more'
p2597
aS'small'
p2598
aS'med'
p2599
aS'unacc'
p2600
aa(lp2601
S'vhigh'
p2602
aS'low'
p2603
ag59
aS'more'
p2604
aS'small'
p2605
aS'high'
p2606
aS'acc'
p2607
aa(lp2608
S'vhigh'
p2609
aS'low'
p2610
ag59
aS'more'
p2611
aS'med'
p2612
aS'low'
p2613
aS'unacc'
p2614
aa(lp2615
S'vhigh'
p2616
aS'low'
p2617
ag59
aS'more'
p2618
aS'med'
p2619
aS'med'
p2620
aS'acc'
p2621
aa(lp2622
S'vhigh'
p2623
aS'low'
p2624
ag59
aS'more'
p2625
aS'med'
p2626
aS'high'
p2627
aS'acc'
p2628
aa(lp2629
S'vhigh'
p2630
aS'low'
p2631
ag59
aS'more'
p2632
aS'big'
p2633
aS'low'
p2634
aS'unacc'
p2635
aa(lp2636
S'vhigh'
p2637
aS'low'
p2638
ag59
aS'more'
p2639
aS'big'
p2640
aS'med'
p2641
aS'acc'
p2642
aa(lp2643
S'vhigh'
p2644
aS'low'
p2645
ag59
aS'more'
p2646
aS'big'
p2647
aS'high'
p2648
aS'acc'
p2649
aa(lp2650
S'vhigh'
p2651
aS'low'
p2652
aS'5more'
p2653
ag4
aS'small'
p2654
aS'low'
p2655
aS'unacc'
p2656
aa(lp2657
S'vhigh'
p2658
aS'low'
p2659
aS'5more'
p2660
ag4
aS'small'
p2661
aS'med'
p2662
aS'unacc'
p2663
aa(lp2664
S'vhigh'
p2665
aS'low'
p2666
aS'5more'
p2667
ag4
aS'small'
p2668
aS'high'
p2669
aS'unacc'
p2670
aa(lp2671
S'vhigh'
p2672
aS'low'
p2673
aS'5more'
p2674
ag4
aS'med'
p2675
aS'low'
p2676
aS'unacc'
p2677
aa(lp2678
S'vhigh'
p2679
aS'low'
p2680
aS'5more'
p2681
ag4
aS'med'
p2682
aS'med'
p2683
aS'unacc'
p2684
aa(lp2685
S'vhigh'
p2686
aS'low'
p2687
aS'5more'
p2688
ag4
aS'med'
p2689
aS'high'
p2690
aS'unacc'
p2691
aa(lp2692
S'vhigh'
p2693
aS'low'
p2694
aS'5more'
p2695
ag4
aS'big'
p2696
aS'low'
p2697
aS'unacc'
p2698
aa(lp2699
S'vhigh'
p2700
aS'low'
p2701
aS'5more'
p2702
ag4
aS'big'
p2703
aS'med'
p2704
aS'unacc'
p2705
aa(lp2706
S'vhigh'
p2707
aS'low'
p2708
aS'5more'
p2709
ag4
aS'big'
p2710
aS'high'
p2711
aS'unacc'
p2712
aa(lp2713
S'vhigh'
p2714
aS'low'
p2715
aS'5more'
p2716
ag59
aS'small'
p2717
aS'low'
p2718
aS'unacc'
p2719
aa(lp2720
S'vhigh'
p2721
aS'low'
p2722
aS'5more'
p2723
ag59
aS'small'
p2724
aS'med'
p2725
aS'unacc'
p2726
aa(lp2727
S'vhigh'
p2728
aS'low'
p2729
aS'5more'
p2730
ag59
aS'small'
p2731
aS'high'
p2732
aS'acc'
p2733
aa(lp2734
S'vhigh'
p2735
aS'low'
p2736
aS'5more'
p2737
ag59
aS'med'
p2738
aS'low'
p2739
aS'unacc'
p2740
aa(lp2741
S'vhigh'
p2742
aS'low'
p2743
aS'5more'
p2744
ag59
aS'med'
p2745
aS'med'
p2746
aS'acc'
p2747
aa(lp2748
S'vhigh'
p2749
aS'low'
p2750
aS'5more'
p2751
ag59
aS'med'
p2752
aS'high'
p2753
aS'acc'
p2754
aa(lp2755
S'vhigh'
p2756
aS'low'
p2757
aS'5more'
p2758
ag59
aS'big'
p2759
aS'low'
p2760
aS'unacc'
p2761
aa(lp2762
S'vhigh'
p2763
aS'low'
p2764
aS'5more'
p2765
ag59
aS'big'
p2766
aS'med'
p2767
aS'acc'
p2768
aa(lp2769
S'vhigh'
p2770
aS'low'
p2771
aS'5more'
p2772
ag59
aS'big'
p2773
aS'high'
p2774
aS'acc'
p2775
aa(lp2776
S'vhigh'
p2777
aS'low'
p2778
aS'5more'
p2779
aS'more'
p2780
aS'small'
p2781
aS'low'
p2782
aS'unacc'
p2783
aa(lp2784
S'vhigh'
p2785
aS'low'
p2786
aS'5more'
p2787
aS'more'
p2788
aS'small'
p2789
aS'med'
p2790
aS'unacc'
p2791
aa(lp2792
S'vhigh'
p2793
aS'low'
p2794
aS'5more'
p2795
aS'more'
p2796
aS'small'
p2797
aS'high'
p2798
aS'acc'
p2799
aa(lp2800
S'vhigh'
p2801
aS'low'
p2802
aS'5more'
p2803
aS'more'
p2804
aS'med'
p2805
aS'low'
p2806
aS'unacc'
p2807
aa(lp2808
S'vhigh'
p2809
aS'low'
p2810
aS'5more'
p2811
aS'more'
p2812
aS'med'
p2813
aS'med'
p2814
aS'acc'
p2815
aa(lp2816
S'vhigh'
p2817
aS'low'
p2818
aS'5more'
p2819
aS'more'
p2820
aS'med'
p2821
aS'high'
p2822
aS'acc'
p2823
aa(lp2824
S'vhigh'
p2825
aS'low'
p2826
aS'5more'
p2827
aS'more'
p2828
aS'big'
p2829
aS'low'
p2830
aS'unacc'
p2831
aa(lp2832
S'vhigh'
p2833
aS'low'
p2834
aS'5more'
p2835
aS'more'
p2836
aS'big'
p2837
aS'med'
p2838
aS'acc'
p2839
aa(lp2840
S'vhigh'
p2841
aS'low'
p2842
aS'5more'
p2843
aS'more'
p2844
aS'big'
p2845
aS'high'
p2846
aS'acc'
p2847
aa(lp2848
S'high'
p2849
aS'vhigh'
p2850
ag4
ag4
aS'small'
p2851
aS'low'
p2852
aS'unacc'
p2853
aa(lp2854
S'high'
p2855
aS'vhigh'
p2856
ag4
ag4
aS'small'
p2857
aS'med'
p2858
aS'unacc'
p2859
aa(lp2860
S'high'
p2861
aS'vhigh'
p2862
ag4
ag4
aS'small'
p2863
aS'high'
p2864
aS'unacc'
p2865
aa(lp2866
S'high'
p2867
aS'vhigh'
p2868
ag4
ag4
aS'med'
p2869
aS'low'
p2870
aS'unacc'
p2871
aa(lp2872
S'high'
p2873
aS'vhigh'
p2874
ag4
ag4
aS'med'
p2875
aS'med'
p2876
aS'unacc'
p2877
aa(lp2878
S'high'
p2879
aS'vhigh'
p2880
ag4
ag4
aS'med'
p2881
aS'high'
p2882
aS'unacc'
p2883
aa(lp2884
S'high'
p2885
aS'vhigh'
p2886
ag4
ag4
aS'big'
p2887
aS'low'
p2888
aS'unacc'
p2889
aa(lp2890
S'high'
p2891
aS'vhigh'
p2892
ag4
ag4
aS'big'
p2893
aS'med'
p2894
aS'unacc'
p2895
aa(lp2896
S'high'
p2897
aS'vhigh'
p2898
ag4
ag4
aS'big'
p2899
aS'high'
p2900
aS'unacc'
p2901
aa(lp2902
S'high'
p2903
aS'vhigh'
p2904
ag4
ag59
aS'small'
p2905
aS'low'
p2906
aS'unacc'
p2907
aa(lp2908
S'high'
p2909
aS'vhigh'
p2910
ag4
ag59
aS'small'
p2911
aS'med'
p2912
aS'unacc'
p2913
aa(lp2914
S'high'
p2915
aS'vhigh'
p2916
ag4
ag59
aS'small'
p2917
aS'high'
p2918
aS'unacc'
p2919
aa(lp2920
S'high'
p2921
aS'vhigh'
p2922
ag4
ag59
aS'med'
p2923
aS'low'
p2924
aS'unacc'
p2925
aa(lp2926
S'high'
p2927
aS'vhigh'
p2928
ag4
ag59
aS'med'
p2929
aS'med'
p2930
aS'unacc'
p2931
aa(lp2932
S'high'
p2933
aS'vhigh'
p2934
ag4
ag59
aS'med'
p2935
aS'high'
p2936
aS'unacc'
p2937
aa(lp2938
S'high'
p2939
aS'vhigh'
p2940
ag4
ag59
aS'big'
p2941
aS'low'
p2942
aS'unacc'
p2943
aa(lp2944
S'high'
p2945
aS'vhigh'
p2946
ag4
ag59
aS'big'
p2947
aS'med'
p2948
aS'unacc'
p2949
aa(lp2950
S'high'
p2951
aS'vhigh'
p2952
ag4
ag59
aS'big'
p2953
aS'high'
p2954
aS'unacc'
p2955
aa(lp2956
S'high'
p2957
aS'vhigh'
p2958
ag4
aS'more'
p2959
aS'small'
p2960
aS'low'
p2961
aS'unacc'
p2962
aa(lp2963
S'high'
p2964
aS'vhigh'
p2965
ag4
aS'more'
p2966
aS'small'
p2967
aS'med'
p2968
aS'unacc'
p2969
aa(lp2970
S'high'
p2971
aS'vhigh'
p2972
ag4
aS'more'
p2973
aS'small'
p2974
aS'high'
p2975
aS'unacc'
p2976
aa(lp2977
S'high'
p2978
aS'vhigh'
p2979
ag4
aS'more'
p2980
aS'med'
p2981
aS'low'
p2982
aS'unacc'
p2983
aa(lp2984
S'high'
p2985
aS'vhigh'
p2986
ag4
aS'more'
p2987
aS'med'
p2988
aS'med'
p2989
aS'unacc'
p2990
aa(lp2991
S'high'
p2992
aS'vhigh'
p2993
ag4
aS'more'
p2994
aS'med'
p2995
aS'high'
p2996
aS'unacc'
p2997
aa(lp2998
S'high'
p2999
aS'vhigh'
p3000
ag4
aS'more'
p3001
aS'big'
p3002
aS'low'
p3003
aS'unacc'
p3004
aa(lp3005
S'high'
p3006
aS'vhigh'
p3007
ag4
aS'more'
p3008
aS'big'
p3009
aS'med'
p3010
aS'unacc'
p3011
aa(lp3012
S'high'
p3013
aS'vhigh'
p3014
ag4
aS'more'
p3015
aS'big'
p3016
aS'high'
p3017
aS'unacc'
p3018
aa(lp3019
S'high'
p3020
aS'vhigh'
p3021
ag177
ag4
aS'small'
p3022
aS'low'
p3023
aS'unacc'
p3024
aa(lp3025
S'high'
p3026
aS'vhigh'
p3027
ag177
ag4
aS'small'
p3028
aS'med'
p3029
aS'unacc'
p3030
aa(lp3031
S'high'
p3032
aS'vhigh'
p3033
ag177
ag4
aS'small'
p3034
aS'high'
p3035
aS'unacc'
p3036
aa(lp3037
S'high'
p3038
aS'vhigh'
p3039
ag177
ag4
aS'med'
p3040
aS'low'
p3041
aS'unacc'
p3042
aa(lp3043
S'high'
p3044
aS'vhigh'
p3045
ag177
ag4
aS'med'
p3046
aS'med'
p3047
aS'unacc'
p3048
aa(lp3049
S'high'
p3050
aS'vhigh'
p3051
ag177
ag4
aS'med'
p3052
aS'high'
p3053
aS'unacc'
p3054
aa(lp3055
S'high'
p3056
aS'vhigh'
p3057
ag177
ag4
aS'big'
p3058
aS'low'
p3059
aS'unacc'
p3060
aa(lp3061
S'high'
p3062
aS'vhigh'
p3063
ag177
ag4
aS'big'
p3064
aS'med'
p3065
aS'unacc'
p3066
aa(lp3067
S'high'
p3068
aS'vhigh'
p3069
ag177
ag4
aS'big'
p3070
aS'high'
p3071
aS'unacc'
p3072
aa(lp3073
S'high'
p3074
aS'vhigh'
p3075
ag177
ag59
aS'small'
p3076
aS'low'
p3077
aS'unacc'
p3078
aa(lp3079
S'high'
p3080
aS'vhigh'
p3081
ag177
ag59
aS'small'
p3082
aS'med'
p3083
aS'unacc'
p3084
aa(lp3085
S'high'
p3086
aS'vhigh'
p3087
ag177
ag59
aS'small'
p3088
aS'high'
p3089
aS'unacc'
p3090
aa(lp3091
S'high'
p3092
aS'vhigh'
p3093
ag177
ag59
aS'med'
p3094
aS'low'
p3095
aS'unacc'
p3096
aa(lp3097
S'high'
p3098
aS'vhigh'
p3099
ag177
ag59
aS'med'
p3100
aS'med'
p3101
aS'unacc'
p3102
aa(lp3103
S'high'
p3104
aS'vhigh'
p3105
ag177
ag59
aS'med'
p3106
aS'high'
p3107
aS'unacc'
p3108
aa(lp3109
S'high'
p3110
aS'vhigh'
p3111
ag177
ag59
aS'big'
p3112
aS'low'
p3113
aS'unacc'
p3114
aa(lp3115
S'high'
p3116
aS'vhigh'
p3117
ag177
ag59
aS'big'
p3118
aS'med'
p3119
aS'unacc'
p3120
aa(lp3121
S'high'
p3122
aS'vhigh'
p3123
ag177
ag59
aS'big'
p3124
aS'high'
p3125
aS'unacc'
p3126
aa(lp3127
S'high'
p3128
aS'vhigh'
p3129
ag177
aS'more'
p3130
aS'small'
p3131
aS'low'
p3132
aS'unacc'
p3133
aa(lp3134
S'high'
p3135
aS'vhigh'
p3136
ag177
aS'more'
p3137
aS'small'
p3138
aS'med'
p3139
aS'unacc'
p3140
aa(lp3141
S'high'
p3142
aS'vhigh'
p3143
ag177
aS'more'
p3144
aS'small'
p3145
aS'high'
p3146
aS'unacc'
p3147
aa(lp3148
S'high'
p3149
aS'vhigh'
p3150
ag177
aS'more'
p3151
aS'med'
p3152
aS'low'
p3153
aS'unacc'
p3154
aa(lp3155
S'high'
p3156
aS'vhigh'
p3157
ag177
aS'more'
p3158
aS'med'
p3159
aS'med'
p3160
aS'unacc'
p3161
aa(lp3162
S'high'
p3163
aS'vhigh'
p3164
ag177
aS'more'
p3165
aS'med'
p3166
aS'high'
p3167
aS'unacc'
p3168
aa(lp3169
S'high'
p3170
aS'vhigh'
p3171
ag177
aS'more'
p3172
aS'big'
p3173
aS'low'
p3174
aS'unacc'
p3175
aa(lp3176
S'high'
p3177
aS'vhigh'
p3178
ag177
aS'more'
p3179
aS'big'
p3180
aS'med'
p3181
aS'unacc'
p3182
aa(lp3183
S'high'
p3184
aS'vhigh'
p3185
ag177
aS'more'
p3186
aS'big'
p3187
aS'high'
p3188
aS'unacc'
p3189
aa(lp3190
S'high'
p3191
aS'vhigh'
p3192
ag59
ag4
aS'small'
p3193
aS'low'
p3194
aS'unacc'
p3195
aa(lp3196
S'high'
p3197
aS'vhigh'
p3198
ag59
ag4
aS'small'
p3199
aS'med'
p3200
aS'unacc'
p3201
aa(lp3202
S'high'
p3203
aS'vhigh'
p3204
ag59
ag4
aS'small'
p3205
aS'high'
p3206
aS'unacc'
p3207
aa(lp3208
S'high'
p3209
aS'vhigh'
p3210
ag59
ag4
aS'med'
p3211
aS'low'
p3212
aS'unacc'
p3213
aa(lp3214
S'high'
p3215
aS'vhigh'
p3216
ag59
ag4
aS'med'
p3217
aS'med'
p3218
aS'unacc'
p3219
aa(lp3220
S'high'
p3221
aS'vhigh'
p3222
ag59
ag4
aS'med'
p3223
aS'high'
p3224
aS'unacc'
p3225
aa(lp3226
S'high'
p3227
aS'vhigh'
p3228
ag59
ag4
aS'big'
p3229
aS'low'
p3230
aS'unacc'
p3231
aa(lp3232
S'high'
p3233
aS'vhigh'
p3234
ag59
ag4
aS'big'
p3235
aS'med'
p3236
aS'unacc'
p3237
aa(lp3238
S'high'
p3239
aS'vhigh'
p3240
ag59
ag4
aS'big'
p3241
aS'high'
p3242
aS'unacc'
p3243
aa(lp3244
S'high'
p3245
aS'vhigh'
p3246
ag59
ag59
aS'small'
p3247
aS'low'
p3248
aS'unacc'
p3249
aa(lp3250
S'high'
p3251
aS'vhigh'
p3252
ag59
ag59
aS'small'
p3253
aS'med'
p3254
aS'unacc'
p3255
aa(lp3256
S'high'
p3257
aS'vhigh'
p3258
ag59
ag59
aS'small'
p3259
aS'high'
p3260
aS'unacc'
p3261
aa(lp3262
S'high'
p3263
aS'vhigh'
p3264
ag59
ag59
aS'med'
p3265
aS'low'
p3266
aS'unacc'
p3267
aa(lp3268
S'high'
p3269
aS'vhigh'
p3270
ag59
ag59
aS'med'
p3271
aS'med'
p3272
aS'unacc'
p3273
aa(lp3274
S'high'
p3275
aS'vhigh'
p3276
ag59
ag59
aS'med'
p3277
aS'high'
p3278
aS'unacc'
p3279
aa(lp3280
S'high'
p3281
aS'vhigh'
p3282
ag59
ag59
aS'big'
p3283
aS'low'
p3284
aS'unacc'
p3285
aa(lp3286
S'high'
p3287
aS'vhigh'
p3288
ag59
ag59
aS'big'
p3289
aS'med'
p3290
aS'unacc'
p3291
aa(lp3292
S'high'
p3293
aS'vhigh'
p3294
ag59
ag59
aS'big'
p3295
aS'high'
p3296
aS'unacc'
p3297
aa(lp3298
S'high'
p3299
aS'vhigh'
p3300
ag59
aS'more'
p3301
aS'small'
p3302
aS'low'
p3303
aS'unacc'
p3304
aa(lp3305
S'high'
p3306
aS'vhigh'
p3307
ag59
aS'more'
p3308
aS'small'
p3309
aS'med'
p3310
aS'unacc'
p3311
aa(lp3312
S'high'
p3313
aS'vhigh'
p3314
ag59
aS'more'
p3315
aS'small'
p3316
aS'high'
p3317
aS'unacc'
p3318
aa(lp3319
S'high'
p3320
aS'vhigh'
p3321
ag59
aS'more'
p3322
aS'med'
p3323
aS'low'
p3324
aS'unacc'
p3325
aa(lp3326
S'high'
p3327
aS'vhigh'
p3328
ag59
aS'more'
p3329
aS'med'
p3330
aS'med'
p3331
aS'unacc'
p3332
aa(lp3333
S'high'
p3334
aS'vhigh'
p3335
ag59
aS'more'
p3336
aS'med'
p3337
aS'high'
p3338
aS'unacc'
p3339
aa(lp3340
S'high'
p3341
aS'vhigh'
p3342
ag59
aS'more'
p3343
aS'big'
p3344
aS'low'
p3345
aS'unacc'
p3346
aa(lp3347
S'high'
p3348
aS'vhigh'
p3349
ag59
aS'more'
p3350
aS'big'
p3351
aS'med'
p3352
aS'unacc'
p3353
aa(lp3354
S'high'
p3355
aS'vhigh'
p3356
ag59
aS'more'
p3357
aS'big'
p3358
aS'high'
p3359
aS'unacc'
p3360
aa(lp3361
S'high'
p3362
aS'vhigh'
p3363
aS'5more'
p3364
ag4
aS'small'
p3365
aS'low'
p3366
aS'unacc'
p3367
aa(lp3368
S'high'
p3369
aS'vhigh'
p3370
aS'5more'
p3371
ag4
aS'small'
p3372
aS'med'
p3373
aS'unacc'
p3374
aa(lp3375
S'high'
p3376
aS'vhigh'
p3377
aS'5more'
p3378
ag4
aS'small'
p3379
aS'high'
p3380
aS'unacc'
p3381
aa(lp3382
S'high'
p3383
aS'vhigh'
p3384
aS'5more'
p3385
ag4
aS'med'
p3386
aS'low'
p3387
aS'unacc'
p3388
aa(lp3389
S'high'
p3390
aS'vhigh'
p3391
aS'5more'
p3392
ag4
aS'med'
p3393
aS'med'
p3394
aS'unacc'
p3395
aa(lp3396
S'high'
p3397
aS'vhigh'
p3398
aS'5more'
p3399
ag4
aS'med'
p3400
aS'high'
p3401
aS'unacc'
p3402
aa(lp3403
S'high'
p3404
aS'vhigh'
p3405
aS'5more'
p3406
ag4
aS'big'
p3407
aS'low'
p3408
aS'unacc'
p3409
aa(lp3410
S'high'
p3411
aS'vhigh'
p3412
aS'5more'
p3413
ag4
aS'big'
p3414
aS'med'
p3415
aS'unacc'
p3416
aa(lp3417
S'high'
p3418
aS'vhigh'
p3419
aS'5more'
p3420
ag4
aS'big'
p3421
aS'high'
p3422
aS'unacc'
p3423
aa(lp3424
S'high'
p3425
aS'vhigh'
p3426
aS'5more'
p3427
ag59
aS'small'
p3428
aS'low'
p3429
aS'unacc'
p3430
aa(lp3431
S'high'
p3432
aS'vhigh'
p3433
aS'5more'
p3434
ag59
aS'small'
p3435
aS'med'
p3436
aS'unacc'
p3437
aa(lp3438
S'high'
p3439
aS'vhigh'
p3440
aS'5more'
p3441
ag59
aS'small'
p3442
aS'high'
p3443
aS'unacc'
p3444
aa(lp3445
S'high'
p3446
aS'vhigh'
p3447
aS'5more'
p3448
ag59
aS'med'
p3449
aS'low'
p3450
aS'unacc'
p3451
aa(lp3452
S'high'
p3453
aS'vhigh'
p3454
aS'5more'
p3455
ag59
aS'med'
p3456
aS'med'
p3457
aS'unacc'
p3458
aa(lp3459
S'high'
p3460
aS'vhigh'
p3461
aS'5more'
p3462
ag59
aS'med'
p3463
aS'high'
p3464
aS'unacc'
p3465
aa(lp3466
S'high'
p3467
aS'vhigh'
p3468
aS'5more'
p3469
ag59
aS'big'
p3470
aS'low'
p3471
aS'unacc'
p3472
aa(lp3473
S'high'
p3474
aS'vhigh'
p3475
aS'5more'
p3476
ag59
aS'big'
p3477
aS'med'
p3478
aS'unacc'
p3479
aa(lp3480
S'high'
p3481
aS'vhigh'
p3482
aS'5more'
p3483
ag59
aS'big'
p3484
aS'high'
p3485
aS'unacc'
p3486
aa(lp3487
S'high'
p3488
aS'vhigh'
p3489
aS'5more'
p3490
aS'more'
p3491
aS'small'
p3492
aS'low'
p3493
aS'unacc'
p3494
aa(lp3495
S'high'
p3496
aS'vhigh'
p3497
aS'5more'
p3498
aS'more'
p3499
aS'small'
p3500
aS'med'
p3501
aS'unacc'
p3502
aa(lp3503
S'high'
p3504
aS'vhigh'
p3505
aS'5more'
p3506
aS'more'
p3507
aS'small'
p3508
aS'high'
p3509
aS'unacc'
p3510
aa(lp3511
S'high'
p3512
aS'vhigh'
p3513
aS'5more'
p3514
aS'more'
p3515
aS'med'
p3516
aS'low'
p3517
aS'unacc'
p3518
aa(lp3519
S'high'
p3520
aS'vhigh'
p3521
aS'5more'
p3522
aS'more'
p3523
aS'med'
p3524
aS'med'
p3525
aS'unacc'
p3526
aa(lp3527
S'high'
p3528
aS'vhigh'
p3529
aS'5more'
p3530
aS'more'
p3531
aS'med'
p3532
aS'high'
p3533
aS'unacc'
p3534
aa(lp3535
S'high'
p3536
aS'vhigh'
p3537
aS'5more'
p3538
aS'more'
p3539
aS'big'
p3540
aS'low'
p3541
aS'unacc'
p3542
aa(lp3543
S'high'
p3544
aS'vhigh'
p3545
aS'5more'
p3546
aS'more'
p3547
aS'big'
p3548
aS'med'
p3549
aS'unacc'
p3550
aa(lp3551
S'high'
p3552
aS'vhigh'
p3553
aS'5more'
p3554
aS'more'
p3555
aS'big'
p3556
aS'high'
p3557
aS'unacc'
p3558
aa(lp3559
S'high'
p3560
aS'high'
p3561
ag4
ag4
aS'small'
p3562
aS'low'
p3563
aS'unacc'
p3564
aa(lp3565
S'high'
p3566
aS'high'
p3567
ag4
ag4
aS'small'
p3568
aS'med'
p3569
aS'unacc'
p3570
aa(lp3571
S'high'
p3572
aS'high'
p3573
ag4
ag4
aS'small'
p3574
aS'high'
p3575
aS'unacc'
p3576
aa(lp3577
S'high'
p3578
aS'high'
p3579
ag4
ag4
aS'med'
p3580
aS'low'
p3581
aS'unacc'
p3582
aa(lp3583
S'high'
p3584
aS'high'
p3585
ag4
ag4
aS'med'
p3586
aS'med'
p3587
aS'unacc'
p3588
aa(lp3589
S'high'
p3590
aS'high'
p3591
ag4
ag4
aS'med'
p3592
aS'high'
p3593
aS'unacc'
p3594
aa(lp3595
S'high'
p3596
aS'high'
p3597
ag4
ag4
aS'big'
p3598
aS'low'
p3599
aS'unacc'
p3600
aa(lp3601
S'high'
p3602
aS'high'
p3603
ag4
ag4
aS'big'
p3604
aS'med'
p3605
aS'unacc'
p3606
aa(lp3607
S'high'
p3608
aS'high'
p3609
ag4
ag4
aS'big'
p3610
aS'high'
p3611
aS'unacc'
p3612
aa(lp3613
S'high'
p3614
aS'high'
p3615
ag4
ag59
aS'small'
p3616
aS'low'
p3617
aS'unacc'
p3618
aa(lp3619
S'high'
p3620
aS'high'
p3621
ag4
ag59
aS'small'
p3622
aS'med'
p3623
aS'unacc'
p3624
aa(lp3625
S'high'
p3626
aS'high'
p3627
ag4
ag59
aS'small'
p3628
aS'high'
p3629
aS'acc'
p3630
aa(lp3631
S'high'
p3632
aS'high'
p3633
ag4
ag59
aS'med'
p3634
aS'low'
p3635
aS'unacc'
p3636
aa(lp3637
S'high'
p3638
aS'high'
p3639
ag4
ag59
aS'med'
p3640
aS'med'
p3641
aS'unacc'
p3642
aa(lp3643
S'high'
p3644
aS'high'
p3645
ag4
ag59
aS'med'
p3646
aS'high'
p3647
aS'acc'
p3648
aa(lp3649
S'high'
p3650
aS'high'
p3651
ag4
ag59
aS'big'
p3652
aS'low'
p3653
aS'unacc'
p3654
aa(lp3655
S'high'
p3656
aS'high'
p3657
ag4
ag59
aS'big'
p3658
aS'med'
p3659
aS'acc'
p3660
aa(lp3661
S'high'
p3662
aS'high'
p3663
ag4
ag59
aS'big'
p3664
aS'high'
p3665
aS'acc'
p3666
aa(lp3667
S'high'
p3668
aS'high'
p3669
ag4
aS'more'
p3670
aS'small'
p3671
aS'low'
p3672
aS'unacc'
p3673
aa(lp3674
S'high'
p3675
aS'high'
p3676
ag4
aS'more'
p3677
aS'small'
p3678
aS'med'
p3679
aS'unacc'
p3680
aa(lp3681
S'high'
p3682
aS'high'
p3683
ag4
aS'more'
p3684
aS'small'
p3685
aS'high'
p3686
aS'unacc'
p3687
aa(lp3688
S'high'
p3689
aS'high'
p3690
ag4
aS'more'
p3691
aS'med'
p3692
aS'low'
p3693
aS'unacc'
p3694
aa(lp3695
S'high'
p3696
aS'high'
p3697
ag4
aS'more'
p3698
aS'med'
p3699
aS'med'
p3700
aS'unacc'
p3701
aa(lp3702
S'high'
p3703
aS'high'
p3704
ag4
aS'more'
p3705
aS'med'
p3706
aS'high'
p3707
aS'acc'
p3708
aa(lp3709
S'high'
p3710
aS'high'
p3711
ag4
aS'more'
p3712
aS'big'
p3713
aS'low'
p3714
aS'unacc'
p3715
aa(lp3716
S'high'
p3717
aS'high'
p3718
ag4
aS'more'
p3719
aS'big'
p3720
aS'med'
p3721
aS'acc'
p3722
aa(lp3723
S'high'
p3724
aS'high'
p3725
ag4
aS'more'
p3726
aS'big'
p3727
aS'high'
p3728
aS'acc'
p3729
aa(lp3730
S'high'
p3731
aS'high'
p3732
ag177
ag4
aS'small'
p3733
aS'low'
p3734
aS'unacc'
p3735
aa(lp3736
S'high'
p3737
aS'high'
p3738
ag177
ag4
aS'small'
p3739
aS'med'
p3740
aS'unacc'
p3741
aa(lp3742
S'high'
p3743
aS'high'
p3744
ag177
ag4
aS'small'
p3745
aS'high'
p3746
aS'unacc'
p3747
aa(lp3748
S'high'
p3749
aS'high'
p3750
ag177
ag4
aS'med'
p3751
aS'low'
p3752
aS'unacc'
p3753
aa(lp3754
S'high'
p3755
aS'high'
p3756
ag177
ag4
aS'med'
p3757
aS'med'
p3758
aS'unacc'
p3759
aa(lp3760
S'high'
p3761
aS'high'
p3762
ag177
ag4
aS'med'
p3763
aS'high'
p3764
aS'unacc'
p3765
aa(lp3766
S'high'
p3767
aS'high'
p3768
ag177
ag4
aS'big'
p3769
aS'low'
p3770
aS'unacc'
p3771
aa(lp3772
S'high'
p3773
aS'high'
p3774
ag177
ag4
aS'big'
p3775
aS'med'
p3776
aS'unacc'
p3777
aa(lp3778
S'high'
p3779
aS'high'
p3780
ag177
ag4
aS'big'
p3781
aS'high'
p3782
aS'unacc'
p3783
aa(lp3784
S'high'
p3785
aS'high'
p3786
ag177
ag59
aS'small'
p3787
aS'low'
p3788
aS'unacc'
p3789
aa(lp3790
S'high'
p3791
aS'high'
p3792
ag177
ag59
aS'small'
p3793
aS'med'
p3794
aS'unacc'
p3795
aa(lp3796
S'high'
p3797
aS'high'
p3798
ag177
ag59
aS'small'
p3799
aS'high'
p3800
aS'acc'
p3801
aa(lp3802
S'high'
p3803
aS'high'
p3804
ag177
ag59
aS'med'
p3805
aS'low'
p3806
aS'unacc'
p3807
aa(lp3808
S'high'
p3809
aS'high'
p3810
ag177
ag59
aS'med'
p3811
aS'med'
p3812
aS'unacc'
p3813
aa(lp3814
S'high'
p3815
aS'high'
p3816
ag177
ag59
aS'med'
p3817
aS'high'
p3818
aS'acc'
p3819
aa(lp3820
S'high'
p3821
aS'high'
p3822
ag177
ag59
aS'big'
p3823
aS'low'
p3824
aS'unacc'
p3825
aa(lp3826
S'high'
p3827
aS'high'
p3828
ag177
ag59
aS'big'
p3829
aS'med'
p3830
aS'acc'
p3831
aa(lp3832
S'high'
p3833
aS'high'
p3834
ag177
ag59
aS'big'
p3835
aS'high'
p3836
aS'acc'
p3837
aa(lp3838
S'high'
p3839
aS'high'
p3840
ag177
aS'more'
p3841
aS'small'
p3842
aS'low'
p3843
aS'unacc'
p3844
aa(lp3845
S'high'
p3846
aS'high'
p3847
ag177
aS'more'
p3848
aS'small'
p3849
aS'med'
p3850
aS'unacc'
p3851
aa(lp3852
S'high'
p3853
aS'high'
p3854
ag177
aS'more'
p3855
aS'small'
p3856
aS'high'
p3857
aS'acc'
p3858
aa(lp3859
S'high'
p3860
aS'high'
p3861
ag177
aS'more'
p3862
aS'med'
p3863
aS'low'
p3864
aS'unacc'
p3865
aa(lp3866
S'high'
p3867
aS'high'
p3868
ag177
aS'more'
p3869
aS'med'
p3870
aS'med'
p3871
aS'acc'
p3872
aa(lp3873
S'high'
p3874
aS'high'
p3875
ag177
aS'more'
p3876
aS'med'
p3877
aS'high'
p3878
aS'acc'
p3879
aa(lp3880
S'high'
p3881
aS'high'
p3882
ag177
aS'more'
p3883
aS'big'
p3884
aS'low'
p3885
aS'unacc'
p3886
aa(lp3887
S'high'
p3888
aS'high'
p3889
ag177
aS'more'
p3890
aS'big'
p3891
aS'med'
p3892
aS'acc'
p3893
aa(lp3894
S'high'
p3895
aS'high'
p3896
ag177
aS'more'
p3897
aS'big'
p3898
aS'high'
p3899
aS'acc'
p3900
aa(lp3901
S'high'
p3902
aS'high'
p3903
ag59
ag4
aS'small'
p3904
aS'low'
p3905
aS'unacc'
p3906
aa(lp3907
S'high'
p3908
aS'high'
p3909
ag59
ag4
aS'small'
p3910
aS'med'
p3911
aS'unacc'
p3912
aa(lp3913
S'high'
p3914
aS'high'
p3915
ag59
ag4
aS'small'
p3916
aS'high'
p3917
aS'unacc'
p3918
aa(lp3919
S'high'
p3920
aS'high'
p3921
ag59
ag4
aS'med'
p3922
aS'low'
p3923
aS'unacc'
p3924
aa(lp3925
S'high'
p3926
aS'high'
p3927
ag59
ag4
aS'med'
p3928
aS'med'
p3929
aS'unacc'
p3930
aa(lp3931
S'high'
p3932
aS'high'
p3933
ag59
ag4
aS'med'
p3934
aS'high'
p3935
aS'unacc'
p3936
aa(lp3937
S'high'
p3938
aS'high'
p3939
ag59
ag4
aS'big'
p3940
aS'low'
p3941
aS'unacc'
p3942
aa(lp3943
S'high'
p3944
aS'high'
p3945
ag59
ag4
aS'big'
p3946
aS'med'
p3947
aS'unacc'
p3948
aa(lp3949
S'high'
p3950
aS'high'
p3951
ag59
ag4
aS'big'
p3952
aS'high'
p3953
aS'unacc'
p3954
aa(lp3955
S'high'
p3956
aS'high'
p3957
ag59
ag59
aS'small'
p3958
aS'low'
p3959
aS'unacc'
p3960
aa(lp3961
S'high'
p3962
aS'high'
p3963
ag59
ag59
aS'small'
p3964
aS'med'
p3965
aS'unacc'
p3966
aa(lp3967
S'high'
p3968
aS'high'
p3969
ag59
ag59
aS'small'
p3970
aS'high'
p3971
aS'acc'
p3972
aa(lp3973
S'high'
p3974
aS'high'
p3975
ag59
ag59
aS'med'
p3976
aS'low'
p3977
aS'unacc'
p3978
aa(lp3979
S'high'
p3980
aS'high'
p3981
ag59
ag59
aS'med'
p3982
aS'med'
p3983
aS'acc'
p3984
aa(lp3985
S'high'
p3986
aS'high'
p3987
ag59
ag59
aS'med'
p3988
aS'high'
p3989
aS'acc'
p3990
aa(lp3991
S'high'
p3992
aS'high'
p3993
ag59
ag59
aS'big'
p3994
aS'low'
p3995
aS'unacc'
p3996
aa(lp3997
S'high'
p3998
aS'high'
p3999
ag59
ag59
aS'big'
p4000
aS'med'
p4001
aS'acc'
p4002
aa(lp4003
S'high'
p4004
aS'high'
p4005
ag59
ag59
aS'big'
p4006
aS'high'
p4007
aS'acc'
p4008
aa(lp4009
S'high'
p4010
aS'high'
p4011
ag59
aS'more'
p4012
aS'small'
p4013
aS'low'
p4014
aS'unacc'
p4015
aa(lp4016
S'high'
p4017
aS'high'
p4018
ag59
aS'more'
p4019
aS'small'
p4020
aS'med'
p4021
aS'unacc'
p4022
aa(lp4023
S'high'
p4024
aS'high'
p4025
ag59
aS'more'
p4026
aS'small'
p4027
aS'high'
p4028
aS'acc'
p4029
aa(lp4030
S'high'
p4031
aS'high'
p4032
ag59
aS'more'
p4033
aS'med'
p4034
aS'low'
p4035
aS'unacc'
p4036
aa(lp4037
S'high'
p4038
aS'high'
p4039
ag59
aS'more'
p4040
aS'med'
p4041
aS'med'
p4042
aS'acc'
p4043
aa(lp4044
S'high'
p4045
aS'high'
p4046
ag59
aS'more'
p4047
aS'med'
p4048
aS'high'
p4049
aS'acc'
p4050
aa(lp4051
S'high'
p4052
aS'high'
p4053
ag59
aS'more'
p4054
aS'big'
p4055
aS'low'
p4056
aS'unacc'
p4057
aa(lp4058
S'high'
p4059
aS'high'
p4060
ag59
aS'more'
p4061
aS'big'
p4062
aS'med'
p4063
aS'acc'
p4064
aa(lp4065
S'high'
p4066
aS'high'
p4067
ag59
aS'more'
p4068
aS'big'
p4069
aS'high'
p4070
aS'acc'
p4071
aa(lp4072
S'high'
p4073
aS'high'
p4074
aS'5more'
p4075
ag4
aS'small'
p4076
aS'low'
p4077
aS'unacc'
p4078
aa(lp4079
S'high'
p4080
aS'high'
p4081
aS'5more'
p4082
ag4
aS'small'
p4083
aS'med'
p4084
aS'unacc'
p4085
aa(lp4086
S'high'
p4087
aS'high'
p4088
aS'5more'
p4089
ag4
aS'small'
p4090
aS'high'
p4091
aS'unacc'
p4092
aa(lp4093
S'high'
p4094
aS'high'
p4095
aS'5more'
p4096
ag4
aS'med'
p4097
aS'low'
p4098
aS'unacc'
p4099
aa(lp4100
S'high'
p4101
aS'high'
p4102
aS'5more'
p4103
ag4
aS'med'
p4104
aS'med'
p4105
aS'unacc'
p4106
aa(lp4107
S'high'
p4108
aS'high'
p4109
aS'5more'
p4110
ag4
aS'med'
p4111
aS'high'
p4112
aS'unacc'
p4113
aa(lp4114
S'high'
p4115
aS'high'
p4116
aS'5more'
p4117
ag4
aS'big'
p4118
aS'low'
p4119
aS'unacc'
p4120
aa(lp4121
S'high'
p4122
aS'high'
p4123
aS'5more'
p4124
ag4
aS'big'
p4125
aS'med'
p4126
aS'unacc'
p4127
aa(lp4128
S'high'
p4129
aS'high'
p4130
aS'5more'
p4131
ag4
aS'big'
p4132
aS'high'
p4133
aS'unacc'
p4134
aa(lp4135
S'high'
p4136
aS'high'
p4137
aS'5more'
p4138
ag59
aS'small'
p4139
aS'low'
p4140
aS'unacc'
p4141
aa(lp4142
S'high'
p4143
aS'high'
p4144
aS'5more'
p4145
ag59
aS'small'
p4146
aS'med'
p4147
aS'unacc'
p4148
aa(lp4149
S'high'
p4150
aS'high'
p4151
aS'5more'
p4152
ag59
aS'small'
p4153
aS'high'
p4154
aS'acc'
p4155
aa(lp4156
S'high'
p4157
aS'high'
p4158
aS'5more'
p4159
ag59
aS'med'
p4160
aS'low'
p4161
aS'unacc'
p4162
aa(lp4163
S'high'
p4164
aS'high'
p4165
aS'5more'
p4166
ag59
aS'med'
p4167
aS'med'
p4168
aS'acc'
p4169
aa(lp4170
S'high'
p4171
aS'high'
p4172
aS'5more'
p4173
ag59
aS'med'
p4174
aS'high'
p4175
aS'acc'
p4176
aa(lp4177
S'high'
p4178
aS'high'
p4179
aS'5more'
p4180
ag59
aS'big'
p4181
aS'low'
p4182
aS'unacc'
p4183
aa(lp4184
S'high'
p4185
aS'high'
p4186
aS'5more'
p4187
ag59
aS'big'
p4188
aS'med'
p4189
aS'acc'
p4190
aa(lp4191
S'high'
p4192
aS'high'
p4193
aS'5more'
p4194
ag59
aS'big'
p4195
aS'high'
p4196
aS'acc'
p4197
aa(lp4198
S'high'
p4199
aS'high'
p4200
aS'5more'
p4201
aS'more'
p4202
aS'small'
p4203
aS'low'
p4204
aS'unacc'
p4205
aa(lp4206
S'high'
p4207
aS'high'
p4208
aS'5more'
p4209
aS'more'
p4210
aS'small'
p4211
aS'med'
p4212
aS'unacc'
p4213
aa(lp4214
S'high'
p4215
aS'high'
p4216
aS'5more'
p4217
aS'more'
p4218
aS'small'
p4219
aS'high'
p4220
aS'acc'
p4221
aa(lp4222
S'high'
p4223
aS'high'
p4224
aS'5more'
p4225
aS'more'
p4226
aS'med'
p4227
aS'low'
p4228
aS'unacc'
p4229
aa(lp4230
S'high'
p4231
aS'high'
p4232
aS'5more'
p4233
aS'more'
p4234
aS'med'
p4235
aS'med'
p4236
aS'acc'
p4237
aa(lp4238
S'high'
p4239
aS'high'
p4240
aS'5more'
p4241
aS'more'
p4242
aS'med'
p4243
aS'high'
p4244
aS'acc'
p4245
aa(lp4246
S'high'
p4247
aS'high'
p4248
aS'5more'
p4249
aS'more'
p4250
aS'big'
p4251
aS'low'
p4252
aS'unacc'
p4253
aa(lp4254
S'high'
p4255
aS'high'
p4256
aS'5more'
p4257
aS'more'
p4258
aS'big'
p4259
aS'med'
p4260
aS'acc'
p4261
aa(lp4262
S'high'
p4263
aS'high'
p4264
aS'5more'
p4265
aS'more'
p4266
aS'big'
p4267
aS'high'
p4268
aS'acc'
p4269
aa(lp4270
S'high'
p4271
aS'med'
p4272
ag4
ag4
aS'small'
p4273
aS'low'
p4274
aS'unacc'
p4275
aa(lp4276
S'high'
p4277
aS'med'
p4278
ag4
ag4
aS'small'
p4279
aS'med'
p4280
aS'unacc'
p4281
aa(lp4282
S'high'
p4283
aS'med'
p4284
ag4
ag4
aS'small'
p4285
aS'high'
p4286
aS'unacc'
p4287
aa(lp4288
S'high'
p4289
aS'med'
p4290
ag4
ag4
aS'med'
p4291
aS'low'
p4292
aS'unacc'
p4293
aa(lp4294
S'high'
p4295
aS'med'
p4296
ag4
ag4
aS'med'
p4297
aS'med'
p4298
aS'unacc'
p4299
aa(lp4300
S'high'
p4301
aS'med'
p4302
ag4
ag4
aS'med'
p4303
aS'high'
p4304
aS'unacc'
p4305
aa(lp4306
S'high'
p4307
aS'med'
p4308
ag4
ag4
aS'big'
p4309
aS'low'
p4310
aS'unacc'
p4311
aa(lp4312
S'high'
p4313
aS'med'
p4314
ag4
ag4
aS'big'
p4315
aS'med'
p4316
aS'unacc'
p4317
aa(lp4318
S'high'
p4319
aS'med'
p4320
ag4
ag4
aS'big'
p4321
aS'high'
p4322
aS'unacc'
p4323
aa(lp4324
S'high'
p4325
aS'med'
p4326
ag4
ag59
aS'small'
p4327
aS'low'
p4328
aS'unacc'
p4329
aa(lp4330
S'high'
p4331
aS'med'
p4332
ag4
ag59
aS'small'
p4333
aS'med'
p4334
aS'unacc'
p4335
aa(lp4336
S'high'
p4337
aS'med'
p4338
ag4
ag59
aS'small'
p4339
aS'high'
p4340
aS'acc'
p4341
aa(lp4342
S'high'
p4343
aS'med'
p4344
ag4
ag59
aS'med'
p4345
aS'low'
p4346
aS'unacc'
p4347
aa(lp4348
S'high'
p4349
aS'med'
p4350
ag4
ag59
aS'med'
p4351
aS'med'
p4352
aS'unacc'
p4353
aa(lp4354
S'high'
p4355
aS'med'
p4356
ag4
ag59
aS'med'
p4357
aS'high'
p4358
aS'acc'
p4359
aa(lp4360
S'high'
p4361
aS'med'
p4362
ag4
ag59
aS'big'
p4363
aS'low'
p4364
aS'unacc'
p4365
aa(lp4366
S'high'
p4367
aS'med'
p4368
ag4
ag59
aS'big'
p4369
aS'med'
p4370
aS'acc'
p4371
aa(lp4372
S'high'
p4373
aS'med'
p4374
ag4
ag59
aS'big'
p4375
aS'high'
p4376
aS'acc'
p4377
aa(lp4378
S'high'
p4379
aS'med'
p4380
ag4
aS'more'
p4381
aS'small'
p4382
aS'low'
p4383
aS'unacc'
p4384
aa(lp4385
S'high'
p4386
aS'med'
p4387
ag4
aS'more'
p4388
aS'small'
p4389
aS'med'
p4390
aS'unacc'
p4391
aa(lp4392
S'high'
p4393
aS'med'
p4394
ag4
aS'more'
p4395
aS'small'
p4396
aS'high'
p4397
aS'unacc'
p4398
aa(lp4399
S'high'
p4400
aS'med'
p4401
ag4
aS'more'
p4402
aS'med'
p4403
aS'low'
p4404
aS'unacc'
p4405
aa(lp4406
S'high'
p4407
aS'med'
p4408
ag4
aS'more'
p4409
aS'med'
p4410
aS'med'
p4411
aS'unacc'
p4412
aa(lp4413
S'high'
p4414
aS'med'
p4415
ag4
aS'more'
p4416
aS'med'
p4417
aS'high'
p4418
aS'acc'
p4419
aa(lp4420
S'high'
p4421
aS'med'
p4422
ag4
aS'more'
p4423
aS'big'
p4424
aS'low'
p4425
aS'unacc'
p4426
aa(lp4427
S'high'
p4428
aS'med'
p4429
ag4
aS'more'
p4430
aS'big'
p4431
aS'med'
p4432
aS'acc'
p4433
aa(lp4434
S'high'
p4435
aS'med'
p4436
ag4
aS'more'
p4437
aS'big'
p4438
aS'high'
p4439
aS'acc'
p4440
aa(lp4441
S'high'
p4442
aS'med'
p4443
ag177
ag4
aS'small'
p4444
aS'low'
p4445
aS'unacc'
p4446
aa(lp4447
S'high'
p4448
aS'med'
p4449
ag177
ag4
aS'small'
p4450
aS'med'
p4451
aS'unacc'
p4452
aa(lp4453
S'high'
p4454
aS'med'
p4455
ag177
ag4
aS'small'
p4456
aS'high'
p4457
aS'unacc'
p4458
aa(lp4459
S'high'
p4460
aS'med'
p4461
ag177
ag4
aS'med'
p4462
aS'low'
p4463
aS'unacc'
p4464
aa(lp4465
S'high'
p4466
aS'med'
p4467
ag177
ag4
aS'med'
p4468
aS'med'
p4469
aS'unacc'
p4470
aa(lp4471
S'high'
p4472
aS'med'
p4473
ag177
ag4
aS'med'
p4474
aS'high'
p4475
aS'unacc'
p4476
aa(lp4477
S'high'
p4478
aS'med'
p4479
ag177
ag4
aS'big'
p4480
aS'low'
p4481
aS'unacc'
p4482
aa(lp4483
S'high'
p4484
aS'med'
p4485
ag177
ag4
aS'big'
p4486
aS'med'
p4487
aS'unacc'
p4488
aa(lp4489
S'high'
p4490
aS'med'
p4491
ag177
ag4
aS'big'
p4492
aS'high'
p4493
aS'unacc'
p4494
aa(lp4495
S'high'
p4496
aS'med'
p4497
ag177
ag59
aS'small'
p4498
aS'low'
p4499
aS'unacc'
p4500
aa(lp4501
S'high'
p4502
aS'med'
p4503
ag177
ag59
aS'small'
p4504
aS'med'
p4505
aS'unacc'
p4506
aa(lp4507
S'high'
p4508
aS'med'
p4509
ag177
ag59
aS'small'
p4510
aS'high'
p4511
aS'acc'
p4512
aa(lp4513
S'high'
p4514
aS'med'
p4515
ag177
ag59
aS'med'
p4516
aS'low'
p4517
aS'unacc'
p4518
aa(lp4519
S'high'
p4520
aS'med'
p4521
ag177
ag59
aS'med'
p4522
aS'med'
p4523
aS'unacc'
p4524
aa(lp4525
S'high'
p4526
aS'med'
p4527
ag177
ag59
aS'med'
p4528
aS'high'
p4529
aS'acc'
p4530
aa(lp4531
S'high'
p4532
aS'med'
p4533
ag177
ag59
aS'big'
p4534
aS'low'
p4535
aS'unacc'
p4536
aa(lp4537
S'high'
p4538
aS'med'
p4539
ag177
ag59
aS'big'
p4540
aS'med'
p4541
aS'acc'
p4542
aa(lp4543
S'high'
p4544
aS'med'
p4545
ag177
ag59
aS'big'
p4546
aS'high'
p4547
aS'acc'
p4548
aa(lp4549
S'high'
p4550
aS'med'
p4551
ag177
aS'more'
p4552
aS'small'
p4553
aS'low'
p4554
aS'unacc'
p4555
aa(lp4556
S'high'
p4557
aS'med'
p4558
ag177
aS'more'
p4559
aS'small'
p4560
aS'med'
p4561
aS'unacc'
p4562
aa(lp4563
S'high'
p4564
aS'med'
p4565
ag177
aS'more'
p4566
aS'small'
p4567
aS'high'
p4568
aS'acc'
p4569
aa(lp4570
S'high'
p4571
aS'med'
p4572
ag177
aS'more'
p4573
aS'med'
p4574
aS'low'
p4575
aS'unacc'
p4576
aa(lp4577
S'high'
p4578
aS'med'
p4579
ag177
aS'more'
p4580
aS'med'
p4581
aS'med'
p4582
aS'acc'
p4583
aa(lp4584
S'high'
p4585
aS'med'
p4586
ag177
aS'more'
p4587
aS'med'
p4588
aS'high'
p4589
aS'acc'
p4590
aa(lp4591
S'high'
p4592
aS'med'
p4593
ag177
aS'more'
p4594
aS'big'
p4595
aS'low'
p4596
aS'unacc'
p4597
aa(lp4598
S'high'
p4599
aS'med'
p4600
ag177
aS'more'
p4601
aS'big'
p4602
aS'med'
p4603
aS'acc'
p4604
aa(lp4605
S'high'
p4606
aS'med'
p4607
ag177
aS'more'
p4608
aS'big'
p4609
aS'high'
p4610
aS'acc'
p4611
aa(lp4612
S'high'
p4613
aS'med'
p4614
ag59
ag4
aS'small'
p4615
aS'low'
p4616
aS'unacc'
p4617
aa(lp4618
S'high'
p4619
aS'med'
p4620
ag59
ag4
aS'small'
p4621
aS'med'
p4622
aS'unacc'
p4623
aa(lp4624
S'high'
p4625
aS'med'
p4626
ag59
ag4
aS'small'
p4627
aS'high'
p4628
aS'unacc'
p4629
aa(lp4630
S'high'
p4631
aS'med'
p4632
ag59
ag4
aS'med'
p4633
aS'low'
p4634
aS'unacc'
p4635
aa(lp4636
S'high'
p4637
aS'med'
p4638
ag59
ag4
aS'med'
p4639
aS'med'
p4640
aS'unacc'
p4641
aa(lp4642
S'high'
p4643
aS'med'
p4644
ag59
ag4
aS'med'
p4645
aS'high'
p4646
aS'unacc'
p4647
aa(lp4648
S'high'
p4649
aS'med'
p4650
ag59
ag4
aS'big'
p4651
aS'low'
p4652
aS'unacc'
p4653
aa(lp4654
S'high'
p4655
aS'med'
p4656
ag59
ag4
aS'big'
p4657
aS'med'
p4658
aS'unacc'
p4659
aa(lp4660
S'high'
p4661
aS'med'
p4662
ag59
ag4
aS'big'
p4663
aS'high'
p4664
aS'unacc'
p4665
aa(lp4666
S'high'
p4667
aS'med'
p4668
ag59
ag59
aS'small'
p4669
aS'low'
p4670
aS'unacc'
p4671
aa(lp4672
S'high'
p4673
aS'med'
p4674
ag59
ag59
aS'small'
p4675
aS'med'
p4676
aS'unacc'
p4677
aa(lp4678
S'high'
p4679
aS'med'
p4680
ag59
ag59
aS'small'
p4681
aS'high'
p4682
aS'acc'
p4683
aa(lp4684
S'high'
p4685
aS'med'
p4686
ag59
ag59
aS'med'
p4687
aS'low'
p4688
aS'unacc'
p4689
aa(lp4690
S'high'
p4691
aS'med'
p4692
ag59
ag59
aS'med'
p4693
aS'med'
p4694
aS'acc'
p4695
aa(lp4696
S'high'
p4697
aS'med'
p4698
ag59
ag59
aS'med'
p4699
aS'high'
p4700
aS'acc'
p4701
aa(lp4702
S'high'
p4703
aS'med'
p4704
ag59
ag59
aS'big'
p4705
aS'low'
p4706
aS'unacc'
p4707
aa(lp4708
S'high'
p4709
aS'med'
p4710
ag59
ag59
aS'big'
p4711
aS'med'
p4712
aS'acc'
p4713
aa(lp4714
S'high'
p4715
aS'med'
p4716
ag59
ag59
aS'big'
p4717
aS'high'
p4718
aS'acc'
p4719
aa(lp4720
S'high'
p4721
aS'med'
p4722
ag59
aS'more'
p4723
aS'small'
p4724
aS'low'
p4725
aS'unacc'
p4726
aa(lp4727
S'high'
p4728
aS'med'
p4729
ag59
aS'more'
p4730
aS'small'
p4731
aS'med'
p4732
aS'unacc'
p4733
aa(lp4734
S'high'
p4735
aS'med'
p4736
ag59
aS'more'
p4737
aS'small'
p4738
aS'high'
p4739
aS'acc'
p4740
aa(lp4741
S'high'
p4742
aS'med'
p4743
ag59
aS'more'
p4744
aS'med'
p4745
aS'low'
p4746
aS'unacc'
p4747
aa(lp4748
S'high'
p4749
aS'med'
p4750
ag59
aS'more'
p4751
aS'med'
p4752
aS'med'
p4753
aS'acc'
p4754
aa(lp4755
S'high'
p4756
aS'med'
p4757
ag59
aS'more'
p4758
aS'med'
p4759
aS'high'
p4760
aS'acc'
p4761
aa(lp4762
S'high'
p4763
aS'med'
p4764
ag59
aS'more'
p4765
aS'big'
p4766
aS'low'
p4767
aS'unacc'
p4768
aa(lp4769
S'high'
p4770
aS'med'
p4771
ag59
aS'more'
p4772
aS'big'
p4773
aS'med'
p4774
aS'acc'
p4775
aa(lp4776
S'high'
p4777
aS'med'
p4778
ag59
aS'more'
p4779
aS'big'
p4780
aS'high'
p4781
aS'acc'
p4782
aa(lp4783
S'high'
p4784
aS'med'
p4785
aS'5more'
p4786
ag4
aS'small'
p4787
aS'low'
p4788
aS'unacc'
p4789
aa(lp4790
S'high'
p4791
aS'med'
p4792
aS'5more'
p4793
ag4
aS'small'
p4794
aS'med'
p4795
aS'unacc'
p4796
aa(lp4797
S'high'
p4798
aS'med'
p4799
aS'5more'
p4800
ag4
aS'small'
p4801
aS'high'
p4802
aS'unacc'
p4803
aa(lp4804
S'high'
p4805
aS'med'
p4806
aS'5more'
p4807
ag4
aS'med'
p4808
aS'low'
p4809
aS'unacc'
p4810
aa(lp4811
S'high'
p4812
aS'med'
p4813
aS'5more'
p4814
ag4
aS'med'
p4815
aS'med'
p4816
aS'unacc'
p4817
aa(lp4818
S'high'
p4819
aS'med'
p4820
aS'5more'
p4821
ag4
aS'med'
p4822
aS'high'
p4823
aS'unacc'
p4824
aa(lp4825
S'high'
p4826
aS'med'
p4827
aS'5more'
p4828
ag4
aS'big'
p4829
aS'low'
p4830
aS'unacc'
p4831
aa(lp4832
S'high'
p4833
aS'med'
p4834
aS'5more'
p4835
ag4
aS'big'
p4836
aS'med'
p4837
aS'unacc'
p4838
aa(lp4839
S'high'
p4840
aS'med'
p4841
aS'5more'
p4842
ag4
aS'big'
p4843
aS'high'
p4844
aS'unacc'
p4845
aa(lp4846
S'high'
p4847
aS'med'
p4848
aS'5more'
p4849
ag59
aS'small'
p4850
aS'low'
p4851
aS'unacc'
p4852
aa(lp4853
S'high'
p4854
aS'med'
p4855
aS'5more'
p4856
ag59
aS'small'
p4857
aS'med'
p4858
aS'unacc'
p4859
aa(lp4860
S'high'
p4861
aS'med'
p4862
aS'5more'
p4863
ag59
aS'small'
p4864
aS'high'
p4865
aS'acc'
p4866
aa(lp4867
S'high'
p4868
aS'med'
p4869
aS'5more'
p4870
ag59
aS'med'
p4871
aS'low'
p4872
aS'unacc'
p4873
aa(lp4874
S'high'
p4875
aS'med'
p4876
aS'5more'
p4877
ag59
aS'med'
p4878
aS'med'
p4879
aS'acc'
p4880
aa(lp4881
S'high'
p4882
aS'med'
p4883
aS'5more'
p4884
ag59
aS'med'
p4885
aS'high'
p4886
aS'acc'
p4887
aa(lp4888
S'high'
p4889
aS'med'
p4890
aS'5more'
p4891
ag59
aS'big'
p4892
aS'low'
p4893
aS'unacc'
p4894
aa(lp4895
S'high'
p4896
aS'med'
p4897
aS'5more'
p4898
ag59
aS'big'
p4899
aS'med'
p4900
aS'acc'
p4901
aa(lp4902
S'high'
p4903
aS'med'
p4904
aS'5more'
p4905
ag59
aS'big'
p4906
aS'high'
p4907
aS'acc'
p4908
aa(lp4909
S'high'
p4910
aS'med'
p4911
aS'5more'
p4912
aS'more'
p4913
aS'small'
p4914
aS'low'
p4915
aS'unacc'
p4916
aa(lp4917
S'high'
p4918
aS'med'
p4919
aS'5more'
p4920
aS'more'
p4921
aS'small'
p4922
aS'med'
p4923
aS'unacc'
p4924
aa(lp4925
S'high'
p4926
aS'med'
p4927
aS'5more'
p4928
aS'more'
p4929
aS'small'
p4930
aS'high'
p4931
aS'acc'
p4932
aa(lp4933
S'high'
p4934
aS'med'
p4935
aS'5more'
p4936
aS'more'
p4937
aS'med'
p4938
aS'low'
p4939
aS'unacc'
p4940
aa(lp4941
S'high'
p4942
aS'med'
p4943
aS'5more'
p4944
aS'more'
p4945
aS'med'
p4946
aS'med'
p4947
aS'acc'
p4948
aa(lp4949
S'high'
p4950
aS'med'
p4951
aS'5more'
p4952
aS'more'
p4953
aS'med'
p4954
aS'high'
p4955
aS'acc'
p4956
aa(lp4957
S'high'
p4958
aS'med'
p4959
aS'5more'
p4960
aS'more'
p4961
aS'big'
p4962
aS'low'
p4963
aS'unacc'
p4964
aa(lp4965
S'high'
p4966
aS'med'
p4967
aS'5more'
p4968
aS'more'
p4969
aS'big'
p4970
aS'med'
p4971
aS'acc'
p4972
aa(lp4973
S'high'
p4974
aS'med'
p4975
aS'5more'
p4976
aS'more'
p4977
aS'big'
p4978
aS'high'
p4979
aS'acc'
p4980
aa(lp4981
S'high'
p4982
aS'low'
p4983
ag4
ag4
aS'small'
p4984
aS'low'
p4985
aS'unacc'
p4986
aa(lp4987
S'high'
p4988
aS'low'
p4989
ag4
ag4
aS'small'
p4990
aS'med'
p4991
aS'unacc'
p4992
aa(lp4993
S'high'
p4994
aS'low'
p4995
ag4
ag4
aS'small'
p4996
aS'high'
p4997
aS'unacc'
p4998
aa(lp4999
S'high'
p5000
aS'low'
p5001
ag4
ag4
aS'med'
p5002
aS'low'
p5003
aS'unacc'
p5004
aa(lp5005
S'high'
p5006
aS'low'
p5007
ag4
ag4
aS'med'
p5008
aS'med'
p5009
aS'unacc'
p5010
aa(lp5011
S'high'
p5012
aS'low'
p5013
ag4
ag4
aS'med'
p5014
aS'high'
p5015
aS'unacc'
p5016
aa(lp5017
S'high'
p5018
aS'low'
p5019
ag4
ag4
aS'big'
p5020
aS'low'
p5021
aS'unacc'
p5022
aa(lp5023
S'high'
p5024
aS'low'
p5025
ag4
ag4
aS'big'
p5026
aS'med'
p5027
aS'unacc'
p5028
aa(lp5029
S'high'
p5030
aS'low'
p5031
ag4
ag4
aS'big'
p5032
aS'high'
p5033
aS'unacc'
p5034
aa(lp5035
S'high'
p5036
aS'low'
p5037
ag4
ag59
aS'small'
p5038
aS'low'
p5039
aS'unacc'
p5040
aa(lp5041
S'high'
p5042
aS'low'
p5043
ag4
ag59
aS'small'
p5044
aS'med'
p5045
aS'unacc'
p5046
aa(lp5047
S'high'
p5048
aS'low'
p5049
ag4
ag59
aS'small'
p5050
aS'high'
p5051
aS'acc'
p5052
aa(lp5053
S'high'
p5054
aS'low'
p5055
ag4
ag59
aS'med'
p5056
aS'low'
p5057
aS'unacc'
p5058
aa(lp5059
S'high'
p5060
aS'low'
p5061
ag4
ag59
aS'med'
p5062
aS'med'
p5063
aS'unacc'
p5064
aa(lp5065
S'high'
p5066
aS'low'
p5067
ag4
ag59
aS'med'
p5068
aS'high'
p5069
aS'acc'
p5070
aa(lp5071
S'high'
p5072
aS'low'
p5073
ag4
ag59
aS'big'
p5074
aS'low'
p5075
aS'unacc'
p5076
aa(lp5077
S'high'
p5078
aS'low'
p5079
ag4
ag59
aS'big'
p5080
aS'med'
p5081
aS'acc'
p5082
aa(lp5083
S'high'
p5084
aS'low'
p5085
ag4
ag59
aS'big'
p5086
aS'high'
p5087
aS'acc'
p5088
aa(lp5089
S'high'
p5090
aS'low'
p5091
ag4
aS'more'
p5092
aS'small'
p5093
aS'low'
p5094
aS'unacc'
p5095
aa(lp5096
S'high'
p5097
aS'low'
p5098
ag4
aS'more'
p5099
aS'small'
p5100
aS'med'
p5101
aS'unacc'
p5102
aa(lp5103
S'high'
p5104
aS'low'
p5105
ag4
aS'more'
p5106
aS'small'
p5107
aS'high'
p5108
aS'unacc'
p5109
aa(lp5110
S'high'
p5111
aS'low'
p5112
ag4
aS'more'
p5113
aS'med'
p5114
aS'low'
p5115
aS'unacc'
p5116
aa(lp5117
S'high'
p5118
aS'low'
p5119
ag4
aS'more'
p5120
aS'med'
p5121
aS'med'
p5122
aS'unacc'
p5123
aa(lp5124
S'high'
p5125
aS'low'
p5126
ag4
aS'more'
p5127
aS'med'
p5128
aS'high'
p5129
aS'acc'
p5130
aa(lp5131
S'high'
p5132
aS'low'
p5133
ag4
aS'more'
p5134
aS'big'
p5135
aS'low'
p5136
aS'unacc'
p5137
aa(lp5138
S'high'
p5139
aS'low'
p5140
ag4
aS'more'
p5141
aS'big'
p5142
aS'med'
p5143
aS'acc'
p5144
aa(lp5145
S'high'
p5146
aS'low'
p5147
ag4
aS'more'
p5148
aS'big'
p5149
aS'high'
p5150
aS'acc'
p5151
aa(lp5152
S'high'
p5153
aS'low'
p5154
ag177
ag4
aS'small'
p5155
aS'low'
p5156
aS'unacc'
p5157
aa(lp5158
S'high'
p5159
aS'low'
p5160
ag177
ag4
aS'small'
p5161
aS'med'
p5162
aS'unacc'
p5163
aa(lp5164
S'high'
p5165
aS'low'
p5166
ag177
ag4
aS'small'
p5167
aS'high'
p5168
aS'unacc'
p5169
aa(lp5170
S'high'
p5171
aS'low'
p5172
ag177
ag4
aS'med'
p5173
aS'low'
p5174
aS'unacc'
p5175
aa(lp5176
S'high'
p5177
aS'low'
p5178
ag177
ag4
aS'med'
p5179
aS'med'
p5180
aS'unacc'
p5181
aa(lp5182
S'high'
p5183
aS'low'
p5184
ag177
ag4
aS'med'
p5185
aS'high'
p5186
aS'unacc'
p5187
aa(lp5188
S'high'
p5189
aS'low'
p5190
ag177
ag4
aS'big'
p5191
aS'low'
p5192
aS'unacc'
p5193
aa(lp5194
S'high'
p5195
aS'low'
p5196
ag177
ag4
aS'big'
p5197
aS'med'
p5198
aS'unacc'
p5199
aa(lp5200
S'high'
p5201
aS'low'
p5202
ag177
ag4
aS'big'
p5203
aS'high'
p5204
aS'unacc'
p5205
aa(lp5206
S'high'
p5207
aS'low'
p5208
ag177
ag59
aS'small'
p5209
aS'low'
p5210
aS'unacc'
p5211
aa(lp5212
S'high'
p5213
aS'low'
p5214
ag177
ag59
aS'small'
p5215
aS'med'
p5216
aS'unacc'
p5217
aa(lp5218
S'high'
p5219
aS'low'
p5220
ag177
ag59
aS'small'
p5221
aS'high'
p5222
aS'acc'
p5223
aa(lp5224
S'high'
p5225
aS'low'
p5226
ag177
ag59
aS'med'
p5227
aS'low'
p5228
aS'unacc'
p5229
aa(lp5230
S'high'
p5231
aS'low'
p5232
ag177
ag59
aS'med'
p5233
aS'med'
p5234
aS'unacc'
p5235
aa(lp5236
S'high'
p5237
aS'low'
p5238
ag177
ag59
aS'med'
p5239
aS'high'
p5240
aS'acc'
p5241
aa(lp5242
S'high'
p5243
aS'low'
p5244
ag177
ag59
aS'big'
p5245
aS'low'
p5246
aS'unacc'
p5247
aa(lp5248
S'high'
p5249
aS'low'
p5250
ag177
ag59
aS'big'
p5251
aS'med'
p5252
aS'acc'
p5253
aa(lp5254
S'high'
p5255
aS'low'
p5256
ag177
ag59
aS'big'
p5257
aS'high'
p5258
aS'acc'
p5259
aa(lp5260
S'high'
p5261
aS'low'
p5262
ag177
aS'more'
p5263
aS'small'
p5264
aS'low'
p5265
aS'unacc'
p5266
aa(lp5267
S'high'
p5268
aS'low'
p5269
ag177
aS'more'
p5270
aS'small'
p5271
aS'med'
p5272
aS'unacc'
p5273
aa(lp5274
S'high'
p5275
aS'low'
p5276
ag177
aS'more'
p5277
aS'small'
p5278
aS'high'
p5279
aS'acc'
p5280
aa(lp5281
S'high'
p5282
aS'low'
p5283
ag177
aS'more'
p5284
aS'med'
p5285
aS'low'
p5286
aS'unacc'
p5287
aa(lp5288
S'high'
p5289
aS'low'
p5290
ag177
aS'more'
p5291
aS'med'
p5292
aS'med'
p5293
aS'acc'
p5294
aa(lp5295
S'high'
p5296
aS'low'
p5297
ag177
aS'more'
p5298
aS'med'
p5299
aS'high'
p5300
aS'acc'
p5301
aa(lp5302
S'high'
p5303
aS'low'
p5304
ag177
aS'more'
p5305
aS'big'
p5306
aS'low'
p5307
aS'unacc'
p5308
aa(lp5309
S'high'
p5310
aS'low'
p5311
ag177
aS'more'
p5312
aS'big'
p5313
aS'med'
p5314
aS'acc'
p5315
aa(lp5316
S'high'
p5317
aS'low'
p5318
ag177
aS'more'
p5319
aS'big'
p5320
aS'high'
p5321
aS'acc'
p5322
aa(lp5323
S'high'
p5324
aS'low'
p5325
ag59
ag4
aS'small'
p5326
aS'low'
p5327
aS'unacc'
p5328
aa(lp5329
S'high'
p5330
aS'low'
p5331
ag59
ag4
aS'small'
p5332
aS'med'
p5333
aS'unacc'
p5334
aa(lp5335
S'high'
p5336
aS'low'
p5337
ag59
ag4
aS'small'
p5338
aS'high'
p5339
aS'unacc'
p5340
aa(lp5341
S'high'
p5342
aS'low'
p5343
ag59
ag4
aS'med'
p5344
aS'low'
p5345
aS'unacc'
p5346
aa(lp5347
S'high'
p5348
aS'low'
p5349
ag59
ag4
aS'med'
p5350
aS'med'
p5351
aS'unacc'
p5352
aa(lp5353
S'high'
p5354
aS'low'
p5355
ag59
ag4
aS'med'
p5356
aS'high'
p5357
aS'unacc'
p5358
aa(lp5359
S'high'
p5360
aS'low'
p5361
ag59
ag4
aS'big'
p5362
aS'low'
p5363
aS'unacc'
p5364
aa(lp5365
S'high'
p5366
aS'low'
p5367
ag59
ag4
aS'big'
p5368
aS'med'
p5369
aS'unacc'
p5370
aa(lp5371
S'high'
p5372
aS'low'
p5373
ag59
ag4
aS'big'
p5374
aS'high'
p5375
aS'unacc'
p5376
aa(lp5377
S'high'
p5378
aS'low'
p5379
ag59
ag59
aS'small'
p5380
aS'low'
p5381
aS'unacc'
p5382
aa(lp5383
S'high'
p5384
aS'low'
p5385
ag59
ag59
aS'small'
p5386
aS'med'
p5387
aS'unacc'
p5388
aa(lp5389
S'high'
p5390
aS'low'
p5391
ag59
ag59
aS'small'
p5392
aS'high'
p5393
aS'acc'
p5394
aa(lp5395
S'high'
p5396
aS'low'
p5397
ag59
ag59
aS'med'
p5398
aS'low'
p5399
aS'unacc'
p5400
aa(lp5401
S'high'
p5402
aS'low'
p5403
ag59
ag59
aS'med'
p5404
aS'med'
p5405
aS'acc'
p5406
aa(lp5407
S'high'
p5408
aS'low'
p5409
ag59
ag59
aS'med'
p5410
aS'high'
p5411
aS'acc'
p5412
aa(lp5413
S'high'
p5414
aS'low'
p5415
ag59
ag59
aS'big'
p5416
aS'low'
p5417
aS'unacc'
p5418
aa(lp5419
S'high'
p5420
aS'low'
p5421
ag59
ag59
aS'big'
p5422
aS'med'
p5423
aS'acc'
p5424
aa(lp5425
S'high'
p5426
aS'low'
p5427
ag59
ag59
aS'big'
p5428
aS'high'
p5429
aS'acc'
p5430
aa(lp5431
S'high'
p5432
aS'low'
p5433
ag59
aS'more'
p5434
aS'small'
p5435
aS'low'
p5436
aS'unacc'
p5437
aa(lp5438
S'high'
p5439
aS'low'
p5440
ag59
aS'more'
p5441
aS'small'
p5442
aS'med'
p5443
aS'unacc'
p5444
aa(lp5445
S'high'
p5446
aS'low'
p5447
ag59
aS'more'
p5448
aS'small'
p5449
aS'high'
p5450
aS'acc'
p5451
aa(lp5452
S'high'
p5453
aS'low'
p5454
ag59
aS'more'
p5455
aS'med'
p5456
aS'low'
p5457
aS'unacc'
p5458
aa(lp5459
S'high'
p5460
aS'low'
p5461
ag59
aS'more'
p5462
aS'med'
p5463
aS'med'
p5464
aS'acc'
p5465
aa(lp5466
S'high'
p5467
aS'low'
p5468
ag59
aS'more'
p5469
aS'med'
p5470
aS'high'
p5471
aS'acc'
p5472
aa(lp5473
S'high'
p5474
aS'low'
p5475
ag59
aS'more'
p5476
aS'big'
p5477
aS'low'
p5478
aS'unacc'
p5479
aa(lp5480
S'high'
p5481
aS'low'
p5482
ag59
aS'more'
p5483
aS'big'
p5484
aS'med'
p5485
aS'acc'
p5486
aa(lp5487
S'high'
p5488
aS'low'
p5489
ag59
aS'more'
p5490
aS'big'
p5491
aS'high'
p5492
aS'acc'
p5493
aa(lp5494
S'high'
p5495
aS'low'
p5496
aS'5more'
p5497
ag4
aS'small'
p5498
aS'low'
p5499
aS'unacc'
p5500
aa(lp5501
S'high'
p5502
aS'low'
p5503
aS'5more'
p5504
ag4
aS'small'
p5505
aS'med'
p5506
aS'unacc'
p5507
aa(lp5508
S'high'
p5509
aS'low'
p5510
aS'5more'
p5511
ag4
aS'small'
p5512
aS'high'
p5513
aS'unacc'
p5514
aa(lp5515
S'high'
p5516
aS'low'
p5517
aS'5more'
p5518
ag4
aS'med'
p5519
aS'low'
p5520
aS'unacc'
p5521
aa(lp5522
S'high'
p5523
aS'low'
p5524
aS'5more'
p5525
ag4
aS'med'
p5526
aS'med'
p5527
aS'unacc'
p5528
aa(lp5529
S'high'
p5530
aS'low'
p5531
aS'5more'
p5532
ag4
aS'med'
p5533
aS'high'
p5534
aS'unacc'
p5535
aa(lp5536
S'high'
p5537
aS'low'
p5538
aS'5more'
p5539
ag4
aS'big'
p5540
aS'low'
p5541
aS'unacc'
p5542
aa(lp5543
S'high'
p5544
aS'low'
p5545
aS'5more'
p5546
ag4
aS'big'
p5547
aS'med'
p5548
aS'unacc'
p5549
aa(lp5550
S'high'
p5551
aS'low'
p5552
aS'5more'
p5553
ag4
aS'big'
p5554
aS'high'
p5555
aS'unacc'
p5556
aa(lp5557
S'high'
p5558
aS'low'
p5559
aS'5more'
p5560
ag59
aS'small'
p5561
aS'low'
p5562
aS'unacc'
p5563
aa(lp5564
S'high'
p5565
aS'low'
p5566
aS'5more'
p5567
ag59
aS'small'
p5568
aS'med'
p5569
aS'unacc'
p5570
aa(lp5571
S'high'
p5572
aS'low'
p5573
aS'5more'
p5574
ag59
aS'small'
p5575
aS'high'
p5576
aS'acc'
p5577
aa(lp5578
S'high'
p5579
aS'low'
p5580
aS'5more'
p5581
ag59
aS'med'
p5582
aS'low'
p5583
aS'unacc'
p5584
aa(lp5585
S'high'
p5586
aS'low'
p5587
aS'5more'
p5588
ag59
aS'med'
p5589
aS'med'
p5590
aS'acc'
p5591
aa(lp5592
S'high'
p5593
aS'low'
p5594
aS'5more'
p5595
ag59
aS'med'
p5596
aS'high'
p5597
aS'acc'
p5598
aa(lp5599
S'high'
p5600
aS'low'
p5601
aS'5more'
p5602
ag59
aS'big'
p5603
aS'low'
p5604
aS'unacc'
p5605
aa(lp5606
S'high'
p5607
aS'low'
p5608
aS'5more'
p5609
ag59
aS'big'
p5610
aS'med'
p5611
aS'acc'
p5612
aa(lp5613
S'high'
p5614
aS'low'
p5615
aS'5more'
p5616
ag59
aS'big'
p5617
aS'high'
p5618
aS'acc'
p5619
aa(lp5620
S'high'
p5621
aS'low'
p5622
aS'5more'
p5623
aS'more'
p5624
aS'small'
p5625
aS'low'
p5626
aS'unacc'
p5627
aa(lp5628
S'high'
p5629
aS'low'
p5630
aS'5more'
p5631
aS'more'
p5632
aS'small'
p5633
aS'med'
p5634
aS'unacc'
p5635
aa(lp5636
S'high'
p5637
aS'low'
p5638
aS'5more'
p5639
aS'more'
p5640
aS'small'
p5641
aS'high'
p5642
aS'acc'
p5643
aa(lp5644
S'high'
p5645
aS'low'
p5646
aS'5more'
p5647
aS'more'
p5648
aS'med'
p5649
aS'low'
p5650
aS'unacc'
p5651
aa(lp5652
S'high'
p5653
aS'low'
p5654
aS'5more'
p5655
aS'more'
p5656
aS'med'
p5657
aS'med'
p5658
aS'acc'
p5659
aa(lp5660
S'high'
p5661
aS'low'
p5662
aS'5more'
p5663
aS'more'
p5664
aS'med'
p5665
aS'high'
p5666
aS'acc'
p5667
aa(lp5668
S'high'
p5669
aS'low'
p5670
aS'5more'
p5671
aS'more'
p5672
aS'big'
p5673
aS'low'
p5674
aS'unacc'
p5675
aa(lp5676
S'high'
p5677
aS'low'
p5678
aS'5more'
p5679
aS'more'
p5680
aS'big'
p5681
aS'med'
p5682
aS'acc'
p5683
aa(lp5684
S'high'
p5685
aS'low'
p5686
aS'5more'
p5687
aS'more'
p5688
aS'big'
p5689
aS'high'
p5690
aS'acc'
p5691
aa(lp5692
S'med'
p5693
aS'vhigh'
p5694
ag4
ag4
aS'small'
p5695
aS'low'
p5696
aS'unacc'
p5697
aa(lp5698
S'med'
p5699
aS'vhigh'
p5700
ag4
ag4
aS'small'
p5701
aS'med'
p5702
aS'unacc'
p5703
aa(lp5704
S'med'
p5705
aS'vhigh'
p5706
ag4
ag4
aS'small'
p5707
aS'high'
p5708
aS'unacc'
p5709
aa(lp5710
S'med'
p5711
aS'vhigh'
p5712
ag4
ag4
aS'med'
p5713
aS'low'
p5714
aS'unacc'
p5715
aa(lp5716
S'med'
p5717
aS'vhigh'
p5718
ag4
ag4
aS'med'
p5719
aS'med'
p5720
aS'unacc'
p5721
aa(lp5722
S'med'
p5723
aS'vhigh'
p5724
ag4
ag4
aS'med'
p5725
aS'high'
p5726
aS'unacc'
p5727
aa(lp5728
S'med'
p5729
aS'vhigh'
p5730
ag4
ag4
aS'big'
p5731
aS'low'
p5732
aS'unacc'
p5733
aa(lp5734
S'med'
p5735
aS'vhigh'
p5736
ag4
ag4
aS'big'
p5737
aS'med'
p5738
aS'unacc'
p5739
aa(lp5740
S'med'
p5741
aS'vhigh'
p5742
ag4
ag4
aS'big'
p5743
aS'high'
p5744
aS'unacc'
p5745
aa(lp5746
S'med'
p5747
aS'vhigh'
p5748
ag4
ag59
aS'small'
p5749
aS'low'
p5750
aS'unacc'
p5751
aa(lp5752
S'med'
p5753
aS'vhigh'
p5754
ag4
ag59
aS'small'
p5755
aS'med'
p5756
aS'unacc'
p5757
aa(lp5758
S'med'
p5759
aS'vhigh'
p5760
ag4
ag59
aS'small'
p5761
aS'high'
p5762
aS'acc'
p5763
aa(lp5764
S'med'
p5765
aS'vhigh'
p5766
ag4
ag59
aS'med'
p5767
aS'low'
p5768
aS'unacc'
p5769
aa(lp5770
S'med'
p5771
aS'vhigh'
p5772
ag4
ag59
aS'med'
p5773
aS'med'
p5774
aS'unacc'
p5775
aa(lp5776
S'med'
p5777
aS'vhigh'
p5778
ag4
ag59
aS'med'
p5779
aS'high'
p5780
aS'acc'
p5781
aa(lp5782
S'med'
p5783
aS'vhigh'
p5784
ag4
ag59
aS'big'
p5785
aS'low'
p5786
aS'unacc'
p5787
aa(lp5788
S'med'
p5789
aS'vhigh'
p5790
ag4
ag59
aS'big'
p5791
aS'med'
p5792
aS'acc'
p5793
aa(lp5794
S'med'
p5795
aS'vhigh'
p5796
ag4
ag59
aS'big'
p5797
aS'high'
p5798
aS'acc'
p5799
aa(lp5800
S'med'
p5801
aS'vhigh'
p5802
ag4
aS'more'
p5803
aS'small'
p5804
aS'low'
p5805
aS'unacc'
p5806
aa(lp5807
S'med'
p5808
aS'vhigh'
p5809
ag4
aS'more'
p5810
aS'small'
p5811
aS'med'
p5812
aS'unacc'
p5813
aa(lp5814
S'med'
p5815
aS'vhigh'
p5816
ag4
aS'more'
p5817
aS'small'
p5818
aS'high'
p5819
aS'unacc'
p5820
aa(lp5821
S'med'
p5822
aS'vhigh'
p5823
ag4
aS'more'
p5824
aS'med'
p5825
aS'low'
p5826
aS'unacc'
p5827
aa(lp5828
S'med'
p5829
aS'vhigh'
p5830
ag4
aS'more'
p5831
aS'med'
p5832
aS'med'
p5833
aS'unacc'
p5834
aa(lp5835
S'med'
p5836
aS'vhigh'
p5837
ag4
aS'more'
p5838
aS'med'
p5839
aS'high'
p5840
aS'acc'
p5841
aa(lp5842
S'med'
p5843
aS'vhigh'
p5844
ag4
aS'more'
p5845
aS'big'
p5846
aS'low'
p5847
aS'unacc'
p5848
aa(lp5849
S'med'
p5850
aS'vhigh'
p5851
ag4
aS'more'
p5852
aS'big'
p5853
aS'med'
p5854
aS'acc'
p5855
aa(lp5856
S'med'
p5857
aS'vhigh'
p5858
ag4
aS'more'
p5859
aS'big'
p5860
aS'high'
p5861
aS'acc'
p5862
aa(lp5863
S'med'
p5864
aS'vhigh'
p5865
ag177
ag4
aS'small'
p5866
aS'low'
p5867
aS'unacc'
p5868
aa(lp5869
S'med'
p5870
aS'vhigh'
p5871
ag177
ag4
aS'small'
p5872
aS'med'
p5873
aS'unacc'
p5874
aa(lp5875
S'med'
p5876
aS'vhigh'
p5877
ag177
ag4
aS'small'
p5878
aS'high'
p5879
aS'unacc'
p5880
aa(lp5881
S'med'
p5882
aS'vhigh'
p5883
ag177
ag4
aS'med'
p5884
aS'low'
p5885
aS'unacc'
p5886
aa(lp5887
S'med'
p5888
aS'vhigh'
p5889
ag177
ag4
aS'med'
p5890
aS'med'
p5891
aS'unacc'
p5892
aa(lp5893
S'med'
p5894
aS'vhigh'
p5895
ag177
ag4
aS'med'
p5896
aS'high'
p5897
aS'unacc'
p5898
aa(lp5899
S'med'
p5900
aS'vhigh'
p5901
ag177
ag4
aS'big'
p5902
aS'low'
p5903
aS'unacc'
p5904
aa(lp5905
S'med'
p5906
aS'vhigh'
p5907
ag177
ag4
aS'big'
p5908
aS'med'
p5909
aS'unacc'
p5910
aa(lp5911
S'med'
p5912
aS'vhigh'
p5913
ag177
ag4
aS'big'
p5914
aS'high'
p5915
aS'unacc'
p5916
aa(lp5917
S'med'
p5918
aS'vhigh'
p5919
ag177
ag59
aS'small'
p5920
aS'low'
p5921
aS'unacc'
p5922
aa(lp5923
S'med'
p5924
aS'vhigh'
p5925
ag177
ag59
aS'small'
p5926
aS'med'
p5927
aS'unacc'
p5928
aa(lp5929
S'med'
p5930
aS'vhigh'
p5931
ag177
ag59
aS'small'
p5932
aS'high'
p5933
aS'acc'
p5934
aa(lp5935
S'med'
p5936
aS'vhigh'
p5937
ag177
ag59
aS'med'
p5938
aS'low'
p5939
aS'unacc'
p5940
aa(lp5941
S'med'
p5942
aS'vhigh'
p5943
ag177
ag59
aS'med'
p5944
aS'med'
p5945
aS'unacc'
p5946
aa(lp5947
S'med'
p5948
aS'vhigh'
p5949
ag177
ag59
aS'med'
p5950
aS'high'
p5951
aS'acc'
p5952
aa(lp5953
S'med'
p5954
aS'vhigh'
p5955
ag177
ag59
aS'big'
p5956
aS'low'
p5957
aS'unacc'
p5958
aa(lp5959
S'med'
p5960
aS'vhigh'
p5961
ag177
ag59
aS'big'
p5962
aS'med'
p5963
aS'acc'
p5964
aa(lp5965
S'med'
p5966
aS'vhigh'
p5967
ag177
ag59
aS'big'
p5968
aS'high'
p5969
aS'acc'
p5970
aa(lp5971
S'med'
p5972
aS'vhigh'
p5973
ag177
aS'more'
p5974
aS'small'
p5975
aS'low'
p5976
aS'unacc'
p5977
aa(lp5978
S'med'
p5979
aS'vhigh'
p5980
ag177
aS'more'
p5981
aS'small'
p5982
aS'med'
p5983
aS'unacc'
p5984
aa(lp5985
S'med'
p5986
aS'vhigh'
p5987
ag177
aS'more'
p5988
aS'small'
p5989
aS'high'
p5990
aS'acc'
p5991
aa(lp5992
S'med'
p5993
aS'vhigh'
p5994
ag177
aS'more'
p5995
aS'med'
p5996
aS'low'
p5997
aS'unacc'
p5998
aa(lp5999
S'med'
p6000
aS'vhigh'
p6001
ag177
aS'more'
p6002
aS'med'
p6003
aS'med'
p6004
aS'acc'
p6005
aa(lp6006
S'med'
p6007
aS'vhigh'
p6008
ag177
aS'more'
p6009
aS'med'
p6010
aS'high'
p6011
aS'acc'
p6012
aa(lp6013
S'med'
p6014
aS'vhigh'
p6015
ag177
aS'more'
p6016
aS'big'
p6017
aS'low'
p6018
aS'unacc'
p6019
aa(lp6020
S'med'
p6021
aS'vhigh'
p6022
ag177
aS'more'
p6023
aS'big'
p6024
aS'med'
p6025
aS'acc'
p6026
aa(lp6027
S'med'
p6028
aS'vhigh'
p6029
ag177
aS'more'
p6030
aS'big'
p6031
aS'high'
p6032
aS'acc'
p6033
aa(lp6034
S'med'
p6035
aS'vhigh'
p6036
ag59
ag4
aS'small'
p6037
aS'low'
p6038
aS'unacc'
p6039
aa(lp6040
S'med'
p6041
aS'vhigh'
p6042
ag59
ag4
aS'small'
p6043
aS'med'
p6044
aS'unacc'
p6045
aa(lp6046
S'med'
p6047
aS'vhigh'
p6048
ag59
ag4
aS'small'
p6049
aS'high'
p6050
aS'unacc'
p6051
aa(lp6052
S'med'
p6053
aS'vhigh'
p6054
ag59
ag4
aS'med'
p6055
aS'low'
p6056
aS'unacc'
p6057
aa(lp6058
S'med'
p6059
aS'vhigh'
p6060
ag59
ag59
aS'small'
p6061
aS'high'
p6062
aS'acc'
p6063
aa(lp6064
S'med'
p6065
aS'vhigh'
p6066
ag59
ag59
aS'med'
p6067
aS'med'
p6068
aS'acc'
p6069
aa(lp6070
S'med'
p6071
aS'vhigh'
p6072
ag59
ag59
aS'med'
p6073
aS'high'
p6074
aS'acc'
p6075
aa(lp6076
S'med'
p6077
aS'vhigh'
p6078
ag59
ag59
aS'big'
p6079
aS'med'
p6080
aS'acc'
p6081
aa(lp6082
S'med'
p6083
aS'vhigh'
p6084
ag59
ag59
aS'big'
p6085
aS'high'
p6086
aS'acc'
p6087
aa(lp6088
S'med'
p6089
aS'vhigh'
p6090
ag59
aS'more'
p6091
aS'small'
p6092
aS'high'
p6093
aS'acc'
p6094
aa(lp6095
S'med'
p6096
aS'vhigh'
p6097
ag59
aS'more'
p6098
aS'med'
p6099
aS'med'
p6100
aS'acc'
p6101
aa(lp6102
S'med'
p6103
aS'vhigh'
p6104
ag59
aS'more'
p6105
aS'med'
p6106
aS'high'
p6107
aS'acc'
p6108
aa(lp6109
S'med'
p6110
aS'vhigh'
p6111
ag59
aS'more'
p6112
aS'big'
p6113
aS'med'
p6114
aS'acc'
p6115
aa(lp6116
S'med'
p6117
aS'vhigh'
p6118
ag59
aS'more'
p6119
aS'big'
p6120
aS'high'
p6121
aS'acc'
p6122
aa(lp6123
S'med'
p6124
aS'vhigh'
p6125
aS'5more'
p6126
ag59
aS'small'
p6127
aS'high'
p6128
aS'acc'
p6129
aa(lp6130
S'med'
p6131
aS'vhigh'
p6132
aS'5more'
p6133
ag59
aS'med'
p6134
aS'med'
p6135
aS'acc'
p6136
aa(lp6137
S'med'
p6138
aS'vhigh'
p6139
aS'5more'
p6140
ag59
aS'med'
p6141
aS'high'
p6142
aS'acc'
p6143
aa(lp6144
S'med'
p6145
aS'vhigh'
p6146
aS'5more'
p6147
ag59
aS'big'
p6148
aS'med'
p6149
aS'acc'
p6150
aa(lp6151
S'med'
p6152
aS'vhigh'
p6153
aS'5more'
p6154
ag59
aS'big'
p6155
aS'high'
p6156
aS'acc'
p6157
aa(lp6158
S'med'
p6159
aS'vhigh'
p6160
aS'5more'
p6161
aS'more'
p6162
aS'small'
p6163
aS'high'
p6164
aS'acc'
p6165
aa(lp6166
S'med'
p6167
aS'vhigh'
p6168
aS'5more'
p6169
aS'more'
p6170
aS'med'
p6171
aS'med'
p6172
aS'acc'
p6173
aa(lp6174
S'med'
p6175
aS'vhigh'
p6176
aS'5more'
p6177
aS'more'
p6178
aS'med'
p6179
aS'high'
p6180
aS'acc'
p6181
aa(lp6182
S'med'
p6183
aS'vhigh'
p6184
aS'5more'
p6185
aS'more'
p6186
aS'big'
p6187
aS'med'
p6188
aS'acc'
p6189
aa(lp6190
S'med'
p6191
aS'vhigh'
p6192
aS'5more'
p6193
aS'more'
p6194
aS'big'
p6195
aS'high'
p6196
aS'acc'
p6197
aa(lp6198
S'med'
p6199
aS'high'
p6200
ag4
ag59
aS'small'
p6201
aS'high'
p6202
aS'acc'
p6203
aa(lp6204
S'med'
p6205
aS'high'
p6206
ag4
ag59
aS'med'
p6207
aS'high'
p6208
aS'acc'
p6209
aa(lp6210
S'med'
p6211
aS'high'
p6212
ag4
ag59
aS'big'
p6213
aS'med'
p6214
aS'acc'
p6215
aa(lp6216
S'med'
p6217
aS'high'
p6218
ag4
ag59
aS'big'
p6219
aS'high'
p6220
aS'acc'
p6221
aa(lp6222
S'med'
p6223
aS'high'
p6224
ag4
aS'more'
p6225
aS'med'
p6226
aS'high'
p6227
aS'acc'
p6228
aa(lp6229
S'med'
p6230
aS'high'
p6231
ag4
aS'more'
p6232
aS'big'
p6233
aS'med'
p6234
aS'acc'
p6235
aa(lp6236
S'med'
p6237
aS'high'
p6238
ag4
aS'more'
p6239
aS'big'
p6240
aS'high'
p6241
aS'acc'
p6242
aa(lp6243
S'med'
p6244
aS'high'
p6245
ag177
ag59
aS'small'
p6246
aS'high'
p6247
aS'acc'
p6248
aa(lp6249
S'med'
p6250
aS'high'
p6251
ag177
ag59
aS'med'
p6252
aS'high'
p6253
aS'acc'
p6254
aa(lp6255
S'med'
p6256
aS'high'
p6257
ag177
ag59
aS'big'
p6258
aS'med'
p6259
aS'acc'
p6260
aa(lp6261
S'med'
p6262
aS'high'
p6263
ag177
ag59
aS'big'
p6264
aS'high'
p6265
aS'acc'
p6266
aa(lp6267
S'med'
p6268
aS'high'
p6269
ag177
aS'more'
p6270
aS'small'
p6271
aS'high'
p6272
aS'acc'
p6273
aa(lp6274
S'med'
p6275
aS'high'
p6276
ag177
aS'more'
p6277
aS'med'
p6278
aS'med'
p6279
aS'acc'
p6280
aa(lp6281
S'med'
p6282
aS'high'
p6283
ag177
aS'more'
p6284
aS'med'
p6285
aS'high'
p6286
aS'acc'
p6287
aa(lp6288
S'med'
p6289
aS'high'
p6290
ag177
aS'more'
p6291
aS'big'
p6292
aS'med'
p6293
aS'acc'
p6294
aa(lp6295
S'med'
p6296
aS'high'
p6297
ag177
aS'more'
p6298
aS'big'
p6299
aS'high'
p6300
aS'acc'
p6301
aa(lp6302
S'med'
p6303
aS'med'
p6304
ag4
ag59
aS'big'
p6305
aS'high'
p6306
aS'vgood'
p6307
aa(lp6308
S'med'
p6309
aS'med'
p6310
ag4
aS'more'
p6311
aS'big'
p6312
aS'high'
p6313
aS'vgood'
p6314
aa(lp6315
S'med'
p6316
aS'med'
p6317
ag177
ag4
aS'small'
p6318
aS'high'
p6319
aS'unacc'
p6320
aa(lp6321
S'med'
p6322
aS'med'
p6323
ag177
ag4
aS'med'
p6324
aS'low'
p6325
aS'unacc'
p6326
aa(lp6327
S'med'
p6328
aS'med'
p6329
ag177
ag4
aS'med'
p6330
aS'med'
p6331
aS'unacc'
p6332
aa(lp6333
S'med'
p6334
aS'med'
p6335
ag177
ag4
aS'med'
p6336
aS'high'
p6337
aS'unacc'
p6338
aa(lp6339
S'med'
p6340
aS'med'
p6341
ag177
ag4
aS'big'
p6342
aS'low'
p6343
aS'unacc'
p6344
aa(lp6345
S'med'
p6346
aS'med'
p6347
ag177
ag4
aS'big'
p6348
aS'med'
p6349
aS'unacc'
p6350
aa(lp6351
S'med'
p6352
aS'med'
p6353
ag177
ag4
aS'big'
p6354
aS'high'
p6355
aS'unacc'
p6356
aa(lp6357
S'med'
p6358
aS'med'
p6359
ag177
ag59
aS'small'
p6360
aS'low'
p6361
aS'unacc'
p6362
aa(lp6363
S'med'
p6364
aS'med'
p6365
ag177
ag59
aS'med'
p6366
aS'low'
p6367
aS'unacc'
p6368
aa(lp6369
S'med'
p6370
aS'med'
p6371
ag177
ag59
aS'big'
p6372
aS'low'
p6373
aS'unacc'
p6374
aa(lp6375
S'med'
p6376
aS'med'
p6377
ag177
ag59
aS'big'
p6378
aS'high'
p6379
aS'vgood'
p6380
aa(lp6381
S'med'
p6382
aS'med'
p6383
ag177
aS'more'
p6384
aS'small'
p6385
aS'low'
p6386
aS'unacc'
p6387
aa(lp6388
S'med'
p6389
aS'med'
p6390
ag177
aS'more'
p6391
aS'med'
p6392
aS'low'
p6393
aS'unacc'
p6394
aa(lp6395
S'med'
p6396
aS'med'
p6397
ag177
aS'more'
p6398
aS'med'
p6399
aS'high'
p6400
aS'vgood'
p6401
aa(lp6402
S'med'
p6403
aS'med'
p6404
ag177
aS'more'
p6405
aS'big'
p6406
aS'low'
p6407
aS'unacc'
p6408
aa(lp6409
S'med'
p6410
aS'med'
p6411
ag177
aS'more'
p6412
aS'big'
p6413
aS'high'
p6414
aS'vgood'
p6415
aa(lp6416
S'med'
p6417
aS'med'
p6418
ag59
ag4
aS'small'
p6419
aS'low'
p6420
aS'unacc'
p6421
aa(lp6422
S'med'
p6423
aS'med'
p6424
ag59
ag4
aS'small'
p6425
aS'med'
p6426
aS'unacc'
p6427
aa(lp6428
S'med'
p6429
aS'med'
p6430
ag59
ag4
aS'small'
p6431
aS'high'
p6432
aS'unacc'
p6433
aa(lp6434
S'med'
p6435
aS'med'
p6436
ag59
ag4
aS'med'
p6437
aS'low'
p6438
aS'unacc'
p6439
aa(lp6440
S'med'
p6441
aS'med'
p6442
ag59
ag4
aS'med'
p6443
aS'med'
p6444
aS'unacc'
p6445
aa(lp6446
S'med'
p6447
aS'med'
p6448
ag59
ag4
aS'med'
p6449
aS'high'
p6450
aS'unacc'
p6451
aa(lp6452
S'med'
p6453
aS'med'
p6454
ag59
ag4
aS'big'
p6455
aS'low'
p6456
aS'unacc'
p6457
aa(lp6458
S'med'
p6459
aS'med'
p6460
ag59
ag4
aS'big'
p6461
aS'med'
p6462
aS'unacc'
p6463
aa(lp6464
S'med'
p6465
aS'med'
p6466
ag59
ag4
aS'big'
p6467
aS'high'
p6468
aS'unacc'
p6469
aa(lp6470
S'med'
p6471
aS'med'
p6472
ag59
ag59
aS'small'
p6473
aS'low'
p6474
aS'unacc'
p6475
aa(lp6476
S'med'
p6477
aS'med'
p6478
ag59
ag59
aS'small'
p6479
aS'high'
p6480
aS'acc'
p6481
aa(lp6482
S'med'
p6483
aS'med'
p6484
ag59
ag59
aS'med'
p6485
aS'low'
p6486
aS'unacc'
p6487
aa(lp6488
S'med'
p6489
aS'med'
p6490
ag59
ag59
aS'med'
p6491
aS'med'
p6492
aS'acc'
p6493
aa(lp6494
S'med'
p6495
aS'med'
p6496
ag59
ag59
aS'med'
p6497
aS'high'
p6498
aS'vgood'
p6499
aa(lp6500
S'med'
p6501
aS'med'
p6502
ag59
ag59
aS'big'
p6503
aS'low'
p6504
aS'unacc'
p6505
aa(lp6506
S'med'
p6507
aS'med'
p6508
ag59
ag59
aS'big'
p6509
aS'med'
p6510
aS'acc'
p6511
aa(lp6512
S'med'
p6513
aS'med'
p6514
ag59
ag59
aS'big'
p6515
aS'high'
p6516
aS'vgood'
p6517
aa(lp6518
S'med'
p6519
aS'med'
p6520
ag59
aS'more'
p6521
aS'small'
p6522
aS'low'
p6523
aS'unacc'
p6524
aa(lp6525
S'med'
p6526
aS'med'
p6527
ag59
aS'more'
p6528
aS'small'
p6529
aS'med'
p6530
aS'acc'
p6531
aa(lp6532
S'med'
p6533
aS'med'
p6534
ag59
aS'more'
p6535
aS'small'
p6536
aS'high'
p6537
aS'acc'
p6538
aa(lp6539
S'med'
p6540
aS'med'
p6541
ag59
aS'more'
p6542
aS'med'
p6543
aS'low'
p6544
aS'unacc'
p6545
aa(lp6546
S'med'
p6547
aS'med'
p6548
ag59
aS'more'
p6549
aS'med'
p6550
aS'med'
p6551
aS'acc'
p6552
aa(lp6553
S'med'
p6554
aS'med'
p6555
ag59
aS'more'
p6556
aS'med'
p6557
aS'high'
p6558
aS'vgood'
p6559
aa(lp6560
S'med'
p6561
aS'med'
p6562
ag59
aS'more'
p6563
aS'big'
p6564
aS'low'
p6565
aS'unacc'
p6566
aa(lp6567
S'med'
p6568
aS'med'
p6569
ag59
aS'more'
p6570
aS'big'
p6571
aS'med'
p6572
aS'acc'
p6573
aa(lp6574
S'med'
p6575
aS'med'
p6576
ag59
aS'more'
p6577
aS'big'
p6578
aS'high'
p6579
aS'vgood'
p6580
aa(lp6581
S'med'
p6582
aS'med'
p6583
aS'5more'
p6584
ag4
aS'small'
p6585
aS'low'
p6586
aS'unacc'
p6587
aa(lp6588
S'med'
p6589
aS'med'
p6590
aS'5more'
p6591
ag4
aS'small'
p6592
aS'med'
p6593
aS'unacc'
p6594
aa(lp6595
S'med'
p6596
aS'med'
p6597
aS'5more'
p6598
ag4
aS'small'
p6599
aS'high'
p6600
aS'unacc'
p6601
aa(lp6602
S'med'
p6603
aS'med'
p6604
aS'5more'
p6605
ag4
aS'med'
p6606
aS'low'
p6607
aS'unacc'
p6608
aa(lp6609
S'med'
p6610
aS'med'
p6611
aS'5more'
p6612
ag4
aS'med'
p6613
aS'med'
p6614
aS'unacc'
p6615
aa(lp6616
S'med'
p6617
aS'med'
p6618
aS'5more'
p6619
ag4
aS'med'
p6620
aS'high'
p6621
aS'unacc'
p6622
aa(lp6623
S'med'
p6624
aS'med'
p6625
aS'5more'
p6626
ag4
aS'big'
p6627
aS'low'
p6628
aS'unacc'
p6629
aa(lp6630
S'med'
p6631
aS'med'
p6632
aS'5more'
p6633
ag4
aS'big'
p6634
aS'med'
p6635
aS'unacc'
p6636
aa(lp6637
S'med'
p6638
aS'med'
p6639
aS'5more'
p6640
ag4
aS'big'
p6641
aS'high'
p6642
aS'unacc'
p6643
aa(lp6644
S'med'
p6645
aS'med'
p6646
aS'5more'
p6647
ag59
aS'small'
p6648
aS'low'
p6649
aS'unacc'
p6650
aa(lp6651
S'med'
p6652
aS'med'
p6653
aS'5more'
p6654
ag59
aS'small'
p6655
aS'med'
p6656
aS'acc'
p6657
aa(lp6658
S'med'
p6659
aS'med'
p6660
aS'5more'
p6661
ag59
aS'small'
p6662
aS'high'
p6663
aS'acc'
p6664
aa(lp6665
S'med'
p6666
aS'med'
p6667
aS'5more'
p6668
ag59
aS'med'
p6669
aS'low'
p6670
aS'unacc'
p6671
aa(lp6672
S'med'
p6673
aS'med'
p6674
aS'5more'
p6675
ag59
aS'med'
p6676
aS'med'
p6677
aS'acc'
p6678
aa(lp6679
S'med'
p6680
aS'med'
p6681
aS'5more'
p6682
ag59
aS'med'
p6683
aS'high'
p6684
aS'vgood'
p6685
aa(lp6686
S'med'
p6687
aS'med'
p6688
aS'5more'
p6689
ag59
aS'big'
p6690
aS'low'
p6691
aS'unacc'
p6692
aa(lp6693
S'med'
p6694
aS'med'
p6695
aS'5more'
p6696
ag59
aS'big'
p6697
aS'med'
p6698
aS'acc'
p6699
aa(lp6700
S'med'
p6701
aS'med'
p6702
aS'5more'
p6703
ag59
aS'big'
p6704
aS'high'
p6705
aS'vgood'
p6706
aa(lp6707
S'med'
p6708
aS'med'
p6709
aS'5more'
p6710
aS'more'
p6711
aS'small'
p6712
aS'low'
p6713
aS'unacc'
p6714
aa(lp6715
S'med'
p6716
aS'med'
p6717
aS'5more'
p6718
aS'more'
p6719
aS'small'
p6720
aS'med'
p6721
aS'acc'
p6722
aa(lp6723
S'med'
p6724
aS'med'
p6725
aS'5more'
p6726
aS'more'
p6727
aS'small'
p6728
aS'high'
p6729
aS'acc'
p6730
aa(lp6731
S'med'
p6732
aS'med'
p6733
aS'5more'
p6734
aS'more'
p6735
aS'med'
p6736
aS'low'
p6737
aS'unacc'
p6738
aa(lp6739
S'med'
p6740
aS'med'
p6741
aS'5more'
p6742
aS'more'
p6743
aS'med'
p6744
aS'med'
p6745
aS'acc'
p6746
aa(lp6747
S'med'
p6748
aS'med'
p6749
aS'5more'
p6750
aS'more'
p6751
aS'med'
p6752
aS'high'
p6753
aS'vgood'
p6754
aa(lp6755
S'med'
p6756
aS'med'
p6757
aS'5more'
p6758
aS'more'
p6759
aS'big'
p6760
aS'low'
p6761
aS'unacc'
p6762
aa(lp6763
S'med'
p6764
aS'med'
p6765
aS'5more'
p6766
aS'more'
p6767
aS'big'
p6768
aS'med'
p6769
aS'acc'
p6770
aa(lp6771
S'med'
p6772
aS'med'
p6773
aS'5more'
p6774
aS'more'
p6775
aS'big'
p6776
aS'high'
p6777
aS'vgood'
p6778
aa(lp6779
S'med'
p6780
aS'low'
p6781
ag4
ag4
aS'small'
p6782
aS'low'
p6783
aS'unacc'
p6784
aa(lp6785
S'med'
p6786
aS'low'
p6787
ag4
ag4
aS'small'
p6788
aS'med'
p6789
aS'unacc'
p6790
aa(lp6791
S'med'
p6792
aS'low'
p6793
ag4
ag4
aS'small'
p6794
aS'high'
p6795
aS'unacc'
p6796
aa(lp6797
S'med'
p6798
aS'low'
p6799
ag4
ag4
aS'med'
p6800
aS'low'
p6801
aS'unacc'
p6802
aa(lp6803
S'med'
p6804
aS'low'
p6805
ag4
ag4
aS'med'
p6806
aS'med'
p6807
aS'unacc'
p6808
aa(lp6809
S'med'
p6810
aS'low'
p6811
ag4
ag4
aS'med'
p6812
aS'high'
p6813
aS'unacc'
p6814
aa(lp6815
S'med'
p6816
aS'low'
p6817
ag4
ag4
aS'big'
p6818
aS'low'
p6819
aS'unacc'
p6820
aa(lp6821
S'med'
p6822
aS'low'
p6823
ag4
ag4
aS'big'
p6824
aS'med'
p6825
aS'unacc'
p6826
aa(lp6827
S'med'
p6828
aS'low'
p6829
ag4
ag4
aS'big'
p6830
aS'high'
p6831
aS'unacc'
p6832
aa(lp6833
S'med'
p6834
aS'low'
p6835
ag4
ag59
aS'small'
p6836
aS'low'
p6837
aS'unacc'
p6838
aa(lp6839
S'med'
p6840
aS'low'
p6841
ag4
ag59
aS'small'
p6842
aS'med'
p6843
aS'acc'
p6844
aa(lp6845
S'med'
p6846
aS'low'
p6847
ag4
ag59
aS'small'
p6848
aS'high'
p6849
aS'good'
p6850
aa(lp6851
S'med'
p6852
aS'low'
p6853
ag4
ag59
aS'med'
p6854
aS'low'
p6855
aS'unacc'
p6856
aa(lp6857
S'med'
p6858
aS'low'
p6859
ag4
ag59
aS'med'
p6860
aS'med'
p6861
aS'acc'
p6862
aa(lp6863
S'med'
p6864
aS'low'
p6865
ag4
ag59
aS'med'
p6866
aS'high'
p6867
aS'good'
p6868
aa(lp6869
S'med'
p6870
aS'low'
p6871
ag4
ag59
aS'big'
p6872
aS'low'
p6873
aS'unacc'
p6874
aa(lp6875
S'med'
p6876
aS'low'
p6877
ag4
ag59
aS'big'
p6878
aS'med'
p6879
aS'good'
p6880
aa(lp6881
S'med'
p6882
aS'low'
p6883
ag4
ag59
aS'big'
p6884
aS'high'
p6885
aS'vgood'
p6886
aa(lp6887
S'med'
p6888
aS'low'
p6889
ag4
aS'more'
p6890
aS'small'
p6891
aS'low'
p6892
aS'unacc'
p6893
aa(lp6894
S'med'
p6895
aS'low'
p6896
ag4
aS'more'
p6897
aS'small'
p6898
aS'med'
p6899
aS'unacc'
p6900
aa(lp6901
S'med'
p6902
aS'low'
p6903
ag4
aS'more'
p6904
aS'small'
p6905
aS'high'
p6906
aS'unacc'
p6907
aa(lp6908
S'med'
p6909
aS'low'
p6910
ag4
aS'more'
p6911
aS'med'
p6912
aS'low'
p6913
aS'unacc'
p6914
aa(lp6915
S'med'
p6916
aS'low'
p6917
ag4
aS'more'
p6918
aS'med'
p6919
aS'med'
p6920
aS'acc'
p6921
aa(lp6922
S'med'
p6923
aS'low'
p6924
ag4
aS'more'
p6925
aS'med'
p6926
aS'high'
p6927
aS'good'
p6928
aa(lp6929
S'med'
p6930
aS'low'
p6931
ag4
aS'more'
p6932
aS'big'
p6933
aS'low'
p6934
aS'unacc'
p6935
aa(lp6936
S'med'
p6937
aS'low'
p6938
ag4
aS'more'
p6939
aS'big'
p6940
aS'med'
p6941
aS'good'
p6942
aa(lp6943
S'med'
p6944
aS'low'
p6945
ag4
aS'more'
p6946
aS'big'
p6947
aS'high'
p6948
aS'vgood'
p6949
aa(lp6950
S'med'
p6951
aS'low'
p6952
ag177
ag4
aS'small'
p6953
aS'low'
p6954
aS'unacc'
p6955
aa(lp6956
S'med'
p6957
aS'low'
p6958
ag177
ag4
aS'small'
p6959
aS'med'
p6960
aS'unacc'
p6961
aa(lp6962
S'med'
p6963
aS'low'
p6964
ag177
ag4
aS'small'
p6965
aS'high'
p6966
aS'unacc'
p6967
aa(lp6968
S'med'
p6969
aS'low'
p6970
ag177
ag4
aS'med'
p6971
aS'low'
p6972
aS'unacc'
p6973
aa(lp6974
S'med'
p6975
aS'low'
p6976
ag177
ag4
aS'med'
p6977
aS'med'
p6978
aS'unacc'
p6979
aa(lp6980
S'med'
p6981
aS'low'
p6982
ag177
ag4
aS'med'
p6983
aS'high'
p6984
aS'unacc'
p6985
aa(lp6986
S'med'
p6987
aS'low'
p6988
ag177
ag4
aS'big'
p6989
aS'low'
p6990
aS'unacc'
p6991
aa(lp6992
S'med'
p6993
aS'low'
p6994
ag177
ag4
aS'big'
p6995
aS'med'
p6996
aS'unacc'
p6997
aa(lp6998
S'med'
p6999
aS'low'
p7000
ag177
ag4
aS'big'
p7001
aS'high'
p7002
aS'unacc'
p7003
aa(lp7004
S'med'
p7005
aS'low'
p7006
ag177
ag59
aS'small'
p7007
aS'low'
p7008
aS'unacc'
p7009
aa(lp7010
S'med'
p7011
aS'low'
p7012
ag177
ag59
aS'small'
p7013
aS'med'
p7014
aS'acc'
p7015
aa(lp7016
S'med'
p7017
aS'low'
p7018
ag177
ag59
aS'small'
p7019
aS'high'
p7020
aS'good'
p7021
aa(lp7022
S'med'
p7023
aS'low'
p7024
ag177
ag59
aS'med'
p7025
aS'low'
p7026
aS'unacc'
p7027
aa(lp7028
S'med'
p7029
aS'low'
p7030
ag177
ag59
aS'med'
p7031
aS'med'
p7032
aS'acc'
p7033
aa(lp7034
S'med'
p7035
aS'low'
p7036
ag177
ag59
aS'med'
p7037
aS'high'
p7038
aS'good'
p7039
aa(lp7040
S'med'
p7041
aS'low'
p7042
ag177
ag59
aS'big'
p7043
aS'low'
p7044
aS'unacc'
p7045
aa(lp7046
S'med'
p7047
aS'low'
p7048
ag177
ag59
aS'big'
p7049
aS'med'
p7050
aS'good'
p7051
aa(lp7052
S'med'
p7053
aS'low'
p7054
ag177
ag59
aS'big'
p7055
aS'high'
p7056
aS'vgood'
p7057
aa(lp7058
S'med'
p7059
aS'low'
p7060
ag177
aS'more'
p7061
aS'small'
p7062
aS'low'
p7063
aS'unacc'
p7064
aa(lp7065
S'med'
p7066
aS'low'
p7067
ag177
aS'more'
p7068
aS'small'
p7069
aS'med'
p7070
aS'acc'
p7071
aa(lp7072
S'med'
p7073
aS'low'
p7074
ag177
aS'more'
p7075
aS'small'
p7076
aS'high'
p7077
aS'good'
p7078
aa(lp7079
S'med'
p7080
aS'low'
p7081
ag177
aS'more'
p7082
aS'med'
p7083
aS'low'
p7084
aS'unacc'
p7085
aa(lp7086
S'med'
p7087
aS'low'
p7088
ag177
aS'more'
p7089
aS'med'
p7090
aS'med'
p7091
aS'good'
p7092
aa(lp7093
S'med'
p7094
aS'low'
p7095
ag177
aS'more'
p7096
aS'med'
p7097
aS'high'
p7098
aS'vgood'
p7099
aa(lp7100
S'med'
p7101
aS'low'
p7102
ag177
aS'more'
p7103
aS'big'
p7104
aS'low'
p7105
aS'unacc'
p7106
aa(lp7107
S'med'
p7108
aS'low'
p7109
ag177
aS'more'
p7110
aS'big'
p7111
aS'med'
p7112
aS'good'
p7113
aa(lp7114
S'med'
p7115
aS'low'
p7116
ag177
aS'more'
p7117
aS'big'
p7118
aS'high'
p7119
aS'vgood'
p7120
aa(lp7121
S'med'
p7122
aS'low'
p7123
ag59
ag4
aS'small'
p7124
aS'low'
p7125
aS'unacc'
p7126
aa(lp7127
S'med'
p7128
aS'low'
p7129
ag59
ag4
aS'small'
p7130
aS'med'
p7131
aS'unacc'
p7132
aa(lp7133
S'med'
p7134
aS'low'
p7135
ag59
ag4
aS'small'
p7136
aS'high'
p7137
aS'unacc'
p7138
aa(lp7139
S'med'
p7140
aS'low'
p7141
ag59
ag4
aS'med'
p7142
aS'low'
p7143
aS'unacc'
p7144
aa(lp7145
S'med'
p7146
aS'low'
p7147
ag59
ag4
aS'med'
p7148
aS'med'
p7149
aS'unacc'
p7150
aa(lp7151
S'med'
p7152
aS'low'
p7153
ag59
ag4
aS'med'
p7154
aS'high'
p7155
aS'unacc'
p7156
aa(lp7157
S'med'
p7158
aS'low'
p7159
ag59
ag4
aS'big'
p7160
aS'low'
p7161
aS'unacc'
p7162
aa(lp7163
S'med'
p7164
aS'low'
p7165
ag59
ag4
aS'big'
p7166
aS'med'
p7167
aS'unacc'
p7168
aa(lp7169
S'med'
p7170
aS'low'
p7171
ag59
ag4
aS'big'
p7172
aS'high'
p7173
aS'unacc'
p7174
aa(lp7175
S'med'
p7176
aS'low'
p7177
ag59
ag59
aS'small'
p7178
aS'low'
p7179
aS'unacc'
p7180
aa(lp7181
S'med'
p7182
aS'low'
p7183
ag59
ag59
aS'small'
p7184
aS'med'
p7185
aS'acc'
p7186
aa(lp7187
S'med'
p7188
aS'low'
p7189
ag59
ag59
aS'small'
p7190
aS'high'
p7191
aS'good'
p7192
aa(lp7193
S'med'
p7194
aS'low'
p7195
ag59
ag59
aS'med'
p7196
aS'low'
p7197
aS'unacc'
p7198
aa(lp7199
S'med'
p7200
aS'low'
p7201
ag59
ag59
aS'med'
p7202
aS'med'
p7203
aS'good'
p7204
aa(lp7205
S'med'
p7206
aS'low'
p7207
ag59
ag59
aS'med'
p7208
aS'high'
p7209
aS'vgood'
p7210
aa(lp7211
S'med'
p7212
aS'low'
p7213
ag59
ag59
aS'big'
p7214
aS'low'
p7215
aS'unacc'
p7216
aa(lp7217
S'med'
p7218
aS'low'
p7219
ag59
ag59
aS'big'
p7220
aS'med'
p7221
aS'good'
p7222
aa(lp7223
S'med'
p7224
aS'low'
p7225
ag59
ag59
aS'big'
p7226
aS'high'
p7227
aS'vgood'
p7228
aa(lp7229
S'med'
p7230
aS'low'
p7231
ag59
aS'more'
p7232
aS'small'
p7233
aS'low'
p7234
aS'unacc'
p7235
aa(lp7236
S'med'
p7237
aS'low'
p7238
ag59
aS'more'
p7239
aS'small'
p7240
aS'med'
p7241
aS'acc'
p7242
aa(lp7243
S'med'
p7244
aS'low'
p7245
ag59
aS'more'
p7246
aS'small'
p7247
aS'high'
p7248
aS'good'
p7249
aa(lp7250
S'med'
p7251
aS'low'
p7252
ag59
aS'more'
p7253
aS'med'
p7254
aS'low'
p7255
aS'unacc'
p7256
aa(lp7257
S'med'
p7258
aS'low'
p7259
ag59
aS'more'
p7260
aS'med'
p7261
aS'med'
p7262
aS'good'
p7263
aa(lp7264
S'med'
p7265
aS'low'
p7266
ag59
aS'more'
p7267
aS'med'
p7268
aS'high'
p7269
aS'vgood'
p7270
aa(lp7271
S'med'
p7272
aS'low'
p7273
ag59
aS'more'
p7274
aS'big'
p7275
aS'low'
p7276
aS'unacc'
p7277
aa(lp7278
S'med'
p7279
aS'low'
p7280
ag59
aS'more'
p7281
aS'big'
p7282
aS'med'
p7283
aS'good'
p7284
aa(lp7285
S'med'
p7286
aS'low'
p7287
ag59
aS'more'
p7288
aS'big'
p7289
aS'high'
p7290
aS'vgood'
p7291
aa(lp7292
S'med'
p7293
aS'low'
p7294
aS'5more'
p7295
ag4
aS'small'
p7296
aS'low'
p7297
aS'unacc'
p7298
aa(lp7299
S'med'
p7300
aS'low'
p7301
aS'5more'
p7302
ag4
aS'small'
p7303
aS'med'
p7304
aS'unacc'
p7305
aa(lp7306
S'med'
p7307
aS'low'
p7308
aS'5more'
p7309
ag4
aS'small'
p7310
aS'high'
p7311
aS'unacc'
p7312
aa(lp7313
S'med'
p7314
aS'low'
p7315
aS'5more'
p7316
ag4
aS'med'
p7317
aS'low'
p7318
aS'unacc'
p7319
aa(lp7320
S'med'
p7321
aS'low'
p7322
aS'5more'
p7323
ag4
aS'med'
p7324
aS'med'
p7325
aS'unacc'
p7326
aa(lp7327
S'med'
p7328
aS'low'
p7329
aS'5more'
p7330
ag4
aS'med'
p7331
aS'high'
p7332
aS'unacc'
p7333
aa(lp7334
S'med'
p7335
aS'low'
p7336
aS'5more'
p7337
ag4
aS'big'
p7338
aS'low'
p7339
aS'unacc'
p7340
aa(lp7341
S'med'
p7342
aS'low'
p7343
aS'5more'
p7344
ag4
aS'big'
p7345
aS'med'
p7346
aS'unacc'
p7347
aa(lp7348
S'med'
p7349
aS'low'
p7350
aS'5more'
p7351
ag4
aS'big'
p7352
aS'high'
p7353
aS'unacc'
p7354
aa(lp7355
S'med'
p7356
aS'low'
p7357
aS'5more'
p7358
ag59
aS'small'
p7359
aS'low'
p7360
aS'unacc'
p7361
aa(lp7362
S'med'
p7363
aS'low'
p7364
aS'5more'
p7365
ag59
aS'small'
p7366
aS'med'
p7367
aS'acc'
p7368
aa(lp7369
S'med'
p7370
aS'low'
p7371
aS'5more'
p7372
ag59
aS'small'
p7373
aS'high'
p7374
aS'good'
p7375
aa(lp7376
S'med'
p7377
aS'low'
p7378
aS'5more'
p7379
ag59
aS'med'
p7380
aS'low'
p7381
aS'unacc'
p7382
aa(lp7383
S'med'
p7384
aS'low'
p7385
aS'5more'
p7386
ag59
aS'med'
p7387
aS'med'
p7388
aS'good'
p7389
aa(lp7390
S'med'
p7391
aS'low'
p7392
aS'5more'
p7393
ag59
aS'med'
p7394
aS'high'
p7395
aS'vgood'
p7396
aa(lp7397
S'med'
p7398
aS'low'
p7399
aS'5more'
p7400
ag59
aS'big'
p7401
aS'low'
p7402
aS'unacc'
p7403
aa(lp7404
S'med'
p7405
aS'low'
p7406
aS'5more'
p7407
ag59
aS'big'
p7408
aS'med'
p7409
aS'good'
p7410
aa(lp7411
S'med'
p7412
aS'low'
p7413
aS'5more'
p7414
ag59
aS'big'
p7415
aS'high'
p7416
aS'vgood'
p7417
aa(lp7418
S'med'
p7419
aS'low'
p7420
aS'5more'
p7421
aS'more'
p7422
aS'small'
p7423
aS'low'
p7424
aS'unacc'
p7425
aa(lp7426
S'med'
p7427
aS'low'
p7428
aS'5more'
p7429
aS'more'
p7430
aS'small'
p7431
aS'med'
p7432
aS'acc'
p7433
aa(lp7434
S'med'
p7435
aS'low'
p7436
aS'5more'
p7437
aS'more'
p7438
aS'small'
p7439
aS'high'
p7440
aS'good'
p7441
aa(lp7442
S'med'
p7443
aS'low'
p7444
aS'5more'
p7445
aS'more'
p7446
aS'med'
p7447
aS'low'
p7448
aS'unacc'
p7449
aa(lp7450
S'med'
p7451
aS'low'
p7452
aS'5more'
p7453
aS'more'
p7454
aS'med'
p7455
aS'med'
p7456
aS'good'
p7457
aa(lp7458
S'med'
p7459
aS'low'
p7460
aS'5more'
p7461
aS'more'
p7462
aS'med'
p7463
aS'high'
p7464
aS'vgood'
p7465
aa(lp7466
S'med'
p7467
aS'low'
p7468
aS'5more'
p7469
aS'more'
p7470
aS'big'
p7471
aS'low'
p7472
aS'unacc'
p7473
aa(lp7474
S'med'
p7475
aS'low'
p7476
aS'5more'
p7477
aS'more'
p7478
aS'big'
p7479
aS'med'
p7480
aS'good'
p7481
aa(lp7482
S'med'
p7483
aS'low'
p7484
aS'5more'
p7485
aS'more'
p7486
aS'big'
p7487
aS'high'
p7488
aS'vgood'
p7489
aa(lp7490
S'low'
p7491
aS'vhigh'
p7492
ag4
ag4
aS'small'
p7493
aS'low'
p7494
aS'unacc'
p7495
aa(lp7496
S'low'
p7497
aS'vhigh'
p7498
ag4
ag4
aS'small'
p7499
aS'med'
p7500
aS'unacc'
p7501
aa(lp7502
S'low'
p7503
aS'vhigh'
p7504
ag4
ag4
aS'small'
p7505
aS'high'
p7506
aS'unacc'
p7507
aa(lp7508
S'low'
p7509
aS'vhigh'
p7510
ag4
ag4
aS'med'
p7511
aS'low'
p7512
aS'unacc'
p7513
aa(lp7514
S'low'
p7515
aS'vhigh'
p7516
ag4
ag4
aS'med'
p7517
aS'med'
p7518
aS'unacc'
p7519
aa(lp7520
S'low'
p7521
aS'vhigh'
p7522
ag4
ag4
aS'med'
p7523
aS'high'
p7524
aS'unacc'
p7525
aa(lp7526
S'low'
p7527
aS'vhigh'
p7528
ag4
ag4
aS'big'
p7529
aS'low'
p7530
aS'unacc'
p7531
aa(lp7532
S'low'
p7533
aS'vhigh'
p7534
ag4
ag4
aS'big'
p7535
aS'med'
p7536
aS'unacc'
p7537
aa(lp7538
S'low'
p7539
aS'vhigh'
p7540
ag4
ag4
aS'big'
p7541
aS'high'
p7542
aS'unacc'
p7543
aa(lp7544
S'low'
p7545
aS'vhigh'
p7546
ag4
ag59
aS'small'
p7547
aS'low'
p7548
aS'unacc'
p7549
aa(lp7550
S'low'
p7551
aS'vhigh'
p7552
ag4
ag59
aS'small'
p7553
aS'med'
p7554
aS'unacc'
p7555
aa(lp7556
S'low'
p7557
aS'vhigh'
p7558
ag4
ag59
aS'small'
p7559
aS'high'
p7560
aS'acc'
p7561
aa(lp7562
S'low'
p7563
aS'vhigh'
p7564
ag4
ag59
aS'med'
p7565
aS'low'
p7566
aS'unacc'
p7567
aa(lp7568
S'low'
p7569
aS'vhigh'
p7570
ag4
ag59
aS'med'
p7571
aS'med'
p7572
aS'unacc'
p7573
aa(lp7574
S'low'
p7575
aS'vhigh'
p7576
ag4
ag59
aS'med'
p7577
aS'high'
p7578
aS'acc'
p7579
aa(lp7580
S'low'
p7581
aS'vhigh'
p7582
ag4
ag59
aS'big'
p7583
aS'low'
p7584
aS'unacc'
p7585
aa(lp7586
S'low'
p7587
aS'vhigh'
p7588
ag4
ag59
aS'big'
p7589
aS'med'
p7590
aS'acc'
p7591
aa(lp7592
S'low'
p7593
aS'vhigh'
p7594
ag4
ag59
aS'big'
p7595
aS'high'
p7596
aS'acc'
p7597
aa(lp7598
S'low'
p7599
aS'vhigh'
p7600
ag4
aS'more'
p7601
aS'small'
p7602
aS'low'
p7603
aS'unacc'
p7604
aa(lp7605
S'low'
p7606
aS'vhigh'
p7607
ag4
aS'more'
p7608
aS'small'
p7609
aS'med'
p7610
aS'unacc'
p7611
aa(lp7612
S'low'
p7613
aS'vhigh'
p7614
ag4
aS'more'
p7615
aS'small'
p7616
aS'high'
p7617
aS'unacc'
p7618
aa(lp7619
S'low'
p7620
aS'vhigh'
p7621
ag4
aS'more'
p7622
aS'med'
p7623
aS'low'
p7624
aS'unacc'
p7625
aa(lp7626
S'low'
p7627
aS'vhigh'
p7628
ag4
aS'more'
p7629
aS'med'
p7630
aS'med'
p7631
aS'unacc'
p7632
aa(lp7633
S'low'
p7634
aS'vhigh'
p7635
ag4
aS'more'
p7636
aS'med'
p7637
aS'high'
p7638
aS'acc'
p7639
aa(lp7640
S'low'
p7641
aS'vhigh'
p7642
ag4
aS'more'
p7643
aS'big'
p7644
aS'low'
p7645
aS'unacc'
p7646
aa(lp7647
S'low'
p7648
aS'vhigh'
p7649
ag4
aS'more'
p7650
aS'big'
p7651
aS'med'
p7652
aS'acc'
p7653
aa(lp7654
S'low'
p7655
aS'vhigh'
p7656
ag4
aS'more'
p7657
aS'big'
p7658
aS'high'
p7659
aS'acc'
p7660
aa(lp7661
S'low'
p7662
aS'vhigh'
p7663
ag177
ag4
aS'small'
p7664
aS'low'
p7665
aS'unacc'
p7666
aa(lp7667
S'low'
p7668
aS'vhigh'
p7669
ag177
ag4
aS'small'
p7670
aS'med'
p7671
aS'unacc'
p7672
aa(lp7673
S'low'
p7674
aS'vhigh'
p7675
ag177
ag4
aS'small'
p7676
aS'high'
p7677
aS'unacc'
p7678
aa(lp7679
S'low'
p7680
aS'vhigh'
p7681
ag177
ag4
aS'med'
p7682
aS'low'
p7683
aS'unacc'
p7684
aa(lp7685
S'low'
p7686
aS'vhigh'
p7687
ag177
ag4
aS'med'
p7688
aS'med'
p7689
aS'unacc'
p7690
aa(lp7691
S'low'
p7692
aS'vhigh'
p7693
ag177
ag4
aS'med'
p7694
aS'high'
p7695
aS'unacc'
p7696
aa(lp7697
S'low'
p7698
aS'vhigh'
p7699
ag177
ag4
aS'big'
p7700
aS'low'
p7701
aS'unacc'
p7702
aa(lp7703
S'low'
p7704
aS'vhigh'
p7705
ag177
ag4
aS'big'
p7706
aS'med'
p7707
aS'unacc'
p7708
aa(lp7709
S'low'
p7710
aS'vhigh'
p7711
ag177
ag4
aS'big'
p7712
aS'high'
p7713
aS'unacc'
p7714
aa(lp7715
S'low'
p7716
aS'vhigh'
p7717
ag177
ag59
aS'small'
p7718
aS'low'
p7719
aS'unacc'
p7720
aa(lp7721
S'low'
p7722
aS'vhigh'
p7723
ag177
ag59
aS'small'
p7724
aS'med'
p7725
aS'unacc'
p7726
aa(lp7727
S'low'
p7728
aS'vhigh'
p7729
ag177
ag59
aS'small'
p7730
aS'high'
p7731
aS'acc'
p7732
aa(lp7733
S'low'
p7734
aS'vhigh'
p7735
ag177
ag59
aS'med'
p7736
aS'low'
p7737
aS'unacc'
p7738
aa(lp7739
S'low'
p7740
aS'vhigh'
p7741
ag177
ag59
aS'med'
p7742
aS'med'
p7743
aS'unacc'
p7744
aa(lp7745
S'low'
p7746
aS'vhigh'
p7747
ag177
ag59
aS'med'
p7748
aS'high'
p7749
aS'acc'
p7750
aa(lp7751
S'low'
p7752
aS'vhigh'
p7753
ag177
ag59
aS'big'
p7754
aS'low'
p7755
aS'unacc'
p7756
aa(lp7757
S'low'
p7758
aS'vhigh'
p7759
ag177
ag59
aS'big'
p7760
aS'med'
p7761
aS'acc'
p7762
aa(lp7763
S'low'
p7764
aS'vhigh'
p7765
ag177
ag59
aS'big'
p7766
aS'high'
p7767
aS'acc'
p7768
aa(lp7769
S'low'
p7770
aS'vhigh'
p7771
ag177
aS'more'
p7772
aS'small'
p7773
aS'low'
p7774
aS'unacc'
p7775
aa(lp7776
S'low'
p7777
aS'vhigh'
p7778
ag177
aS'more'
p7779
aS'small'
p7780
aS'med'
p7781
aS'unacc'
p7782
aa(lp7783
S'low'
p7784
aS'vhigh'
p7785
ag177
aS'more'
p7786
aS'small'
p7787
aS'high'
p7788
aS'acc'
p7789
aa(lp7790
S'low'
p7791
aS'vhigh'
p7792
ag177
aS'more'
p7793
aS'med'
p7794
aS'low'
p7795
aS'unacc'
p7796
aa(lp7797
S'low'
p7798
aS'vhigh'
p7799
ag177
aS'more'
p7800
aS'med'
p7801
aS'med'
p7802
aS'acc'
p7803
aa(lp7804
S'low'
p7805
aS'vhigh'
p7806
ag177
aS'more'
p7807
aS'med'
p7808
aS'high'
p7809
aS'acc'
p7810
aa(lp7811
S'low'
p7812
aS'vhigh'
p7813
ag177
aS'more'
p7814
aS'big'
p7815
aS'low'
p7816
aS'unacc'
p7817
aa(lp7818
S'low'
p7819
aS'vhigh'
p7820
ag177
aS'more'
p7821
aS'big'
p7822
aS'med'
p7823
aS'acc'
p7824
aa(lp7825
S'low'
p7826
aS'vhigh'
p7827
ag177
aS'more'
p7828
aS'big'
p7829
aS'high'
p7830
aS'acc'
p7831
aa(lp7832
S'low'
p7833
aS'vhigh'
p7834
ag59
ag4
aS'small'
p7835
aS'low'
p7836
aS'unacc'
p7837
aa(lp7838
S'low'
p7839
aS'vhigh'
p7840
ag59
ag4
aS'small'
p7841
aS'med'
p7842
aS'unacc'
p7843
aa(lp7844
S'low'
p7845
aS'vhigh'
p7846
ag59
ag4
aS'small'
p7847
aS'high'
p7848
aS'unacc'
p7849
aa(lp7850
S'low'
p7851
aS'vhigh'
p7852
ag59
ag4
aS'med'
p7853
aS'low'
p7854
aS'unacc'
p7855
aa(lp7856
S'low'
p7857
aS'vhigh'
p7858
ag59
ag4
aS'med'
p7859
aS'med'
p7860
aS'unacc'
p7861
aa(lp7862
S'low'
p7863
aS'vhigh'
p7864
ag59
ag4
aS'med'
p7865
aS'high'
p7866
aS'unacc'
p7867
aa(lp7868
S'low'
p7869
aS'vhigh'
p7870
ag59
ag4
aS'big'
p7871
aS'low'
p7872
aS'unacc'
p7873
aa(lp7874
S'low'
p7875
aS'vhigh'
p7876
ag59
ag4
aS'big'
p7877
aS'med'
p7878
aS'unacc'
p7879
aa(lp7880
S'low'
p7881
aS'vhigh'
p7882
ag59
ag4
aS'big'
p7883
aS'high'
p7884
aS'unacc'
p7885
aa(lp7886
S'low'
p7887
aS'vhigh'
p7888
ag59
ag59
aS'small'
p7889
aS'low'
p7890
aS'unacc'
p7891
aa(lp7892
S'low'
p7893
aS'vhigh'
p7894
ag59
ag59
aS'small'
p7895
aS'med'
p7896
aS'unacc'
p7897
aa(lp7898
S'low'
p7899
aS'vhigh'
p7900
ag59
ag59
aS'small'
p7901
aS'high'
p7902
aS'acc'
p7903
aa(lp7904
S'low'
p7905
aS'vhigh'
p7906
ag59
ag59
aS'med'
p7907
aS'low'
p7908
aS'unacc'
p7909
aa(lp7910
S'low'
p7911
aS'vhigh'
p7912
ag59
ag59
aS'med'
p7913
aS'med'
p7914
aS'acc'
p7915
aa(lp7916
S'low'
p7917
aS'vhigh'
p7918
ag59
ag59
aS'med'
p7919
aS'high'
p7920
aS'acc'
p7921
aa(lp7922
S'low'
p7923
aS'vhigh'
p7924
ag59
ag59
aS'big'
p7925
aS'low'
p7926
aS'unacc'
p7927
aa(lp7928
S'low'
p7929
aS'vhigh'
p7930
ag59
ag59
aS'big'
p7931
aS'med'
p7932
aS'acc'
p7933
aa(lp7934
S'low'
p7935
aS'vhigh'
p7936
ag59
ag59
aS'big'
p7937
aS'high'
p7938
aS'acc'
p7939
aa(lp7940
S'low'
p7941
aS'vhigh'
p7942
ag59
aS'more'
p7943
aS'small'
p7944
aS'low'
p7945
aS'unacc'
p7946
aa(lp7947
S'low'
p7948
aS'vhigh'
p7949
ag59
aS'more'
p7950
aS'small'
p7951
aS'med'
p7952
aS'unacc'
p7953
aa(lp7954
S'low'
p7955
aS'vhigh'
p7956
ag59
aS'more'
p7957
aS'small'
p7958
aS'high'
p7959
aS'acc'
p7960
aa(lp7961
S'low'
p7962
aS'vhigh'
p7963
ag59
aS'more'
p7964
aS'med'
p7965
aS'low'
p7966
aS'unacc'
p7967
aa(lp7968
S'low'
p7969
aS'vhigh'
p7970
ag59
aS'more'
p7971
aS'med'
p7972
aS'med'
p7973
aS'acc'
p7974
aa(lp7975
S'low'
p7976
aS'vhigh'
p7977
ag59
aS'more'
p7978
aS'med'
p7979
aS'high'
p7980
aS'acc'
p7981
aa(lp7982
S'low'
p7983
aS'vhigh'
p7984
ag59
aS'more'
p7985
aS'big'
p7986
aS'low'
p7987
aS'unacc'
p7988
aa(lp7989
S'low'
p7990
aS'vhigh'
p7991
ag59
aS'more'
p7992
aS'big'
p7993
aS'med'
p7994
aS'acc'
p7995
aa(lp7996
S'low'
p7997
aS'vhigh'
p7998
ag59
aS'more'
p7999
aS'big'
p8000
aS'high'
p8001
aS'acc'
p8002
aa(lp8003
S'low'
p8004
aS'vhigh'
p8005
aS'5more'
p8006
ag4
aS'small'
p8007
aS'low'
p8008
aS'unacc'
p8009
aa(lp8010
S'low'
p8011
aS'vhigh'
p8012
aS'5more'
p8013
ag4
aS'small'
p8014
aS'med'
p8015
aS'unacc'
p8016
aa(lp8017
S'low'
p8018
aS'vhigh'
p8019
aS'5more'
p8020
ag4
aS'small'
p8021
aS'high'
p8022
aS'unacc'
p8023
aa(lp8024
S'low'
p8025
aS'vhigh'
p8026
aS'5more'
p8027
ag4
aS'med'
p8028
aS'low'
p8029
aS'unacc'
p8030
aa(lp8031
S'low'
p8032
aS'vhigh'
p8033
aS'5more'
p8034
ag4
aS'med'
p8035
aS'med'
p8036
aS'unacc'
p8037
aa(lp8038
S'low'
p8039
aS'vhigh'
p8040
aS'5more'
p8041
ag4
aS'med'
p8042
aS'high'
p8043
aS'unacc'
p8044
aa(lp8045
S'low'
p8046
aS'vhigh'
p8047
aS'5more'
p8048
ag4
aS'big'
p8049
aS'low'
p8050
aS'unacc'
p8051
aa(lp8052
S'low'
p8053
aS'vhigh'
p8054
aS'5more'
p8055
ag4
aS'big'
p8056
aS'med'
p8057
aS'unacc'
p8058
aa(lp8059
S'low'
p8060
aS'vhigh'
p8061
aS'5more'
p8062
ag4
aS'big'
p8063
aS'high'
p8064
aS'unacc'
p8065
aa(lp8066
S'low'
p8067
aS'vhigh'
p8068
aS'5more'
p8069
ag59
aS'small'
p8070
aS'low'
p8071
aS'unacc'
p8072
aa(lp8073
S'low'
p8074
aS'vhigh'
p8075
aS'5more'
p8076
ag59
aS'small'
p8077
aS'med'
p8078
aS'unacc'
p8079
aa(lp8080
S'low'
p8081
aS'vhigh'
p8082
aS'5more'
p8083
ag59
aS'small'
p8084
aS'high'
p8085
aS'acc'
p8086
aa(lp8087
S'low'
p8088
aS'vhigh'
p8089
aS'5more'
p8090
ag59
aS'med'
p8091
aS'low'
p8092
aS'unacc'
p8093
aa(lp8094
S'low'
p8095
aS'vhigh'
p8096
aS'5more'
p8097
ag59
aS'med'
p8098
aS'med'
p8099
aS'acc'
p8100
aa(lp8101
S'low'
p8102
aS'vhigh'
p8103
aS'5more'
p8104
ag59
aS'med'
p8105
aS'high'
p8106
aS'acc'
p8107
aa(lp8108
S'low'
p8109
aS'vhigh'
p8110
aS'5more'
p8111
ag59
aS'big'
p8112
aS'low'
p8113
aS'unacc'
p8114
aa(lp8115
S'low'
p8116
aS'vhigh'
p8117
aS'5more'
p8118
ag59
aS'big'
p8119
aS'med'
p8120
aS'acc'
p8121
aa(lp8122
S'low'
p8123
aS'vhigh'
p8124
aS'5more'
p8125
ag59
aS'big'
p8126
aS'high'
p8127
aS'acc'
p8128
aa(lp8129
S'low'
p8130
aS'vhigh'
p8131
aS'5more'
p8132
aS'more'
p8133
aS'small'
p8134
aS'low'
p8135
aS'unacc'
p8136
aa(lp8137
S'low'
p8138
aS'vhigh'
p8139
aS'5more'
p8140
aS'more'
p8141
aS'small'
p8142
aS'med'
p8143
aS'unacc'
p8144
aa(lp8145
S'low'
p8146
aS'vhigh'
p8147
aS'5more'
p8148
aS'more'
p8149
aS'small'
p8150
aS'high'
p8151
aS'acc'
p8152
aa(lp8153
S'low'
p8154
aS'vhigh'
p8155
aS'5more'
p8156
aS'more'
p8157
aS'med'
p8158
aS'low'
p8159
aS'unacc'
p8160
aa(lp8161
S'low'
p8162
aS'vhigh'
p8163
aS'5more'
p8164
aS'more'
p8165
aS'med'
p8166
aS'med'
p8167
aS'acc'
p8168
aa(lp8169
S'low'
p8170
aS'vhigh'
p8171
aS'5more'
p8172
aS'more'
p8173
aS'med'
p8174
aS'high'
p8175
aS'acc'
p8176
aa(lp8177
S'low'
p8178
aS'vhigh'
p8179
aS'5more'
p8180
aS'more'
p8181
aS'big'
p8182
aS'low'
p8183
aS'unacc'
p8184
aa(lp8185
S'low'
p8186
aS'vhigh'
p8187
aS'5more'
p8188
aS'more'
p8189
aS'big'
p8190
aS'med'
p8191
aS'acc'
p8192
aa(lp8193
S'low'
p8194
aS'vhigh'
p8195
aS'5more'
p8196
aS'more'
p8197
aS'big'
p8198
aS'high'
p8199
aS'acc'
p8200
aa(lp8201
S'low'
p8202
aS'high'
p8203
ag4
ag4
aS'small'
p8204
aS'low'
p8205
aS'unacc'
p8206
aa(lp8207
S'low'
p8208
aS'high'
p8209
ag4
ag4
aS'small'
p8210
aS'med'
p8211
aS'unacc'
p8212
aa(lp8213
S'low'
p8214
aS'high'
p8215
ag4
ag4
aS'small'
p8216
aS'high'
p8217
aS'unacc'
p8218
aa(lp8219
S'low'
p8220
aS'high'
p8221
ag4
ag4
aS'med'
p8222
aS'low'
p8223
aS'unacc'
p8224
aa(lp8225
S'low'
p8226
aS'high'
p8227
ag4
ag4
aS'med'
p8228
aS'med'
p8229
aS'unacc'
p8230
aa(lp8231
S'low'
p8232
aS'high'
p8233
ag4
ag4
aS'med'
p8234
aS'high'
p8235
aS'unacc'
p8236
aa(lp8237
S'low'
p8238
aS'high'
p8239
ag4
ag4
aS'big'
p8240
aS'low'
p8241
aS'unacc'
p8242
aa(lp8243
S'low'
p8244
aS'high'
p8245
ag4
ag4
aS'big'
p8246
aS'med'
p8247
aS'unacc'
p8248
aa(lp8249
S'low'
p8250
aS'high'
p8251
ag4
ag4
aS'big'
p8252
aS'high'
p8253
aS'unacc'
p8254
aa(lp8255
S'low'
p8256
aS'high'
p8257
ag4
ag59
aS'small'
p8258
aS'low'
p8259
aS'unacc'
p8260
aa(lp8261
S'low'
p8262
aS'high'
p8263
ag4
ag59
aS'small'
p8264
aS'med'
p8265
aS'acc'
p8266
aa(lp8267
S'low'
p8268
aS'high'
p8269
ag4
ag59
aS'small'
p8270
aS'high'
p8271
aS'acc'
p8272
aa(lp8273
S'low'
p8274
aS'high'
p8275
ag4
ag59
aS'med'
p8276
aS'low'
p8277
aS'unacc'
p8278
aa(lp8279
S'low'
p8280
aS'high'
p8281
ag4
ag59
aS'med'
p8282
aS'med'
p8283
aS'acc'
p8284
aa(lp8285
S'low'
p8286
aS'high'
p8287
ag4
ag59
aS'med'
p8288
aS'high'
p8289
aS'acc'
p8290
aa(lp8291
S'low'
p8292
aS'high'
p8293
ag4
ag59
aS'big'
p8294
aS'low'
p8295
aS'unacc'
p8296
aa(lp8297
S'low'
p8298
aS'high'
p8299
ag4
ag59
aS'big'
p8300
aS'med'
p8301
aS'acc'
p8302
aa(lp8303
S'low'
p8304
aS'high'
p8305
ag4
ag59
aS'big'
p8306
aS'high'
p8307
aS'vgood'
p8308
aa(lp8309
S'low'
p8310
aS'high'
p8311
ag4
aS'more'
p8312
aS'small'
p8313
aS'low'
p8314
aS'unacc'
p8315
aa(lp8316
S'low'
p8317
aS'high'
p8318
ag4
aS'more'
p8319
aS'small'
p8320
aS'med'
p8321
aS'unacc'
p8322
aa(lp8323
S'low'
p8324
aS'high'
p8325
ag4
aS'more'
p8326
aS'small'
p8327
aS'high'
p8328
aS'unacc'
p8329
aa(lp8330
S'low'
p8331
aS'high'
p8332
ag4
aS'more'
p8333
aS'med'
p8334
aS'low'
p8335
aS'unacc'
p8336
aa(lp8337
S'low'
p8338
aS'high'
p8339
ag4
aS'more'
p8340
aS'med'
p8341
aS'med'
p8342
aS'acc'
p8343
aa(lp8344
S'low'
p8345
aS'high'
p8346
ag4
aS'more'
p8347
aS'med'
p8348
aS'high'
p8349
aS'acc'
p8350
aa(lp8351
S'low'
p8352
aS'high'
p8353
ag4
aS'more'
p8354
aS'big'
p8355
aS'low'
p8356
aS'unacc'
p8357
aa(lp8358
S'low'
p8359
aS'high'
p8360
ag4
aS'more'
p8361
aS'big'
p8362
aS'med'
p8363
aS'acc'
p8364
aa(lp8365
S'low'
p8366
aS'high'
p8367
ag4
aS'more'
p8368
aS'big'
p8369
aS'high'
p8370
aS'vgood'
p8371
aa(lp8372
S'low'
p8373
aS'high'
p8374
ag177
ag4
aS'small'
p8375
aS'low'
p8376
aS'unacc'
p8377
aa(lp8378
S'low'
p8379
aS'high'
p8380
ag177
ag4
aS'small'
p8381
aS'med'
p8382
aS'unacc'
p8383
aa(lp8384
S'low'
p8385
aS'high'
p8386
ag177
ag4
aS'small'
p8387
aS'high'
p8388
aS'unacc'
p8389
aa(lp8390
S'low'
p8391
aS'high'
p8392
ag177
ag4
aS'med'
p8393
aS'low'
p8394
aS'unacc'
p8395
aa(lp8396
S'low'
p8397
aS'high'
p8398
ag177
ag4
aS'med'
p8399
aS'med'
p8400
aS'unacc'
p8401
aa(lp8402
S'low'
p8403
aS'high'
p8404
ag177
ag4
aS'med'
p8405
aS'high'
p8406
aS'unacc'
p8407
aa(lp8408
S'low'
p8409
aS'high'
p8410
ag177
ag4
aS'big'
p8411
aS'low'
p8412
aS'unacc'
p8413
aa(lp8414
S'low'
p8415
aS'high'
p8416
ag177
ag4
aS'big'
p8417
aS'med'
p8418
aS'unacc'
p8419
aa(lp8420
S'low'
p8421
aS'high'
p8422
ag177
ag4
aS'big'
p8423
aS'high'
p8424
aS'unacc'
p8425
aa(lp8426
S'low'
p8427
aS'high'
p8428
ag177
ag59
aS'small'
p8429
aS'low'
p8430
aS'unacc'
p8431
aa(lp8432
S'low'
p8433
aS'high'
p8434
ag177
ag59
aS'small'
p8435
aS'med'
p8436
aS'acc'
p8437
aa(lp8438
S'low'
p8439
aS'high'
p8440
ag177
ag59
aS'small'
p8441
aS'high'
p8442
aS'acc'
p8443
aa(lp8444
S'low'
p8445
aS'high'
p8446
ag177
ag59
aS'med'
p8447
aS'low'
p8448
aS'unacc'
p8449
aa(lp8450
S'low'
p8451
aS'high'
p8452
ag177
ag59
aS'med'
p8453
aS'med'
p8454
aS'acc'
p8455
aa(lp8456
S'low'
p8457
aS'high'
p8458
ag177
ag59
aS'med'
p8459
aS'high'
p8460
aS'acc'
p8461
aa(lp8462
S'low'
p8463
aS'high'
p8464
ag177
ag59
aS'big'
p8465
aS'low'
p8466
aS'unacc'
p8467
aa(lp8468
S'low'
p8469
aS'high'
p8470
ag177
ag59
aS'big'
p8471
aS'med'
p8472
aS'acc'
p8473
aa(lp8474
S'low'
p8475
aS'high'
p8476
ag177
ag59
aS'big'
p8477
aS'high'
p8478
aS'vgood'
p8479
aa(lp8480
S'low'
p8481
aS'high'
p8482
ag177
aS'more'
p8483
aS'small'
p8484
aS'low'
p8485
aS'unacc'
p8486
aa(lp8487
S'low'
p8488
aS'high'
p8489
ag177
aS'more'
p8490
aS'small'
p8491
aS'med'
p8492
aS'acc'
p8493
aa(lp8494
S'low'
p8495
aS'high'
p8496
ag177
aS'more'
p8497
aS'small'
p8498
aS'high'
p8499
aS'acc'
p8500
aa(lp8501
S'low'
p8502
aS'high'
p8503
ag177
aS'more'
p8504
aS'med'
p8505
aS'low'
p8506
aS'unacc'
p8507
aa(lp8508
S'low'
p8509
aS'high'
p8510
ag177
aS'more'
p8511
aS'med'
p8512
aS'med'
p8513
aS'acc'
p8514
aa(lp8515
S'low'
p8516
aS'high'
p8517
ag177
aS'more'
p8518
aS'med'
p8519
aS'high'
p8520
aS'vgood'
p8521
aa(lp8522
S'low'
p8523
aS'high'
p8524
ag177
aS'more'
p8525
aS'big'
p8526
aS'low'
p8527
aS'unacc'
p8528
aa(lp8529
S'low'
p8530
aS'high'
p8531
ag177
aS'more'
p8532
aS'big'
p8533
aS'med'
p8534
aS'acc'
p8535
aa(lp8536
S'low'
p8537
aS'high'
p8538
ag177
aS'more'
p8539
aS'big'
p8540
aS'high'
p8541
aS'vgood'
p8542
aa(lp8543
S'low'
p8544
aS'high'
p8545
ag59
ag4
aS'small'
p8546
aS'low'
p8547
aS'unacc'
p8548
aa(lp8549
S'low'
p8550
aS'high'
p8551
ag59
ag4
aS'small'
p8552
aS'med'
p8553
aS'unacc'
p8554
aa(lp8555
S'low'
p8556
aS'high'
p8557
ag59
ag4
aS'small'
p8558
aS'high'
p8559
aS'unacc'
p8560
aa(lp8561
S'low'
p8562
aS'high'
p8563
ag59
ag4
aS'med'
p8564
aS'low'
p8565
aS'unacc'
p8566
aa(lp8567
S'low'
p8568
aS'high'
p8569
ag59
ag4
aS'med'
p8570
aS'med'
p8571
aS'unacc'
p8572
aa(lp8573
S'low'
p8574
aS'high'
p8575
ag59
ag4
aS'med'
p8576
aS'high'
p8577
aS'unacc'
p8578
aa(lp8579
S'low'
p8580
aS'high'
p8581
ag59
ag4
aS'big'
p8582
aS'low'
p8583
aS'unacc'
p8584
aa(lp8585
S'low'
p8586
aS'high'
p8587
ag59
ag4
aS'big'
p8588
aS'med'
p8589
aS'unacc'
p8590
aa(lp8591
S'low'
p8592
aS'high'
p8593
ag59
ag4
aS'big'
p8594
aS'high'
p8595
aS'unacc'
p8596
aa(lp8597
S'low'
p8598
aS'high'
p8599
ag59
ag59
aS'small'
p8600
aS'low'
p8601
aS'unacc'
p8602
aa(lp8603
S'low'
p8604
aS'high'
p8605
ag59
ag59
aS'small'
p8606
aS'med'
p8607
aS'acc'
p8608
aa(lp8609
S'low'
p8610
aS'high'
p8611
ag59
ag59
aS'small'
p8612
aS'high'
p8613
aS'acc'
p8614
aa(lp8615
S'low'
p8616
aS'high'
p8617
ag59
ag59
aS'med'
p8618
aS'low'
p8619
aS'unacc'
p8620
aa(lp8621
S'low'
p8622
aS'high'
p8623
ag59
ag59
aS'med'
p8624
aS'med'
p8625
aS'acc'
p8626
aa(lp8627
S'low'
p8628
aS'high'
p8629
ag59
ag59
aS'med'
p8630
aS'high'
p8631
aS'vgood'
p8632
aa(lp8633
S'low'
p8634
aS'high'
p8635
ag59
ag59
aS'big'
p8636
aS'low'
p8637
aS'unacc'
p8638
aa(lp8639
S'low'
p8640
aS'high'
p8641
ag59
ag59
aS'big'
p8642
aS'med'
p8643
aS'acc'
p8644
aa(lp8645
S'low'
p8646
aS'high'
p8647
ag59
ag59
aS'big'
p8648
aS'high'
p8649
aS'vgood'
p8650
aa(lp8651
S'low'
p8652
aS'high'
p8653
ag59
aS'more'
p8654
aS'small'
p8655
aS'low'
p8656
aS'unacc'
p8657
aa(lp8658
S'low'
p8659
aS'high'
p8660
ag59
aS'more'
p8661
aS'small'
p8662
aS'med'
p8663
aS'acc'
p8664
aa(lp8665
S'low'
p8666
aS'high'
p8667
ag59
aS'more'
p8668
aS'small'
p8669
aS'high'
p8670
aS'acc'
p8671
aa(lp8672
S'low'
p8673
aS'high'
p8674
ag59
aS'more'
p8675
aS'med'
p8676
aS'low'
p8677
aS'unacc'
p8678
aa(lp8679
S'low'
p8680
aS'high'
p8681
ag59
aS'more'
p8682
aS'med'
p8683
aS'med'
p8684
aS'acc'
p8685
aa(lp8686
S'low'
p8687
aS'high'
p8688
ag59
aS'more'
p8689
aS'med'
p8690
aS'high'
p8691
aS'vgood'
p8692
aa(lp8693
S'low'
p8694
aS'high'
p8695
ag59
aS'more'
p8696
aS'big'
p8697
aS'low'
p8698
aS'unacc'
p8699
aa(lp8700
S'low'
p8701
aS'high'
p8702
ag59
aS'more'
p8703
aS'big'
p8704
aS'med'
p8705
aS'acc'
p8706
aa(lp8707
S'low'
p8708
aS'high'
p8709
ag59
aS'more'
p8710
aS'big'
p8711
aS'high'
p8712
aS'vgood'
p8713
aa(lp8714
S'low'
p8715
aS'high'
p8716
aS'5more'
p8717
ag4
aS'small'
p8718
aS'low'
p8719
aS'unacc'
p8720
aa(lp8721
S'low'
p8722
aS'high'
p8723
aS'5more'
p8724
ag4
aS'small'
p8725
aS'med'
p8726
aS'unacc'
p8727
aa(lp8728
S'low'
p8729
aS'high'
p8730
aS'5more'
p8731
ag4
aS'small'
p8732
aS'high'
p8733
aS'unacc'
p8734
aa(lp8735
S'low'
p8736
aS'high'
p8737
aS'5more'
p8738
ag4
aS'med'
p8739
aS'low'
p8740
aS'unacc'
p8741
aa(lp8742
S'low'
p8743
aS'high'
p8744
aS'5more'
p8745
ag4
aS'med'
p8746
aS'med'
p8747
aS'unacc'
p8748
aa(lp8749
S'low'
p8750
aS'high'
p8751
aS'5more'
p8752
ag4
aS'med'
p8753
aS'high'
p8754
aS'unacc'
p8755
aa(lp8756
S'low'
p8757
aS'high'
p8758
aS'5more'
p8759
ag4
aS'big'
p8760
aS'low'
p8761
aS'unacc'
p8762
aa(lp8763
S'low'
p8764
aS'high'
p8765
aS'5more'
p8766
ag4
aS'big'
p8767
aS'med'
p8768
aS'unacc'
p8769
aa(lp8770
S'low'
p8771
aS'high'
p8772
aS'5more'
p8773
ag4
aS'big'
p8774
aS'high'
p8775
aS'unacc'
p8776
aa(lp8777
S'low'
p8778
aS'high'
p8779
aS'5more'
p8780
ag59
aS'small'
p8781
aS'low'
p8782
aS'unacc'
p8783
aa(lp8784
S'low'
p8785
aS'high'
p8786
aS'5more'
p8787
ag59
aS'small'
p8788
aS'med'
p8789
aS'acc'
p8790
aa(lp8791
S'low'
p8792
aS'high'
p8793
aS'5more'
p8794
ag59
aS'small'
p8795
aS'high'
p8796
aS'acc'
p8797
aa(lp8798
S'low'
p8799
aS'high'
p8800
aS'5more'
p8801
ag59
aS'med'
p8802
aS'low'
p8803
aS'unacc'
p8804
aa(lp8805
S'low'
p8806
aS'high'
p8807
aS'5more'
p8808
ag59
aS'med'
p8809
aS'med'
p8810
aS'acc'
p8811
aa(lp8812
S'low'
p8813
aS'high'
p8814
aS'5more'
p8815
ag59
aS'med'
p8816
aS'high'
p8817
aS'vgood'
p8818
aa(lp8819
S'low'
p8820
aS'high'
p8821
aS'5more'
p8822
ag59
aS'big'
p8823
aS'low'
p8824
aS'unacc'
p8825
aa(lp8826
S'low'
p8827
aS'high'
p8828
aS'5more'
p8829
ag59
aS'big'
p8830
aS'med'
p8831
aS'acc'
p8832
aa(lp8833
S'low'
p8834
aS'high'
p8835
aS'5more'
p8836
ag59
aS'big'
p8837
aS'high'
p8838
aS'vgood'
p8839
aa(lp8840
S'low'
p8841
aS'high'
p8842
aS'5more'
p8843
aS'more'
p8844
aS'small'
p8845
aS'low'
p8846
aS'unacc'
p8847
aa(lp8848
S'low'
p8849
aS'high'
p8850
aS'5more'
p8851
aS'more'
p8852
aS'small'
p8853
aS'med'
p8854
aS'acc'
p8855
aa(lp8856
S'low'
p8857
aS'high'
p8858
aS'5more'
p8859
aS'more'
p8860
aS'small'
p8861
aS'high'
p8862
aS'acc'
p8863
aa(lp8864
S'low'
p8865
aS'high'
p8866
aS'5more'
p8867
aS'more'
p8868
aS'med'
p8869
aS'low'
p8870
aS'unacc'
p8871
aa(lp8872
S'low'
p8873
aS'high'
p8874
aS'5more'
p8875
aS'more'
p8876
aS'med'
p8877
aS'med'
p8878
aS'acc'
p8879
aa(lp8880
S'low'
p8881
aS'high'
p8882
aS'5more'
p8883
aS'more'
p8884
aS'med'
p8885
aS'high'
p8886
aS'vgood'
p8887
aa(lp8888
S'low'
p8889
aS'high'
p8890
aS'5more'
p8891
aS'more'
p8892
aS'big'
p8893
aS'low'
p8894
aS'unacc'
p8895
aa(lp8896
S'low'
p8897
aS'high'
p8898
aS'5more'
p8899
aS'more'
p8900
aS'big'
p8901
aS'med'
p8902
aS'acc'
p8903
aa(lp8904
S'low'
p8905
aS'high'
p8906
aS'5more'
p8907
aS'more'
p8908
aS'big'
p8909
aS'high'
p8910
aS'vgood'
p8911
aa(lp8912
S'low'
p8913
aS'med'
p8914
ag4
ag4
aS'small'
p8915
aS'low'
p8916
aS'unacc'
p8917
aa(lp8918
S'low'
p8919
aS'med'
p8920
ag4
ag4
aS'small'
p8921
aS'med'
p8922
aS'unacc'
p8923
aa(lp8924
S'low'
p8925
aS'med'
p8926
ag4
ag4
aS'small'
p8927
aS'high'
p8928
aS'unacc'
p8929
aa(lp8930
S'low'
p8931
aS'med'
p8932
ag4
ag4
aS'med'
p8933
aS'low'
p8934
aS'unacc'
p8935
aa(lp8936
S'low'
p8937
aS'med'
p8938
ag4
ag4
aS'med'
p8939
aS'med'
p8940
aS'unacc'
p8941
aa(lp8942
S'low'
p8943
aS'med'
p8944
ag4
ag4
aS'med'
p8945
aS'high'
p8946
aS'unacc'
p8947
aa(lp8948
S'low'
p8949
aS'med'
p8950
ag4
ag4
aS'big'
p8951
aS'low'
p8952
aS'unacc'
p8953
aa(lp8954
S'low'
p8955
aS'med'
p8956
ag4
ag4
aS'big'
p8957
aS'med'
p8958
aS'unacc'
p8959
aa(lp8960
S'low'
p8961
aS'med'
p8962
ag4
ag4
aS'big'
p8963
aS'high'
p8964
aS'unacc'
p8965
aa(lp8966
S'low'
p8967
aS'med'
p8968
ag4
ag59
aS'small'
p8969
aS'low'
p8970
aS'unacc'
p8971
aa(lp8972
S'low'
p8973
aS'med'
p8974
ag4
ag59
aS'small'
p8975
aS'med'
p8976
aS'acc'
p8977
aa(lp8978
S'low'
p8979
aS'med'
p8980
ag4
ag59
aS'small'
p8981
aS'high'
p8982
aS'good'
p8983
aa(lp8984
S'low'
p8985
aS'med'
p8986
ag4
ag59
aS'med'
p8987
aS'low'
p8988
aS'unacc'
p8989
aa(lp8990
S'low'
p8991
aS'med'
p8992
ag4
ag59
aS'med'
p8993
aS'med'
p8994
aS'acc'
p8995
aa(lp8996
S'low'
p8997
aS'med'
p8998
ag4
ag59
aS'med'
p8999
aS'high'
p9000
aS'good'
p9001
aa(lp9002
S'low'
p9003
aS'med'
p9004
ag4
ag59
aS'big'
p9005
aS'low'
p9006
aS'unacc'
p9007
aa(lp9008
S'low'
p9009
aS'med'
p9010
ag4
ag59
aS'big'
p9011
aS'med'
p9012
aS'good'
p9013
aa(lp9014
S'low'
p9015
aS'med'
p9016
ag4
ag59
aS'big'
p9017
aS'high'
p9018
aS'vgood'
p9019
aa(lp9020
S'low'
p9021
aS'med'
p9022
ag4
aS'more'
p9023
aS'small'
p9024
aS'low'
p9025
aS'unacc'
p9026
aa(lp9027
S'low'
p9028
aS'med'
p9029
ag4
aS'more'
p9030
aS'small'
p9031
aS'med'
p9032
aS'unacc'
p9033
aa(lp9034
S'low'
p9035
aS'med'
p9036
ag4
aS'more'
p9037
aS'small'
p9038
aS'high'
p9039
aS'unacc'
p9040
aa(lp9041
S'low'
p9042
aS'med'
p9043
ag4
aS'more'
p9044
aS'med'
p9045
aS'low'
p9046
aS'unacc'
p9047
aa(lp9048
S'low'
p9049
aS'med'
p9050
ag4
aS'more'
p9051
aS'med'
p9052
aS'med'
p9053
aS'acc'
p9054
aa(lp9055
S'low'
p9056
aS'med'
p9057
ag4
aS'more'
p9058
aS'med'
p9059
aS'high'
p9060
aS'good'
p9061
aa(lp9062
S'low'
p9063
aS'med'
p9064
ag4
aS'more'
p9065
aS'big'
p9066
aS'low'
p9067
aS'unacc'
p9068
aa(lp9069
S'low'
p9070
aS'med'
p9071
ag4
aS'more'
p9072
aS'big'
p9073
aS'med'
p9074
aS'good'
p9075
aa(lp9076
S'low'
p9077
aS'med'
p9078
ag4
aS'more'
p9079
aS'big'
p9080
aS'high'
p9081
aS'vgood'
p9082
aa(lp9083
S'low'
p9084
aS'med'
p9085
ag177
ag4
aS'small'
p9086
aS'low'
p9087
aS'unacc'
p9088
aa(lp9089
S'low'
p9090
aS'med'
p9091
ag177
ag4
aS'small'
p9092
aS'med'
p9093
aS'unacc'
p9094
aa(lp9095
S'low'
p9096
aS'med'
p9097
ag177
ag4
aS'small'
p9098
aS'high'
p9099
aS'unacc'
p9100
aa(lp9101
S'low'
p9102
aS'med'
p9103
ag177
ag4
aS'med'
p9104
aS'low'
p9105
aS'unacc'
p9106
aa(lp9107
S'low'
p9108
aS'med'
p9109
ag177
ag4
aS'med'
p9110
aS'med'
p9111
aS'unacc'
p9112
aa(lp9113
S'low'
p9114
aS'med'
p9115
ag177
ag4
aS'med'
p9116
aS'high'
p9117
aS'unacc'
p9118
aa(lp9119
S'low'
p9120
aS'med'
p9121
ag177
ag4
aS'big'
p9122
aS'low'
p9123
aS'unacc'
p9124
aa(lp9125
S'low'
p9126
aS'med'
p9127
ag177
ag4
aS'big'
p9128
aS'med'
p9129
aS'unacc'
p9130
aa(lp9131
S'low'
p9132
aS'med'
p9133
ag177
ag4
aS'big'
p9134
aS'high'
p9135
aS'unacc'
p9136
aa(lp9137
S'low'
p9138
aS'med'
p9139
ag177
ag59
aS'small'
p9140
aS'low'
p9141
aS'unacc'
p9142
aa(lp9143
S'low'
p9144
aS'med'
p9145
ag177
ag59
aS'small'
p9146
aS'med'
p9147
aS'acc'
p9148
aa(lp9149
S'low'
p9150
aS'med'
p9151
ag177
ag59
aS'small'
p9152
aS'high'
p9153
aS'good'
p9154
aa(lp9155
S'low'
p9156
aS'med'
p9157
ag177
ag59
aS'med'
p9158
aS'low'
p9159
aS'unacc'
p9160
aa(lp9161
S'low'
p9162
aS'med'
p9163
ag177
ag59
aS'med'
p9164
aS'med'
p9165
aS'acc'
p9166
aa(lp9167
S'low'
p9168
aS'med'
p9169
ag177
ag59
aS'med'
p9170
aS'high'
p9171
aS'good'
p9172
aa(lp9173
S'low'
p9174
aS'med'
p9175
ag177
ag59
aS'big'
p9176
aS'low'
p9177
aS'unacc'
p9178
aa(lp9179
S'low'
p9180
aS'med'
p9181
ag177
ag59
aS'big'
p9182
aS'med'
p9183
aS'good'
p9184
aa(lp9185
S'low'
p9186
aS'med'
p9187
ag177
aS'more'
p9188
aS'small'
p9189
aS'low'
p9190
aS'unacc'
p9191
aa(lp9192
S'low'
p9193
aS'med'
p9194
ag177
aS'more'
p9195
aS'small'
p9196
aS'med'
p9197
aS'acc'
p9198
aa(lp9199
S'low'
p9200
aS'med'
p9201
ag177
aS'more'
p9202
aS'small'
p9203
aS'high'
p9204
aS'good'
p9205
aa(lp9206
S'low'
p9207
aS'med'
p9208
ag177
aS'more'
p9209
aS'med'
p9210
aS'low'
p9211
aS'unacc'
p9212
aa(lp9213
S'low'
p9214
aS'med'
p9215
ag177
aS'more'
p9216
aS'med'
p9217
aS'med'
p9218
aS'good'
p9219
aa(lp9220
S'low'
p9221
aS'med'
p9222
ag177
aS'more'
p9223
aS'big'
p9224
aS'low'
p9225
aS'unacc'
p9226
aa(lp9227
S'low'
p9228
aS'med'
p9229
ag177
aS'more'
p9230
aS'big'
p9231
aS'med'
p9232
aS'good'
p9233
aa(lp9234
S'low'
p9235
aS'med'
p9236
ag59
ag4
aS'small'
p9237
aS'low'
p9238
aS'unacc'
p9239
aa(lp9240
S'low'
p9241
aS'med'
p9242
ag59
ag4
aS'small'
p9243
aS'med'
p9244
aS'unacc'
p9245
aa(lp9246
S'low'
p9247
aS'med'
p9248
ag59
ag4
aS'small'
p9249
aS'high'
p9250
aS'unacc'
p9251
aa(lp9252
S'low'
p9253
aS'med'
p9254
ag59
ag4
aS'med'
p9255
aS'low'
p9256
aS'unacc'
p9257
aa(lp9258
S'low'
p9259
aS'med'
p9260
ag59
ag4
aS'med'
p9261
aS'med'
p9262
aS'unacc'
p9263
aa(lp9264
S'low'
p9265
aS'med'
p9266
ag59
ag4
aS'med'
p9267
aS'high'
p9268
aS'unacc'
p9269
aa(lp9270
S'low'
p9271
aS'med'
p9272
ag59
ag4
aS'big'
p9273
aS'low'
p9274
aS'unacc'
p9275
aa(lp9276
S'low'
p9277
aS'med'
p9278
ag59
ag4
aS'big'
p9279
aS'med'
p9280
aS'unacc'
p9281
aa(lp9282
S'low'
p9283
aS'med'
p9284
ag59
ag4
aS'big'
p9285
aS'high'
p9286
aS'unacc'
p9287
aa(lp9288
S'low'
p9289
aS'med'
p9290
ag59
ag59
aS'small'
p9291
aS'low'
p9292
aS'unacc'
p9293
aa(lp9294
S'low'
p9295
aS'med'
p9296
ag59
ag59
aS'small'
p9297
aS'med'
p9298
aS'acc'
p9299
aa(lp9300
S'low'
p9301
aS'med'
p9302
ag59
ag59
aS'small'
p9303
aS'high'
p9304
aS'good'
p9305
aa(lp9306
S'low'
p9307
aS'med'
p9308
ag59
ag59
aS'med'
p9309
aS'low'
p9310
aS'unacc'
p9311
aa(lp9312
S'low'
p9313
aS'med'
p9314
ag59
ag59
aS'med'
p9315
aS'med'
p9316
aS'good'
p9317
aa(lp9318
S'low'
p9319
aS'med'
p9320
ag59
ag59
aS'big'
p9321
aS'low'
p9322
aS'unacc'
p9323
aa(lp9324
S'low'
p9325
aS'med'
p9326
ag59
ag59
aS'big'
p9327
aS'med'
p9328
aS'good'
p9329
aa(lp9330
S'low'
p9331
aS'med'
p9332
ag59
aS'more'
p9333
aS'small'
p9334
aS'low'
p9335
aS'unacc'
p9336
aa(lp9337
S'low'
p9338
aS'med'
p9339
ag59
aS'more'
p9340
aS'small'
p9341
aS'med'
p9342
aS'acc'
p9343
aa(lp9344
S'low'
p9345
aS'med'
p9346
ag59
aS'more'
p9347
aS'small'
p9348
aS'high'
p9349
aS'good'
p9350
aa(lp9351
S'low'
p9352
aS'med'
p9353
ag59
aS'more'
p9354
aS'med'
p9355
aS'low'
p9356
aS'unacc'
p9357
aa(lp9358
S'low'
p9359
aS'med'
p9360
ag59
aS'more'
p9361
aS'med'
p9362
aS'med'
p9363
aS'good'
p9364
aa(lp9365
S'low'
p9366
aS'med'
p9367
ag59
aS'more'
p9368
aS'big'
p9369
aS'low'
p9370
aS'unacc'
p9371
aa(lp9372
S'low'
p9373
aS'med'
p9374
ag59
aS'more'
p9375
aS'big'
p9376
aS'med'
p9377
aS'good'
p9378
aa(lp9379
S'low'
p9380
aS'med'
p9381
ag59
aS'more'
p9382
aS'big'
p9383
aS'high'
p9384
aS'vgood'
p9385
aa(lp9386
S'low'
p9387
aS'med'
p9388
aS'5more'
p9389
ag4
aS'small'
p9390
aS'low'
p9391
aS'unacc'
p9392
aa(lp9393
S'low'
p9394
aS'med'
p9395
aS'5more'
p9396
ag4
aS'small'
p9397
aS'med'
p9398
aS'unacc'
p9399
aa(lp9400
S'low'
p9401
aS'med'
p9402
aS'5more'
p9403
ag4
aS'small'
p9404
aS'high'
p9405
aS'unacc'
p9406
aa(lp9407
S'low'
p9408
aS'med'
p9409
aS'5more'
p9410
ag4
aS'med'
p9411
aS'low'
p9412
aS'unacc'
p9413
aa(lp9414
S'low'
p9415
aS'med'
p9416
aS'5more'
p9417
ag4
aS'med'
p9418
aS'med'
p9419
aS'unacc'
p9420
aa(lp9421
S'low'
p9422
aS'med'
p9423
aS'5more'
p9424
ag4
aS'med'
p9425
aS'high'
p9426
aS'unacc'
p9427
aa(lp9428
S'low'
p9429
aS'med'
p9430
aS'5more'
p9431
ag4
aS'big'
p9432
aS'low'
p9433
aS'unacc'
p9434
aa(lp9435
S'low'
p9436
aS'med'
p9437
aS'5more'
p9438
ag4
aS'big'
p9439
aS'med'
p9440
aS'unacc'
p9441
aa(lp9442
S'low'
p9443
aS'med'
p9444
aS'5more'
p9445
ag4
aS'big'
p9446
aS'high'
p9447
aS'unacc'
p9448
aa(lp9449
S'low'
p9450
aS'med'
p9451
aS'5more'
p9452
ag59
aS'small'
p9453
aS'low'
p9454
aS'unacc'
p9455
aa(lp9456
S'low'
p9457
aS'med'
p9458
aS'5more'
p9459
ag59
aS'small'
p9460
aS'med'
p9461
aS'acc'
p9462
aa(lp9463
S'low'
p9464
aS'med'
p9465
aS'5more'
p9466
ag59
aS'small'
p9467
aS'high'
p9468
aS'good'
p9469
aa(lp9470
S'low'
p9471
aS'med'
p9472
aS'5more'
p9473
ag59
aS'med'
p9474
aS'low'
p9475
aS'unacc'
p9476
aa(lp9477
S'low'
p9478
aS'med'
p9479
aS'5more'
p9480
ag59
aS'med'
p9481
aS'med'
p9482
aS'good'
p9483
aa(lp9484
S'low'
p9485
aS'med'
p9486
aS'5more'
p9487
ag59
aS'med'
p9488
aS'high'
p9489
aS'vgood'
p9490
aa(lp9491
S'low'
p9492
aS'med'
p9493
aS'5more'
p9494
ag59
aS'big'
p9495
aS'low'
p9496
aS'unacc'
p9497
aa(lp9498
S'low'
p9499
aS'med'
p9500
aS'5more'
p9501
ag59
aS'big'
p9502
aS'high'
p9503
aS'vgood'
p9504
aa(lp9505
S'low'
p9506
aS'med'
p9507
aS'5more'
p9508
aS'more'
p9509
aS'small'
p9510
aS'low'
p9511
aS'unacc'
p9512
aa(lp9513
S'low'
p9514
aS'med'
p9515
aS'5more'
p9516
aS'more'
p9517
aS'small'
p9518
aS'med'
p9519
aS'acc'
p9520
aa(lp9521
S'low'
p9522
aS'med'
p9523
aS'5more'
p9524
aS'more'
p9525
aS'med'
p9526
aS'low'
p9527
aS'unacc'
p9528
aa(lp9529
S'low'
p9530
aS'med'
p9531
aS'5more'
p9532
aS'more'
p9533
aS'med'
p9534
aS'high'
p9535
aS'vgood'
p9536
aa(lp9537
S'low'
p9538
aS'med'
p9539
aS'5more'
p9540
aS'more'
p9541
aS'big'
p9542
aS'low'
p9543
aS'unacc'
p9544
aa(lp9545
S'low'
p9546
aS'med'
p9547
aS'5more'
p9548
aS'more'
p9549
aS'big'
p9550
aS'high'
p9551
aS'vgood'
p9552
aa(lp9553
S'low'
p9554
aS'low'
p9555
ag4
ag4
aS'small'
p9556
aS'low'
p9557
aS'unacc'
p9558
aa(lp9559
S'low'
p9560
aS'low'
p9561
ag4
ag4
aS'small'
p9562
aS'med'
p9563
aS'unacc'
p9564
aa(lp9565
S'low'
p9566
aS'low'
p9567
ag4
ag4
aS'small'
p9568
aS'high'
p9569
aS'unacc'
p9570
aa(lp9571
S'low'
p9572
aS'low'
p9573
ag4
ag4
aS'med'
p9574
aS'low'
p9575
aS'unacc'
p9576
aa(lp9577
S'low'
p9578
aS'low'
p9579
ag4
ag4
aS'med'
p9580
aS'med'
p9581
aS'unacc'
p9582
aa(lp9583
S'low'
p9584
aS'low'
p9585
ag4
ag4
aS'med'
p9586
aS'high'
p9587
aS'unacc'
p9588
aa(lp9589
S'low'
p9590
aS'low'
p9591
ag4
ag4
aS'big'
p9592
aS'low'
p9593
aS'unacc'
p9594
aa(lp9595
S'low'
p9596
aS'low'
p9597
ag4
ag4
aS'big'
p9598
aS'med'
p9599
aS'unacc'
p9600
aa(lp9601
S'low'
p9602
aS'low'
p9603
ag4
ag4
aS'big'
p9604
aS'high'
p9605
aS'unacc'
p9606
aa(lp9607
S'low'
p9608
aS'low'
p9609
ag4
ag59
aS'small'
p9610
aS'low'
p9611
aS'unacc'
p9612
aa(lp9613
S'low'
p9614
aS'low'
p9615
ag4
ag59
aS'small'
p9616
aS'med'
p9617
aS'acc'
p9618
aa(lp9619
S'low'
p9620
aS'low'
p9621
ag4
ag59
aS'med'
p9622
aS'low'
p9623
aS'unacc'
p9624
aa(lp9625
S'low'
p9626
aS'low'
p9627
ag4
ag59
aS'med'
p9628
aS'med'
p9629
aS'acc'
p9630
aa(lp9631
S'low'
p9632
aS'low'
p9633
ag4
ag59
aS'big'
p9634
aS'low'
p9635
aS'unacc'
p9636
aa(lp9637
S'low'
p9638
aS'low'
p9639
ag4
ag59
aS'big'
p9640
aS'high'
p9641
aS'vgood'
p9642
aa(lp9643
S'low'
p9644
aS'low'
p9645
ag4
aS'more'
p9646
aS'small'
p9647
aS'low'
p9648
aS'unacc'
p9649
aa(lp9650
S'low'
p9651
aS'low'
p9652
ag4
aS'more'
p9653
aS'small'
p9654
aS'med'
p9655
aS'unacc'
p9656
aa(lp9657
S'low'
p9658
aS'low'
p9659
ag4
aS'more'
p9660
aS'small'
p9661
aS'high'
p9662
aS'unacc'
p9663
aa(lp9664
S'low'
p9665
aS'low'
p9666
ag4
aS'more'
p9667
aS'med'
p9668
aS'low'
p9669
aS'unacc'
p9670
aa(lp9671
S'low'
p9672
aS'low'
p9673
ag4
aS'more'
p9674
aS'med'
p9675
aS'med'
p9676
aS'acc'
p9677
aa(lp9678
S'low'
p9679
aS'low'
p9680
ag4
aS'more'
p9681
aS'med'
p9682
aS'high'
p9683
aS'good'
p9684
aa(lp9685
S'low'
p9686
aS'low'
p9687
ag4
aS'more'
p9688
aS'big'
p9689
aS'low'
p9690
aS'unacc'
p9691
aa(lp9692
S'low'
p9693
aS'low'
p9694
ag4
aS'more'
p9695
aS'big'
p9696
aS'med'
p9697
aS'good'
p9698
aa(lp9699
S'low'
p9700
aS'low'
p9701
ag4
aS'more'
p9702
aS'big'
p9703
aS'high'
p9704
aS'vgood'
p9705
aa(lp9706
S'low'
p9707
aS'low'
p9708
ag177
ag4
aS'small'
p9709
aS'low'
p9710
aS'unacc'
p9711
aa(lp9712
S'low'
p9713
aS'low'
p9714
ag177
ag4
aS'small'
p9715
aS'med'
p9716
aS'unacc'
p9717
aa(lp9718
S'low'
p9719
aS'low'
p9720
ag177
ag4
aS'small'
p9721
aS'high'
p9722
aS'unacc'
p9723
aa(lp9724
S'low'
p9725
aS'low'
p9726
ag177
ag4
aS'med'
p9727
aS'low'
p9728
aS'unacc'
p9729
aa(lp9730
S'low'
p9731
aS'low'
p9732
ag177
ag4
aS'med'
p9733
aS'med'
p9734
aS'unacc'
p9735
aa(lp9736
S'low'
p9737
aS'low'
p9738
ag177
ag4
aS'med'
p9739
aS'high'
p9740
aS'unacc'
p9741
aa(lp9742
S'low'
p9743
aS'low'
p9744
ag177
ag4
aS'big'
p9745
aS'low'
p9746
aS'unacc'
p9747
aa(lp9748
S'low'
p9749
aS'low'
p9750
ag177
ag4
aS'big'
p9751
aS'med'
p9752
aS'unacc'
p9753
aa(lp9754
S'low'
p9755
aS'low'
p9756
ag177
ag4
aS'big'
p9757
aS'high'
p9758
aS'unacc'
p9759
aa(lp9760
S'low'
p9761
aS'low'
p9762
ag177
ag59
aS'small'
p9763
aS'low'
p9764
aS'unacc'
p9765
aa(lp9766
S'low'
p9767
aS'low'
p9768
ag177
ag59
aS'small'
p9769
aS'med'
p9770
aS'acc'
p9771
aa(lp9772
S'low'
p9773
aS'low'
p9774
ag177
ag59
aS'small'
p9775
aS'high'
p9776
aS'good'
p9777
aa(lp9778
S'low'
p9779
aS'low'
p9780
ag177
ag59
aS'med'
p9781
aS'low'
p9782
aS'unacc'
p9783
aa(lp9784
S'low'
p9785
aS'low'
p9786
ag177
ag59
aS'med'
p9787
aS'med'
p9788
aS'acc'
p9789
aa(lp9790
S'low'
p9791
aS'low'
p9792
ag177
ag59
aS'med'
p9793
aS'high'
p9794
aS'good'
p9795
aa(lp9796
S'low'
p9797
aS'low'
p9798
ag177
ag59
aS'big'
p9799
aS'low'
p9800
aS'unacc'
p9801
aa(lp9802
S'low'
p9803
aS'low'
p9804
ag177
ag59
aS'big'
p9805
aS'med'
p9806
aS'good'
p9807
aa(lp9808
S'low'
p9809
aS'low'
p9810
ag177
ag59
aS'big'
p9811
aS'high'
p9812
aS'vgood'
p9813
aa(lp9814
S'low'
p9815
aS'low'
p9816
ag177
aS'more'
p9817
aS'small'
p9818
aS'low'
p9819
aS'unacc'
p9820
aa(lp9821
S'low'
p9822
aS'low'
p9823
ag177
aS'more'
p9824
aS'small'
p9825
aS'med'
p9826
aS'acc'
p9827
aa(lp9828
S'low'
p9829
aS'low'
p9830
ag177
aS'more'
p9831
aS'small'
p9832
aS'high'
p9833
aS'good'
p9834
aa(lp9835
S'low'
p9836
aS'low'
p9837
ag177
aS'more'
p9838
aS'med'
p9839
aS'low'
p9840
aS'unacc'
p9841
aa(lp9842
S'low'
p9843
aS'low'
p9844
ag177
aS'more'
p9845
aS'med'
p9846
aS'med'
p9847
aS'good'
p9848
aa(lp9849
S'low'
p9850
aS'low'
p9851
ag177
aS'more'
p9852
aS'med'
p9853
aS'high'
p9854
aS'vgood'
p9855
aa(lp9856
S'low'
p9857
aS'low'
p9858
ag177
aS'more'
p9859
aS'big'
p9860
aS'low'
p9861
aS'unacc'
p9862
aa(lp9863
S'low'
p9864
aS'low'
p9865
ag177
aS'more'
p9866
aS'big'
p9867
aS'med'
p9868
aS'good'
p9869
aa(lp9870
S'low'
p9871
aS'low'
p9872
ag177
aS'more'
p9873
aS'big'
p9874
aS'high'
p9875
aS'vgood'
p9876
aa(lp9877
S'low'
p9878
aS'low'
p9879
ag59
ag4
aS'small'
p9880
aS'low'
p9881
aS'unacc'
p9882
aa(lp9883
S'low'
p9884
aS'low'
p9885
ag59
ag4
aS'small'
p9886
aS'med'
p9887
aS'unacc'
p9888
aa(lp9889
S'low'
p9890
aS'low'
p9891
ag59
ag4
aS'small'
p9892
aS'high'
p9893
aS'unacc'
p9894
aa(lp9895
S'low'
p9896
aS'low'
p9897
ag59
ag4
aS'med'
p9898
aS'low'
p9899
aS'unacc'
p9900
aa(lp9901
S'low'
p9902
aS'low'
p9903
ag59
ag4
aS'med'
p9904
aS'med'
p9905
aS'unacc'
p9906
aa(lp9907
S'low'
p9908
aS'low'
p9909
ag59
ag4
aS'med'
p9910
aS'high'
p9911
aS'unacc'
p9912
aa(lp9913
S'low'
p9914
aS'low'
p9915
ag59
ag4
aS'big'
p9916
aS'low'
p9917
aS'unacc'
p9918
aa(lp9919
S'low'
p9920
aS'low'
p9921
ag59
ag4
aS'big'
p9922
aS'med'
p9923
aS'unacc'
p9924
aa(lp9925
S'low'
p9926
aS'low'
p9927
ag59
ag4
aS'big'
p9928
aS'high'
p9929
aS'unacc'
p9930
aa(lp9931
S'low'
p9932
aS'low'
p9933
ag59
ag59
aS'small'
p9934
aS'low'
p9935
aS'unacc'
p9936
aa(lp9937
S'low'
p9938
aS'low'
p9939
ag59
ag59
aS'small'
p9940
aS'med'
p9941
aS'acc'
p9942
aa(lp9943
S'low'
p9944
aS'low'
p9945
ag59
ag59
aS'small'
p9946
aS'high'
p9947
aS'good'
p9948
aa(lp9949
S'low'
p9950
aS'low'
p9951
ag59
ag59
aS'med'
p9952
aS'low'
p9953
aS'unacc'
p9954
aa(lp9955
S'low'
p9956
aS'low'
p9957
ag59
ag59
aS'med'
p9958
aS'med'
p9959
aS'good'
p9960
aa(lp9961
S'low'
p9962
aS'low'
p9963
ag59
ag59
aS'med'
p9964
aS'high'
p9965
aS'vgood'
p9966
aa(lp9967
S'low'
p9968
aS'low'
p9969
ag59
ag59
aS'big'
p9970
aS'low'
p9971
aS'unacc'
p9972
aa(lp9973
S'low'
p9974
aS'low'
p9975
ag59
ag59
aS'big'
p9976
aS'med'
p9977
aS'good'
p9978
aa(lp9979
S'low'
p9980
aS'low'
p9981
ag59
ag59
aS'big'
p9982
aS'high'
p9983
aS'vgood'
p9984
aa(lp9985
S'low'
p9986
aS'low'
p9987
ag59
aS'more'
p9988
aS'small'
p9989
aS'low'
p9990
aS'unacc'
p9991
aa(lp9992
S'low'
p9993
aS'low'
p9994
ag59
aS'more'
p9995
aS'small'
p9996
aS'med'
p9997
aS'acc'
p9998
aa(lp9999
S'low'
p10000
aS'low'
p10001
ag59
aS'more'
p10002
aS'small'
p10003
aS'high'
p10004
aS'good'
p10005
aa(lp10006
S'low'
p10007
aS'low'
p10008
ag59
aS'more'
p10009
aS'med'
p10010
aS'low'
p10011
aS'unacc'
p10012
aa(lp10013
S'low'
p10014
aS'low'
p10015
ag59
aS'more'
p10016
aS'med'
p10017
aS'med'
p10018
aS'good'
p10019
aa(lp10020
S'low'
p10021
aS'low'
p10022
ag59
aS'more'
p10023
aS'med'
p10024
aS'high'
p10025
aS'vgood'
p10026
aa(lp10027
S'low'
p10028
aS'low'
p10029
ag59
aS'more'
p10030
aS'big'
p10031
aS'low'
p10032
aS'unacc'
p10033
aa(lp10034
S'low'
p10035
aS'low'
p10036
ag59
aS'more'
p10037
aS'big'
p10038
aS'med'
p10039
aS'good'
p10040
aa(lp10041
S'low'
p10042
aS'low'
p10043
ag59
aS'more'
p10044
aS'big'
p10045
aS'high'
p10046
aS'vgood'
p10047
aa(lp10048
S'low'
p10049
aS'low'
p10050
aS'5more'
p10051
ag4
aS'small'
p10052
aS'low'
p10053
aS'unacc'
p10054
aa(lp10055
S'low'
p10056
aS'low'
p10057
aS'5more'
p10058
ag4
aS'small'
p10059
aS'med'
p10060
aS'unacc'
p10061
aa(lp10062
S'low'
p10063
aS'low'
p10064
aS'5more'
p10065
ag4
aS'small'
p10066
aS'high'
p10067
aS'unacc'
p10068
aa(lp10069
S'low'
p10070
aS'low'
p10071
aS'5more'
p10072
ag4
aS'med'
p10073
aS'low'
p10074
aS'unacc'
p10075
aa(lp10076
S'low'
p10077
aS'low'
p10078
aS'5more'
p10079
ag4
aS'med'
p10080
aS'med'
p10081
aS'unacc'
p10082
aa(lp10083
S'low'
p10084
aS'low'
p10085
aS'5more'
p10086
ag4
aS'med'
p10087
aS'high'
p10088
aS'unacc'
p10089
aa(lp10090
S'low'
p10091
aS'low'
p10092
aS'5more'
p10093
ag4
aS'big'
p10094
aS'low'
p10095
aS'unacc'
p10096
aa(lp10097
S'low'
p10098
aS'low'
p10099
aS'5more'
p10100
ag4
aS'big'
p10101
aS'med'
p10102
aS'unacc'
p10103
aa(lp10104
S'low'
p10105
aS'low'
p10106
aS'5more'
p10107
ag4
aS'big'
p10108
aS'high'
p10109
aS'unacc'
p10110
aa(lp10111
S'low'
p10112
aS'low'
p10113
aS'5more'
p10114
ag59
aS'small'
p10115
aS'low'
p10116
aS'unacc'
p10117
aa(lp10118
S'low'
p10119
aS'low'
p10120
aS'5more'
p10121
ag59
aS'small'
p10122
aS'med'
p10123
aS'acc'
p10124
aa(lp10125
S'low'
p10126
aS'low'
p10127
aS'5more'
p10128
ag59
aS'small'
p10129
aS'high'
p10130
aS'good'
p10131
aa(lp10132
S'low'
p10133
aS'low'
p10134
aS'5more'
p10135
ag59
aS'med'
p10136
aS'low'
p10137
aS'unacc'
p10138
aa(lp10139
S'low'
p10140
aS'low'
p10141
aS'5more'
p10142
ag59
aS'med'
p10143
aS'med'
p10144
aS'good'
p10145
aa(lp10146
S'low'
p10147
aS'low'
p10148
aS'5more'
p10149
ag59
aS'med'
p10150
aS'high'
p10151
aS'vgood'
p10152
aa(lp10153
S'low'
p10154
aS'low'
p10155
aS'5more'
p10156
ag59
aS'big'
p10157
aS'low'
p10158
aS'unacc'
p10159
aa(lp10160
S'low'
p10161
aS'low'
p10162
aS'5more'
p10163
ag59
aS'big'
p10164
aS'med'
p10165
aS'good'
p10166
aa(lp10167
S'low'
p10168
aS'low'
p10169
aS'5more'
p10170
ag59
aS'big'
p10171
aS'high'
p10172
aS'vgood'
p10173
aa(lp10174
S'low'
p10175
aS'low'
p10176
aS'5more'
p10177
aS'more'
p10178
aS'small'
p10179
aS'low'
p10180
aS'unacc'
p10181
aa(lp10182
S'low'
p10183
aS'low'
p10184
aS'5more'
p10185
aS'more'
p10186
aS'small'
p10187
aS'med'
p10188
aS'acc'
p10189
aa(lp10190
S'low'
p10191
aS'low'
p10192
aS'5more'
p10193
aS'more'
p10194
aS'small'
p10195
aS'high'
p10196
aS'good'
p10197
aa(lp10198
S'low'
p10199
aS'low'
p10200
aS'5more'
p10201
aS'more'
p10202
aS'med'
p10203
aS'low'
p10204
aS'unacc'
p10205
aa(lp10206
S'low'
p10207
aS'low'
p10208
aS'5more'
p10209
aS'more'
p10210
aS'med'
p10211
aS'med'
p10212
aS'good'
p10213
aa(lp10214
S'low'
p10215
aS'low'
p10216
aS'5more'
p10217
aS'more'
p10218
aS'med'
p10219
aS'high'
p10220
aS'vgood'
p10221
aa(lp10222
S'low'
p10223
aS'low'
p10224
aS'5more'
p10225
aS'more'
p10226
aS'big'
p10227
aS'low'
p10228
aS'unacc'
p10229
aa(lp10230
S'low'
p10231
aS'low'
p10232
aS'5more'
p10233
aS'more'
p10234
aS'big'
p10235
aS'med'
p10236
aS'good'
p10237
aa(lp10238
S'low'
p10239
aS'low'
p10240
aS'5more'
p10241
aS'more'
p10242
aS'big'
p10243
aS'high'
p10244
aS'vgood'
p10245
aa.