(lp0
(lp1
S'vhigh'
p2
aS'vhigh'
p3
aS'2'
p4
ag4
aS'small'
p5
aS'low'
p6
aS'unacc'
p7
aa(lp8
S'vhigh'
p9
aS'vhigh'
p10
ag4
ag4
aS'small'
p11
aS'med'
p12
aS'unacc'
p13
aa(lp14
S'vhigh'
p15
aS'vhigh'
p16
ag4
ag4
aS'small'
p17
aS'high'
p18
aS'unacc'
p19
aa(lp20
S'vhigh'
p21
aS'vhigh'
p22
ag4
ag4
aS'med'
p23
aS'low'
p24
aS'unacc'
p25
aa(lp26
S'vhigh'
p27
aS'vhigh'
p28
ag4
ag4
aS'med'
p29
aS'med'
p30
aS'unacc'
p31
aa(lp32
S'vhigh'
p33
aS'vhigh'
p34
ag4
ag4
aS'med'
p35
aS'high'
p36
aS'unacc'
p37
aa(lp38
S'vhigh'
p39
aS'vhigh'
p40
ag4
ag4
aS'big'
p41
aS'low'
p42
aS'unacc'
p43
aa(lp44
S'vhigh'
p45
aS'vhigh'
p46
ag4
ag4
aS'big'
p47
aS'med'
p48
aS'unacc'
p49
aa(lp50
S'vhigh'
p51
aS'vhigh'
p52
ag4
ag4
aS'big'
p53
aS'high'
p54
aS'unacc'
p55
aa(lp56
S'vhigh'
p57
aS'vhigh'
p58
ag4
aS'4'
p59
aS'small'
p60
aS'low'
p61
aS'unacc'
p62
aa(lp63
S'vhigh'
p64
aS'vhigh'
p65
ag4
ag59
aS'small'
p66
aS'med'
p67
aS'unacc'
p68
aa(lp69
S'vhigh'
p70
aS'vhigh'
p71
ag4
ag59
aS'small'
p72
aS'high'
p73
aS'unacc'
p74
aa(lp75
S'vhigh'
p76
aS'vhigh'
p77
ag4
ag59
aS'med'
p78
aS'low'
p79
aS'unacc'
p80
aa(lp81
S'vhigh'
p82
aS'vhigh'
p83
ag4
ag59
aS'med'
p84
aS'med'
p85
aS'unacc'
p86
aa(lp87
S'vhigh'
p88
aS'vhigh'
p89
ag4
ag59
aS'med'
p90
aS'high'
p91
aS'unacc'
p92
aa(lp93
S'vhigh'
p94
aS'vhigh'
p95
ag4
ag59
aS'big'
p96
aS'low'
p97
aS'unacc'
p98
aa(lp99
S'vhigh'
p100
aS'vhigh'
p101
ag4
ag59
aS'big'
p102
aS'med'
p103
aS'unacc'
p104
aa(lp105
S'vhigh'
p106
aS'vhigh'
p107
ag4
ag59
aS'big'
p108
aS'high'
p109
aS'unacc'
p110
aa(lp111
S'vhigh'
p112
aS'vhigh'
p113
ag4
aS'more'
p114
aS'small'
p115
aS'low'
p116
aS'unacc'
p117
aa(lp118
S'vhigh'
p119
aS'vhigh'
p120
ag4
aS'more'
p121
aS'small'
p122
aS'med'
p123
aS'unacc'
p124
aa(lp125
S'vhigh'
p126
aS'vhigh'
p127
ag4
aS'more'
p128
aS'small'
p129
aS'high'
p130
aS'unacc'
p131
aa(lp132
S'vhigh'
p133
aS'vhigh'
p134
ag4
aS'more'
p135
aS'med'
p136
aS'low'
p137
aS'unacc'
p138
aa(lp139
S'vhigh'
p140
aS'vhigh'
p141
ag4
aS'more'
p142
aS'med'
p143
aS'med'
p144
aS'unacc'
p145
aa(lp146
S'vhigh'
p147
aS'vhigh'
p148
ag4
aS'more'
p149
aS'med'
p150
aS'high'
p151
aS'unacc'
p152
aa(lp153
S'vhigh'
p154
aS'vhigh'
p155
ag4
aS'more'
p156
aS'big'
p157
aS'low'
p158
aS'unacc'
p159
aa(lp160
S'vhigh'
p161
aS'vhigh'
p162
ag4
aS'more'
p163
aS'big'
p164
aS'med'
p165
aS'unacc'
p166
aa(lp167
S'vhigh'
p168
aS'vhigh'
p169
ag4
aS'more'
p170
aS'big'
p171
aS'high'
p172
aS'unacc'
p173
aa(lp174
S'vhigh'
p175
aS'vhigh'
p176
aS'3'
p177
ag4
aS'small'
p178
aS'low'
p179
aS'unacc'
p180
aa(lp181
S'vhigh'
p182
aS'vhigh'
p183
ag177
ag4
aS'small'
p184
aS'med'
p185
aS'unacc'
p186
aa(lp187
S'vhigh'
p188
aS'vhigh'
p189
ag177
ag4
aS'small'
p190
aS'high'
p191
aS'unacc'
p192
aa(lp193
S'vhigh'
p194
aS'vhigh'
p195
ag177
ag4
aS'med'
p196
aS'low'
p197
aS'unacc'
p198
aa(lp199
S'vhigh'
p200
aS'vhigh'
p201
ag177
ag4
aS'med'
p202
aS'med'
p203
aS'unacc'
p204
aa(lp205
S'vhigh'
p206
aS'vhigh'
p207
ag177
ag4
aS'med'
p208
aS'high'
p209
aS'unacc'
p210
aa(lp211
S'vhigh'
p212
aS'vhigh'
p213
ag177
ag4
aS'big'
p214
aS'low'
p215
aS'unacc'
p216
aa(lp217
S'vhigh'
p218
aS'vhigh'
p219
ag177
ag4
aS'big'
p220
aS'med'
p221
aS'unacc'
p222
aa(lp223
S'vhigh'
p224
aS'vhigh'
p225
ag177
ag4
aS'big'
p226
aS'high'
p227
aS'unacc'
p228
aa(lp229
S'vhigh'
p230
aS'vhigh'
p231
ag177
ag59
aS'small'
p232
aS'low'
p233
aS'unacc'
p234
aa(lp235
S'vhigh'
p236
aS'vhigh'
p237
ag177
ag59
aS'small'
p238
aS'med'
p239
aS'unacc'
p240
aa(lp241
S'vhigh'
p242
aS'vhigh'
p243
ag177
ag59
aS'small'
p244
aS'high'
p245
aS'unacc'
p246
aa(lp247
S'vhigh'
p248
aS'vhigh'
p249
ag177
ag59
aS'med'
p250
aS'low'
p251
aS'unacc'
p252
aa(lp253
S'vhigh'
p254
aS'vhigh'
p255
ag177
ag59
aS'med'
p256
aS'med'
p257
aS'unacc'
p258
aa(lp259
S'vhigh'
p260
aS'vhigh'
p261
ag177
ag59
aS'med'
p262
aS'high'
p263
aS'unacc'
p264
aa(lp265
S'vhigh'
p266
aS'vhigh'
p267
ag177
ag59
aS'big'
p268
aS'low'
p269
aS'unacc'
p270
aa(lp271
S'vhigh'
p272
aS'vhigh'
p273
ag177
ag59
aS'big'
p274
aS'med'
p275
aS'unacc'
p276
aa(lp277
S'vhigh'
p278
aS'vhigh'
p279
ag177
ag59
aS'big'
p280
aS'high'
p281
aS'unacc'
p282
aa(lp283
S'vhigh'
p284
aS'vhigh'
p285
ag177
aS'more'
p286
aS'small'
p287
aS'low'
p288
aS'unacc'
p289
aa(lp290
S'vhigh'
p291
aS'vhigh'
p292
ag177
aS'more'
p293
aS'small'
p294
aS'med'
p295
aS'unacc'
p296
aa(lp297
S'vhigh'
p298
aS'vhigh'
p299
ag177
aS'more'
p300
aS'small'
p301
aS'high'
p302
aS'unacc'
p303
aa(lp304
S'vhigh'
p305
aS'vhigh'
p306
ag177
aS'more'
p307
aS'med'
p308
aS'low'
p309
aS'unacc'
p310
aa(lp311
S'vhigh'
p312
aS'vhigh'
p313
ag177
aS'more'
p314
aS'med'
p315
aS'med'
p316
aS'unacc'
p317
aa(lp318
S'vhigh'
p319
aS'vhigh'
p320
ag177
aS'more'
p321
aS'med'
p322
aS'high'
p323
aS'unacc'
p324
aa(lp325
S'vhigh'
p326
aS'vhigh'
p327
ag177
aS'more'
p328
aS'big'
p329
aS'low'
p330
aS'unacc'
p331
aa(lp332
S'vhigh'
p333
aS'vhigh'
p334
ag177
aS'more'
p335
aS'big'
p336
aS'med'
p337
aS'unacc'
p338
aa(lp339
S'vhigh'
p340
aS'vhigh'
p341
ag177
aS'more'
p342
aS'big'
p343
aS'high'
p344
aS'unacc'
p345
aa(lp346
S'vhigh'
p347
aS'vhigh'
p348
ag59
ag4
aS'small'
p349
aS'low'
p350
aS'unacc'
p351
aa(lp352
S'vhigh'
p353
aS'vhigh'
p354
ag59
ag4
aS'small'
p355
aS'med'
p356
aS'unacc'
p357
aa(lp358
S'vhigh'
p359
aS'vhigh'
p360
ag59
ag4
aS'small'
p361
aS'high'
p362
aS'unacc'
p363
aa(lp364
S'vhigh'
p365
aS'vhigh'
p366
ag59
ag4
aS'med'
p367
aS'low'
p368
aS'unacc'
p369
aa(lp370
S'vhigh'
p371
aS'vhigh'
p372
ag59
ag4
aS'med'
p373
aS'med'
p374
aS'unacc'
p375
aa(lp376
S'vhigh'
p377
aS'vhigh'
p378
ag59
ag4
aS'med'
p379
aS'high'
p380
aS'unacc'
p381
aa(lp382
S'vhigh'
p383
aS'vhigh'
p384
ag59
ag4
aS'big'
p385
aS'low'
p386
aS'unacc'
p387
aa(lp388
S'vhigh'
p389
aS'vhigh'
p390
ag59
ag4
aS'big'
p391
aS'med'
p392
aS'unacc'
p393
aa(lp394
S'vhigh'
p395
aS'vhigh'
p396
ag59
ag4
aS'big'
p397
aS'high'
p398
aS'unacc'
p399
aa(lp400
S'vhigh'
p401
aS'vhigh'
p402
ag59
ag59
aS'small'
p403
aS'low'
p404
aS'unacc'
p405
aa(lp406
S'vhigh'
p407
aS'vhigh'
p408
ag59
ag59
aS'small'
p409
aS'med'
p410
aS'unacc'
p411
aa(lp412
S'vhigh'
p413
aS'vhigh'
p414
ag59
ag59
aS'small'
p415
aS'high'
p416
aS'unacc'
p417
aa(lp418
S'vhigh'
p419
aS'vhigh'
p420
ag59
ag59
aS'med'
p421
aS'low'
p422
aS'unacc'
p423
aa(lp424
S'vhigh'
p425
aS'vhigh'
p426
ag59
ag59
aS'med'
p427
aS'med'
p428
aS'unacc'
p429
aa(lp430
S'vhigh'
p431
aS'vhigh'
p432
ag59
ag59
aS'med'
p433
aS'high'
p434
aS'unacc'
p435
aa(lp436
S'vhigh'
p437
aS'vhigh'
p438
ag59
ag59
aS'big'
p439
aS'low'
p440
aS'unacc'
p441
aa(lp442
S'vhigh'
p443
aS'vhigh'
p444
ag59
ag59
aS'big'
p445
aS'med'
p446
aS'unacc'
p447
aa(lp448
S'vhigh'
p449
aS'vhigh'
p450
ag59
ag59
aS'big'
p451
aS'high'
p452
aS'unacc'
p453
aa(lp454
S'vhigh'
p455
aS'vhigh'
p456
ag59
aS'more'
p457
aS'small'
p458
aS'low'
p459
aS'unacc'
p460
aa(lp461
S'vhigh'
p462
aS'vhigh'
p463
ag59
aS'more'
p464
aS'small'
p465
aS'med'
p466
aS'unacc'
p467
aa(lp468
S'vhigh'
p469
aS'vhigh'
p470
ag59
aS'more'
p471
aS'small'
p472
aS'high'
p473
aS'unacc'
p474
aa(lp475
S'vhigh'
p476
aS'vhigh'
p477
ag59
aS'more'
p478
aS'med'
p479
aS'low'
p480
aS'unacc'
p481
aa(lp482
S'vhigh'
p483
aS'vhigh'
p484
ag59
aS'more'
p485
aS'med'
p486
aS'med'
p487
aS'unacc'
p488
aa(lp489
S'vhigh'
p490
aS'vhigh'
p491
ag59
aS'more'
p492
aS'med'
p493
aS'high'
p494
aS'unacc'
p495
aa(lp496
S'vhigh'
p497
aS'vhigh'
p498
ag59
aS'more'
p499
aS'big'
p500
aS'low'
p501
aS'unacc'
p502
aa(lp503
S'vhigh'
p504
aS'vhigh'
p505
ag59
aS'more'
p506
aS'big'
p507
aS'med'
p508
aS'unacc'
p509
aa(lp510
S'vhigh'
p511
aS'vhigh'
p512
ag59
aS'more'
p513
aS'big'
p514
aS'high'
p515
aS'unacc'
p516
aa(lp517
S'vhigh'
p518
aS'vhigh'
p519
aS'5more'
p520
ag4
aS'small'
p521
aS'low'
p522
aS'unacc'
p523
aa(lp524
S'vhigh'
p525
aS'vhigh'
p526
aS'5more'
p527
ag4
aS'small'
p528
aS'med'
p529
aS'unacc'
p530
aa(lp531
S'vhigh'
p532
aS'vhigh'
p533
aS'5more'
p534
ag4
aS'small'
p535
aS'high'
p536
aS'unacc'
p537
aa(lp538
S'vhigh'
p539
aS'vhigh'
p540
aS'5more'
p541
ag4
aS'med'
p542
aS'low'
p543
aS'unacc'
p544
aa(lp545
S'vhigh'
p546
aS'vhigh'
p547
aS'5more'
p548
ag4
aS'med'
p549
aS'med'
p550
aS'unacc'
p551
aa(lp552
S'vhigh'
p553
aS'vhigh'
p554
aS'5more'
p555
ag4
aS'med'
p556
aS'high'
p557
aS'unacc'
p558
aa(lp559
S'vhigh'
p560
aS'vhigh'
p561
aS'5more'
p562
ag4
aS'big'
p563
aS'low'
p564
aS'unacc'
p565
aa(lp566
S'vhigh'
p567
aS'vhigh'
p568
aS'5more'
p569
ag4
aS'big'
p570
aS'med'
p571
aS'unacc'
p572
aa(lp573
S'vhigh'
p574
aS'vhigh'
p575
aS'5more'
p576
ag4
aS'big'
p577
aS'high'
p578
aS'unacc'
p579
aa(lp580
S'vhigh'
p581
aS'vhigh'
p582
aS'5more'
p583
ag59
aS'small'
p584
aS'low'
p585
aS'unacc'
p586
aa(lp587
S'vhigh'
p588
aS'vhigh'
p589
aS'5more'
p590
ag59
aS'small'
p591
aS'med'
p592
aS'unacc'
p593
aa(lp594
S'vhigh'
p595
aS'vhigh'
p596
aS'5more'
p597
ag59
aS'small'
p598
aS'high'
p599
aS'unacc'
p600
aa(lp601
S'vhigh'
p602
aS'vhigh'
p603
aS'5more'
p604
ag59
aS'med'
p605
aS'low'
p606
aS'unacc'
p607
aa(lp608
S'vhigh'
p609
aS'vhigh'
p610
aS'5more'
p611
ag59
aS'med'
p612
aS'med'
p613
aS'unacc'
p614
aa(lp615
S'vhigh'
p616
aS'vhigh'
p617
aS'5more'
p618
ag59
aS'med'
p619
aS'high'
p620
aS'unacc'
p621
aa(lp622
S'vhigh'
p623
aS'vhigh'
p624
aS'5more'
p625
ag59
aS'big'
p626
aS'low'
p627
aS'unacc'
p628
aa(lp629
S'vhigh'
p630
aS'vhigh'
p631
aS'5more'
p632
ag59
aS'big'
p633
aS'med'
p634
aS'unacc'
p635
aa(lp636
S'vhigh'
p637
aS'vhigh'
p638
aS'5more'
p639
ag59
aS'big'
p640
aS'high'
p641
aS'unacc'
p642
aa(lp643
S'vhigh'
p644
aS'vhigh'
p645
aS'5more'
p646
aS'more'
p647
aS'small'
p648
aS'low'
p649
aS'unacc'
p650
aa(lp651
S'vhigh'
p652
aS'vhigh'
p653
aS'5more'
p654
aS'more'
p655
aS'small'
p656
aS'med'
p657
aS'unacc'
p658
aa(lp659
S'vhigh'
p660
aS'vhigh'
p661
aS'5more'
p662
aS'more'
p663
aS'small'
p664
aS'high'
p665
aS'unacc'
p666
aa(lp667
S'vhigh'
p668
aS'vhigh'
p669
aS'5more'
p670
aS'more'
p671
aS'med'
p672
aS'low'
p673
aS'unacc'
p674
aa(lp675
S'vhigh'
p676
aS'vhigh'
p677
aS'5more'
p678
aS'more'
p679
aS'med'
p680
aS'med'
p681
aS'unacc'
p682
aa(lp683
S'vhigh'
p684
aS'vhigh'
p685
aS'5more'
p686
aS'more'
p687
aS'med'
p688
aS'high'
p689
aS'unacc'
p690
aa(lp691
S'vhigh'
p692
aS'vhigh'
p693
aS'5more'
p694
aS'more'
p695
aS'big'
p696
aS'low'
p697
aS'unacc'
p698
aa(lp699
S'vhigh'
p700
aS'vhigh'
p701
aS'5more'
p702
aS'more'
p703
aS'big'
p704
aS'med'
p705
aS'unacc'
p706
aa(lp707
S'vhigh'
p708
aS'vhigh'
p709
aS'5more'
p710
aS'more'
p711
aS'big'
p712
aS'high'
p713
aS'unacc'
p714
aa(lp715
S'vhigh'
p716
aS'high'
p717
ag4
ag4
aS'small'
p718
aS'low'
p719
aS'unacc'
p720
aa(lp721
S'vhigh'
p722
aS'high'
p723
ag4
ag4
aS'small'
p724
aS'med'
p725
aS'unacc'
p726
aa(lp727
S'vhigh'
p728
aS'high'
p729
ag4
ag4
aS'small'
p730
aS'high'
p731
aS'unacc'
p732
aa(lp733
S'vhigh'
p734
aS'high'
p735
ag4
ag4
aS'med'
p736
aS'low'
p737
aS'unacc'
p738
aa(lp739
S'vhigh'
p740
aS'high'
p741
ag4
ag4
aS'med'
p742
aS'med'
p743
aS'unacc'
p744
aa(lp745
S'vhigh'
p746
aS'high'
p747
ag4
ag4
aS'med'
p748
aS'high'
p749
aS'unacc'
p750
aa(lp751
S'vhigh'
p752
aS'high'
p753
ag4
ag4
aS'big'
p754
aS'low'
p755
aS'unacc'
p756
aa(lp757
S'vhigh'
p758
aS'high'
p759
ag4
ag4
aS'big'
p760
aS'med'
p761
aS'unacc'
p762
aa(lp763
S'vhigh'
p764
aS'high'
p765
ag4
ag4
aS'big'
p766
aS'high'
p767
aS'unacc'
p768
aa(lp769
S'vhigh'
p770
aS'high'
p771
ag4
ag59
aS'small'
p772
aS'low'
p773
aS'unacc'
p774
aa(lp775
S'vhigh'
p776
aS'high'
p777
ag4
ag59
aS'small'
p778
aS'med'
p779
aS'unacc'
p780
aa(lp781
S'vhigh'
p782
aS'high'
p783
ag4
ag59
aS'small'
p784
aS'high'
p785
aS'unacc'
p786
aa(lp787
S'vhigh'
p788
aS'high'
p789
ag4
ag59
aS'med'
p790
aS'low'
p791
aS'unacc'
p792
aa(lp793
S'vhigh'
p794
aS'high'
p795
ag4
ag59
aS'med'
p796
aS'med'
p797
aS'unacc'
p798
aa(lp799
S'vhigh'
p800
aS'high'
p801
ag4
ag59
aS'med'
p802
aS'high'
p803
aS'unacc'
p804
aa(lp805
S'vhigh'
p806
aS'high'
p807
ag4
ag59
aS'big'
p808
aS'low'
p809
aS'unacc'
p810
aa(lp811
S'vhigh'
p812
aS'high'
p813
ag4
ag59
aS'big'
p814
aS'med'
p815
aS'unacc'
p816
aa(lp817
S'vhigh'
p818
aS'high'
p819
ag4
ag59
aS'big'
p820
aS'high'
p821
aS'unacc'
p822
aa(lp823
S'vhigh'
p824
aS'high'
p825
ag4
aS'more'
p826
aS'small'
p827
aS'low'
p828
aS'unacc'
p829
aa(lp830
S'vhigh'
p831
aS'high'
p832
ag4
aS'more'
p833
aS'small'
p834
aS'med'
p835
aS'unacc'
p836
aa(lp837
S'vhigh'
p838
aS'high'
p839
ag4
aS'more'
p840
aS'small'
p841
aS'high'
p842
aS'unacc'
p843
aa(lp844
S'vhigh'
p845
aS'high'
p846
ag4
aS'more'
p847
aS'med'
p848
aS'low'
p849
aS'unacc'
p850
aa(lp851
S'vhigh'
p852
aS'high'
p853
ag4
aS'more'
p854
aS'med'
p855
aS'med'
p856
aS'unacc'
p857
aa(lp858
S'vhigh'
p859
aS'high'
p860
ag4
aS'more'
p861
aS'med'
p862
aS'high'
p863
aS'unacc'
p864
aa(lp865
S'vhigh'
p866
aS'high'
p867
ag4
aS'more'
p868
aS'big'
p869
aS'low'
p870
aS'unacc'
p871
aa(lp872
S'vhigh'
p873
aS'high'
p874
ag4
aS'more'
p875
aS'big'
p876
aS'med'
p877
aS'unacc'
p878
aa(lp879
S'vhigh'
p880
aS'high'
p881
ag4
aS'more'
p882
aS'big'
p883
aS'high'
p884
aS'unacc'
p885
aa(lp886
S'vhigh'
p887
aS'high'
p888
ag177
ag4
aS'small'
p889
aS'low'
p890
aS'unacc'
p891
aa(lp892
S'vhigh'
p893
aS'high'
p894
ag177
ag4
aS'small'
p895
aS'med'
p896
aS'unacc'
p897
aa(lp898
S'vhigh'
p899
aS'high'
p900
ag177
ag4
aS'small'
p901
aS'high'
p902
aS'unacc'
p903
aa(lp904
S'vhigh'
p905
aS'high'
p906
ag177
ag4
aS'med'
p907
aS'low'
p908
aS'unacc'
p909
aa(lp910
S'vhigh'
p911
aS'high'
p912
ag177
ag4
aS'med'
p913
aS'med'
p914
aS'unacc'
p915
aa(lp916
S'vhigh'
p917
aS'high'
p918
ag177
ag4
aS'med'
p919
aS'high'
p920
aS'unacc'
p921
aa(lp922
S'vhigh'
p923
aS'high'
p924
ag177
ag4
aS'big'
p925
aS'low'
p926
aS'unacc'
p927
aa(lp928
S'vhigh'
p929
aS'high'
p930
ag177
ag4
aS'big'
p931
aS'med'
p932
aS'unacc'
p933
aa(lp934
S'vhigh'
p935
aS'high'
p936
ag177
ag4
aS'big'
p937
aS'high'
p938
aS'unacc'
p939
aa(lp940
S'vhigh'
p941
aS'high'
p942
ag177
ag59
aS'small'
p943
aS'low'
p944
aS'unacc'
p945
aa(lp946
S'vhigh'
p947
aS'high'
p948
ag177
ag59
aS'small'
p949
aS'med'
p950
aS'unacc'
p951
aa(lp952
S'vhigh'
p953
aS'high'
p954
ag177
ag59
aS'small'
p955
aS'high'
p956
aS'unacc'
p957
aa(lp958
S'vhigh'
p959
aS'high'
p960
ag177
ag59
aS'med'
p961
aS'low'
p962
aS'unacc'
p963
aa(lp964
S'vhigh'
p965
aS'high'
p966
ag177
ag59
aS'med'
p967
aS'med'
p968
aS'unacc'
p969
aa(lp970
S'vhigh'
p971
aS'high'
p972
ag177
ag59
aS'med'
p973
aS'high'
p974
aS'unacc'
p975
aa(lp976
S'vhigh'
p977
aS'high'
p978
ag177
ag59
aS'big'
p979
aS'low'
p980
aS'unacc'
p981
aa(lp982
S'vhigh'
p983
aS'high'
p984
ag177
ag59
aS'big'
p985
aS'med'
p986
aS'unacc'
p987
aa(lp988
S'vhigh'
p989
aS'high'
p990
ag177
ag59
aS'big'
p991
aS'high'
p992
aS'unacc'
p993
aa(lp994
S'vhigh'
p995
aS'high'
p996
ag177
aS'more'
p997
aS'small'
p998
aS'low'
p999
aS'unacc'
p1000
aa(lp1001
S'vhigh'
p1002
aS'high'
p1003
ag177
aS'more'
p1004
aS'small'
p1005
aS'med'
p1006
aS'unacc'
p1007
aa(lp1008
S'vhigh'
p1009
aS'high'
p1010
ag177
aS'more'
p1011
aS'small'
p1012
aS'high'
p1013
aS'unacc'
p1014
aa(lp1015
S'vhigh'
p1016
aS'high'
p1017
ag177
aS'more'
p1018
aS'med'
p1019
aS'low'
p1020
aS'unacc'
p1021
aa(lp1022
S'vhigh'
p1023
aS'high'
p1024
ag177
aS'more'
p1025
aS'med'
p1026
aS'med'
p1027
aS'unacc'
p1028
aa(lp1029
S'vhigh'
p1030
aS'high'
p1031
ag177
aS'more'
p1032
aS'med'
p1033
aS'high'
p1034
aS'unacc'
p1035
aa(lp1036
S'vhigh'
p1037
aS'high'
p1038
ag177
aS'more'
p1039
aS'big'
p1040
aS'low'
p1041
aS'unacc'
p1042
aa(lp1043
S'vhigh'
p1044
aS'high'
p1045
ag177
aS'more'
p1046
aS'big'
p1047
aS'med'
p1048
aS'unacc'
p1049
aa(lp1050
S'vhigh'
p1051
aS'high'
p1052
ag177
aS'more'
p1053
aS'big'
p1054
aS'high'
p1055
aS'unacc'
p1056
aa(lp1057
S'vhigh'
p1058
aS'high'
p1059
ag59
ag4
aS'small'
p1060
aS'low'
p1061
aS'unacc'
p1062
aa(lp1063
S'vhigh'
p1064
aS'high'
p1065
ag59
ag4
aS'small'
p1066
aS'med'
p1067
aS'unacc'
p1068
aa(lp1069
S'vhigh'
p1070
aS'high'
p1071
ag59
ag4
aS'small'
p1072
aS'high'
p1073
aS'unacc'
p1074
aa(lp1075
S'vhigh'
p1076
aS'high'
p1077
ag59
ag4
aS'med'
p1078
aS'low'
p1079
aS'unacc'
p1080
aa(lp1081
S'vhigh'
p1082
aS'high'
p1083
ag59
ag4
aS'med'
p1084
aS'med'
p1085
aS'unacc'
p1086
aa(lp1087
S'vhigh'
p1088
aS'high'
p1089
ag59
ag4
aS'med'
p1090
aS'high'
p1091
aS'unacc'
p1092
aa(lp1093
S'vhigh'
p1094
aS'high'
p1095
ag59
ag4
aS'big'
p1096
aS'low'
p1097
aS'unacc'
p1098
aa(lp1099
S'vhigh'
p1100
aS'high'
p1101
ag59
ag4
aS'big'
p1102
aS'med'
p1103
aS'unacc'
p1104
aa(lp1105
S'vhigh'
p1106
aS'high'
p1107
ag59
ag4
aS'big'
p1108
aS'high'
p1109
aS'unacc'
p1110
aa(lp1111
S'vhigh'
p1112
aS'high'
p1113
ag59
ag59
aS'small'
p1114
aS'low'
p1115
aS'unacc'
p1116
aa(lp1117
S'vhigh'
p1118
aS'high'
p1119
ag59
ag59
aS'small'
p1120
aS'med'
p1121
aS'unacc'
p1122
aa(lp1123
S'vhigh'
p1124
aS'high'
p1125
ag59
ag59
aS'small'
p1126
aS'high'
p1127
aS'unacc'
p1128
aa(lp1129
S'vhigh'
p1130
aS'high'
p1131
ag59
ag59
aS'med'
p1132
aS'low'
p1133
aS'unacc'
p1134
aa(lp1135
S'vhigh'
p1136
aS'high'
p1137
ag59
ag59
aS'med'
p1138
aS'med'
p1139
aS'unacc'
p1140
aa(lp1141
S'vhigh'
p1142
aS'high'
p1143
ag59
ag59
aS'med'
p1144
aS'high'
p1145
aS'unacc'
p1146
aa(lp1147
S'vhigh'
p1148
aS'high'
p1149
ag59
ag59
aS'big'
p1150
aS'low'
p1151
aS'unacc'
p1152
aa(lp1153
S'vhigh'
p1154
aS'high'
p1155
ag59
ag59
aS'big'
p1156
aS'med'
p1157
aS'unacc'
p1158
aa(lp1159
S'vhigh'
p1160
aS'high'
p1161
ag59
ag59
aS'big'
p1162
aS'high'
p1163
aS'unacc'
p1164
aa(lp1165
S'vhigh'
p1166
aS'high'
p1167
ag59
aS'more'
p1168
aS'small'
p1169
aS'low'
p1170
aS'unacc'
p1171
aa(lp1172
S'vhigh'
p1173
aS'high'
p1174
ag59
aS'more'
p1175
aS'small'
p1176
aS'med'
p1177
aS'unacc'
p1178
aa(lp1179
S'vhigh'
p1180
aS'high'
p1181
ag59
aS'more'
p1182
aS'small'
p1183
aS'high'
p1184
aS'unacc'
p1185
aa(lp1186
S'vhigh'
p1187
aS'high'
p1188
ag59
aS'more'
p1189
aS'med'
p1190
aS'low'
p1191
aS'unacc'
p1192
aa(lp1193
S'vhigh'
p1194
aS'high'
p1195
ag59
aS'more'
p1196
aS'med'
p1197
aS'med'
p1198
aS'unacc'
p1199
aa(lp1200
S'vhigh'
p1201
aS'high'
p1202
ag59
aS'more'
p1203
aS'med'
p1204
aS'high'
p1205
aS'unacc'
p1206
aa(lp1207
S'vhigh'
p1208
aS'high'
p1209
ag59
aS'more'
p1210
aS'big'
p1211
aS'low'
p1212
aS'unacc'
p1213
aa(lp1214
S'vhigh'
p1215
aS'high'
p1216
ag59
aS'more'
p1217
aS'big'
p1218
aS'med'
p1219
aS'unacc'
p1220
aa(lp1221
S'vhigh'
p1222
aS'high'
p1223
ag59
aS'more'
p1224
aS'big'
p1225
aS'high'
p1226
aS'unacc'
p1227
aa(lp1228
S'vhigh'
p1229
aS'high'
p1230
aS'5more'
p1231
ag4
aS'small'
p1232
aS'low'
p1233
aS'unacc'
p1234
aa(lp1235
S'vhigh'
p1236
aS'high'
p1237
aS'5more'
p1238
ag4
aS'small'
p1239
aS'med'
p1240
aS'unacc'
p1241
aa(lp1242
S'vhigh'
p1243
aS'high'
p1244
aS'5more'
p1245
ag4
aS'small'
p1246
aS'high'
p1247
aS'unacc'
p1248
aa(lp1249
S'vhigh'
p1250
aS'high'
p1251
aS'5more'
p1252
ag4
aS'med'
p1253
aS'low'
p1254
aS'unacc'
p1255
aa(lp1256
S'vhigh'
p1257
aS'high'
p1258
aS'5more'
p1259
ag4
aS'med'
p1260
aS'med'
p1261
aS'unacc'
p1262
aa(lp1263
S'vhigh'
p1264
aS'high'
p1265
aS'5more'
p1266
ag4
aS'med'
p1267
aS'high'
p1268
aS'unacc'
p1269
aa(lp1270
S'vhigh'
p1271
aS'high'
p1272
aS'5more'
p1273
ag4
aS'big'
p1274
aS'low'
p1275
aS'unacc'
p1276
aa(lp1277
S'vhigh'
p1278
aS'high'
p1279
aS'5more'
p1280
ag4
aS'big'
p1281
aS'med'
p1282
aS'unacc'
p1283
aa(lp1284
S'vhigh'
p1285
aS'high'
p1286
aS'5more'
p1287
ag4
aS'big'
p1288
aS'high'
p1289
aS'unacc'
p1290
aa(lp1291
S'vhigh'
p1292
aS'high'
p1293
aS'5more'
p1294
ag59
aS'small'
p1295
aS'low'
p1296
aS'unacc'
p1297
aa(lp1298
S'vhigh'
p1299
aS'high'
p1300
aS'5more'
p1301
ag59
aS'small'
p1302
aS'med'
p1303
aS'unacc'
p1304
aa(lp1305
S'vhigh'
p1306
aS'high'
p1307
aS'5more'
p1308
ag59
aS'small'
p1309
aS'high'
p1310
aS'unacc'
p1311
aa(lp1312
S'vhigh'
p1313
aS'high'
p1314
aS'5more'
p1315
ag59
aS'med'
p1316
aS'low'
p1317
aS'unacc'
p1318
aa(lp1319
S'vhigh'
p1320
aS'high'
p1321
aS'5more'
p1322
ag59
aS'med'
p1323
aS'med'
p1324
aS'unacc'
p1325
aa(lp1326
S'vhigh'
p1327
aS'high'
p1328
aS'5more'
p1329
ag59
aS'med'
p1330
aS'high'
p1331
aS'unacc'
p1332
aa(lp1333
S'vhigh'
p1334
aS'high'
p1335
aS'5more'
p1336
ag59
aS'big'
p1337
aS'low'
p1338
aS'unacc'
p1339
aa(lp1340
S'vhigh'
p1341
aS'high'
p1342
aS'5more'
p1343
ag59
aS'big'
p1344
aS'med'
p1345
aS'unacc'
p1346
aa(lp1347
S'vhigh'
p1348
aS'high'
p1349
aS'5more'
p1350
ag59
aS'big'
p1351
aS'high'
p1352
aS'unacc'
p1353
aa(lp1354
S'vhigh'
p1355
aS'high'
p1356
aS'5more'
p1357
aS'more'
p1358
aS'small'
p1359
aS'low'
p1360
aS'unacc'
p1361
aa(lp1362
S'vhigh'
p1363
aS'high'
p1364
aS'5more'
p1365
aS'more'
p1366
aS'small'
p1367
aS'med'
p1368
aS'unacc'
p1369
aa(lp1370
S'vhigh'
p1371
aS'high'
p1372
aS'5more'
p1373
aS'more'
p1374
aS'small'
p1375
aS'high'
p1376
aS'unacc'
p1377
aa(lp1378
S'vhigh'
p1379
aS'high'
p1380
aS'5more'
p1381
aS'more'
p1382
aS'med'
p1383
aS'low'
p1384
aS'unacc'
p1385
aa(lp1386
S'vhigh'
p1387
aS'high'
p1388
aS'5more'
p1389
aS'more'
p1390
aS'med'
p1391
aS'med'
p1392
aS'unacc'
p1393
aa(lp1394
S'vhigh'
p1395
aS'high'
p1396
aS'5more'
p1397
aS'more'
p1398
aS'med'
p1399
aS'high'
p1400
aS'unacc'
p1401
aa(lp1402
S'vhigh'
p1403
aS'high'
p1404
aS'5more'
p1405
aS'more'
p1406
aS'big'
p1407
aS'low'
p1408
aS'unacc'
p1409
aa(lp1410
S'vhigh'
p1411
aS'high'
p1412
aS'5more'
p1413
aS'more'
p1414
aS'big'
p1415
aS'med'
p1416
aS'unacc'
p1417
aa(lp1418
S'vhigh'
p1419
aS'high'
p1420
aS'5more'
p1421
aS'more'
p1422
aS'big'
p1423
aS'high'
p1424
aS'unacc'
p1425
aa(lp1426
S'vhigh'
p1427
aS'med'
p1428
ag4
ag4
aS'small'
p1429
aS'low'
p1430
aS'unacc'
p1431
aa(lp1432
S'vhigh'
p1433
aS'med'
p1434
ag4
ag4
aS'small'
p1435
aS'med'
p1436
aS'unacc'
p1437
aa(lp1438
S'vhigh'
p1439
aS'med'
p1440
ag4
ag4
aS'small'
p1441
aS'high'
p1442
aS'unacc'
p1443
aa(lp1444
S'vhigh'
p1445
aS'med'
p1446
ag4
ag4
aS'med'
p1447
aS'low'
p1448
aS'unacc'
p1449
aa(lp1450
S'vhigh'
p1451
aS'med'
p1452
ag4
ag4
aS'med'
p1453
aS'med'
p1454
aS'unacc'
p1455
aa(lp1456
S'vhigh'
p1457
aS'med'
p1458
ag4
ag4
aS'med'
p1459
aS'high'
p1460
aS'unacc'
p1461
aa(lp1462
S'vhigh'
p1463
aS'med'
p1464
ag4
ag4
aS'big'
p1465
aS'low'
p1466
aS'unacc'
p1467
aa(lp1468
S'vhigh'
p1469
aS'med'
p1470
ag4
ag4
aS'big'
p1471
aS'med'
p1472
aS'unacc'
p1473
aa(lp1474
S'vhigh'
p1475
aS'med'
p1476
ag4
ag4
aS'big'
p1477
aS'high'
p1478
aS'unacc'
p1479
aa(lp1480
S'vhigh'
p1481
aS'med'
p1482
ag4
ag59
aS'small'
p1483
aS'low'
p1484
aS'unacc'
p1485
aa(lp1486
S'vhigh'
p1487
aS'med'
p1488
ag4
ag59
aS'small'
p1489
aS'med'
p1490
aS'unacc'
p1491
aa(lp1492
S'vhigh'
p1493
aS'med'
p1494
ag4
ag59
aS'small'
p1495
aS'high'
p1496
aS'acc'
p1497
aa(lp1498
S'vhigh'
p1499
aS'med'
p1500
ag4
ag59
aS'med'
p1501
aS'low'
p1502
aS'unacc'
p1503
aa(lp1504
S'vhigh'
p1505
aS'med'
p1506
ag4
ag59
aS'med'
p1507
aS'med'
p1508
aS'unacc'
p1509
aa(lp1510
S'vhigh'
p1511
aS'med'
p1512
ag4
ag59
aS'med'
p1513
aS'high'
p1514
aS'acc'
p1515
aa(lp1516
S'vhigh'
p1517
aS'med'
p1518
ag4
ag59
aS'big'
p1519
aS'low'
p1520
aS'unacc'
p1521
aa(lp1522
S'vhigh'
p1523
aS'med'
p1524
ag4
ag59
aS'big'
p1525
aS'med'
p1526
aS'acc'
p1527
aa(lp1528
S'vhigh'
p1529
aS'med'
p1530
ag4
ag59
aS'big'
p1531
aS'high'
p1532
aS'acc'
p1533
aa(lp1534
S'vhigh'
p1535
aS'med'
p1536
ag4
aS'more'
p1537
aS'small'
p1538
aS'low'
p1539
aS'unacc'
p1540
aa(lp1541
S'vhigh'
p1542
aS'med'
p1543
ag4
aS'more'
p1544
aS'small'
p1545
aS'med'
p1546
aS'unacc'
p1547
aa(lp1548
S'vhigh'
p1549
aS'med'
p1550
ag4
aS'more'
p1551
aS'small'
p1552
aS'high'
p1553
aS'unacc'
p1554
aa(lp1555
S'vhigh'
p1556
aS'med'
p1557
ag4
aS'more'
p1558
aS'med'
p1559
aS'low'
p1560
aS'unacc'
p1561
aa(lp1562
S'vhigh'
p1563
aS'med'
p1564
ag4
aS'more'
p1565
aS'med'
p1566
aS'med'
p1567
aS'unacc'
p1568
aa(lp1569
S'vhigh'
p1570
aS'med'
p1571
ag4
aS'more'
p1572
aS'med'
p1573
aS'high'
p1574
aS'acc'
p1575
aa(lp1576
S'vhigh'
p1577
aS'med'
p1578
ag4
aS'more'
p1579
aS'big'
p1580
aS'low'
p1581
aS'unacc'
p1582
aa(lp1583
S'vhigh'
p1584
aS'med'
p1585
ag4
aS'more'
p1586
aS'big'
p1587
aS'med'
p1588
aS'acc'
p1589
aa(lp1590
S'vhigh'
p1591
aS'med'
p1592
ag4
aS'more'
p1593
aS'big'
p1594
aS'high'
p1595
aS'acc'
p1596
aa(lp1597
S'vhigh'
p1598
aS'med'
p1599
ag177
ag4
aS'small'
p1600
aS'low'
p1601
aS'unacc'
p1602
aa(lp1603
S'vhigh'
p1604
aS'med'
p1605
ag177
ag4
aS'small'
p1606
aS'med'
p1607
aS'unacc'
p1608
aa(lp1609
S'vhigh'
p1610
aS'med'
p1611
ag177
ag4
aS'small'
p1612
aS'high'
p1613
aS'unacc'
p1614
aa(lp1615
S'vhigh'
p1616
aS'med'
p1617
ag177
ag4
aS'med'
p1618
aS'low'
p1619
aS'unacc'
p1620
aa(lp1621
S'vhigh'
p1622
aS'med'
p1623
ag177
ag4
aS'med'
p1624
aS'med'
p1625
aS'unacc'
p1626
aa(lp1627
S'vhigh'
p1628
aS'med'
p1629
ag177
ag4
aS'med'
p1630
aS'high'
p1631
aS'unacc'
p1632
aa(lp1633
S'vhigh'
p1634
aS'med'
p1635
ag177
ag4
aS'big'
p1636
aS'low'
p1637
aS'unacc'
p1638
aa(lp1639
S'vhigh'
p1640
aS'med'
p1641
ag177
ag4
aS'big'
p1642
aS'med'
p1643
aS'unacc'
p1644
aa(lp1645
S'vhigh'
p1646
aS'med'
p1647
ag177
ag4
aS'big'
p1648
aS'high'
p1649
aS'unacc'
p1650
aa(lp1651
S'vhigh'
p1652
aS'med'
p1653
ag177
ag59
aS'small'
p1654
aS'low'
p1655
aS'unacc'
p1656
aa(lp1657
S'vhigh'
p1658
aS'med'
p1659
ag177
ag59
aS'small'
p1660
aS'med'
p1661
aS'unacc'
p1662
aa(lp1663
S'vhigh'
p1664
aS'med'
p1665
ag177
ag59
aS'small'
p1666
aS'high'
p1667
aS'acc'
p1668
aa(lp1669
S'vhigh'
p1670
aS'med'
p1671
ag177
ag59
aS'med'
p1672
aS'low'
p1673
aS'unacc'
p1674
aa(lp1675
S'vhigh'
p1676
aS'med'
p1677
ag177
ag59
aS'med'
p1678
aS'med'
p1679
aS'unacc'
p1680
aa(lp1681
S'vhigh'
p1682
aS'med'
p1683
ag177
ag59
aS'med'
p1684
aS'high'
p1685
aS'acc'
p1686
aa(lp1687
S'vhigh'
p1688
aS'med'
p1689
ag177
ag59
aS'big'
p1690
aS'low'
p1691
aS'unacc'
p1692
aa(lp1693
S'vhigh'
p1694
aS'med'
p1695
ag177
ag59
aS'big'
p1696
aS'med'
p1697
aS'acc'
p1698
aa(lp1699
S'vhigh'
p1700
aS'med'
p1701
ag177
ag59
aS'big'
p1702
aS'high'
p1703
aS'acc'
p1704
aa(lp1705
S'vhigh'
p1706
aS'med'
p1707
ag177
aS'more'
p1708
aS'small'
p1709
aS'low'
p1710
aS'unacc'
p1711
aa(lp1712
S'vhigh'
p1713
aS'med'
p1714
ag177
aS'more'
p1715
aS'small'
p1716
aS'med'
p1717
aS'unacc'
p1718
aa(lp1719
S'vhigh'
p1720
aS'med'
p1721
ag177
aS'more'
p1722
aS'small'
p1723
aS'high'
p1724
aS'acc'
p1725
aa(lp1726
S'vhigh'
p1727
aS'med'
p1728
ag177
aS'more'
p1729
aS'med'
p1730
aS'low'
p1731
aS'unacc'
p1732
aa(lp1733
S'vhigh'
p1734
aS'med'
p1735
ag177
aS'more'
p1736
aS'med'
p1737
aS'med'
p1738
aS'acc'
p1739
aa(lp1740
S'vhigh'
p1741
aS'med'
p1742
ag177
aS'more'
p1743
aS'med'
p1744
aS'high'
p1745
aS'acc'
p1746
aa(lp1747
S'vhigh'
p1748
aS'med'
p1749
ag177
aS'more'
p1750
aS'big'
p1751
aS'low'
p1752
aS'unacc'
p1753
aa(lp1754
S'vhigh'
p1755
aS'med'
p1756
ag177
aS'more'
p1757
aS'big'
p1758
aS'med'
p1759
aS'acc'
p1760
aa(lp1761
S'vhigh'
p1762
aS'med'
p1763
ag177
aS'more'
p1764
aS'big'
p1765
aS'high'
p1766
aS'acc'
p1767
aa(lp1768
S'vhigh'
p1769
aS'med'
p1770
ag59
ag4
aS'small'
p1771
aS'low'
p1772
aS'unacc'
p1773
aa(lp1774
S'vhigh'
p1775
aS'med'
p1776
ag59
ag4
aS'small'
p1777
aS'med'
p1778
aS'unacc'
p1779
aa(lp1780
S'vhigh'
p1781
aS'med'
p1782
ag59
ag4
aS'small'
p1783
aS'high'
p1784
aS'unacc'
p1785
aa(lp1786
S'vhigh'
p1787
aS'med'
p1788
ag59
ag4
aS'med'
p1789
aS'low'
p1790
aS'unacc'
p1791
aa(lp1792
S'vhigh'
p1793
aS'med'
p1794
ag59
ag4
aS'med'
p1795
aS'med'
p1796
aS'unacc'
p1797
aa(lp1798
S'vhigh'
p1799
aS'med'
p1800
ag59
ag4
aS'med'
p1801
aS'high'
p1802
aS'unacc'
p1803
aa(lp1804
S'vhigh'
p1805
aS'med'
p1806
ag59
ag4
aS'big'
p1807
aS'low'
p1808
aS'unacc'
p1809
aa(lp1810
S'vhigh'
p1811
aS'med'
p1812
ag59
ag4
aS'big'
p1813
aS'med'
p1814
aS'unacc'
p1815
aa(lp1816
S'vhigh'
p1817
aS'med'
p1818
ag59
ag4
aS'big'
p1819
aS'high'
p1820
aS'unacc'
p1821
aa(lp1822
S'vhigh'
p1823
aS'med'
p1824
ag59
ag59
aS'small'
p1825
aS'low'
p1826
aS'unacc'
p1827
aa(lp1828
S'vhigh'
p1829
aS'med'
p1830
ag59
ag59
aS'small'
p1831
aS'med'
p1832
aS'unacc'
p1833
aa(lp1834
S'vhigh'
p1835
aS'med'
p1836
ag59
ag59
aS'small'
p1837
aS'high'
p1838
aS'acc'
p1839
aa(lp1840
S'vhigh'
p1841
aS'med'
p1842
ag59
ag59
aS'med'
p1843
aS'low'
p1844
aS'unacc'
p1845
aa(lp1846
S'vhigh'
p1847
aS'med'
p1848
ag59
ag59
aS'med'
p1849
aS'med'
p1850
aS'acc'
p1851
aa(lp1852
S'vhigh'
p1853
aS'med'
p1854
ag59
ag59
aS'med'
p1855
aS'high'
p1856
aS'acc'
p1857
aa(lp1858
S'vhigh'
p1859
aS'med'
p1860
ag59
ag59
aS'big'
p1861
aS'low'
p1862
aS'unacc'
p1863
aa(lp1864
S'vhigh'
p1865
aS'med'
p1866
ag59
ag59
aS'big'
p1867
aS'med'
p1868
aS'acc'
p1869
aa(lp1870
S'vhigh'
p1871
aS'med'
p1872
ag59
ag59
aS'big'
p1873
aS'high'
p1874
aS'acc'
p1875
aa(lp1876
S'vhigh'
p1877
aS'med'
p1878
ag59
aS'more'
p1879
aS'small'
p1880
aS'low'
p1881
aS'unacc'
p1882
aa(lp1883
S'vhigh'
p1884
aS'med'
p1885
ag59
aS'more'
p1886
aS'small'
p1887
aS'med'
p1888
aS'unacc'
p1889
aa(lp1890
S'vhigh'
p1891
aS'med'
p1892
ag59
aS'more'
p1893
aS'small'
p1894
aS'high'
p1895
aS'acc'
p1896
aa(lp1897
S'vhigh'
p1898
aS'med'
p1899
ag59
aS'more'
p1900
aS'med'
p1901
aS'low'
p1902
aS'unacc'
p1903
aa(lp1904
S'vhigh'
p1905
aS'med'
p1906
ag59
aS'more'
p1907
aS'med'
p1908
aS'med'
p1909
aS'acc'
p1910
aa(lp1911
S'vhigh'
p1912
aS'med'
p1913
ag59
aS'more'
p1914
aS'med'
p1915
aS'high'
p1916
aS'acc'
p1917
aa(lp1918
S'vhigh'
p1919
aS'med'
p1920
ag59
aS'more'
p1921
aS'big'
p1922
aS'low'
p1923
aS'unacc'
p1924
aa(lp1925
S'vhigh'
p1926
aS'med'
p1927
ag59
aS'more'
p1928
aS'big'
p1929
aS'med'
p1930
aS'acc'
p1931
aa(lp1932
S'vhigh'
p1933
aS'med'
p1934
ag59
aS'more'
p1935
aS'big'
p1936
aS'high'
p1937
aS'acc'
p1938
aa(lp1939
S'vhigh'
p1940
aS'med'
p1941
aS'5more'
p1942
ag4
aS'small'
p1943
aS'low'
p1944
aS'unacc'
p1945
aa(lp1946
S'vhigh'
p1947
aS'med'
p1948
aS'5more'
p1949
ag4
aS'small'
p1950
aS'med'
p1951
aS'unacc'
p1952
aa(lp1953
S'vhigh'
p1954
aS'med'
p1955
aS'5more'
p1956
ag4
aS'small'
p1957
aS'high'
p1958
aS'unacc'
p1959
aa(lp1960
S'vhigh'
p1961
aS'med'
p1962
aS'5more'
p1963
ag4
aS'med'
p1964
aS'low'
p1965
aS'unacc'
p1966
aa(lp1967
S'vhigh'
p1968
aS'med'
p1969
aS'5more'
p1970
ag4
aS'med'
p1971
aS'med'
p1972
aS'unacc'
p1973
aa(lp1974
S'vhigh'
p1975
aS'med'
p1976
aS'5more'
p1977
ag4
aS'med'
p1978
aS'high'
p1979
aS'unacc'
p1980
aa(lp1981
S'vhigh'
p1982
aS'med'
p1983
aS'5more'
p1984
ag4
aS'big'
p1985
aS'low'
p1986
aS'unacc'
p1987
aa(lp1988
S'vhigh'
p1989
aS'med'
p1990
aS'5more'
p1991
ag4
aS'big'
p1992
aS'med'
p1993
aS'unacc'
p1994
aa(lp1995
S'vhigh'
p1996
aS'med'
p1997
aS'5more'
p1998
ag4
aS'big'
p1999
aS'high'
p2000
aS'unacc'
p2001
aa(lp2002
S'vhigh'
p2003
aS'med'
p2004
aS'5more'
p2005
ag59
aS'small'
p2006
aS'low'
p2007
aS'unacc'
p2008
aa(lp2009
S'vhigh'
p2010
aS'med'
p2011
aS'5more'
p2012
ag59
aS'small'
p2013
aS'med'
p2014
aS'unacc'
p2015
aa(lp2016
S'vhigh'
p2017
aS'med'
p2018
aS'5more'
p2019
ag59
aS'small'
p2020
aS'high'
p2021
aS'acc'
p2022
aa(lp2023
S'vhigh'
p2024
aS'med'
p2025
aS'5more'
p2026
ag59
aS'med'
p2027
aS'low'
p2028
aS'unacc'
p2029
aa(lp2030
S'vhigh'
p2031
aS'med'
p2032
aS'5more'
p2033
ag59
aS'med'
p2034
aS'med'
p2035
aS'acc'
p2036
aa(lp2037
S'vhigh'
p2038
aS'med'
p2039
aS'5more'
p2040
ag59
aS'med'
p2041
aS'high'
p2042
aS'acc'
p2043
aa(lp2044
S'vhigh'
p2045
aS'med'
p2046
aS'5more'
p2047
ag59
aS'big'
p2048
aS'low'
p2049
aS'unacc'
p2050
aa(lp2051
S'vhigh'
p2052
aS'med'
p2053
aS'5more'
p2054
ag59
aS'big'
p2055
aS'med'
p2056
aS'acc'
p2057
aa(lp2058
S'vhigh'
p2059
aS'med'
p2060
aS'5more'
p2061
ag59
aS'big'
p2062
aS'high'
p2063
aS'acc'
p2064
aa(lp2065
S'vhigh'
p2066
aS'med'
p2067
aS'5more'
p2068
aS'more'
p2069
aS'small'
p2070
aS'low'
p2071
aS'unacc'
p2072
aa(lp2073
S'vhigh'
p2074
aS'med'
p2075
aS'5more'
p2076
aS'more'
p2077
aS'small'
p2078
aS'med'
p2079
aS'unacc'
p2080
aa(lp2081
S'vhigh'
p2082
aS'med'
p2083
aS'5more'
p2084
aS'more'
p2085
aS'small'
p2086
aS'high'
p2087
aS'acc'
p2088
aa(lp2089
S'vhigh'
p2090
aS'med'
p2091
aS'5more'
p2092
aS'more'
p2093
aS'med'
p2094
aS'low'
p2095
aS'unacc'
p2096
aa(lp2097
S'vhigh'
p2098
aS'med'
p2099
aS'5more'
p2100
aS'more'
p2101
aS'med'
p2102
aS'med'
p2103
aS'acc'
p2104
aa(lp2105
S'vhigh'
p2106
aS'med'
p2107
aS'5more'
p2108
aS'more'
p2109
aS'med'
p2110
aS'high'
p2111
aS'acc'
p2112
aa(lp2113
S'vhigh'
p2114
aS'med'
p2115
aS'5more'
p2116
aS'more'
p2117
aS'big'
p2118
aS'low'
p2119
aS'unacc'
p2120
aa(lp2121
S'vhigh'
p2122
aS'med'
p2123
aS'5more'
p2124
aS'more'
p2125
aS'big'
p2126
aS'med'
p2127
aS'acc'
p2128
aa(lp2129
S'vhigh'
p2130
aS'med'
p2131
aS'5more'
p2132
aS'more'
p2133
aS'big'
p2134
aS'high'
p2135
aS'acc'
p2136
aa(lp2137
S'vhigh'
p2138
aS'low'
p2139
ag4
ag4
aS'small'
p2140
aS'low'
p2141
aS'unacc'
p2142
aa(lp2143
S'vhigh'
p2144
aS'low'
p2145
ag4
ag4
aS'small'
p2146
aS'med'
p2147
aS'unacc'
p2148
aa(lp2149
S'vhigh'
p2150
aS'low'
p2151
ag4
ag4
aS'small'
p2152
aS'high'
p2153
aS'unacc'
p2154
aa(lp2155
S'vhigh'
p2156
aS'low'
p2157
ag4
ag4
aS'med'
p2158
aS'low'
p2159
aS'unacc'
p2160
aa(lp2161
S'vhigh'
p2162
aS'low'
p2163
ag4
ag4
aS'med'
p2164
aS'med'
p2165
aS'unacc'
p2166
aa(lp2167
S'vhigh'
p2168
aS'low'
p2169
ag4
ag4
aS'med'
p2170
aS'high'
p2171
aS'unacc'
p2172
aa(lp2173
S'vhigh'
p2174
aS'low'
p2175
ag4
ag4
aS'big'
p2176
aS'low'
p2177
aS'unacc'
p2178
aa(lp2179
S'vhigh'
p2180
aS'low'
p2181
ag4
ag4
aS'big'
p2182
aS'med'
p2183
aS'unacc'
p2184
aa(lp2185
S'vhigh'
p2186
aS'low'
p2187
ag4
ag4
aS'big'
p2188
aS'high'
p2189
aS'unacc'
p2190
aa(lp2191
S'vhigh'
p2192
aS'low'
p2193
ag4
ag59
aS'small'
p2194
aS'low'
p2195
aS'unacc'
p2196
aa(lp2197
S'vhigh'
p2198
aS'low'
p2199
ag4
ag59
aS'small'
p2200
aS'med'
p2201
aS'unacc'
p2202
aa(lp2203
S'vhigh'
p2204
aS'low'
p2205
ag4
ag59
aS'small'
p2206
aS'high'
p2207
aS'acc'
p2208
aa(lp2209
S'vhigh'
p2210
aS'low'
p2211
ag4
ag59
aS'med'
p2212
aS'low'
p2213
aS'unacc'
p2214
aa(lp2215
S'vhigh'
p2216
aS'low'
p2217
ag4
ag59
aS'med'
p2218
aS'med'
p2219
aS'unacc'
p2220
aa(lp2221
S'vhigh'
p2222
aS'low'
p2223
ag4
ag59
aS'med'
p2224
aS'high'
p2225
aS'acc'
p2226
aa(lp2227
S'vhigh'
p2228
aS'low'
p2229
ag4
ag59
aS'big'
p2230
aS'low'
p2231
aS'unacc'
p2232
aa(lp2233
S'vhigh'
p2234
aS'low'
p2235
ag4
ag59
aS'big'
p2236
aS'med'
p2237
aS'acc'
p2238
aa(lp2239
S'vhigh'
p2240
aS'low'
p2241
ag4
ag59
aS'big'
p2242
aS'high'
p2243
aS'acc'
p2244
aa(lp2245
S'vhigh'
p2246
aS'low'
p2247
ag4
aS'more'
p2248
aS'small'
p2249
aS'low'
p2250
aS'unacc'
p2251
aa(lp2252
S'vhigh'
p2253
aS'low'
p2254
ag4
aS'more'
p2255
aS'small'
p2256
aS'med'
p2257
aS'unacc'
p2258
aa(lp2259
S'vhigh'
p2260
aS'low'
p2261
ag4
aS'more'
p2262
aS'small'
p2263
aS'high'
p2264
aS'unacc'
p2265
aa(lp2266
S'vhigh'
p2267
aS'low'
p2268
ag4
aS'more'
p2269
aS'med'
p2270
aS'low'
p2271
aS'unacc'
p2272
aa(lp2273
S'vhigh'
p2274
aS'low'
p2275
ag4
aS'more'
p2276
aS'med'
p2277
aS'med'
p2278
aS'unacc'
p2279
aa(lp2280
S'vhigh'
p2281
aS'low'
p2282
ag4
aS'more'
p2283
aS'med'
p2284
aS'high'
p2285
aS'acc'
p2286
aa(lp2287
S'vhigh'
p2288
aS'low'
p2289
ag4
aS'more'
p2290
aS'big'
p2291
aS'low'
p2292
aS'unacc'
p2293
aa(lp2294
S'vhigh'
p2295
aS'low'
p2296
ag4
aS'more'
p2297
aS'big'
p2298
aS'med'
p2299
aS'acc'
p2300
aa(lp2301
S'vhigh'
p2302
aS'low'
p2303
ag4
aS'more'
p2304
aS'big'
p2305
aS'high'
p2306
aS'acc'
p2307
aa(lp2308
S'vhigh'
p2309
aS'low'
p2310
ag177
ag4
aS'small'
p2311
aS'low'
p2312
aS'unacc'
p2313
aa(lp2314
S'vhigh'
p2315
aS'low'
p2316
ag177
ag4
aS'small'
p2317
aS'med'
p2318
aS'unacc'
p2319
aa(lp2320
S'vhigh'
p2321
aS'low'
p2322
ag177
ag4
aS'small'
p2323
aS'high'
p2324
aS'unacc'
p2325
aa(lp2326
S'vhigh'
p2327
aS'low'
p2328
ag177
ag4
aS'med'
p2329
aS'low'
p2330
aS'unacc'
p2331
aa(lp2332
S'vhigh'
p2333
aS'low'
p2334
ag177
ag4
aS'med'
p2335
aS'med'
p2336
aS'unacc'
p2337
aa(lp2338
S'vhigh'
p2339
aS'low'
p2340
ag177
ag4
aS'med'
p2341
aS'high'
p2342
aS'unacc'
p2343
aa(lp2344
S'vhigh'
p2345
aS'low'
p2346
ag177
ag4
aS'big'
p2347
aS'low'
p2348
aS'unacc'
p2349
aa(lp2350
S'vhigh'
p2351
aS'low'
p2352
ag177
ag4
aS'big'
p2353
aS'med'
p2354
aS'unacc'
p2355
aa(lp2356
S'vhigh'
p2357
aS'low'
p2358
ag177
ag4
aS'big'
p2359
aS'high'
p2360
aS'unacc'
p2361
aa(lp2362
S'vhigh'
p2363
aS'low'
p2364
ag177
ag59
aS'small'
p2365
aS'low'
p2366
aS'unacc'
p2367
aa(lp2368
S'vhigh'
p2369
aS'low'
p2370
ag177
ag59
aS'small'
p2371
aS'med'
p2372
aS'unacc'
p2373
aa(lp2374
S'vhigh'
p2375
aS'low'
p2376
ag177
ag59
aS'small'
p2377
aS'high'
p2378
aS'acc'
p2379
aa(lp2380
S'vhigh'
p2381
aS'low'
p2382
ag177
ag59
aS'med'
p2383
aS'low'
p2384
aS'unacc'
p2385
aa(lp2386
S'vhigh'
p2387
aS'low'
p2388
ag177
ag59
aS'med'
p2389
aS'med'
p2390
aS'unacc'
p2391
aa(lp2392
S'vhigh'
p2393
aS'low'
p2394
ag177
ag59
aS'med'
p2395
aS'high'
p2396
aS'acc'
p2397
aa(lp2398
S'vhigh'
p2399
aS'low'
p2400
ag177
ag59
aS'big'
p2401
aS'low'
p2402
aS'unacc'
p2403
aa(lp2404
S'vhigh'
p2405
aS'low'
p2406
ag177
ag59
aS'big'
p2407
aS'med'
p2408
aS'acc'
p2409
aa(lp2410
S'vhigh'
p2411
aS'low'
p2412
ag177
ag59
aS'big'
p2413
aS'high'
p2414
aS'acc'
p2415
aa(lp2416
S'vhigh'
p2417
aS'low'
p2418
ag177
aS'more'
p2419
aS'small'
p2420
aS'low'
p2421
aS'unacc'
p2422
aa(lp2423
S'vhigh'
p2424
aS'low'
p2425
ag177
aS'more'
p2426
aS'small'
p2427
aS'med'
p2428
aS'unacc'
p2429
aa(lp2430
S'vhigh'
p2431
aS'low'
p2432
ag177
aS'more'
p2433
aS'small'
p2434
aS'high'
p2435
aS'acc'
p2436
aa(lp2437
S'vhigh'
p2438
aS'low'
p2439
ag177
aS'more'
p2440
aS'med'
p2441
aS'low'
p2442
aS'unacc'
p2443
aa(lp2444
S'vhigh'
p2445
aS'low'
p2446
ag177
aS'more'
p2447
aS'med'
p2448
aS'med'
p2449
aS'acc'
p2450
aa(lp2451
S'vhigh'
p2452
aS'low'
p2453
ag177
aS'more'
p2454
aS'med'
p2455
aS'high'
p2456
aS'acc'
p2457
aa(lp2458
S'vhigh'
p2459
aS'low'
p2460
ag177
aS'more'
p2461
aS'big'
p2462
aS'low'
p2463
aS'unacc'
p2464
aa(lp2465
S'vhigh'
p2466
aS'low'
p2467
ag177
aS'more'
p2468
aS'big'
p2469
aS'med'
p2470
aS'acc'
p2471
aa(lp2472
S'vhigh'
p2473
aS'low'
p2474
ag177
aS'more'
p2475
aS'big'
p2476
aS'high'
p2477
aS'acc'
p2478
aa(lp2479
S'vhigh'
p2480
aS'low'
p2481
ag59
ag4
aS'small'
p2482
aS'low'
p2483
aS'unacc'
p2484
aa(lp2485
S'vhigh'
p2486
aS'low'
p2487
ag59
ag4
aS'small'
p2488
aS'med'
p2489
aS'unacc'
p2490
aa(lp2491
S'vhigh'
p2492
aS'low'
p2493
ag59
ag4
aS'small'
p2494
aS'high'
p2495
aS'unacc'
p2496
aa(lp2497
S'vhigh'
p2498
aS'low'
p2499
ag59
ag4
aS'med'
p2500
aS'low'
p2501
aS'unacc'
p2502
aa(lp2503
S'vhigh'
p2504
aS'low'
p2505
ag59
ag4
aS'med'
p2506
aS'med'
p2507
aS'unacc'
p2508
aa(lp2509
S'vhigh'
p2510
aS'low'
p2511
ag59
ag4
aS'med'
p2512
aS'high'
p2513
aS'unacc'
p2514
aa(lp2515
S'vhigh'
p2516
aS'low'
p2517
ag59
ag4
aS'big'
p2518
aS'low'
p2519
aS'unacc'
p2520
aa(lp2521
S'vhigh'
p2522
aS'low'
p2523
ag59
ag4
aS'big'
p2524
aS'med'
p2525
aS'unacc'
p2526
aa(lp2527
S'vhigh'
p2528
aS'low'
p2529
ag59
ag4
aS'big'
p2530
aS'high'
p2531
aS'unacc'
p2532
aa(lp2533
S'vhigh'
p2534
aS'low'
p2535
ag59
ag59
aS'small'
p2536
aS'low'
p2537
aS'unacc'
p2538
aa(lp2539
S'vhigh'
p2540
aS'low'
p2541
ag59
ag59
aS'small'
p2542
aS'med'
p2543
aS'unacc'
p2544
aa(lp2545
S'vhigh'
p2546
aS'low'
p2547
ag59
ag59
aS'small'
p2548
aS'high'
p2549
aS'acc'
p2550
aa(lp2551
S'vhigh'
p2552
aS'low'
p2553
ag59
ag59
aS'med'
p2554
aS'low'
p2555
aS'unacc'
p2556
aa(lp2557
S'vhigh'
p2558
aS'low'
p2559
ag59
ag59
aS'med'
p2560
aS'med'
p2561
aS'acc'
p2562
aa(lp2563
S'vhigh'
p2564
aS'low'
p2565
ag59
ag59
aS'med'
p2566
aS'high'
p2567
aS'acc'
p2568
aa(lp2569
S'vhigh'
p2570
aS'low'
p2571
ag59
ag59
aS'big'
p2572
aS'low'
p2573
aS'unacc'
p2574
aa(lp2575
S'vhigh'
p2576
aS'low'
p2577
ag59
ag59
aS'big'
p2578
aS'med'
p2579
aS'acc'
p2580
aa(lp2581
S'vhigh'
p2582
aS'low'
p2583
ag59
ag59
aS'big'
p2584
aS'high'
p2585
aS'acc'
p2586
aa(lp2587
S'vhigh'
p2588
aS'low'
p2589
ag59
aS'more'
p2590
aS'small'
p2591
aS'low'
p2592
aS'unacc'
p2593
aa(lp2594
S'vhigh'
p2595
aS'low'
p2596
ag59
aS'more'
p2597
aS'small'
p2598
aS'med'
p2599
aS'unacc'
p2600
aa(lp2601
S'vhigh'
p2602
aS'low'
p2603
ag59
aS'more'
p2604
aS'small'
p2605
aS'high'
p2606
aS'acc'
p2607
aa(lp2608
S'vhigh'
p2609
aS'low'
p2610
ag59
aS'more'
p2611
aS'med'
p2612
aS'low'
p2613
aS'unacc'
p2614
aa(lp2615
S'vhigh'
p2616
aS'low'
p2617
ag59
aS'more'
p2618
aS'med'
p2619
aS'med'
p2620
aS'acc'
p2621
aa(lp2622
S'vhigh'
p2623
aS'low'
p2624
ag59
aS'more'
p2625
aS'med'
p2626
aS'high'
p2627
aS'acc'
p2628
aa(lp2629
S'vhigh'
p2630
aS'low'
p2631
ag59
aS'more'
p2632
aS'big'
p2633
aS'low'
p2634
aS'unacc'
p2635
aa(lp2636
S'vhigh'
p2637
aS'low'
p2638
ag59
aS'more'
p2639
aS'big'
p2640
aS'med'
p2641
aS'acc'
p2642
aa(lp2643
S'vhigh'
p2644
aS'low'
p2645
ag59
aS'more'
p2646
aS'big'
p2647
aS'high'
p2648
aS'acc'
p2649
aa(lp2650
S'vhigh'
p2651
aS'low'
p2652
aS'5more'
p2653
ag4
aS'small'
p2654
aS'low'
p2655
aS'unacc'
p2656
aa(lp2657
S'vhigh'
p2658
aS'low'
p2659
aS'5more'
p2660
ag4
aS'small'
p2661
aS'med'
p2662
aS'unacc'
p2663
aa(lp2664
S'vhigh'
p2665
aS'low'
p2666
aS'5more'
p2667
ag4
aS'small'
p2668
aS'high'
p2669
aS'unacc'
p2670
aa(lp2671
S'vhigh'
p2672
aS'low'
p2673
aS'5more'
p2674
ag4
aS'med'
p2675
aS'low'
p2676
aS'unacc'
p2677
aa(lp2678
S'vhigh'
p2679
aS'low'
p2680
aS'5more'
p2681
ag4
aS'med'
p2682
aS'med'
p2683
aS'unacc'
p2684
aa(lp2685
S'vhigh'
p2686
aS'low'
p2687
aS'5more'
p2688
ag4
aS'med'
p2689
aS'high'
p2690
aS'unacc'
p2691
aa(lp2692
S'vhigh'
p2693
aS'low'
p2694
aS'5more'
p2695
ag4
aS'big'
p2696
aS'low'
p2697
aS'unacc'
p2698
aa(lp2699
S'vhigh'
p2700
aS'low'
p2701
aS'5more'
p2702
ag4
aS'big'
p2703
aS'med'
p2704
aS'unacc'
p2705
aa(lp2706
S'vhigh'
p2707
aS'low'
p2708
aS'5more'
p2709
ag4
aS'big'
p2710
aS'high'
p2711
aS'unacc'
p2712
aa(lp2713
S'vhigh'
p2714
aS'low'
p2715
aS'5more'
p2716
ag59
aS'small'
p2717
aS'low'
p2718
aS'unacc'
p2719
aa(lp2720
S'vhigh'
p2721
aS'low'
p2722
aS'5more'
p2723
ag59
aS'small'
p2724
aS'med'
p2725
aS'unacc'
p2726
aa(lp2727
S'vhigh'
p2728
aS'low'
p2729
aS'5more'
p2730
ag59
aS'small'
p2731
aS'high'
p2732
aS'acc'
p2733
aa(lp2734
S'vhigh'
p2735
aS'low'
p2736
aS'5more'
p2737
ag59
aS'med'
p2738
aS'low'
p2739
aS'unacc'
p2740
aa(lp2741
S'vhigh'
p2742
aS'low'
p2743
aS'5more'
p2744
ag59
aS'med'
p2745
aS'med'
p2746
aS'acc'
p2747
aa(lp2748
S'vhigh'
p2749
aS'low'
p2750
aS'5more'
p2751
ag59
aS'med'
p2752
aS'high'
p2753
aS'acc'
p2754
aa(lp2755
S'vhigh'
p2756
aS'low'
p2757
aS'5more'
p2758
ag59
aS'big'
p2759
aS'low'
p2760
aS'unacc'
p2761
aa(lp2762
S'vhigh'
p2763
aS'low'
p2764
aS'5more'
p2765
ag59
aS'big'
p2766
aS'med'
p2767
aS'acc'
p2768
aa(lp2769
S'vhigh'
p2770
aS'low'
p2771
aS'5more'
p2772
ag59
aS'big'
p2773
aS'high'
p2774
aS'acc'
p2775
aa(lp2776
S'vhigh'
p2777
aS'low'
p2778
aS'5more'
p2779
aS'more'
p2780
aS'small'
p2781
aS'low'
p2782
aS'unacc'
p2783
aa(lp2784
S'vhigh'
p2785
aS'low'
p2786
aS'5more'
p2787
aS'more'
p2788
aS'small'
p2789
aS'med'
p2790
aS'unacc'
p2791
aa(lp2792
S'vhigh'
p2793
aS'low'
p2794
aS'5more'
p2795
aS'more'
p2796
aS'small'
p2797
aS'high'
p2798
aS'acc'
p2799
aa(lp2800
S'vhigh'
p2801
aS'low'
p2802
aS'5more'
p2803
aS'more'
p2804
aS'med'
p2805
aS'low'
p2806
aS'unacc'
p2807
aa(lp2808
S'vhigh'
p2809
aS'low'
p2810
aS'5more'
p2811
aS'more'
p2812
aS'med'
p2813
aS'med'
p2814
aS'acc'
p2815
aa(lp2816
S'vhigh'
p2817
aS'low'
p2818
aS'5more'
p2819
aS'more'
p2820
aS'med'
p2821
aS'high'
p2822
aS'acc'
p2823
aa(lp2824
S'vhigh'
p2825
aS'low'
p2826
aS'5more'
p2827
aS'more'
p2828
aS'big'
p2829
aS'low'
p2830
aS'unacc'
p2831
aa(lp2832
S'vhigh'
p2833
aS'low'
p2834
aS'5more'
p2835
aS'more'
p2836
aS'big'
p2837
aS'med'
p2838
aS'acc'
p2839
aa(lp2840
S'vhigh'
p2841
aS'low'
p2842
aS'5more'
p2843
aS'more'
p2844
aS'big'
p2845
aS'high'
p2846
aS'acc'
p2847
aa(lp2848
S'high'
p2849
aS'vhigh'
p2850
ag4
ag4
aS'small'
p2851
aS'low'
p2852
aS'unacc'
p2853
aa(lp2854
S'high'
p2855
aS'vhigh'
p2856
ag4
ag4
aS'small'
p2857
aS'med'
p2858
aS'unacc'
p2859
aa(lp2860
S'high'
p2861
aS'vhigh'
p2862
ag4
ag4
aS'small'
p2863
aS'high'
p2864
aS'unacc'
p2865
aa(lp2866
S'high'
p2867
aS'vhigh'
p2868
ag4
ag4
aS'med'
p2869
aS'low'
p2870
aS'unacc'
p2871
aa(lp2872
S'high'
p2873
aS'vhigh'
p2874
ag4
ag4
aS'med'
p2875
aS'med'
p2876
aS'unacc'
p2877
aa(lp2878
S'high'
p2879
aS'vhigh'
p2880
ag4
ag4
aS'med'
p2881
aS'high'
p2882
aS'unacc'
p2883
aa(lp2884
S'high'
p2885
aS'vhigh'
p2886
ag4
ag4
aS'big'
p2887
aS'low'
p2888
aS'unacc'
p2889
aa(lp2890
S'high'
p2891
aS'vhigh'
p2892
ag4
ag4
aS'big'
p2893
aS'med'
p2894
aS'unacc'
p2895
aa(lp2896
S'high'
p2897
aS'vhigh'
p2898
ag4
ag4
aS'big'
p2899
aS'high'
p2900
aS'unacc'
p2901
aa(lp2902
S'high'
p2903
aS'vhigh'
p2904
ag4
ag59
aS'small'
p2905
aS'low'
p2906
aS'unacc'
p2907
aa(lp2908
S'high'
p2909
aS'vhigh'
p2910
ag4
ag59
aS'small'
p2911
aS'med'
p2912
aS'unacc'
p2913
aa(lp2914
S'high'
p2915
aS'vhigh'
p2916
ag4
ag59
aS'small'
p2917
aS'high'
p2918
aS'unacc'
p2919
aa(lp2920
S'high'
p2921
aS'vhigh'
p2922
ag4
ag59
aS'med'
p2923
aS'low'
p2924
aS'unacc'
p2925
aa(lp2926
S'high'
p2927
aS'vhigh'
p2928
ag4
ag59
aS'med'
p2929
aS'med'
p2930
aS'unacc'
p2931
aa(lp2932
S'high'
p2933
aS'vhigh'
p2934
ag4
ag59
aS'med'
p2935
aS'high'
p2936
aS'unacc'
p2937
aa(lp2938
S'high'
p2939
aS'vhigh'
p2940
ag4
ag59
aS'big'
p2941
aS'low'
p2942
aS'unacc'
p2943
aa(lp2944
S'high'
p2945
aS'vhigh'
p2946
ag4
ag59
aS'big'
p2947
aS'med'
p2948
aS'unacc'
p2949
aa(lp2950
S'high'
p2951
aS'vhigh'
p2952
ag4
ag59
aS'big'
p2953
aS'high'
p2954
aS'unacc'
p2955
aa(lp2956
S'high'
p2957
aS'vhigh'
p2958
ag4
aS'more'
p2959
aS'small'
p2960
aS'low'
p2961
aS'unacc'
p2962
aa(lp2963
S'high'
p2964
aS'vhigh'
p2965
ag4
aS'more'
p2966
aS'small'
p2967
aS'med'
p2968
aS'unacc'
p2969
aa(lp2970
S'high'
p2971
aS'vhigh'
p2972
ag4
aS'more'
p2973
aS'small'
p2974
aS'high'
p2975
aS'unacc'
p2976
aa(lp2977
S'high'
p2978
aS'vhigh'
p2979
ag4
aS'more'
p2980
aS'med'
p2981
aS'low'
p2982
aS'unacc'
p2983
aa(lp2984
S'high'
p2985
aS'vhigh'
p2986
ag4
aS'more'
p2987
aS'med'
p2988
aS'med'
p2989
aS'unacc'
p2990
aa(lp2991
S'high'
p2992
aS'vhigh'
p2993
ag4
aS'more'
p2994
aS'med'
p2995
aS'high'
p2996
aS'unacc'
p2997
aa(lp2998
S'high'
p2999
aS'vhigh'
p3000
ag4
aS'more'
p3001
aS'big'
p3002
aS'low'
p3003
aS'unacc'
p3004
aa(lp3005
S'high'
p3006
aS'vhigh'
p3007
ag4
aS'more'
p3008
aS'big'
p3009
aS'med'
p3010
aS'unacc'
p3011
aa(lp3012
S'high'
p3013
aS'vhigh'
p3014
ag4
aS'more'
p3015
aS'big'
p3016
aS'high'
p3017
aS'unacc'
p3018
aa(lp3019
S'high'
p3020
aS'vhigh'
p3021
ag177
ag4
aS'small'
p3022
aS'low'
p3023
aS'unacc'
p3024
aa(lp3025
S'high'
p3026
aS'vhigh'
p3027
ag177
ag4
aS'small'
p3028
aS'med'
p3029
aS'unacc'
p3030
aa(lp3031
S'high'
p3032
aS'vhigh'
p3033
ag177
ag4
aS'small'
p3034
aS'high'
p3035
aS'unacc'
p3036
aa(lp3037
S'high'
p3038
aS'vhigh'
p3039
ag177
ag4
aS'med'
p3040
aS'low'
p3041
aS'unacc'
p3042
aa(lp3043
S'high'
p3044
aS'vhigh'
p3045
ag177
ag4
aS'med'
p3046
aS'med'
p3047
aS'unacc'
p3048
aa(lp3049
S'high'
p3050
aS'vhigh'
p3051
ag177
ag4
aS'med'
p3052
aS'high'
p3053
aS'unacc'
p3054
aa(lp3055
S'high'
p3056
aS'vhigh'
p3057
ag177
ag4
aS'big'
p3058
aS'low'
p3059
aS'unacc'
p3060
aa(lp3061
S'high'
p3062
aS'vhigh'
p3063
ag177
ag4
aS'big'
p3064
aS'med'
p3065
aS'unacc'
p3066
aa(lp3067
S'high'
p3068
aS'vhigh'
p3069
ag177
ag4
aS'big'
p3070
aS'high'
p3071
aS'unacc'
p3072
aa(lp3073
S'high'
p3074
aS'vhigh'
p3075
ag177
ag59
aS'small'
p3076
aS'low'
p3077
aS'unacc'
p3078
aa(lp3079
S'high'
p3080
aS'vhigh'
p3081
ag177
ag59
aS'small'
p3082
aS'med'
p3083
aS'unacc'
p3084
aa(lp3085
S'high'
p3086
aS'vhigh'
p3087
ag177
ag59
aS'small'
p3088
aS'high'
p3089
aS'unacc'
p3090
aa(lp3091
S'high'
p3092
aS'vhigh'
p3093
ag177
ag59
aS'med'
p3094
aS'low'
p3095
aS'unacc'
p3096
aa(lp3097
S'high'
p3098
aS'vhigh'
p3099
ag177
ag59
aS'med'
p3100
aS'med'
p3101
aS'unacc'
p3102
aa(lp3103
S'high'
p3104
aS'vhigh'
p3105
ag177
ag59
aS'med'
p3106
aS'high'
p3107
aS'unacc'
p3108
aa(lp3109
S'high'
p3110
aS'vhigh'
p3111
ag177
ag59
aS'big'
p3112
aS'low'
p3113
aS'unacc'
p3114
aa(lp3115
S'high'
p3116
aS'vhigh'
p3117
ag177
ag59
aS'big'
p3118
aS'med'
p3119
aS'unacc'
p3120
aa(lp3121
S'high'
p3122
aS'vhigh'
p3123
ag177
ag59
aS'big'
p3124
aS'high'
p3125
aS'unacc'
p3126
aa(lp3127
S'high'
p3128
aS'vhigh'
p3129
ag177
aS'more'
p3130
aS'small'
p3131
aS'low'
p3132
aS'unacc'
p3133
aa(lp3134
S'high'
p3135
aS'vhigh'
p3136
ag177
aS'more'
p3137
aS'small'
p3138
aS'med'
p3139
aS'unacc'
p3140
aa(lp3141
S'high'
p3142
aS'vhigh'
p3143
ag177
aS'more'
p3144
aS'small'
p3145
aS'high'
p3146
aS'unacc'
p3147
aa(lp3148
S'high'
p3149
aS'vhigh'
p3150
ag177
aS'more'
p3151
aS'med'
p3152
aS'low'
p3153
aS'unacc'
p3154
aa(lp3155
S'high'
p3156
aS'vhigh'
p3157
ag177
aS'more'
p3158
aS'med'
p3159
aS'med'
p3160
aS'unacc'
p3161
aa(lp3162
S'high'
p3163
aS'vhigh'
p3164
ag177
aS'more'
p3165
aS'med'
p3166
aS'high'
p3167
aS'unacc'
p3168
aa(lp3169
S'high'
p3170
aS'vhigh'
p3171
ag177
aS'more'
p3172
aS'big'
p3173
aS'low'
p3174
aS'unacc'
p3175
aa(lp3176
S'high'
p3177
aS'vhigh'
p3178
ag177
aS'more'
p3179
aS'big'
p3180
aS'med'
p3181
aS'unacc'
p3182
aa(lp3183
S'high'
p3184
aS'vhigh'
p3185
ag177
aS'more'
p3186
aS'big'
p3187
aS'high'
p3188
aS'unacc'
p3189
aa(lp3190
S'high'
p3191
aS'vhigh'
p3192
ag59
ag4
aS'small'
p3193
aS'low'
p3194
aS'unacc'
p3195
aa(lp3196
S'high'
p3197
aS'vhigh'
p3198
ag59
ag4
aS'small'
p3199
aS'med'
p3200
aS'unacc'
p3201
aa(lp3202
S'high'
p3203
aS'vhigh'
p3204
ag59
ag4
aS'small'
p3205
aS'high'
p3206
aS'unacc'
p3207
aa(lp3208
S'high'
p3209
aS'vhigh'
p3210
ag59
ag4
aS'med'
p3211
aS'low'
p3212
aS'unacc'
p3213
aa(lp3214
S'high'
p3215
aS'vhigh'
p3216
ag59
ag4
aS'med'
p3217
aS'med'
p3218
aS'unacc'
p3219
aa(lp3220
S'high'
p3221
aS'vhigh'
p3222
ag59
ag4
aS'med'
p3223
aS'high'
p3224
aS'unacc'
p3225
aa(lp3226
S'high'
p3227
aS'vhigh'
p3228
ag59
ag4
aS'big'
p3229
aS'low'
p3230
aS'unacc'
p3231
aa(lp3232
S'high'
p3233
aS'vhigh'
p3234
ag59
ag4
aS'big'
p3235
aS'med'
p3236
aS'unacc'
p3237
aa(lp3238
S'high'
p3239
aS'vhigh'
p3240
ag59
ag4
aS'big'
p3241
aS'high'
p3242
aS'unacc'
p3243
aa(lp3244
S'high'
p3245
aS'vhigh'
p3246
ag59
ag59
aS'small'
p3247
aS'low'
p3248
aS'unacc'
p3249
aa(lp3250
S'high'
p3251
aS'vhigh'
p3252
ag59
ag59
aS'small'
p3253
aS'med'
p3254
aS'unacc'
p3255
aa(lp3256
S'high'
p3257
aS'vhigh'
p3258
ag59
ag59
aS'small'
p3259
aS'high'
p3260
aS'unacc'
p3261
aa(lp3262
S'high'
p3263
aS'vhigh'
p3264
ag59
ag59
aS'med'
p3265
aS'low'
p3266
aS'unacc'
p3267
aa(lp3268
S'high'
p3269
aS'vhigh'
p3270
ag59
ag59
aS'med'
p3271
aS'med'
p3272
aS'unacc'
p3273
aa(lp3274
S'high'
p3275
aS'vhigh'
p3276
ag59
ag59
aS'med'
p3277
aS'high'
p3278
aS'unacc'
p3279
aa(lp3280
S'high'
p3281
aS'vhigh'
p3282
ag59
ag59
aS'big'
p3283
aS'low'
p3284
aS'unacc'
p3285
aa(lp3286
S'high'
p3287
aS'vhigh'
p3288
ag59
ag59
aS'big'
p3289
aS'med'
p3290
aS'unacc'
p3291
aa(lp3292
S'high'
p3293
aS'vhigh'
p3294
ag59
ag59
aS'big'
p3295
aS'high'
p3296
aS'unacc'
p3297
aa(lp3298
S'high'
p3299
aS'vhigh'
p3300
ag59
aS'more'
p3301
aS'small'
p3302
aS'low'
p3303
aS'unacc'
p3304
aa(lp3305
S'high'
p3306
aS'vhigh'
p3307
ag59
aS'more'
p3308
aS'small'
p3309
aS'med'
p3310
aS'unacc'
p3311
aa(lp3312
S'high'
p3313
aS'vhigh'
p3314
ag59
aS'more'
p3315
aS'small'
p3316
aS'high'
p3317
aS'unacc'
p3318
aa(lp3319
S'high'
p3320
aS'vhigh'
p3321
ag59
aS'more'
p3322
aS'med'
p3323
aS'low'
p3324
aS'unacc'
p3325
aa(lp3326
S'high'
p3327
aS'vhigh'
p3328
ag59
aS'more'
p3329
aS'med'
p3330
aS'med'
p3331
aS'unacc'
p3332
aa(lp3333
S'high'
p3334
aS'vhigh'
p3335
ag59
aS'more'
p3336
aS'med'
p3337
aS'high'
p3338
aS'unacc'
p3339
aa(lp3340
S'high'
p3341
aS'vhigh'
p3342
ag59
aS'more'
p3343
aS'big'
p3344
aS'low'
p3345
aS'unacc'
p3346
aa(lp3347
S'high'
p3348
aS'vhigh'
p3349
ag59
aS'more'
p3350
aS'big'
p3351
aS'med'
p3352
aS'unacc'
p3353
aa(lp3354
S'high'
p3355
aS'vhigh'
p3356
ag59
aS'more'
p3357
aS'big'
p3358
aS'high'
p3359
aS'unacc'
p3360
aa(lp3361
S'high'
p3362
aS'vhigh'
p3363
aS'5more'
p3364
ag4
aS'small'
p3365
aS'low'
p3366
aS'unacc'
p3367
aa(lp3368
S'high'
p3369
aS'vhigh'
p3370
aS'5more'
p3371
ag4
aS'small'
p3372
aS'med'
p3373
aS'unacc'
p3374
aa(lp3375
S'high'
p3376
aS'vhigh'
p3377
aS'5more'
p3378
ag4
aS'small'
p3379
aS'high'
p3380
aS'unacc'
p3381
aa(lp3382
S'high'
p3383
aS'vhigh'
p3384
aS'5more'
p3385
ag4
aS'med'
p3386
aS'low'
p3387
aS'unacc'
p3388
aa(lp3389
S'high'
p3390
aS'vhigh'
p3391
aS'5more'
p3392
ag4
aS'med'
p3393
aS'med'
p3394
aS'unacc'
p3395
aa(lp3396
S'high'
p3397
aS'vhigh'
p3398
aS'5more'
p3399
ag4
aS'med'
p3400
aS'high'
p3401
aS'unacc'
p3402
aa(lp3403
S'high'
p3404
aS'vhigh'
p3405
aS'5more'
p3406
ag4
aS'big'
p3407
aS'low'
p3408
aS'unacc'
p3409
aa(lp3410
S'high'
p3411
aS'vhigh'
p3412
aS'5more'
p3413
ag4
aS'big'
p3414
aS'med'
p3415
aS'unacc'
p3416
aa(lp3417
S'high'
p3418
aS'vhigh'
p3419
aS'5more'
p3420
ag4
aS'big'
p3421
aS'high'
p3422
aS'unacc'
p3423
aa(lp3424
S'high'
p3425
aS'vhigh'
p3426
aS'5more'
p3427
ag59
aS'small'
p3428
aS'low'
p3429
aS'unacc'
p3430
aa(lp3431
S'high'
p3432
aS'vhigh'
p3433
aS'5more'
p3434
ag59
aS'small'
p3435
aS'med'
p3436
aS'unacc'
p3437
aa(lp3438
S'high'
p3439
aS'vhigh'
p3440
aS'5more'
p3441
ag59
aS'small'
p3442
aS'high'
p3443
aS'unacc'
p3444
aa(lp3445
S'high'
p3446
aS'vhigh'
p3447
aS'5more'
p3448
ag59
aS'med'
p3449
aS'low'
p3450
aS'unacc'
p3451
aa(lp3452
S'high'
p3453
aS'vhigh'
p3454
aS'5more'
p3455
ag59
aS'med'
p3456
aS'med'
p3457
aS'unacc'
p3458
aa(lp3459
S'high'
p3460
aS'vhigh'
p3461
aS'5more'
p3462
ag59
aS'med'
p3463
aS'high'
p3464
aS'unacc'
p3465
aa(lp3466
S'high'
p3467
aS'vhigh'
p3468
aS'5more'
p3469
ag59
aS'big'
p3470
aS'low'
p3471
aS'unacc'
p3472
aa(lp3473
S'high'
p3474
aS'vhigh'
p3475
aS'5more'
p3476
ag59
aS'big'
p3477
aS'med'
p3478
aS'unacc'
p3479
aa(lp3480
S'high'
p3481
aS'vhigh'
p3482
aS'5more'
p3483
ag59
aS'big'
p3484
aS'high'
p3485
aS'unacc'
p3486
aa(lp3487
S'high'
p3488
aS'vhigh'
p3489
aS'5more'
p3490
aS'more'
p3491
aS'small'
p3492
aS'low'
p3493
aS'unacc'
p3494
aa(lp3495
S'high'
p3496
aS'vhigh'
p3497
aS'5more'
p3498
aS'more'
p3499
aS'small'
p3500
aS'med'
p3501
aS'unacc'
p3502
aa(lp3503
S'high'
p3504
aS'vhigh'
p3505
aS'5more'
p3506
aS'more'
p3507
aS'small'
p3508
aS'high'
p3509
aS'unacc'
p3510
aa(lp3511
S'high'
p3512
aS'vhigh'
p3513
aS'5more'
p3514
aS'more'
p3515
aS'med'
p3516
aS'low'
p3517
aS'unacc'
p3518
aa(lp3519
S'high'
p3520
aS'vhigh'
p3521
aS'5more'
p3522
aS'more'
p3523
aS'med'
p3524
aS'med'
p3525
aS'unacc'
p3526
aa(lp3527
S'high'
p3528
aS'vhigh'
p3529
aS'5more'
p3530
aS'more'
p3531
aS'med'
p3532
aS'high'
p3533
aS'unacc'
p3534
aa(lp3535
S'high'
p3536
aS'vhigh'
p3537
aS'5more'
p3538
aS'more'
p3539
aS'big'
p3540
aS'low'
p3541
aS'unacc'
p3542
aa(lp3543
S'high'
p3544
aS'vhigh'
p3545
aS'5more'
p3546
aS'more'
p3547
aS'big'
p3548
aS'med'
p3549
aS'unacc'
p3550
aa(lp3551
S'high'
p3552
aS'vhigh'
p3553
aS'5more'
p3554
aS'more'
p3555
aS'big'
p3556
aS'high'
p3557
aS'unacc'
p3558
aa(lp3559
S'high'
p3560
aS'high'
p3561
ag4
ag4
aS'small'
p3562
aS'low'
p3563
aS'unacc'
p3564
aa(lp3565
S'high'
p3566
aS'high'
p3567
ag4
ag4
aS'small'
p3568
aS'med'
p3569
aS'unacc'
p3570
aa(lp3571
S'high'
p3572
aS'high'
p3573
ag4
ag4
aS'small'
p3574
aS'high'
p3575
aS'unacc'
p3576
aa(lp3577
S'high'
p3578
aS'high'
p3579
ag4
ag4
aS'med'
p3580
aS'low'
p3581
aS'unacc'
p3582
aa(lp3583
S'high'
p3584
aS'high'
p3585
ag4
ag4
aS'med'
p3586
aS'med'
p3587
aS'unacc'
p3588
aa(lp3589
S'high'
p3590
aS'high'
p3591
ag4
ag4
aS'med'
p3592
aS'high'
p3593
aS'unacc'
p3594
aa(lp3595
S'high'
p3596
aS'high'
p3597
ag4
ag4
aS'big'
p3598
aS'low'
p3599
aS'unacc'
p3600
aa(lp3601
S'high'
p3602
aS'high'
p3603
ag4
ag4
aS'big'
p3604
aS'med'
p3605
aS'unacc'
p3606
aa(lp3607
S'high'
p3608
aS'high'
p3609
ag4
ag4
aS'big'
p3610
aS'high'
p3611
aS'unacc'
p3612
aa(lp3613
S'high'
p3614
aS'high'
p3615
ag4
ag59
aS'small'
p3616
aS'low'
p3617
aS'unacc'
p3618
aa(lp3619
S'high'
p3620
aS'high'
p3621
ag4
ag59
aS'small'
p3622
aS'med'
p3623
aS'unacc'
p3624
aa(lp3625
S'high'
p3626
aS'high'
p3627
ag4
ag59
aS'small'
p3628
aS'high'
p3629
aS'acc'
p3630
aa(lp3631
S'high'
p3632
aS'high'
p3633
ag4
ag59
aS'med'
p3634
aS'low'
p3635
aS'unacc'
p3636
aa(lp3637
S'high'
p3638
aS'high'
p3639
ag4
ag59
aS'med'
p3640
aS'med'
p3641
aS'unacc'
p3642
aa(lp3643
S'high'
p3644
aS'high'
p3645
ag4
ag59
aS'med'
p3646
aS'high'
p3647
aS'acc'
p3648
aa(lp3649
S'high'
p3650
aS'high'
p3651
ag4
ag59
aS'big'
p3652
aS'low'
p3653
aS'unacc'
p3654
aa(lp3655
S'high'
p3656
aS'high'
p3657
ag4
ag59
aS'big'
p3658
aS'med'
p3659
aS'acc'
p3660
aa(lp3661
S'high'
p3662
aS'high'
p3663
ag4
ag59
aS'big'
p3664
aS'high'
p3665
aS'acc'
p3666
aa(lp3667
S'high'
p3668
aS'high'
p3669
ag4
aS'more'
p3670
aS'small'
p3671
aS'low'
p3672
aS'unacc'
p3673
aa(lp3674
S'high'
p3675
aS'high'
p3676
ag4
aS'more'
p3677
aS'small'
p3678
aS'med'
p3679
aS'unacc'
p3680
aa(lp3681
S'high'
p3682
aS'high'
p3683
ag4
aS'more'
p3684
aS'med'
p3685
aS'high'
p3686
aS'acc'
p3687
aa(lp3688
S'high'
p3689
aS'high'
p3690
ag4
aS'more'
p3691
aS'big'
p3692
aS'med'
p3693
aS'acc'
p3694
aa(lp3695
S'high'
p3696
aS'high'
p3697
ag4
aS'more'
p3698
aS'big'
p3699
aS'high'
p3700
aS'acc'
p3701
aa(lp3702
S'high'
p3703
aS'high'
p3704
ag177
ag59
aS'small'
p3705
aS'high'
p3706
aS'acc'
p3707
aa(lp3708
S'high'
p3709
aS'high'
p3710
ag177
ag59
aS'med'
p3711
aS'high'
p3712
aS'acc'
p3713
aa(lp3714
S'high'
p3715
aS'high'
p3716
ag177
ag59
aS'big'
p3717
aS'med'
p3718
aS'acc'
p3719
aa(lp3720
S'high'
p3721
aS'high'
p3722
ag177
ag59
aS'big'
p3723
aS'high'
p3724
aS'acc'
p3725
aa(lp3726
S'high'
p3727
aS'high'
p3728
ag177
aS'more'
p3729
aS'small'
p3730
aS'high'
p3731
aS'acc'
p3732
aa(lp3733
S'high'
p3734
aS'high'
p3735
ag177
aS'more'
p3736
aS'med'
p3737
aS'med'
p3738
aS'acc'
p3739
aa(lp3740
S'high'
p3741
aS'high'
p3742
ag177
aS'more'
p3743
aS'med'
p3744
aS'high'
p3745
aS'acc'
p3746
aa(lp3747
S'high'
p3748
aS'high'
p3749
ag177
aS'more'
p3750
aS'big'
p3751
aS'med'
p3752
aS'acc'
p3753
aa(lp3754
S'high'
p3755
aS'high'
p3756
ag177
aS'more'
p3757
aS'big'
p3758
aS'high'
p3759
aS'acc'
p3760
aa(lp3761
S'high'
p3762
aS'high'
p3763
ag59
ag59
aS'small'
p3764
aS'high'
p3765
aS'acc'
p3766
aa(lp3767
S'high'
p3768
aS'high'
p3769
ag59
ag59
aS'med'
p3770
aS'med'
p3771
aS'acc'
p3772
aa(lp3773
S'high'
p3774
aS'high'
p3775
ag59
ag59
aS'med'
p3776
aS'high'
p3777
aS'acc'
p3778
aa(lp3779
S'high'
p3780
aS'high'
p3781
ag59
ag59
aS'big'
p3782
aS'med'
p3783
aS'acc'
p3784
aa(lp3785
S'high'
p3786
aS'high'
p3787
ag59
ag59
aS'big'
p3788
aS'high'
p3789
aS'acc'
p3790
aa(lp3791
S'high'
p3792
aS'high'
p3793
ag59
aS'more'
p3794
aS'small'
p3795
aS'high'
p3796
aS'acc'
p3797
aa(lp3798
S'high'
p3799
aS'high'
p3800
ag59
aS'more'
p3801
aS'med'
p3802
aS'med'
p3803
aS'acc'
p3804
aa(lp3805
S'high'
p3806
aS'high'
p3807
ag59
aS'more'
p3808
aS'med'
p3809
aS'high'
p3810
aS'acc'
p3811
aa(lp3812
S'high'
p3813
aS'high'
p3814
ag59
aS'more'
p3815
aS'big'
p3816
aS'med'
p3817
aS'acc'
p3818
aa(lp3819
S'high'
p3820
aS'high'
p3821
ag59
aS'more'
p3822
aS'big'
p3823
aS'high'
p3824
aS'acc'
p3825
aa(lp3826
S'high'
p3827
aS'high'
p3828
aS'5more'
p3829
ag59
aS'small'
p3830
aS'high'
p3831
aS'acc'
p3832
aa(lp3833
S'high'
p3834
aS'high'
p3835
aS'5more'
p3836
ag59
aS'med'
p3837
aS'med'
p3838
aS'acc'
p3839
aa(lp3840
S'high'
p3841
aS'high'
p3842
aS'5more'
p3843
ag59
aS'med'
p3844
aS'high'
p3845
aS'acc'
p3846
aa(lp3847
S'high'
p3848
aS'high'
p3849
aS'5more'
p3850
ag59
aS'big'
p3851
aS'med'
p3852
aS'acc'
p3853
aa(lp3854
S'high'
p3855
aS'high'
p3856
aS'5more'
p3857
ag59
aS'big'
p3858
aS'high'
p3859
aS'acc'
p3860
aa(lp3861
S'high'
p3862
aS'high'
p3863
aS'5more'
p3864
aS'more'
p3865
aS'small'
p3866
aS'high'
p3867
aS'acc'
p3868
aa(lp3869
S'high'
p3870
aS'high'
p3871
aS'5more'
p3872
aS'more'
p3873
aS'med'
p3874
aS'med'
p3875
aS'acc'
p3876
aa(lp3877
S'high'
p3878
aS'high'
p3879
aS'5more'
p3880
aS'more'
p3881
aS'med'
p3882
aS'high'
p3883
aS'acc'
p3884
aa(lp3885
S'high'
p3886
aS'high'
p3887
aS'5more'
p3888
aS'more'
p3889
aS'big'
p3890
aS'med'
p3891
aS'acc'
p3892
aa(lp3893
S'high'
p3894
aS'high'
p3895
aS'5more'
p3896
aS'more'
p3897
aS'big'
p3898
aS'high'
p3899
aS'acc'
p3900
aa(lp3901
S'high'
p3902
aS'med'
p3903
ag4
ag59
aS'small'
p3904
aS'high'
p3905
aS'acc'
p3906
aa(lp3907
S'high'
p3908
aS'med'
p3909
ag4
ag59
aS'med'
p3910
aS'high'
p3911
aS'acc'
p3912
aa(lp3913
S'high'
p3914
aS'med'
p3915
ag4
ag59
aS'big'
p3916
aS'med'
p3917
aS'acc'
p3918
aa(lp3919
S'high'
p3920
aS'med'
p3921
ag4
ag59
aS'big'
p3922
aS'high'
p3923
aS'acc'
p3924
aa(lp3925
S'high'
p3926
aS'med'
p3927
ag4
aS'more'
p3928
aS'med'
p3929
aS'high'
p3930
aS'acc'
p3931
aa(lp3932
S'high'
p3933
aS'med'
p3934
ag4
aS'more'
p3935
aS'big'
p3936
aS'med'
p3937
aS'acc'
p3938
aa(lp3939
S'high'
p3940
aS'med'
p3941
ag4
aS'more'
p3942
aS'big'
p3943
aS'high'
p3944
aS'acc'
p3945
aa(lp3946
S'high'
p3947
aS'med'
p3948
ag177
ag59
aS'small'
p3949
aS'high'
p3950
aS'acc'
p3951
aa(lp3952
S'high'
p3953
aS'med'
p3954
ag177
ag59
aS'med'
p3955
aS'high'
p3956
aS'acc'
p3957
aa(lp3958
S'high'
p3959
aS'med'
p3960
ag177
ag59
aS'big'
p3961
aS'med'
p3962
aS'acc'
p3963
aa(lp3964
S'high'
p3965
aS'med'
p3966
ag177
ag59
aS'big'
p3967
aS'high'
p3968
aS'acc'
p3969
aa(lp3970
S'high'
p3971
aS'med'
p3972
ag177
aS'more'
p3973
aS'small'
p3974
aS'high'
p3975
aS'acc'
p3976
aa(lp3977
S'high'
p3978
aS'med'
p3979
ag177
aS'more'
p3980
aS'med'
p3981
aS'med'
p3982
aS'acc'
p3983
aa(lp3984
S'high'
p3985
aS'med'
p3986
ag177
aS'more'
p3987
aS'med'
p3988
aS'high'
p3989
aS'acc'
p3990
aa(lp3991
S'high'
p3992
aS'med'
p3993
ag177
aS'more'
p3994
aS'big'
p3995
aS'med'
p3996
aS'acc'
p3997
aa(lp3998
S'high'
p3999
aS'med'
p4000
ag177
aS'more'
p4001
aS'big'
p4002
aS'high'
p4003
aS'acc'
p4004
aa(lp4005
S'high'
p4006
aS'med'
p4007
ag59
ag59
aS'small'
p4008
aS'high'
p4009
aS'acc'
p4010
aa(lp4011
S'high'
p4012
aS'med'
p4013
ag59
ag59
aS'med'
p4014
aS'med'
p4015
aS'acc'
p4016
aa(lp4017
S'high'
p4018
aS'med'
p4019
ag59
ag59
aS'med'
p4020
aS'high'
p4021
aS'acc'
p4022
aa(lp4023
S'high'
p4024
aS'med'
p4025
ag59
ag59
aS'big'
p4026
aS'med'
p4027
aS'acc'
p4028
aa(lp4029
S'high'
p4030
aS'med'
p4031
ag59
ag59
aS'big'
p4032
aS'high'
p4033
aS'acc'
p4034
aa(lp4035
S'high'
p4036
aS'med'
p4037
ag59
aS'more'
p4038
aS'small'
p4039
aS'high'
p4040
aS'acc'
p4041
aa(lp4042
S'high'
p4043
aS'med'
p4044
ag59
aS'more'
p4045
aS'med'
p4046
aS'med'
p4047
aS'acc'
p4048
aa(lp4049
S'high'
p4050
aS'med'
p4051
ag59
aS'more'
p4052
aS'med'
p4053
aS'high'
p4054
aS'acc'
p4055
aa(lp4056
S'high'
p4057
aS'med'
p4058
ag59
aS'more'
p4059
aS'big'
p4060
aS'med'
p4061
aS'acc'
p4062
aa(lp4063
S'high'
p4064
aS'med'
p4065
ag59
aS'more'
p4066
aS'big'
p4067
aS'high'
p4068
aS'acc'
p4069
aa(lp4070
S'high'
p4071
aS'med'
p4072
aS'5more'
p4073
ag59
aS'small'
p4074
aS'med'
p4075
aS'unacc'
p4076
aa(lp4077
S'high'
p4078
aS'med'
p4079
aS'5more'
p4080
ag59
aS'small'
p4081
aS'high'
p4082
aS'acc'
p4083
aa(lp4084
S'high'
p4085
aS'med'
p4086
aS'5more'
p4087
ag59
aS'med'
p4088
aS'low'
p4089
aS'unacc'
p4090
aa(lp4091
S'high'
p4092
aS'med'
p4093
aS'5more'
p4094
ag59
aS'med'
p4095
aS'med'
p4096
aS'acc'
p4097
aa(lp4098
S'high'
p4099
aS'med'
p4100
aS'5more'
p4101
ag59
aS'med'
p4102
aS'high'
p4103
aS'acc'
p4104
aa(lp4105
S'high'
p4106
aS'med'
p4107
aS'5more'
p4108
ag59
aS'big'
p4109
aS'low'
p4110
aS'unacc'
p4111
aa(lp4112
S'high'
p4113
aS'med'
p4114
aS'5more'
p4115
ag59
aS'big'
p4116
aS'med'
p4117
aS'acc'
p4118
aa(lp4119
S'high'
p4120
aS'med'
p4121
aS'5more'
p4122
ag59
aS'big'
p4123
aS'high'
p4124
aS'acc'
p4125
aa(lp4126
S'high'
p4127
aS'med'
p4128
aS'5more'
p4129
aS'more'
p4130
aS'small'
p4131
aS'low'
p4132
aS'unacc'
p4133
aa(lp4134
S'high'
p4135
aS'med'
p4136
aS'5more'
p4137
aS'more'
p4138
aS'small'
p4139
aS'med'
p4140
aS'unacc'
p4141
aa(lp4142
S'high'
p4143
aS'med'
p4144
aS'5more'
p4145
aS'more'
p4146
aS'small'
p4147
aS'high'
p4148
aS'acc'
p4149
aa(lp4150
S'high'
p4151
aS'med'
p4152
aS'5more'
p4153
aS'more'
p4154
aS'med'
p4155
aS'low'
p4156
aS'unacc'
p4157
aa(lp4158
S'high'
p4159
aS'med'
p4160
aS'5more'
p4161
aS'more'
p4162
aS'med'
p4163
aS'med'
p4164
aS'acc'
p4165
aa(lp4166
S'high'
p4167
aS'med'
p4168
aS'5more'
p4169
aS'more'
p4170
aS'med'
p4171
aS'high'
p4172
aS'acc'
p4173
aa(lp4174
S'high'
p4175
aS'med'
p4176
aS'5more'
p4177
aS'more'
p4178
aS'big'
p4179
aS'low'
p4180
aS'unacc'
p4181
aa(lp4182
S'high'
p4183
aS'med'
p4184
aS'5more'
p4185
aS'more'
p4186
aS'big'
p4187
aS'med'
p4188
aS'acc'
p4189
aa(lp4190
S'high'
p4191
aS'med'
p4192
aS'5more'
p4193
aS'more'
p4194
aS'big'
p4195
aS'high'
p4196
aS'acc'
p4197
aa(lp4198
S'high'
p4199
aS'low'
p4200
ag4
ag4
aS'small'
p4201
aS'low'
p4202
aS'unacc'
p4203
aa(lp4204
S'high'
p4205
aS'low'
p4206
ag4
ag4
aS'small'
p4207
aS'med'
p4208
aS'unacc'
p4209
aa(lp4210
S'high'
p4211
aS'low'
p4212
ag4
ag4
aS'small'
p4213
aS'high'
p4214
aS'unacc'
p4215
aa(lp4216
S'high'
p4217
aS'low'
p4218
ag4
ag4
aS'med'
p4219
aS'low'
p4220
aS'unacc'
p4221
aa(lp4222
S'high'
p4223
aS'low'
p4224
ag4
ag4
aS'med'
p4225
aS'med'
p4226
aS'unacc'
p4227
aa(lp4228
S'high'
p4229
aS'low'
p4230
ag4
ag4
aS'med'
p4231
aS'high'
p4232
aS'unacc'
p4233
aa(lp4234
S'high'
p4235
aS'low'
p4236
ag4
ag4
aS'big'
p4237
aS'low'
p4238
aS'unacc'
p4239
aa(lp4240
S'high'
p4241
aS'low'
p4242
ag4
ag4
aS'big'
p4243
aS'med'
p4244
aS'unacc'
p4245
aa(lp4246
S'high'
p4247
aS'low'
p4248
ag4
ag4
aS'big'
p4249
aS'high'
p4250
aS'unacc'
p4251
aa(lp4252
S'high'
p4253
aS'low'
p4254
ag4
ag59
aS'small'
p4255
aS'low'
p4256
aS'unacc'
p4257
aa(lp4258
S'high'
p4259
aS'low'
p4260
ag4
ag59
aS'small'
p4261
aS'med'
p4262
aS'unacc'
p4263
aa(lp4264
S'high'
p4265
aS'low'
p4266
ag4
ag59
aS'small'
p4267
aS'high'
p4268
aS'acc'
p4269
aa(lp4270
S'high'
p4271
aS'low'
p4272
ag4
ag59
aS'med'
p4273
aS'low'
p4274
aS'unacc'
p4275
aa(lp4276
S'high'
p4277
aS'low'
p4278
ag4
ag59
aS'med'
p4279
aS'med'
p4280
aS'unacc'
p4281
aa(lp4282
S'high'
p4283
aS'low'
p4284
ag4
ag59
aS'med'
p4285
aS'high'
p4286
aS'acc'
p4287
aa(lp4288
S'high'
p4289
aS'low'
p4290
ag4
ag59
aS'big'
p4291
aS'low'
p4292
aS'unacc'
p4293
aa(lp4294
S'high'
p4295
aS'low'
p4296
ag4
ag59
aS'big'
p4297
aS'med'
p4298
aS'acc'
p4299
aa(lp4300
S'high'
p4301
aS'low'
p4302
ag4
ag59
aS'big'
p4303
aS'high'
p4304
aS'acc'
p4305
aa(lp4306
S'high'
p4307
aS'low'
p4308
ag4
aS'more'
p4309
aS'small'
p4310
aS'low'
p4311
aS'unacc'
p4312
aa(lp4313
S'high'
p4314
aS'low'
p4315
ag4
aS'more'
p4316
aS'small'
p4317
aS'med'
p4318
aS'unacc'
p4319
aa(lp4320
S'high'
p4321
aS'low'
p4322
ag4
aS'more'
p4323
aS'small'
p4324
aS'high'
p4325
aS'unacc'
p4326
aa(lp4327
S'high'
p4328
aS'low'
p4329
ag4
aS'more'
p4330
aS'med'
p4331
aS'low'
p4332
aS'unacc'
p4333
aa(lp4334
S'high'
p4335
aS'low'
p4336
ag4
aS'more'
p4337
aS'med'
p4338
aS'med'
p4339
aS'unacc'
p4340
aa(lp4341
S'high'
p4342
aS'low'
p4343
ag4
aS'more'
p4344
aS'med'
p4345
aS'high'
p4346
aS'acc'
p4347
aa(lp4348
S'high'
p4349
aS'low'
p4350
ag4
aS'more'
p4351
aS'big'
p4352
aS'low'
p4353
aS'unacc'
p4354
aa(lp4355
S'high'
p4356
aS'low'
p4357
ag4
aS'more'
p4358
aS'big'
p4359
aS'med'
p4360
aS'acc'
p4361
aa(lp4362
S'high'
p4363
aS'low'
p4364
ag4
aS'more'
p4365
aS'big'
p4366
aS'high'
p4367
aS'acc'
p4368
aa(lp4369
S'high'
p4370
aS'low'
p4371
ag177
ag4
aS'small'
p4372
aS'low'
p4373
aS'unacc'
p4374
aa(lp4375
S'high'
p4376
aS'low'
p4377
ag177
ag4
aS'small'
p4378
aS'med'
p4379
aS'unacc'
p4380
aa(lp4381
S'high'
p4382
aS'low'
p4383
ag177
ag4
aS'small'
p4384
aS'high'
p4385
aS'unacc'
p4386
aa(lp4387
S'high'
p4388
aS'low'
p4389
ag177
ag4
aS'med'
p4390
aS'low'
p4391
aS'unacc'
p4392
aa(lp4393
S'high'
p4394
aS'low'
p4395
ag177
ag4
aS'med'
p4396
aS'med'
p4397
aS'unacc'
p4398
aa(lp4399
S'high'
p4400
aS'low'
p4401
ag177
ag4
aS'med'
p4402
aS'high'
p4403
aS'unacc'
p4404
aa(lp4405
S'high'
p4406
aS'low'
p4407
ag177
ag4
aS'big'
p4408
aS'low'
p4409
aS'unacc'
p4410
aa(lp4411
S'high'
p4412
aS'low'
p4413
ag177
ag4
aS'big'
p4414
aS'med'
p4415
aS'unacc'
p4416
aa(lp4417
S'high'
p4418
aS'low'
p4419
ag177
ag4
aS'big'
p4420
aS'high'
p4421
aS'unacc'
p4422
aa(lp4423
S'high'
p4424
aS'low'
p4425
ag177
ag59
aS'small'
p4426
aS'low'
p4427
aS'unacc'
p4428
aa(lp4429
S'high'
p4430
aS'low'
p4431
ag177
ag59
aS'small'
p4432
aS'med'
p4433
aS'unacc'
p4434
aa(lp4435
S'high'
p4436
aS'low'
p4437
ag177
ag59
aS'small'
p4438
aS'high'
p4439
aS'acc'
p4440
aa(lp4441
S'high'
p4442
aS'low'
p4443
ag177
ag59
aS'med'
p4444
aS'low'
p4445
aS'unacc'
p4446
aa(lp4447
S'high'
p4448
aS'low'
p4449
ag177
ag59
aS'med'
p4450
aS'med'
p4451
aS'unacc'
p4452
aa(lp4453
S'high'
p4454
aS'low'
p4455
ag177
ag59
aS'med'
p4456
aS'high'
p4457
aS'acc'
p4458
aa(lp4459
S'high'
p4460
aS'low'
p4461
ag177
ag59
aS'big'
p4462
aS'low'
p4463
aS'unacc'
p4464
aa(lp4465
S'high'
p4466
aS'low'
p4467
ag177
ag59
aS'big'
p4468
aS'med'
p4469
aS'acc'
p4470
aa(lp4471
S'high'
p4472
aS'low'
p4473
ag177
ag59
aS'big'
p4474
aS'high'
p4475
aS'acc'
p4476
aa(lp4477
S'high'
p4478
aS'low'
p4479
ag177
aS'more'
p4480
aS'small'
p4481
aS'low'
p4482
aS'unacc'
p4483
aa(lp4484
S'high'
p4485
aS'low'
p4486
ag177
aS'more'
p4487
aS'small'
p4488
aS'med'
p4489
aS'unacc'
p4490
aa(lp4491
S'high'
p4492
aS'low'
p4493
ag177
aS'more'
p4494
aS'small'
p4495
aS'high'
p4496
aS'acc'
p4497
aa(lp4498
S'high'
p4499
aS'low'
p4500
ag177
aS'more'
p4501
aS'med'
p4502
aS'low'
p4503
aS'unacc'
p4504
aa(lp4505
S'high'
p4506
aS'low'
p4507
ag177
aS'more'
p4508
aS'big'
p4509
aS'low'
p4510
aS'unacc'
p4511
aa(lp4512
S'high'
p4513
aS'low'
p4514
ag59
ag4
aS'small'
p4515
aS'low'
p4516
aS'unacc'
p4517
aa(lp4518
S'high'
p4519
aS'low'
p4520
ag59
ag4
aS'small'
p4521
aS'med'
p4522
aS'unacc'
p4523
aa(lp4524
S'high'
p4525
aS'low'
p4526
ag59
ag4
aS'small'
p4527
aS'high'
p4528
aS'unacc'
p4529
aa(lp4530
S'high'
p4531
aS'low'
p4532
ag59
ag4
aS'med'
p4533
aS'low'
p4534
aS'unacc'
p4535
aa(lp4536
S'high'
p4537
aS'low'
p4538
ag59
ag4
aS'med'
p4539
aS'med'
p4540
aS'unacc'
p4541
aa(lp4542
S'high'
p4543
aS'low'
p4544
ag59
ag4
aS'med'
p4545
aS'high'
p4546
aS'unacc'
p4547
aa(lp4548
S'high'
p4549
aS'low'
p4550
ag59
ag4
aS'big'
p4551
aS'low'
p4552
aS'unacc'
p4553
aa(lp4554
S'high'
p4555
aS'low'
p4556
ag59
ag4
aS'big'
p4557
aS'med'
p4558
aS'unacc'
p4559
aa(lp4560
S'high'
p4561
aS'low'
p4562
ag59
ag4
aS'big'
p4563
aS'high'
p4564
aS'unacc'
p4565
aa(lp4566
S'high'
p4567
aS'low'
p4568
ag59
ag59
aS'small'
p4569
aS'low'
p4570
aS'unacc'
p4571
aa(lp4572
S'high'
p4573
aS'low'
p4574
ag59
ag59
aS'small'
p4575
aS'med'
p4576
aS'unacc'
p4577
aa(lp4578
S'high'
p4579
aS'low'
p4580
ag59
ag59
aS'med'
p4581
aS'low'
p4582
aS'unacc'
p4583
aa(lp4584
S'high'
p4585
aS'low'
p4586
ag59
ag59
aS'big'
p4587
aS'low'
p4588
aS'unacc'
p4589
aa(lp4590
S'high'
p4591
aS'low'
p4592
ag59
aS'more'
p4593
aS'small'
p4594
aS'low'
p4595
aS'unacc'
p4596
aa(lp4597
S'high'
p4598
aS'low'
p4599
ag59
aS'more'
p4600
aS'small'
p4601
aS'med'
p4602
aS'unacc'
p4603
aa(lp4604
S'high'
p4605
aS'low'
p4606
ag59
aS'more'
p4607
aS'med'
p4608
aS'low'
p4609
aS'unacc'
p4610
aa(lp4611
S'high'
p4612
aS'low'
p4613
ag59
aS'more'
p4614
aS'big'
p4615
aS'low'
p4616
aS'unacc'
p4617
aa(lp4618
S'high'
p4619
aS'low'
p4620
aS'5more'
p4621
ag4
aS'small'
p4622
aS'low'
p4623
aS'unacc'
p4624
aa(lp4625
S'high'
p4626
aS'low'
p4627
aS'5more'
p4628
ag4
aS'small'
p4629
aS'med'
p4630
aS'unacc'
p4631
aa(lp4632
S'high'
p4633
aS'low'
p4634
aS'5more'
p4635
ag4
aS'small'
p4636
aS'high'
p4637
aS'unacc'
p4638
aa(lp4639
S'high'
p4640
aS'low'
p4641
aS'5more'
p4642
ag4
aS'med'
p4643
aS'low'
p4644
aS'unacc'
p4645
aa(lp4646
S'high'
p4647
aS'low'
p4648
aS'5more'
p4649
ag4
aS'med'
p4650
aS'med'
p4651
aS'unacc'
p4652
aa(lp4653
S'high'
p4654
aS'low'
p4655
aS'5more'
p4656
ag4
aS'med'
p4657
aS'high'
p4658
aS'unacc'
p4659
aa(lp4660
S'high'
p4661
aS'low'
p4662
aS'5more'
p4663
ag4
aS'big'
p4664
aS'low'
p4665
aS'unacc'
p4666
aa(lp4667
S'high'
p4668
aS'low'
p4669
aS'5more'
p4670
ag4
aS'big'
p4671
aS'med'
p4672
aS'unacc'
p4673
aa(lp4674
S'high'
p4675
aS'low'
p4676
aS'5more'
p4677
ag4
aS'big'
p4678
aS'high'
p4679
aS'unacc'
p4680
aa(lp4681
S'high'
p4682
aS'low'
p4683
aS'5more'
p4684
ag59
aS'small'
p4685
aS'low'
p4686
aS'unacc'
p4687
aa(lp4688
S'high'
p4689
aS'low'
p4690
aS'5more'
p4691
ag59
aS'small'
p4692
aS'med'
p4693
aS'unacc'
p4694
aa(lp4695
S'high'
p4696
aS'low'
p4697
aS'5more'
p4698
ag59
aS'med'
p4699
aS'low'
p4700
aS'unacc'
p4701
aa(lp4702
S'high'
p4703
aS'low'
p4704
aS'5more'
p4705
ag59
aS'big'
p4706
aS'low'
p4707
aS'unacc'
p4708
aa(lp4709
S'high'
p4710
aS'low'
p4711
aS'5more'
p4712
aS'more'
p4713
aS'small'
p4714
aS'low'
p4715
aS'unacc'
p4716
aa(lp4717
S'high'
p4718
aS'low'
p4719
aS'5more'
p4720
aS'more'
p4721
aS'small'
p4722
aS'med'
p4723
aS'unacc'
p4724
aa(lp4725
S'high'
p4726
aS'low'
p4727
aS'5more'
p4728
aS'more'
p4729
aS'med'
p4730
aS'low'
p4731
aS'unacc'
p4732
aa(lp4733
S'high'
p4734
aS'low'
p4735
aS'5more'
p4736
aS'more'
p4737
aS'big'
p4738
aS'low'
p4739
aS'unacc'
p4740
aa(lp4741
S'med'
p4742
aS'vhigh'
p4743
ag4
ag4
aS'small'
p4744
aS'low'
p4745
aS'unacc'
p4746
aa(lp4747
S'med'
p4748
aS'vhigh'
p4749
ag4
ag4
aS'small'
p4750
aS'med'
p4751
aS'unacc'
p4752
aa(lp4753
S'med'
p4754
aS'vhigh'
p4755
ag4
ag4
aS'small'
p4756
aS'high'
p4757
aS'unacc'
p4758
aa(lp4759
S'med'
p4760
aS'vhigh'
p4761
ag4
ag4
aS'med'
p4762
aS'low'
p4763
aS'unacc'
p4764
aa(lp4765
S'med'
p4766
aS'vhigh'
p4767
ag4
ag4
aS'med'
p4768
aS'med'
p4769
aS'unacc'
p4770
aa(lp4771
S'med'
p4772
aS'vhigh'
p4773
ag4
ag4
aS'med'
p4774
aS'high'
p4775
aS'unacc'
p4776
aa(lp4777
S'med'
p4778
aS'vhigh'
p4779
ag4
ag4
aS'big'
p4780
aS'low'
p4781
aS'unacc'
p4782
aa(lp4783
S'med'
p4784
aS'vhigh'
p4785
ag4
ag4
aS'big'
p4786
aS'med'
p4787
aS'unacc'
p4788
aa(lp4789
S'med'
p4790
aS'vhigh'
p4791
ag4
ag4
aS'big'
p4792
aS'high'
p4793
aS'unacc'
p4794
aa(lp4795
S'med'
p4796
aS'vhigh'
p4797
ag4
ag59
aS'small'
p4798
aS'low'
p4799
aS'unacc'
p4800
aa(lp4801
S'med'
p4802
aS'vhigh'
p4803
ag4
ag59
aS'small'
p4804
aS'med'
p4805
aS'unacc'
p4806
aa(lp4807
S'med'
p4808
aS'vhigh'
p4809
ag4
ag59
aS'med'
p4810
aS'low'
p4811
aS'unacc'
p4812
aa(lp4813
S'med'
p4814
aS'vhigh'
p4815
ag4
ag59
aS'med'
p4816
aS'med'
p4817
aS'unacc'
p4818
aa(lp4819
S'med'
p4820
aS'vhigh'
p4821
ag4
ag59
aS'big'
p4822
aS'low'
p4823
aS'unacc'
p4824
aa(lp4825
S'med'
p4826
aS'vhigh'
p4827
ag4
aS'more'
p4828
aS'small'
p4829
aS'low'
p4830
aS'unacc'
p4831
aa(lp4832
S'med'
p4833
aS'vhigh'
p4834
ag4
aS'more'
p4835
aS'small'
p4836
aS'med'
p4837
aS'unacc'
p4838
aa(lp4839
S'med'
p4840
aS'vhigh'
p4841
ag4
aS'more'
p4842
aS'small'
p4843
aS'high'
p4844
aS'unacc'
p4845
aa(lp4846
S'med'
p4847
aS'vhigh'
p4848
ag4
aS'more'
p4849
aS'med'
p4850
aS'low'
p4851
aS'unacc'
p4852
aa(lp4853
S'med'
p4854
aS'vhigh'
p4855
ag4
aS'more'
p4856
aS'med'
p4857
aS'med'
p4858
aS'unacc'
p4859
aa(lp4860
S'med'
p4861
aS'vhigh'
p4862
ag4
aS'more'
p4863
aS'big'
p4864
aS'low'
p4865
aS'unacc'
p4866
aa(lp4867
S'med'
p4868
aS'vhigh'
p4869
ag177
ag4
aS'small'
p4870
aS'low'
p4871
aS'unacc'
p4872
aa(lp4873
S'med'
p4874
aS'vhigh'
p4875
ag177
ag4
aS'small'
p4876
aS'med'
p4877
aS'unacc'
p4878
aa(lp4879
S'med'
p4880
aS'vhigh'
p4881
ag177
ag4
aS'small'
p4882
aS'high'
p4883
aS'unacc'
p4884
aa(lp4885
S'med'
p4886
aS'vhigh'
p4887
ag177
ag4
aS'med'
p4888
aS'low'
p4889
aS'unacc'
p4890
aa(lp4891
S'med'
p4892
aS'vhigh'
p4893
ag177
ag4
aS'med'
p4894
aS'med'
p4895
aS'unacc'
p4896
aa(lp4897
S'med'
p4898
aS'vhigh'
p4899
ag177
ag4
aS'med'
p4900
aS'high'
p4901
aS'unacc'
p4902
aa(lp4903
S'med'
p4904
aS'vhigh'
p4905
ag177
ag4
aS'big'
p4906
aS'low'
p4907
aS'unacc'
p4908
aa(lp4909
S'med'
p4910
aS'vhigh'
p4911
ag177
ag4
aS'big'
p4912
aS'med'
p4913
aS'unacc'
p4914
aa(lp4915
S'med'
p4916
aS'vhigh'
p4917
ag177
ag4
aS'big'
p4918
aS'high'
p4919
aS'unacc'
p4920
aa(lp4921
S'med'
p4922
aS'vhigh'
p4923
ag177
ag59
aS'small'
p4924
aS'low'
p4925
aS'unacc'
p4926
aa(lp4927
S'med'
p4928
aS'vhigh'
p4929
ag177
ag59
aS'small'
p4930
aS'med'
p4931
aS'unacc'
p4932
aa(lp4933
S'med'
p4934
aS'vhigh'
p4935
ag177
ag59
aS'med'
p4936
aS'low'
p4937
aS'unacc'
p4938
aa(lp4939
S'med'
p4940
aS'vhigh'
p4941
ag177
ag59
aS'med'
p4942
aS'med'
p4943
aS'unacc'
p4944
aa(lp4945
S'med'
p4946
aS'vhigh'
p4947
ag177
ag59
aS'big'
p4948
aS'low'
p4949
aS'unacc'
p4950
aa(lp4951
S'med'
p4952
aS'vhigh'
p4953
ag177
aS'more'
p4954
aS'small'
p4955
aS'low'
p4956
aS'unacc'
p4957
aa(lp4958
S'med'
p4959
aS'vhigh'
p4960
ag177
aS'more'
p4961
aS'small'
p4962
aS'med'
p4963
aS'unacc'
p4964
aa(lp4965
S'med'
p4966
aS'vhigh'
p4967
ag177
aS'more'
p4968
aS'med'
p4969
aS'low'
p4970
aS'unacc'
p4971
aa(lp4972
S'med'
p4973
aS'vhigh'
p4974
ag177
aS'more'
p4975
aS'big'
p4976
aS'low'
p4977
aS'unacc'
p4978
aa(lp4979
S'med'
p4980
aS'vhigh'
p4981
ag177
aS'more'
p4982
aS'big'
p4983
aS'med'
p4984
aS'acc'
p4985
aa(lp4986
S'med'
p4987
aS'vhigh'
p4988
ag177
aS'more'
p4989
aS'big'
p4990
aS'high'
p4991
aS'acc'
p4992
aa(lp4993
S'med'
p4994
aS'vhigh'
p4995
ag59
ag4
aS'small'
p4996
aS'low'
p4997
aS'unacc'
p4998
aa(lp4999
S'med'
p5000
aS'vhigh'
p5001
ag59
ag4
aS'small'
p5002
aS'med'
p5003
aS'unacc'
p5004
aa(lp5005
S'med'
p5006
aS'vhigh'
p5007
ag59
ag4
aS'small'
p5008
aS'high'
p5009
aS'unacc'
p5010
aa(lp5011
S'med'
p5012
aS'vhigh'
p5013
ag59
ag4
aS'med'
p5014
aS'low'
p5015
aS'unacc'
p5016
aa(lp5017
S'med'
p5018
aS'vhigh'
p5019
ag59
ag4
aS'med'
p5020
aS'med'
p5021
aS'unacc'
p5022
aa(lp5023
S'med'
p5024
aS'vhigh'
p5025
ag59
ag4
aS'med'
p5026
aS'high'
p5027
aS'unacc'
p5028
aa(lp5029
S'med'
p5030
aS'vhigh'
p5031
ag59
ag4
aS'big'
p5032
aS'low'
p5033
aS'unacc'
p5034
aa(lp5035
S'med'
p5036
aS'vhigh'
p5037
ag59
ag4
aS'big'
p5038
aS'med'
p5039
aS'unacc'
p5040
aa(lp5041
S'med'
p5042
aS'vhigh'
p5043
ag59
ag4
aS'big'
p5044
aS'high'
p5045
aS'unacc'
p5046
aa(lp5047
S'med'
p5048
aS'vhigh'
p5049
ag59
ag59
aS'small'
p5050
aS'low'
p5051
aS'unacc'
p5052
aa(lp5053
S'med'
p5054
aS'vhigh'
p5055
ag59
ag59
aS'small'
p5056
aS'med'
p5057
aS'unacc'
p5058
aa(lp5059
S'med'
p5060
aS'vhigh'
p5061
ag59
ag59
aS'small'
p5062
aS'high'
p5063
aS'acc'
p5064
aa(lp5065
S'med'
p5066
aS'vhigh'
p5067
ag59
ag59
aS'med'
p5068
aS'low'
p5069
aS'unacc'
p5070
aa(lp5071
S'med'
p5072
aS'vhigh'
p5073
ag59
ag59
aS'med'
p5074
aS'med'
p5075
aS'acc'
p5076
aa(lp5077
S'med'
p5078
aS'vhigh'
p5079
ag59
ag59
aS'med'
p5080
aS'high'
p5081
aS'acc'
p5082
aa(lp5083
S'med'
p5084
aS'vhigh'
p5085
ag59
ag59
aS'big'
p5086
aS'low'
p5087
aS'unacc'
p5088
aa(lp5089
S'med'
p5090
aS'vhigh'
p5091
ag59
ag59
aS'big'
p5092
aS'med'
p5093
aS'acc'
p5094
aa(lp5095
S'med'
p5096
aS'vhigh'
p5097
ag59
ag59
aS'big'
p5098
aS'high'
p5099
aS'acc'
p5100
aa(lp5101
S'med'
p5102
aS'vhigh'
p5103
ag59
aS'more'
p5104
aS'small'
p5105
aS'low'
p5106
aS'unacc'
p5107
aa(lp5108
S'med'
p5109
aS'vhigh'
p5110
ag59
aS'more'
p5111
aS'small'
p5112
aS'med'
p5113
aS'unacc'
p5114
aa(lp5115
S'med'
p5116
aS'vhigh'
p5117
ag59
aS'more'
p5118
aS'small'
p5119
aS'high'
p5120
aS'acc'
p5121
aa(lp5122
S'med'
p5123
aS'vhigh'
p5124
ag59
aS'more'
p5125
aS'med'
p5126
aS'low'
p5127
aS'unacc'
p5128
aa(lp5129
S'med'
p5130
aS'vhigh'
p5131
ag59
aS'more'
p5132
aS'med'
p5133
aS'med'
p5134
aS'acc'
p5135
aa(lp5136
S'med'
p5137
aS'vhigh'
p5138
ag59
aS'more'
p5139
aS'med'
p5140
aS'high'
p5141
aS'acc'
p5142
aa(lp5143
S'med'
p5144
aS'vhigh'
p5145
ag59
aS'more'
p5146
aS'big'
p5147
aS'low'
p5148
aS'unacc'
p5149
aa(lp5150
S'med'
p5151
aS'vhigh'
p5152
ag59
aS'more'
p5153
aS'big'
p5154
aS'med'
p5155
aS'acc'
p5156
aa(lp5157
S'med'
p5158
aS'vhigh'
p5159
ag59
aS'more'
p5160
aS'big'
p5161
aS'high'
p5162
aS'acc'
p5163
aa(lp5164
S'med'
p5165
aS'vhigh'
p5166
aS'5more'
p5167
ag4
aS'small'
p5168
aS'low'
p5169
aS'unacc'
p5170
aa(lp5171
S'med'
p5172
aS'vhigh'
p5173
aS'5more'
p5174
ag4
aS'small'
p5175
aS'med'
p5176
aS'unacc'
p5177
aa(lp5178
S'med'
p5179
aS'vhigh'
p5180
aS'5more'
p5181
ag4
aS'small'
p5182
aS'high'
p5183
aS'unacc'
p5184
aa(lp5185
S'med'
p5186
aS'vhigh'
p5187
aS'5more'
p5188
ag4
aS'med'
p5189
aS'low'
p5190
aS'unacc'
p5191
aa(lp5192
S'med'
p5193
aS'vhigh'
p5194
aS'5more'
p5195
ag4
aS'med'
p5196
aS'med'
p5197
aS'unacc'
p5198
aa(lp5199
S'med'
p5200
aS'vhigh'
p5201
aS'5more'
p5202
ag4
aS'med'
p5203
aS'high'
p5204
aS'unacc'
p5205
aa(lp5206
S'med'
p5207
aS'vhigh'
p5208
aS'5more'
p5209
ag4
aS'big'
p5210
aS'low'
p5211
aS'unacc'
p5212
aa(lp5213
S'med'
p5214
aS'vhigh'
p5215
aS'5more'
p5216
ag4
aS'big'
p5217
aS'med'
p5218
aS'unacc'
p5219
aa(lp5220
S'med'
p5221
aS'vhigh'
p5222
aS'5more'
p5223
ag4
aS'big'
p5224
aS'high'
p5225
aS'unacc'
p5226
aa(lp5227
S'med'
p5228
aS'vhigh'
p5229
aS'5more'
p5230
ag59
aS'small'
p5231
aS'low'
p5232
aS'unacc'
p5233
aa(lp5234
S'med'
p5235
aS'vhigh'
p5236
aS'5more'
p5237
ag59
aS'small'
p5238
aS'med'
p5239
aS'unacc'
p5240
aa(lp5241
S'med'
p5242
aS'vhigh'
p5243
aS'5more'
p5244
ag59
aS'small'
p5245
aS'high'
p5246
aS'acc'
p5247
aa(lp5248
S'med'
p5249
aS'vhigh'
p5250
aS'5more'
p5251
ag59
aS'med'
p5252
aS'low'
p5253
aS'unacc'
p5254
aa(lp5255
S'med'
p5256
aS'vhigh'
p5257
aS'5more'
p5258
ag59
aS'med'
p5259
aS'med'
p5260
aS'acc'
p5261
aa(lp5262
S'med'
p5263
aS'vhigh'
p5264
aS'5more'
p5265
ag59
aS'med'
p5266
aS'high'
p5267
aS'acc'
p5268
aa(lp5269
S'med'
p5270
aS'vhigh'
p5271
aS'5more'
p5272
ag59
aS'big'
p5273
aS'low'
p5274
aS'unacc'
p5275
aa(lp5276
S'med'
p5277
aS'vhigh'
p5278
aS'5more'
p5279
ag59
aS'big'
p5280
aS'med'
p5281
aS'acc'
p5282
aa(lp5283
S'med'
p5284
aS'vhigh'
p5285
aS'5more'
p5286
ag59
aS'big'
p5287
aS'high'
p5288
aS'acc'
p5289
aa(lp5290
S'med'
p5291
aS'vhigh'
p5292
aS'5more'
p5293
aS'more'
p5294
aS'small'
p5295
aS'low'
p5296
aS'unacc'
p5297
aa(lp5298
S'med'
p5299
aS'vhigh'
p5300
aS'5more'
p5301
aS'more'
p5302
aS'small'
p5303
aS'med'
p5304
aS'unacc'
p5305
aa(lp5306
S'med'
p5307
aS'vhigh'
p5308
aS'5more'
p5309
aS'more'
p5310
aS'small'
p5311
aS'high'
p5312
aS'acc'
p5313
aa(lp5314
S'med'
p5315
aS'vhigh'
p5316
aS'5more'
p5317
aS'more'
p5318
aS'med'
p5319
aS'low'
p5320
aS'unacc'
p5321
aa(lp5322
S'med'
p5323
aS'vhigh'
p5324
aS'5more'
p5325
aS'more'
p5326
aS'med'
p5327
aS'med'
p5328
aS'acc'
p5329
aa(lp5330
S'med'
p5331
aS'vhigh'
p5332
aS'5more'
p5333
aS'more'
p5334
aS'med'
p5335
aS'high'
p5336
aS'acc'
p5337
aa(lp5338
S'med'
p5339
aS'vhigh'
p5340
aS'5more'
p5341
aS'more'
p5342
aS'big'
p5343
aS'low'
p5344
aS'unacc'
p5345
aa(lp5346
S'med'
p5347
aS'vhigh'
p5348
aS'5more'
p5349
aS'more'
p5350
aS'big'
p5351
aS'med'
p5352
aS'acc'
p5353
aa(lp5354
S'med'
p5355
aS'vhigh'
p5356
aS'5more'
p5357
aS'more'
p5358
aS'big'
p5359
aS'high'
p5360
aS'acc'
p5361
aa(lp5362
S'med'
p5363
aS'high'
p5364
ag4
ag4
aS'small'
p5365
aS'low'
p5366
aS'unacc'
p5367
aa(lp5368
S'med'
p5369
aS'high'
p5370
ag4
ag4
aS'small'
p5371
aS'med'
p5372
aS'unacc'
p5373
aa(lp5374
S'med'
p5375
aS'high'
p5376
ag4
ag4
aS'small'
p5377
aS'high'
p5378
aS'unacc'
p5379
aa(lp5380
S'med'
p5381
aS'high'
p5382
ag4
ag4
aS'med'
p5383
aS'low'
p5384
aS'unacc'
p5385
aa(lp5386
S'med'
p5387
aS'high'
p5388
ag4
ag4
aS'med'
p5389
aS'med'
p5390
aS'unacc'
p5391
aa(lp5392
S'med'
p5393
aS'high'
p5394
ag4
ag4
aS'med'
p5395
aS'high'
p5396
aS'unacc'
p5397
aa(lp5398
S'med'
p5399
aS'high'
p5400
ag4
ag4
aS'big'
p5401
aS'low'
p5402
aS'unacc'
p5403
aa(lp5404
S'med'
p5405
aS'high'
p5406
ag4
ag4
aS'big'
p5407
aS'med'
p5408
aS'unacc'
p5409
aa(lp5410
S'med'
p5411
aS'high'
p5412
ag4
ag4
aS'big'
p5413
aS'high'
p5414
aS'unacc'
p5415
aa(lp5416
S'med'
p5417
aS'high'
p5418
ag4
ag59
aS'small'
p5419
aS'low'
p5420
aS'unacc'
p5421
aa(lp5422
S'med'
p5423
aS'high'
p5424
ag4
ag59
aS'small'
p5425
aS'med'
p5426
aS'unacc'
p5427
aa(lp5428
S'med'
p5429
aS'high'
p5430
ag4
ag59
aS'small'
p5431
aS'high'
p5432
aS'acc'
p5433
aa(lp5434
S'med'
p5435
aS'high'
p5436
ag4
ag59
aS'med'
p5437
aS'low'
p5438
aS'unacc'
p5439
aa(lp5440
S'med'
p5441
aS'high'
p5442
ag4
ag59
aS'med'
p5443
aS'med'
p5444
aS'unacc'
p5445
aa(lp5446
S'med'
p5447
aS'high'
p5448
ag4
ag59
aS'med'
p5449
aS'high'
p5450
aS'acc'
p5451
aa(lp5452
S'med'
p5453
aS'high'
p5454
ag4
ag59
aS'big'
p5455
aS'low'
p5456
aS'unacc'
p5457
aa(lp5458
S'med'
p5459
aS'high'
p5460
ag4
ag59
aS'big'
p5461
aS'med'
p5462
aS'acc'
p5463
aa(lp5464
S'med'
p5465
aS'high'
p5466
ag4
ag59
aS'big'
p5467
aS'high'
p5468
aS'acc'
p5469
aa(lp5470
S'med'
p5471
aS'high'
p5472
ag4
aS'more'
p5473
aS'small'
p5474
aS'low'
p5475
aS'unacc'
p5476
aa(lp5477
S'med'
p5478
aS'high'
p5479
ag4
aS'more'
p5480
aS'small'
p5481
aS'med'
p5482
aS'unacc'
p5483
aa(lp5484
S'med'
p5485
aS'high'
p5486
ag4
aS'more'
p5487
aS'small'
p5488
aS'high'
p5489
aS'unacc'
p5490
aa(lp5491
S'med'
p5492
aS'high'
p5493
ag4
aS'more'
p5494
aS'med'
p5495
aS'low'
p5496
aS'unacc'
p5497
aa(lp5498
S'med'
p5499
aS'high'
p5500
ag4
aS'more'
p5501
aS'med'
p5502
aS'med'
p5503
aS'unacc'
p5504
aa(lp5505
S'med'
p5506
aS'high'
p5507
ag4
aS'more'
p5508
aS'med'
p5509
aS'high'
p5510
aS'acc'
p5511
aa(lp5512
S'med'
p5513
aS'high'
p5514
ag4
aS'more'
p5515
aS'big'
p5516
aS'low'
p5517
aS'unacc'
p5518
aa(lp5519
S'med'
p5520
aS'high'
p5521
ag4
aS'more'
p5522
aS'big'
p5523
aS'med'
p5524
aS'acc'
p5525
aa(lp5526
S'med'
p5527
aS'high'
p5528
ag4
aS'more'
p5529
aS'big'
p5530
aS'high'
p5531
aS'acc'
p5532
aa(lp5533
S'med'
p5534
aS'high'
p5535
ag177
ag4
aS'small'
p5536
aS'low'
p5537
aS'unacc'
p5538
aa(lp5539
S'med'
p5540
aS'high'
p5541
ag177
ag4
aS'small'
p5542
aS'med'
p5543
aS'unacc'
p5544
aa(lp5545
S'med'
p5546
aS'high'
p5547
ag177
ag4
aS'small'
p5548
aS'high'
p5549
aS'unacc'
p5550
aa(lp5551
S'med'
p5552
aS'high'
p5553
ag177
ag4
aS'med'
p5554
aS'low'
p5555
aS'unacc'
p5556
aa(lp5557
S'med'
p5558
aS'high'
p5559
ag177
ag4
aS'med'
p5560
aS'med'
p5561
aS'unacc'
p5562
aa(lp5563
S'med'
p5564
aS'high'
p5565
ag177
ag4
aS'med'
p5566
aS'high'
p5567
aS'unacc'
p5568
aa(lp5569
S'med'
p5570
aS'high'
p5571
ag177
ag4
aS'big'
p5572
aS'low'
p5573
aS'unacc'
p5574
aa(lp5575
S'med'
p5576
aS'high'
p5577
ag177
ag4
aS'big'
p5578
aS'med'
p5579
aS'unacc'
p5580
aa(lp5581
S'med'
p5582
aS'high'
p5583
ag177
ag4
aS'big'
p5584
aS'high'
p5585
aS'unacc'
p5586
aa(lp5587
S'med'
p5588
aS'high'
p5589
ag177
ag59
aS'small'
p5590
aS'low'
p5591
aS'unacc'
p5592
aa(lp5593
S'med'
p5594
aS'high'
p5595
ag177
ag59
aS'small'
p5596
aS'med'
p5597
aS'unacc'
p5598
aa(lp5599
S'med'
p5600
aS'high'
p5601
ag177
ag59
aS'small'
p5602
aS'high'
p5603
aS'acc'
p5604
aa(lp5605
S'med'
p5606
aS'high'
p5607
ag177
ag59
aS'med'
p5608
aS'low'
p5609
aS'unacc'
p5610
aa(lp5611
S'med'
p5612
aS'high'
p5613
ag177
ag59
aS'med'
p5614
aS'med'
p5615
aS'unacc'
p5616
aa(lp5617
S'med'
p5618
aS'high'
p5619
ag177
ag59
aS'med'
p5620
aS'high'
p5621
aS'acc'
p5622
aa(lp5623
S'med'
p5624
aS'high'
p5625
ag177
ag59
aS'big'
p5626
aS'low'
p5627
aS'unacc'
p5628
aa(lp5629
S'med'
p5630
aS'high'
p5631
ag177
ag59
aS'big'
p5632
aS'med'
p5633
aS'acc'
p5634
aa(lp5635
S'med'
p5636
aS'high'
p5637
ag177
ag59
aS'big'
p5638
aS'high'
p5639
aS'acc'
p5640
aa(lp5641
S'med'
p5642
aS'high'
p5643
ag177
aS'more'
p5644
aS'small'
p5645
aS'low'
p5646
aS'unacc'
p5647
aa(lp5648
S'med'
p5649
aS'high'
p5650
ag177
aS'more'
p5651
aS'small'
p5652
aS'med'
p5653
aS'unacc'
p5654
aa(lp5655
S'med'
p5656
aS'high'
p5657
ag177
aS'more'
p5658
aS'small'
p5659
aS'high'
p5660
aS'acc'
p5661
aa(lp5662
S'med'
p5663
aS'high'
p5664
ag177
aS'more'
p5665
aS'med'
p5666
aS'low'
p5667
aS'unacc'
p5668
aa(lp5669
S'med'
p5670
aS'high'
p5671
ag177
aS'more'
p5672
aS'med'
p5673
aS'med'
p5674
aS'acc'
p5675
aa(lp5676
S'med'
p5677
aS'high'
p5678
ag177
aS'more'
p5679
aS'med'
p5680
aS'high'
p5681
aS'acc'
p5682
aa(lp5683
S'med'
p5684
aS'high'
p5685
ag177
aS'more'
p5686
aS'big'
p5687
aS'low'
p5688
aS'unacc'
p5689
aa(lp5690
S'med'
p5691
aS'high'
p5692
ag177
aS'more'
p5693
aS'big'
p5694
aS'med'
p5695
aS'acc'
p5696
aa(lp5697
S'med'
p5698
aS'high'
p5699
ag177
aS'more'
p5700
aS'big'
p5701
aS'high'
p5702
aS'acc'
p5703
aa(lp5704
S'med'
p5705
aS'high'
p5706
ag59
ag4
aS'small'
p5707
aS'low'
p5708
aS'unacc'
p5709
aa(lp5710
S'med'
p5711
aS'high'
p5712
ag59
ag4
aS'small'
p5713
aS'med'
p5714
aS'unacc'
p5715
aa(lp5716
S'med'
p5717
aS'high'
p5718
ag59
ag4
aS'small'
p5719
aS'high'
p5720
aS'unacc'
p5721
aa(lp5722
S'med'
p5723
aS'high'
p5724
ag59
ag4
aS'med'
p5725
aS'low'
p5726
aS'unacc'
p5727
aa(lp5728
S'med'
p5729
aS'high'
p5730
ag59
ag4
aS'med'
p5731
aS'med'
p5732
aS'unacc'
p5733
aa(lp5734
S'med'
p5735
aS'high'
p5736
ag59
ag4
aS'med'
p5737
aS'high'
p5738
aS'unacc'
p5739
aa(lp5740
S'med'
p5741
aS'high'
p5742
ag59
ag4
aS'big'
p5743
aS'low'
p5744
aS'unacc'
p5745
aa(lp5746
S'med'
p5747
aS'high'
p5748
ag59
ag4
aS'big'
p5749
aS'med'
p5750
aS'unacc'
p5751
aa(lp5752
S'med'
p5753
aS'high'
p5754
ag59
ag4
aS'big'
p5755
aS'high'
p5756
aS'unacc'
p5757
aa(lp5758
S'med'
p5759
aS'high'
p5760
ag59
ag59
aS'small'
p5761
aS'low'
p5762
aS'unacc'
p5763
aa(lp5764
S'med'
p5765
aS'high'
p5766
ag59
ag59
aS'small'
p5767
aS'med'
p5768
aS'unacc'
p5769
aa(lp5770
S'med'
p5771
aS'high'
p5772
ag59
ag59
aS'small'
p5773
aS'high'
p5774
aS'acc'
p5775
aa(lp5776
S'med'
p5777
aS'high'
p5778
ag59
ag59
aS'med'
p5779
aS'low'
p5780
aS'unacc'
p5781
aa(lp5782
S'med'
p5783
aS'high'
p5784
ag59
ag59
aS'med'
p5785
aS'med'
p5786
aS'acc'
p5787
aa(lp5788
S'med'
p5789
aS'high'
p5790
ag59
ag59
aS'med'
p5791
aS'high'
p5792
aS'acc'
p5793
aa(lp5794
S'med'
p5795
aS'high'
p5796
ag59
ag59
aS'big'
p5797
aS'low'
p5798
aS'unacc'
p5799
aa(lp5800
S'med'
p5801
aS'high'
p5802
ag59
ag59
aS'big'
p5803
aS'med'
p5804
aS'acc'
p5805
aa(lp5806
S'med'
p5807
aS'high'
p5808
ag59
ag59
aS'big'
p5809
aS'high'
p5810
aS'acc'
p5811
aa(lp5812
S'med'
p5813
aS'high'
p5814
ag59
aS'more'
p5815
aS'small'
p5816
aS'low'
p5817
aS'unacc'
p5818
aa(lp5819
S'med'
p5820
aS'high'
p5821
ag59
aS'more'
p5822
aS'small'
p5823
aS'med'
p5824
aS'unacc'
p5825
aa(lp5826
S'med'
p5827
aS'high'
p5828
ag59
aS'more'
p5829
aS'small'
p5830
aS'high'
p5831
aS'acc'
p5832
aa(lp5833
S'med'
p5834
aS'high'
p5835
ag59
aS'more'
p5836
aS'med'
p5837
aS'low'
p5838
aS'unacc'
p5839
aa(lp5840
S'med'
p5841
aS'high'
p5842
ag59
aS'more'
p5843
aS'med'
p5844
aS'med'
p5845
aS'acc'
p5846
aa(lp5847
S'med'
p5848
aS'high'
p5849
ag59
aS'more'
p5850
aS'med'
p5851
aS'high'
p5852
aS'acc'
p5853
aa(lp5854
S'med'
p5855
aS'high'
p5856
ag59
aS'more'
p5857
aS'big'
p5858
aS'low'
p5859
aS'unacc'
p5860
aa(lp5861
S'med'
p5862
aS'high'
p5863
ag59
aS'more'
p5864
aS'big'
p5865
aS'med'
p5866
aS'acc'
p5867
aa(lp5868
S'med'
p5869
aS'high'
p5870
ag59
aS'more'
p5871
aS'big'
p5872
aS'high'
p5873
aS'acc'
p5874
aa(lp5875
S'med'
p5876
aS'high'
p5877
aS'5more'
p5878
ag4
aS'small'
p5879
aS'low'
p5880
aS'unacc'
p5881
aa(lp5882
S'med'
p5883
aS'high'
p5884
aS'5more'
p5885
ag4
aS'small'
p5886
aS'med'
p5887
aS'unacc'
p5888
aa(lp5889
S'med'
p5890
aS'high'
p5891
aS'5more'
p5892
ag4
aS'small'
p5893
aS'high'
p5894
aS'unacc'
p5895
aa(lp5896
S'med'
p5897
aS'high'
p5898
aS'5more'
p5899
ag4
aS'med'
p5900
aS'low'
p5901
aS'unacc'
p5902
aa(lp5903
S'med'
p5904
aS'high'
p5905
aS'5more'
p5906
ag4
aS'med'
p5907
aS'med'
p5908
aS'unacc'
p5909
aa(lp5910
S'med'
p5911
aS'high'
p5912
aS'5more'
p5913
ag4
aS'med'
p5914
aS'high'
p5915
aS'unacc'
p5916
aa(lp5917
S'med'
p5918
aS'high'
p5919
aS'5more'
p5920
ag4
aS'big'
p5921
aS'low'
p5922
aS'unacc'
p5923
aa(lp5924
S'med'
p5925
aS'high'
p5926
aS'5more'
p5927
ag4
aS'big'
p5928
aS'med'
p5929
aS'unacc'
p5930
aa(lp5931
S'med'
p5932
aS'high'
p5933
aS'5more'
p5934
ag4
aS'big'
p5935
aS'high'
p5936
aS'unacc'
p5937
aa(lp5938
S'med'
p5939
aS'high'
p5940
aS'5more'
p5941
ag59
aS'small'
p5942
aS'low'
p5943
aS'unacc'
p5944
aa(lp5945
S'med'
p5946
aS'high'
p5947
aS'5more'
p5948
ag59
aS'small'
p5949
aS'med'
p5950
aS'unacc'
p5951
aa(lp5952
S'med'
p5953
aS'high'
p5954
aS'5more'
p5955
ag59
aS'small'
p5956
aS'high'
p5957
aS'acc'
p5958
aa(lp5959
S'med'
p5960
aS'high'
p5961
aS'5more'
p5962
ag59
aS'med'
p5963
aS'low'
p5964
aS'unacc'
p5965
aa(lp5966
S'med'
p5967
aS'high'
p5968
aS'5more'
p5969
ag59
aS'med'
p5970
aS'med'
p5971
aS'acc'
p5972
aa(lp5973
S'med'
p5974
aS'high'
p5975
aS'5more'
p5976
ag59
aS'med'
p5977
aS'high'
p5978
aS'acc'
p5979
aa(lp5980
S'med'
p5981
aS'high'
p5982
aS'5more'
p5983
ag59
aS'big'
p5984
aS'low'
p5985
aS'unacc'
p5986
aa(lp5987
S'med'
p5988
aS'high'
p5989
aS'5more'
p5990
ag59
aS'big'
p5991
aS'med'
p5992
aS'acc'
p5993
aa(lp5994
S'med'
p5995
aS'high'
p5996
aS'5more'
p5997
ag59
aS'big'
p5998
aS'high'
p5999
aS'acc'
p6000
aa(lp6001
S'med'
p6002
aS'high'
p6003
aS'5more'
p6004
aS'more'
p6005
aS'small'
p6006
aS'low'
p6007
aS'unacc'
p6008
aa(lp6009
S'med'
p6010
aS'high'
p6011
aS'5more'
p6012
aS'more'
p6013
aS'small'
p6014
aS'med'
p6015
aS'unacc'
p6016
aa(lp6017
S'med'
p6018
aS'high'
p6019
aS'5more'
p6020
aS'more'
p6021
aS'small'
p6022
aS'high'
p6023
aS'acc'
p6024
aa(lp6025
S'med'
p6026
aS'high'
p6027
aS'5more'
p6028
aS'more'
p6029
aS'med'
p6030
aS'low'
p6031
aS'unacc'
p6032
aa(lp6033
S'med'
p6034
aS'high'
p6035
aS'5more'
p6036
aS'more'
p6037
aS'med'
p6038
aS'med'
p6039
aS'acc'
p6040
aa(lp6041
S'med'
p6042
aS'high'
p6043
aS'5more'
p6044
aS'more'
p6045
aS'med'
p6046
aS'high'
p6047
aS'acc'
p6048
aa(lp6049
S'med'
p6050
aS'high'
p6051
aS'5more'
p6052
aS'more'
p6053
aS'big'
p6054
aS'low'
p6055
aS'unacc'
p6056
aa(lp6057
S'med'
p6058
aS'high'
p6059
aS'5more'
p6060
aS'more'
p6061
aS'big'
p6062
aS'med'
p6063
aS'acc'
p6064
aa(lp6065
S'med'
p6066
aS'high'
p6067
aS'5more'
p6068
aS'more'
p6069
aS'big'
p6070
aS'high'
p6071
aS'acc'
p6072
aa(lp6073
S'med'
p6074
aS'med'
p6075
ag4
ag4
aS'small'
p6076
aS'low'
p6077
aS'unacc'
p6078
aa(lp6079
S'med'
p6080
aS'med'
p6081
ag4
ag4
aS'small'
p6082
aS'med'
p6083
aS'unacc'
p6084
aa(lp6085
S'med'
p6086
aS'med'
p6087
ag4
ag4
aS'small'
p6088
aS'high'
p6089
aS'unacc'
p6090
aa(lp6091
S'med'
p6092
aS'med'
p6093
ag4
ag4
aS'med'
p6094
aS'low'
p6095
aS'unacc'
p6096
aa(lp6097
S'med'
p6098
aS'med'
p6099
ag4
ag4
aS'med'
p6100
aS'med'
p6101
aS'unacc'
p6102
aa(lp6103
S'med'
p6104
aS'med'
p6105
ag4
ag4
aS'med'
p6106
aS'high'
p6107
aS'unacc'
p6108
aa(lp6109
S'med'
p6110
aS'med'
p6111
ag4
ag4
aS'big'
p6112
aS'low'
p6113
aS'unacc'
p6114
aa(lp6115
S'med'
p6116
aS'med'
p6117
ag4
ag4
aS'big'
p6118
aS'med'
p6119
aS'unacc'
p6120
aa(lp6121
S'med'
p6122
aS'med'
p6123
ag4
ag4
aS'big'
p6124
aS'high'
p6125
aS'unacc'
p6126
aa(lp6127
S'med'
p6128
aS'med'
p6129
ag4
ag59
aS'small'
p6130
aS'low'
p6131
aS'unacc'
p6132
aa(lp6133
S'med'
p6134
aS'med'
p6135
ag4
ag59
aS'small'
p6136
aS'med'
p6137
aS'acc'
p6138
aa(lp6139
S'med'
p6140
aS'med'
p6141
ag4
ag59
aS'small'
p6142
aS'high'
p6143
aS'acc'
p6144
aa(lp6145
S'med'
p6146
aS'med'
p6147
ag4
ag59
aS'med'
p6148
aS'low'
p6149
aS'unacc'
p6150
aa(lp6151
S'med'
p6152
aS'med'
p6153
ag4
ag59
aS'med'
p6154
aS'med'
p6155
aS'acc'
p6156
aa(lp6157
S'med'
p6158
aS'med'
p6159
ag4
ag59
aS'med'
p6160
aS'high'
p6161
aS'acc'
p6162
aa(lp6163
S'med'
p6164
aS'med'
p6165
ag4
ag59
aS'big'
p6166
aS'low'
p6167
aS'unacc'
p6168
aa(lp6169
S'med'
p6170
aS'med'
p6171
ag4
ag59
aS'big'
p6172
aS'med'
p6173
aS'acc'
p6174
aa(lp6175
S'med'
p6176
aS'med'
p6177
ag4
ag59
aS'big'
p6178
aS'high'
p6179
aS'vgood'
p6180
aa(lp6181
S'med'
p6182
aS'med'
p6183
ag4
aS'more'
p6184
aS'small'
p6185
aS'low'
p6186
aS'unacc'
p6187
aa(lp6188
S'med'
p6189
aS'med'
p6190
ag4
aS'more'
p6191
aS'small'
p6192
aS'med'
p6193
aS'unacc'
p6194
aa(lp6195
S'med'
p6196
aS'med'
p6197
ag4
aS'more'
p6198
aS'small'
p6199
aS'high'
p6200
aS'unacc'
p6201
aa(lp6202
S'med'
p6203
aS'med'
p6204
ag4
aS'more'
p6205
aS'med'
p6206
aS'low'
p6207
aS'unacc'
p6208
aa(lp6209
S'med'
p6210
aS'med'
p6211
ag4
aS'more'
p6212
aS'med'
p6213
aS'med'
p6214
aS'acc'
p6215
aa(lp6216
S'med'
p6217
aS'med'
p6218
ag4
aS'more'
p6219
aS'med'
p6220
aS'high'
p6221
aS'acc'
p6222
aa(lp6223
S'med'
p6224
aS'med'
p6225
ag4
aS'more'
p6226
aS'big'
p6227
aS'low'
p6228
aS'unacc'
p6229
aa(lp6230
S'med'
p6231
aS'med'
p6232
ag4
aS'more'
p6233
aS'big'
p6234
aS'med'
p6235
aS'acc'
p6236
aa(lp6237
S'med'
p6238
aS'med'
p6239
ag4
aS'more'
p6240
aS'big'
p6241
aS'high'
p6242
aS'vgood'
p6243
aa(lp6244
S'med'
p6245
aS'med'
p6246
ag177
ag4
aS'small'
p6247
aS'low'
p6248
aS'unacc'
p6249
aa(lp6250
S'med'
p6251
aS'med'
p6252
ag177
ag4
aS'small'
p6253
aS'med'
p6254
aS'unacc'
p6255
aa(lp6256
S'med'
p6257
aS'med'
p6258
ag177
ag4
aS'small'
p6259
aS'high'
p6260
aS'unacc'
p6261
aa(lp6262
S'med'
p6263
aS'med'
p6264
ag177
ag4
aS'med'
p6265
aS'low'
p6266
aS'unacc'
p6267
aa(lp6268
S'med'
p6269
aS'med'
p6270
ag177
ag4
aS'med'
p6271
aS'med'
p6272
aS'unacc'
p6273
aa(lp6274
S'med'
p6275
aS'med'
p6276
ag177
ag4
aS'med'
p6277
aS'high'
p6278
aS'unacc'
p6279
aa(lp6280
S'med'
p6281
aS'med'
p6282
ag177
ag4
aS'big'
p6283
aS'low'
p6284
aS'unacc'
p6285
aa(lp6286
S'med'
p6287
aS'med'
p6288
ag177
ag4
aS'big'
p6289
aS'med'
p6290
aS'unacc'
p6291
aa(lp6292
S'med'
p6293
aS'med'
p6294
ag177
ag4
aS'big'
p6295
aS'high'
p6296
aS'unacc'
p6297
aa(lp6298
S'med'
p6299
aS'med'
p6300
ag177
ag59
aS'small'
p6301
aS'low'
p6302
aS'unacc'
p6303
aa(lp6304
S'med'
p6305
aS'med'
p6306
ag177
ag59
aS'small'
p6307
aS'med'
p6308
aS'acc'
p6309
aa(lp6310
S'med'
p6311
aS'med'
p6312
ag177
ag59
aS'small'
p6313
aS'high'
p6314
aS'acc'
p6315
aa(lp6316
S'med'
p6317
aS'med'
p6318
ag177
ag59
aS'med'
p6319
aS'low'
p6320
aS'unacc'
p6321
aa(lp6322
S'med'
p6323
aS'med'
p6324
ag177
ag59
aS'med'
p6325
aS'med'
p6326
aS'acc'
p6327
aa(lp6328
S'med'
p6329
aS'med'
p6330
ag177
ag59
aS'med'
p6331
aS'high'
p6332
aS'acc'
p6333
aa(lp6334
S'med'
p6335
aS'med'
p6336
ag177
ag59
aS'big'
p6337
aS'low'
p6338
aS'unacc'
p6339
aa(lp6340
S'med'
p6341
aS'med'
p6342
ag177
ag59
aS'big'
p6343
aS'med'
p6344
aS'acc'
p6345
aa(lp6346
S'med'
p6347
aS'med'
p6348
ag177
ag59
aS'big'
p6349
aS'high'
p6350
aS'vgood'
p6351
aa(lp6352
S'med'
p6353
aS'med'
p6354
ag177
aS'more'
p6355
aS'small'
p6356
aS'low'
p6357
aS'unacc'
p6358
aa(lp6359
S'med'
p6360
aS'med'
p6361
ag177
aS'more'
p6362
aS'small'
p6363
aS'med'
p6364
aS'acc'
p6365
aa(lp6366
S'med'
p6367
aS'med'
p6368
ag177
aS'more'
p6369
aS'small'
p6370
aS'high'
p6371
aS'acc'
p6372
aa(lp6373
S'med'
p6374
aS'med'
p6375
ag177
aS'more'
p6376
aS'med'
p6377
aS'low'
p6378
aS'unacc'
p6379
aa(lp6380
S'med'
p6381
aS'med'
p6382
ag177
aS'more'
p6383
aS'med'
p6384
aS'med'
p6385
aS'acc'
p6386
aa(lp6387
S'med'
p6388
aS'med'
p6389
ag177
aS'more'
p6390
aS'med'
p6391
aS'high'
p6392
aS'vgood'
p6393
aa(lp6394
S'med'
p6395
aS'med'
p6396
ag177
aS'more'
p6397
aS'big'
p6398
aS'low'
p6399
aS'unacc'
p6400
aa(lp6401
S'med'
p6402
aS'med'
p6403
ag177
aS'more'
p6404
aS'big'
p6405
aS'med'
p6406
aS'acc'
p6407
aa(lp6408
S'med'
p6409
aS'med'
p6410
ag177
aS'more'
p6411
aS'big'
p6412
aS'high'
p6413
aS'vgood'
p6414
aa(lp6415
S'med'
p6416
aS'med'
p6417
ag59
ag4
aS'small'
p6418
aS'low'
p6419
aS'unacc'
p6420
aa(lp6421
S'med'
p6422
aS'med'
p6423
ag59
ag4
aS'small'
p6424
aS'med'
p6425
aS'unacc'
p6426
aa(lp6427
S'med'
p6428
aS'med'
p6429
ag59
ag4
aS'small'
p6430
aS'high'
p6431
aS'unacc'
p6432
aa(lp6433
S'med'
p6434
aS'med'
p6435
ag59
ag4
aS'med'
p6436
aS'low'
p6437
aS'unacc'
p6438
aa(lp6439
S'med'
p6440
aS'med'
p6441
ag59
ag4
aS'med'
p6442
aS'med'
p6443
aS'unacc'
p6444
aa(lp6445
S'med'
p6446
aS'med'
p6447
ag59
ag4
aS'med'
p6448
aS'high'
p6449
aS'unacc'
p6450
aa(lp6451
S'med'
p6452
aS'med'
p6453
ag59
ag4
aS'big'
p6454
aS'low'
p6455
aS'unacc'
p6456
aa(lp6457
S'med'
p6458
aS'med'
p6459
ag59
ag4
aS'big'
p6460
aS'med'
p6461
aS'unacc'
p6462
aa(lp6463
S'med'
p6464
aS'med'
p6465
ag59
ag4
aS'big'
p6466
aS'high'
p6467
aS'unacc'
p6468
aa(lp6469
S'med'
p6470
aS'med'
p6471
ag59
ag59
aS'small'
p6472
aS'low'
p6473
aS'unacc'
p6474
aa(lp6475
S'med'
p6476
aS'med'
p6477
ag59
ag59
aS'small'
p6478
aS'med'
p6479
aS'acc'
p6480
aa(lp6481
S'med'
p6482
aS'med'
p6483
ag59
ag59
aS'small'
p6484
aS'high'
p6485
aS'acc'
p6486
aa(lp6487
S'med'
p6488
aS'med'
p6489
ag59
ag59
aS'med'
p6490
aS'low'
p6491
aS'unacc'
p6492
aa(lp6493
S'med'
p6494
aS'med'
p6495
ag59
ag59
aS'med'
p6496
aS'med'
p6497
aS'acc'
p6498
aa(lp6499
S'med'
p6500
aS'med'
p6501
ag59
ag59
aS'med'
p6502
aS'high'
p6503
aS'vgood'
p6504
aa(lp6505
S'med'
p6506
aS'med'
p6507
ag59
ag59
aS'big'
p6508
aS'low'
p6509
aS'unacc'
p6510
aa(lp6511
S'med'
p6512
aS'med'
p6513
ag59
ag59
aS'big'
p6514
aS'med'
p6515
aS'acc'
p6516
aa(lp6517
S'med'
p6518
aS'med'
p6519
ag59
ag59
aS'big'
p6520
aS'high'
p6521
aS'vgood'
p6522
aa(lp6523
S'med'
p6524
aS'med'
p6525
ag59
aS'more'
p6526
aS'small'
p6527
aS'low'
p6528
aS'unacc'
p6529
aa(lp6530
S'med'
p6531
aS'med'
p6532
ag59
aS'more'
p6533
aS'small'
p6534
aS'med'
p6535
aS'acc'
p6536
aa(lp6537
S'med'
p6538
aS'med'
p6539
ag59
aS'more'
p6540
aS'small'
p6541
aS'high'
p6542
aS'acc'
p6543
aa(lp6544
S'med'
p6545
aS'med'
p6546
ag59
aS'more'
p6547
aS'med'
p6548
aS'low'
p6549
aS'unacc'
p6550
aa(lp6551
S'med'
p6552
aS'med'
p6553
ag59
aS'more'
p6554
aS'med'
p6555
aS'med'
p6556
aS'acc'
p6557
aa(lp6558
S'med'
p6559
aS'med'
p6560
ag59
aS'more'
p6561
aS'med'
p6562
aS'high'
p6563
aS'vgood'
p6564
aa(lp6565
S'med'
p6566
aS'med'
p6567
ag59
aS'more'
p6568
aS'big'
p6569
aS'low'
p6570
aS'unacc'
p6571
aa(lp6572
S'med'
p6573
aS'med'
p6574
ag59
aS'more'
p6575
aS'big'
p6576
aS'med'
p6577
aS'acc'
p6578
aa(lp6579
S'med'
p6580
aS'med'
p6581
ag59
aS'more'
p6582
aS'big'
p6583
aS'high'
p6584
aS'vgood'
p6585
aa(lp6586
S'med'
p6587
aS'med'
p6588
aS'5more'
p6589
ag4
aS'small'
p6590
aS'low'
p6591
aS'unacc'
p6592
aa(lp6593
S'med'
p6594
aS'med'
p6595
aS'5more'
p6596
ag4
aS'small'
p6597
aS'med'
p6598
aS'unacc'
p6599
aa(lp6600
S'med'
p6601
aS'med'
p6602
aS'5more'
p6603
ag4
aS'small'
p6604
aS'high'
p6605
aS'unacc'
p6606
aa(lp6607
S'med'
p6608
aS'med'
p6609
aS'5more'
p6610
ag4
aS'med'
p6611
aS'low'
p6612
aS'unacc'
p6613
aa(lp6614
S'med'
p6615
aS'med'
p6616
aS'5more'
p6617
ag4
aS'med'
p6618
aS'med'
p6619
aS'unacc'
p6620
aa(lp6621
S'med'
p6622
aS'med'
p6623
aS'5more'
p6624
ag4
aS'med'
p6625
aS'high'
p6626
aS'unacc'
p6627
aa(lp6628
S'med'
p6629
aS'med'
p6630
aS'5more'
p6631
ag4
aS'big'
p6632
aS'low'
p6633
aS'unacc'
p6634
aa(lp6635
S'med'
p6636
aS'med'
p6637
aS'5more'
p6638
ag4
aS'big'
p6639
aS'med'
p6640
aS'unacc'
p6641
aa(lp6642
S'med'
p6643
aS'med'
p6644
aS'5more'
p6645
ag4
aS'big'
p6646
aS'high'
p6647
aS'unacc'
p6648
aa(lp6649
S'med'
p6650
aS'med'
p6651
aS'5more'
p6652
ag59
aS'small'
p6653
aS'low'
p6654
aS'unacc'
p6655
aa(lp6656
S'med'
p6657
aS'med'
p6658
aS'5more'
p6659
ag59
aS'small'
p6660
aS'med'
p6661
aS'acc'
p6662
aa(lp6663
S'med'
p6664
aS'med'
p6665
aS'5more'
p6666
ag59
aS'small'
p6667
aS'high'
p6668
aS'acc'
p6669
aa(lp6670
S'med'
p6671
aS'med'
p6672
aS'5more'
p6673
ag59
aS'med'
p6674
aS'low'
p6675
aS'unacc'
p6676
aa(lp6677
S'med'
p6678
aS'med'
p6679
aS'5more'
p6680
ag59
aS'med'
p6681
aS'med'
p6682
aS'acc'
p6683
aa(lp6684
S'med'
p6685
aS'med'
p6686
aS'5more'
p6687
ag59
aS'med'
p6688
aS'high'
p6689
aS'vgood'
p6690
aa(lp6691
S'med'
p6692
aS'med'
p6693
aS'5more'
p6694
ag59
aS'big'
p6695
aS'low'
p6696
aS'unacc'
p6697
aa(lp6698
S'med'
p6699
aS'med'
p6700
aS'5more'
p6701
ag59
aS'big'
p6702
aS'med'
p6703
aS'acc'
p6704
aa(lp6705
S'med'
p6706
aS'med'
p6707
aS'5more'
p6708
ag59
aS'big'
p6709
aS'high'
p6710
aS'vgood'
p6711
aa(lp6712
S'med'
p6713
aS'med'
p6714
aS'5more'
p6715
aS'more'
p6716
aS'small'
p6717
aS'low'
p6718
aS'unacc'
p6719
aa(lp6720
S'med'
p6721
aS'med'
p6722
aS'5more'
p6723
aS'more'
p6724
aS'small'
p6725
aS'med'
p6726
aS'acc'
p6727
aa(lp6728
S'med'
p6729
aS'med'
p6730
aS'5more'
p6731
aS'more'
p6732
aS'small'
p6733
aS'high'
p6734
aS'acc'
p6735
aa(lp6736
S'med'
p6737
aS'med'
p6738
aS'5more'
p6739
aS'more'
p6740
aS'med'
p6741
aS'low'
p6742
aS'unacc'
p6743
aa(lp6744
S'med'
p6745
aS'med'
p6746
aS'5more'
p6747
aS'more'
p6748
aS'med'
p6749
aS'med'
p6750
aS'acc'
p6751
aa(lp6752
S'med'
p6753
aS'med'
p6754
aS'5more'
p6755
aS'more'
p6756
aS'med'
p6757
aS'high'
p6758
aS'vgood'
p6759
aa(lp6760
S'med'
p6761
aS'med'
p6762
aS'5more'
p6763
aS'more'
p6764
aS'big'
p6765
aS'low'
p6766
aS'unacc'
p6767
aa(lp6768
S'med'
p6769
aS'med'
p6770
aS'5more'
p6771
aS'more'
p6772
aS'big'
p6773
aS'med'
p6774
aS'acc'
p6775
aa(lp6776
S'med'
p6777
aS'med'
p6778
aS'5more'
p6779
aS'more'
p6780
aS'big'
p6781
aS'high'
p6782
aS'vgood'
p6783
aa(lp6784
S'med'
p6785
aS'low'
p6786
ag4
ag4
aS'small'
p6787
aS'low'
p6788
aS'unacc'
p6789
aa(lp6790
S'med'
p6791
aS'low'
p6792
ag4
ag4
aS'small'
p6793
aS'med'
p6794
aS'unacc'
p6795
aa(lp6796
S'med'
p6797
aS'low'
p6798
ag4
ag4
aS'small'
p6799
aS'high'
p6800
aS'unacc'
p6801
aa(lp6802
S'med'
p6803
aS'low'
p6804
ag4
ag4
aS'med'
p6805
aS'low'
p6806
aS'unacc'
p6807
aa(lp6808
S'med'
p6809
aS'low'
p6810
ag4
ag4
aS'med'
p6811
aS'med'
p6812
aS'unacc'
p6813
aa(lp6814
S'med'
p6815
aS'low'
p6816
ag4
ag4
aS'med'
p6817
aS'high'
p6818
aS'unacc'
p6819
aa(lp6820
S'med'
p6821
aS'low'
p6822
ag4
ag4
aS'big'
p6823
aS'low'
p6824
aS'unacc'
p6825
aa(lp6826
S'med'
p6827
aS'low'
p6828
ag4
ag4
aS'big'
p6829
aS'med'
p6830
aS'unacc'
p6831
aa(lp6832
S'med'
p6833
aS'low'
p6834
ag4
ag4
aS'big'
p6835
aS'high'
p6836
aS'unacc'
p6837
aa(lp6838
S'med'
p6839
aS'low'
p6840
ag4
ag59
aS'small'
p6841
aS'low'
p6842
aS'unacc'
p6843
aa(lp6844
S'med'
p6845
aS'low'
p6846
ag4
ag59
aS'small'
p6847
aS'med'
p6848
aS'acc'
p6849
aa(lp6850
S'med'
p6851
aS'low'
p6852
ag4
ag59
aS'small'
p6853
aS'high'
p6854
aS'good'
p6855
aa(lp6856
S'med'
p6857
aS'low'
p6858
ag4
ag59
aS'med'
p6859
aS'low'
p6860
aS'unacc'
p6861
aa(lp6862
S'med'
p6863
aS'low'
p6864
ag4
ag59
aS'med'
p6865
aS'med'
p6866
aS'acc'
p6867
aa(lp6868
S'med'
p6869
aS'low'
p6870
ag4
ag59
aS'med'
p6871
aS'high'
p6872
aS'good'
p6873
aa(lp6874
S'med'
p6875
aS'low'
p6876
ag4
ag59
aS'big'
p6877
aS'low'
p6878
aS'unacc'
p6879
aa(lp6880
S'med'
p6881
aS'low'
p6882
ag4
ag59
aS'big'
p6883
aS'med'
p6884
aS'good'
p6885
aa(lp6886
S'med'
p6887
aS'low'
p6888
ag4
ag59
aS'big'
p6889
aS'high'
p6890
aS'vgood'
p6891
aa(lp6892
S'med'
p6893
aS'low'
p6894
ag4
aS'more'
p6895
aS'small'
p6896
aS'low'
p6897
aS'unacc'
p6898
aa(lp6899
S'med'
p6900
aS'low'
p6901
ag4
aS'more'
p6902
aS'small'
p6903
aS'med'
p6904
aS'unacc'
p6905
aa(lp6906
S'med'
p6907
aS'low'
p6908
ag4
aS'more'
p6909
aS'small'
p6910
aS'high'
p6911
aS'unacc'
p6912
aa(lp6913
S'med'
p6914
aS'low'
p6915
ag4
aS'more'
p6916
aS'med'
p6917
aS'low'
p6918
aS'unacc'
p6919
aa(lp6920
S'med'
p6921
aS'low'
p6922
ag4
aS'more'
p6923
aS'med'
p6924
aS'med'
p6925
aS'acc'
p6926
aa(lp6927
S'med'
p6928
aS'low'
p6929
ag4
aS'more'
p6930
aS'med'
p6931
aS'high'
p6932
aS'good'
p6933
aa(lp6934
S'med'
p6935
aS'low'
p6936
ag4
aS'more'
p6937
aS'big'
p6938
aS'low'
p6939
aS'unacc'
p6940
aa(lp6941
S'med'
p6942
aS'low'
p6943
ag4
aS'more'
p6944
aS'big'
p6945
aS'med'
p6946
aS'good'
p6947
aa(lp6948
S'med'
p6949
aS'low'
p6950
ag4
aS'more'
p6951
aS'big'
p6952
aS'high'
p6953
aS'vgood'
p6954
aa(lp6955
S'med'
p6956
aS'low'
p6957
ag177
ag4
aS'small'
p6958
aS'low'
p6959
aS'unacc'
p6960
aa(lp6961
S'med'
p6962
aS'low'
p6963
ag177
ag4
aS'small'
p6964
aS'med'
p6965
aS'unacc'
p6966
aa(lp6967
S'med'
p6968
aS'low'
p6969
ag177
ag4
aS'small'
p6970
aS'high'
p6971
aS'unacc'
p6972
aa(lp6973
S'med'
p6974
aS'low'
p6975
ag177
ag4
aS'med'
p6976
aS'low'
p6977
aS'unacc'
p6978
aa(lp6979
S'med'
p6980
aS'low'
p6981
ag177
ag4
aS'med'
p6982
aS'med'
p6983
aS'unacc'
p6984
aa(lp6985
S'med'
p6986
aS'low'
p6987
ag177
ag4
aS'med'
p6988
aS'high'
p6989
aS'unacc'
p6990
aa(lp6991
S'med'
p6992
aS'low'
p6993
ag177
ag4
aS'big'
p6994
aS'low'
p6995
aS'unacc'
p6996
aa(lp6997
S'med'
p6998
aS'low'
p6999
ag177
ag4
aS'big'
p7000
aS'med'
p7001
aS'unacc'
p7002
aa(lp7003
S'med'
p7004
aS'low'
p7005
ag177
ag4
aS'big'
p7006
aS'high'
p7007
aS'unacc'
p7008
aa(lp7009
S'med'
p7010
aS'low'
p7011
ag177
ag59
aS'small'
p7012
aS'low'
p7013
aS'unacc'
p7014
aa(lp7015
S'med'
p7016
aS'low'
p7017
ag177
ag59
aS'small'
p7018
aS'med'
p7019
aS'acc'
p7020
aa(lp7021
S'med'
p7022
aS'low'
p7023
ag177
ag59
aS'small'
p7024
aS'high'
p7025
aS'good'
p7026
aa(lp7027
S'med'
p7028
aS'low'
p7029
ag177
ag59
aS'med'
p7030
aS'low'
p7031
aS'unacc'
p7032
aa(lp7033
S'med'
p7034
aS'low'
p7035
ag177
ag59
aS'med'
p7036
aS'med'
p7037
aS'acc'
p7038
aa(lp7039
S'med'
p7040
aS'low'
p7041
ag177
ag59
aS'med'
p7042
aS'high'
p7043
aS'good'
p7044
aa(lp7045
S'med'
p7046
aS'low'
p7047
ag177
ag59
aS'big'
p7048
aS'low'
p7049
aS'unacc'
p7050
aa(lp7051
S'med'
p7052
aS'low'
p7053
ag177
ag59
aS'big'
p7054
aS'med'
p7055
aS'good'
p7056
aa(lp7057
S'med'
p7058
aS'low'
p7059
ag177
ag59
aS'big'
p7060
aS'high'
p7061
aS'vgood'
p7062
aa(lp7063
S'med'
p7064
aS'low'
p7065
ag177
aS'more'
p7066
aS'small'
p7067
aS'low'
p7068
aS'unacc'
p7069
aa(lp7070
S'med'
p7071
aS'low'
p7072
ag177
aS'more'
p7073
aS'small'
p7074
aS'med'
p7075
aS'acc'
p7076
aa(lp7077
S'med'
p7078
aS'low'
p7079
ag177
aS'more'
p7080
aS'small'
p7081
aS'high'
p7082
aS'good'
p7083
aa(lp7084
S'med'
p7085
aS'low'
p7086
ag177
aS'more'
p7087
aS'med'
p7088
aS'low'
p7089
aS'unacc'
p7090
aa(lp7091
S'med'
p7092
aS'low'
p7093
ag177
aS'more'
p7094
aS'med'
p7095
aS'med'
p7096
aS'good'
p7097
aa(lp7098
S'med'
p7099
aS'low'
p7100
ag177
aS'more'
p7101
aS'med'
p7102
aS'high'
p7103
aS'vgood'
p7104
aa(lp7105
S'med'
p7106
aS'low'
p7107
ag177
aS'more'
p7108
aS'big'
p7109
aS'low'
p7110
aS'unacc'
p7111
aa(lp7112
S'med'
p7113
aS'low'
p7114
ag177
aS'more'
p7115
aS'big'
p7116
aS'med'
p7117
aS'good'
p7118
aa(lp7119
S'med'
p7120
aS'low'
p7121
ag177
aS'more'
p7122
aS'big'
p7123
aS'high'
p7124
aS'vgood'
p7125
aa(lp7126
S'med'
p7127
aS'low'
p7128
ag59
ag4
aS'small'
p7129
aS'low'
p7130
aS'unacc'
p7131
aa(lp7132
S'med'
p7133
aS'low'
p7134
ag59
ag4
aS'small'
p7135
aS'med'
p7136
aS'unacc'
p7137
aa(lp7138
S'med'
p7139
aS'low'
p7140
ag59
ag4
aS'small'
p7141
aS'high'
p7142
aS'unacc'
p7143
aa(lp7144
S'med'
p7145
aS'low'
p7146
ag59
ag4
aS'med'
p7147
aS'low'
p7148
aS'unacc'
p7149
aa(lp7150
S'med'
p7151
aS'low'
p7152
ag59
ag4
aS'med'
p7153
aS'med'
p7154
aS'unacc'
p7155
aa(lp7156
S'med'
p7157
aS'low'
p7158
ag59
ag4
aS'med'
p7159
aS'high'
p7160
aS'unacc'
p7161
aa(lp7162
S'med'
p7163
aS'low'
p7164
ag59
ag4
aS'big'
p7165
aS'low'
p7166
aS'unacc'
p7167
aa(lp7168
S'med'
p7169
aS'low'
p7170
ag59
ag4
aS'big'
p7171
aS'med'
p7172
aS'unacc'
p7173
aa(lp7174
S'med'
p7175
aS'low'
p7176
ag59
ag4
aS'big'
p7177
aS'high'
p7178
aS'unacc'
p7179
aa(lp7180
S'med'
p7181
aS'low'
p7182
ag59
ag59
aS'small'
p7183
aS'low'
p7184
aS'unacc'
p7185
aa(lp7186
S'med'
p7187
aS'low'
p7188
ag59
ag59
aS'small'
p7189
aS'med'
p7190
aS'acc'
p7191
aa(lp7192
S'med'
p7193
aS'low'
p7194
ag59
ag59
aS'small'
p7195
aS'high'
p7196
aS'good'
p7197
aa(lp7198
S'med'
p7199
aS'low'
p7200
ag59
ag59
aS'med'
p7201
aS'low'
p7202
aS'unacc'
p7203
aa(lp7204
S'med'
p7205
aS'low'
p7206
ag59
ag59
aS'med'
p7207
aS'med'
p7208
aS'good'
p7209
aa(lp7210
S'med'
p7211
aS'low'
p7212
ag59
ag59
aS'med'
p7213
aS'high'
p7214
aS'vgood'
p7215
aa(lp7216
S'med'
p7217
aS'low'
p7218
ag59
ag59
aS'big'
p7219
aS'low'
p7220
aS'unacc'
p7221
aa(lp7222
S'med'
p7223
aS'low'
p7224
ag59
ag59
aS'big'
p7225
aS'med'
p7226
aS'good'
p7227
aa(lp7228
S'med'
p7229
aS'low'
p7230
ag59
ag59
aS'big'
p7231
aS'high'
p7232
aS'vgood'
p7233
aa(lp7234
S'med'
p7235
aS'low'
p7236
ag59
aS'more'
p7237
aS'small'
p7238
aS'low'
p7239
aS'unacc'
p7240
aa(lp7241
S'med'
p7242
aS'low'
p7243
ag59
aS'more'
p7244
aS'small'
p7245
aS'med'
p7246
aS'acc'
p7247
aa(lp7248
S'med'
p7249
aS'low'
p7250
ag59
aS'more'
p7251
aS'small'
p7252
aS'high'
p7253
aS'good'
p7254
aa(lp7255
S'med'
p7256
aS'low'
p7257
ag59
aS'more'
p7258
aS'med'
p7259
aS'low'
p7260
aS'unacc'
p7261
aa(lp7262
S'med'
p7263
aS'low'
p7264
ag59
aS'more'
p7265
aS'med'
p7266
aS'med'
p7267
aS'good'
p7268
aa(lp7269
S'med'
p7270
aS'low'
p7271
ag59
aS'more'
p7272
aS'med'
p7273
aS'high'
p7274
aS'vgood'
p7275
aa(lp7276
S'med'
p7277
aS'low'
p7278
ag59
aS'more'
p7279
aS'big'
p7280
aS'low'
p7281
aS'unacc'
p7282
aa(lp7283
S'med'
p7284
aS'low'
p7285
ag59
aS'more'
p7286
aS'big'
p7287
aS'med'
p7288
aS'good'
p7289
aa(lp7290
S'med'
p7291
aS'low'
p7292
ag59
aS'more'
p7293
aS'big'
p7294
aS'high'
p7295
aS'vgood'
p7296
aa(lp7297
S'med'
p7298
aS'low'
p7299
aS'5more'
p7300
ag4
aS'small'
p7301
aS'low'
p7302
aS'unacc'
p7303
aa(lp7304
S'med'
p7305
aS'low'
p7306
aS'5more'
p7307
ag4
aS'small'
p7308
aS'med'
p7309
aS'unacc'
p7310
aa(lp7311
S'med'
p7312
aS'low'
p7313
aS'5more'
p7314
ag4
aS'small'
p7315
aS'high'
p7316
aS'unacc'
p7317
aa(lp7318
S'med'
p7319
aS'low'
p7320
aS'5more'
p7321
ag4
aS'med'
p7322
aS'low'
p7323
aS'unacc'
p7324
aa(lp7325
S'med'
p7326
aS'low'
p7327
aS'5more'
p7328
ag4
aS'med'
p7329
aS'med'
p7330
aS'unacc'
p7331
aa(lp7332
S'med'
p7333
aS'low'
p7334
aS'5more'
p7335
ag4
aS'med'
p7336
aS'high'
p7337
aS'unacc'
p7338
aa(lp7339
S'med'
p7340
aS'low'
p7341
aS'5more'
p7342
ag4
aS'big'
p7343
aS'low'
p7344
aS'unacc'
p7345
aa(lp7346
S'med'
p7347
aS'low'
p7348
aS'5more'
p7349
ag4
aS'big'
p7350
aS'med'
p7351
aS'unacc'
p7352
aa(lp7353
S'med'
p7354
aS'low'
p7355
aS'5more'
p7356
ag4
aS'big'
p7357
aS'high'
p7358
aS'unacc'
p7359
aa(lp7360
S'med'
p7361
aS'low'
p7362
aS'5more'
p7363
ag59
aS'small'
p7364
aS'low'
p7365
aS'unacc'
p7366
aa(lp7367
S'med'
p7368
aS'low'
p7369
aS'5more'
p7370
ag59
aS'small'
p7371
aS'med'
p7372
aS'acc'
p7373
aa(lp7374
S'med'
p7375
aS'low'
p7376
aS'5more'
p7377
ag59
aS'small'
p7378
aS'high'
p7379
aS'good'
p7380
aa(lp7381
S'med'
p7382
aS'low'
p7383
aS'5more'
p7384
ag59
aS'med'
p7385
aS'low'
p7386
aS'unacc'
p7387
aa(lp7388
S'med'
p7389
aS'low'
p7390
aS'5more'
p7391
ag59
aS'med'
p7392
aS'med'
p7393
aS'good'
p7394
aa(lp7395
S'med'
p7396
aS'low'
p7397
aS'5more'
p7398
ag59
aS'med'
p7399
aS'high'
p7400
aS'vgood'
p7401
aa(lp7402
S'med'
p7403
aS'low'
p7404
aS'5more'
p7405
ag59
aS'big'
p7406
aS'low'
p7407
aS'unacc'
p7408
aa(lp7409
S'med'
p7410
aS'low'
p7411
aS'5more'
p7412
ag59
aS'big'
p7413
aS'med'
p7414
aS'good'
p7415
aa(lp7416
S'med'
p7417
aS'low'
p7418
aS'5more'
p7419
ag59
aS'big'
p7420
aS'high'
p7421
aS'vgood'
p7422
aa(lp7423
S'med'
p7424
aS'low'
p7425
aS'5more'
p7426
aS'more'
p7427
aS'small'
p7428
aS'low'
p7429
aS'unacc'
p7430
aa(lp7431
S'med'
p7432
aS'low'
p7433
aS'5more'
p7434
aS'more'
p7435
aS'small'
p7436
aS'med'
p7437
aS'acc'
p7438
aa(lp7439
S'med'
p7440
aS'low'
p7441
aS'5more'
p7442
aS'more'
p7443
aS'small'
p7444
aS'high'
p7445
aS'good'
p7446
aa(lp7447
S'med'
p7448
aS'low'
p7449
aS'5more'
p7450
aS'more'
p7451
aS'med'
p7452
aS'low'
p7453
aS'unacc'
p7454
aa(lp7455
S'med'
p7456
aS'low'
p7457
aS'5more'
p7458
aS'more'
p7459
aS'med'
p7460
aS'med'
p7461
aS'good'
p7462
aa(lp7463
S'med'
p7464
aS'low'
p7465
aS'5more'
p7466
aS'more'
p7467
aS'med'
p7468
aS'high'
p7469
aS'vgood'
p7470
aa(lp7471
S'med'
p7472
aS'low'
p7473
aS'5more'
p7474
aS'more'
p7475
aS'big'
p7476
aS'low'
p7477
aS'unacc'
p7478
aa(lp7479
S'med'
p7480
aS'low'
p7481
aS'5more'
p7482
aS'more'
p7483
aS'big'
p7484
aS'med'
p7485
aS'good'
p7486
aa(lp7487
S'med'
p7488
aS'low'
p7489
aS'5more'
p7490
aS'more'
p7491
aS'big'
p7492
aS'high'
p7493
aS'vgood'
p7494
aa(lp7495
S'low'
p7496
aS'vhigh'
p7497
ag4
ag4
aS'small'
p7498
aS'low'
p7499
aS'unacc'
p7500
aa(lp7501
S'low'
p7502
aS'vhigh'
p7503
ag4
ag4
aS'small'
p7504
aS'med'
p7505
aS'unacc'
p7506
aa(lp7507
S'low'
p7508
aS'vhigh'
p7509
ag4
ag4
aS'small'
p7510
aS'high'
p7511
aS'unacc'
p7512
aa(lp7513
S'low'
p7514
aS'vhigh'
p7515
ag4
ag4
aS'med'
p7516
aS'low'
p7517
aS'unacc'
p7518
aa(lp7519
S'low'
p7520
aS'vhigh'
p7521
ag4
ag4
aS'med'
p7522
aS'med'
p7523
aS'unacc'
p7524
aa(lp7525
S'low'
p7526
aS'vhigh'
p7527
ag4
ag4
aS'med'
p7528
aS'high'
p7529
aS'unacc'
p7530
aa(lp7531
S'low'
p7532
aS'vhigh'
p7533
ag4
ag4
aS'big'
p7534
aS'low'
p7535
aS'unacc'
p7536
aa(lp7537
S'low'
p7538
aS'vhigh'
p7539
ag4
ag4
aS'big'
p7540
aS'med'
p7541
aS'unacc'
p7542
aa(lp7543
S'low'
p7544
aS'vhigh'
p7545
ag4
ag4
aS'big'
p7546
aS'high'
p7547
aS'unacc'
p7548
aa(lp7549
S'low'
p7550
aS'vhigh'
p7551
ag4
ag59
aS'small'
p7552
aS'low'
p7553
aS'unacc'
p7554
aa(lp7555
S'low'
p7556
aS'vhigh'
p7557
ag4
ag59
aS'small'
p7558
aS'med'
p7559
aS'unacc'
p7560
aa(lp7561
S'low'
p7562
aS'vhigh'
p7563
ag4
ag59
aS'small'
p7564
aS'high'
p7565
aS'acc'
p7566
aa(lp7567
S'low'
p7568
aS'vhigh'
p7569
ag4
ag59
aS'med'
p7570
aS'low'
p7571
aS'unacc'
p7572
aa(lp7573
S'low'
p7574
aS'vhigh'
p7575
ag4
ag59
aS'med'
p7576
aS'med'
p7577
aS'unacc'
p7578
aa(lp7579
S'low'
p7580
aS'vhigh'
p7581
ag4
ag59
aS'med'
p7582
aS'high'
p7583
aS'acc'
p7584
aa(lp7585
S'low'
p7586
aS'vhigh'
p7587
ag4
ag59
aS'big'
p7588
aS'low'
p7589
aS'unacc'
p7590
aa(lp7591
S'low'
p7592
aS'vhigh'
p7593
ag4
ag59
aS'big'
p7594
aS'med'
p7595
aS'acc'
p7596
aa(lp7597
S'low'
p7598
aS'vhigh'
p7599
ag4
ag59
aS'big'
p7600
aS'high'
p7601
aS'acc'
p7602
aa(lp7603
S'low'
p7604
aS'vhigh'
p7605
ag4
aS'more'
p7606
aS'small'
p7607
aS'low'
p7608
aS'unacc'
p7609
aa(lp7610
S'low'
p7611
aS'vhigh'
p7612
ag4
aS'more'
p7613
aS'small'
p7614
aS'med'
p7615
aS'unacc'
p7616
aa(lp7617
S'low'
p7618
aS'vhigh'
p7619
ag4
aS'more'
p7620
aS'small'
p7621
aS'high'
p7622
aS'unacc'
p7623
aa(lp7624
S'low'
p7625
aS'vhigh'
p7626
ag4
aS'more'
p7627
aS'med'
p7628
aS'low'
p7629
aS'unacc'
p7630
aa(lp7631
S'low'
p7632
aS'vhigh'
p7633
ag4
aS'more'
p7634
aS'med'
p7635
aS'med'
p7636
aS'unacc'
p7637
aa(lp7638
S'low'
p7639
aS'vhigh'
p7640
ag4
aS'more'
p7641
aS'med'
p7642
aS'high'
p7643
aS'acc'
p7644
aa(lp7645
S'low'
p7646
aS'vhigh'
p7647
ag4
aS'more'
p7648
aS'big'
p7649
aS'low'
p7650
aS'unacc'
p7651
aa(lp7652
S'low'
p7653
aS'vhigh'
p7654
ag4
aS'more'
p7655
aS'big'
p7656
aS'med'
p7657
aS'acc'
p7658
aa(lp7659
S'low'
p7660
aS'vhigh'
p7661
ag4
aS'more'
p7662
aS'big'
p7663
aS'high'
p7664
aS'acc'
p7665
aa(lp7666
S'low'
p7667
aS'vhigh'
p7668
ag177
ag4
aS'small'
p7669
aS'low'
p7670
aS'unacc'
p7671
aa(lp7672
S'low'
p7673
aS'vhigh'
p7674
ag177
ag4
aS'small'
p7675
aS'med'
p7676
aS'unacc'
p7677
aa(lp7678
S'low'
p7679
aS'vhigh'
p7680
ag177
ag4
aS'small'
p7681
aS'high'
p7682
aS'unacc'
p7683
aa(lp7684
S'low'
p7685
aS'vhigh'
p7686
ag177
ag4
aS'med'
p7687
aS'low'
p7688
aS'unacc'
p7689
aa(lp7690
S'low'
p7691
aS'vhigh'
p7692
ag177
ag4
aS'med'
p7693
aS'med'
p7694
aS'unacc'
p7695
aa(lp7696
S'low'
p7697
aS'vhigh'
p7698
ag177
ag4
aS'med'
p7699
aS'high'
p7700
aS'unacc'
p7701
aa(lp7702
S'low'
p7703
aS'vhigh'
p7704
ag177
ag4
aS'big'
p7705
aS'low'
p7706
aS'unacc'
p7707
aa(lp7708
S'low'
p7709
aS'vhigh'
p7710
ag177
ag4
aS'big'
p7711
aS'med'
p7712
aS'unacc'
p7713
aa(lp7714
S'low'
p7715
aS'vhigh'
p7716
ag177
ag4
aS'big'
p7717
aS'high'
p7718
aS'unacc'
p7719
aa(lp7720
S'low'
p7721
aS'vhigh'
p7722
ag177
ag59
aS'small'
p7723
aS'low'
p7724
aS'unacc'
p7725
aa(lp7726
S'low'
p7727
aS'vhigh'
p7728
ag177
ag59
aS'small'
p7729
aS'med'
p7730
aS'unacc'
p7731
aa(lp7732
S'low'
p7733
aS'vhigh'
p7734
ag177
ag59
aS'small'
p7735
aS'high'
p7736
aS'acc'
p7737
aa(lp7738
S'low'
p7739
aS'vhigh'
p7740
ag177
ag59
aS'med'
p7741
aS'low'
p7742
aS'unacc'
p7743
aa(lp7744
S'low'
p7745
aS'vhigh'
p7746
ag177
ag59
aS'med'
p7747
aS'med'
p7748
aS'unacc'
p7749
aa(lp7750
S'low'
p7751
aS'vhigh'
p7752
ag177
ag59
aS'med'
p7753
aS'high'
p7754
aS'acc'
p7755
aa(lp7756
S'low'
p7757
aS'vhigh'
p7758
ag177
ag59
aS'big'
p7759
aS'low'
p7760
aS'unacc'
p7761
aa(lp7762
S'low'
p7763
aS'vhigh'
p7764
ag177
ag59
aS'big'
p7765
aS'med'
p7766
aS'acc'
p7767
aa(lp7768
S'low'
p7769
aS'vhigh'
p7770
ag177
ag59
aS'big'
p7771
aS'high'
p7772
aS'acc'
p7773
aa(lp7774
S'low'
p7775
aS'vhigh'
p7776
ag177
aS'more'
p7777
aS'small'
p7778
aS'low'
p7779
aS'unacc'
p7780
aa(lp7781
S'low'
p7782
aS'vhigh'
p7783
ag177
aS'more'
p7784
aS'small'
p7785
aS'med'
p7786
aS'unacc'
p7787
aa(lp7788
S'low'
p7789
aS'vhigh'
p7790
ag177
aS'more'
p7791
aS'small'
p7792
aS'high'
p7793
aS'acc'
p7794
aa(lp7795
S'low'
p7796
aS'vhigh'
p7797
ag177
aS'more'
p7798
aS'med'
p7799
aS'low'
p7800
aS'unacc'
p7801
aa(lp7802
S'low'
p7803
aS'vhigh'
p7804
ag177
aS'more'
p7805
aS'med'
p7806
aS'med'
p7807
aS'acc'
p7808
aa(lp7809
S'low'
p7810
aS'vhigh'
p7811
ag177
aS'more'
p7812
aS'med'
p7813
aS'high'
p7814
aS'acc'
p7815
aa(lp7816
S'low'
p7817
aS'vhigh'
p7818
ag177
aS'more'
p7819
aS'big'
p7820
aS'low'
p7821
aS'unacc'
p7822
aa(lp7823
S'low'
p7824
aS'vhigh'
p7825
ag177
aS'more'
p7826
aS'big'
p7827
aS'med'
p7828
aS'acc'
p7829
aa(lp7830
S'low'
p7831
aS'vhigh'
p7832
ag177
aS'more'
p7833
aS'big'
p7834
aS'high'
p7835
aS'acc'
p7836
aa(lp7837
S'low'
p7838
aS'vhigh'
p7839
ag59
ag4
aS'small'
p7840
aS'low'
p7841
aS'unacc'
p7842
aa(lp7843
S'low'
p7844
aS'vhigh'
p7845
ag59
ag4
aS'small'
p7846
aS'med'
p7847
aS'unacc'
p7848
aa(lp7849
S'low'
p7850
aS'vhigh'
p7851
ag59
ag4
aS'small'
p7852
aS'high'
p7853
aS'unacc'
p7854
aa(lp7855
S'low'
p7856
aS'vhigh'
p7857
ag59
ag4
aS'med'
p7858
aS'low'
p7859
aS'unacc'
p7860
aa(lp7861
S'low'
p7862
aS'vhigh'
p7863
ag59
ag4
aS'med'
p7864
aS'med'
p7865
aS'unacc'
p7866
aa(lp7867
S'low'
p7868
aS'vhigh'
p7869
ag59
ag4
aS'med'
p7870
aS'high'
p7871
aS'unacc'
p7872
aa(lp7873
S'low'
p7874
aS'vhigh'
p7875
ag59
ag4
aS'big'
p7876
aS'low'
p7877
aS'unacc'
p7878
aa(lp7879
S'low'
p7880
aS'vhigh'
p7881
ag59
ag4
aS'big'
p7882
aS'med'
p7883
aS'unacc'
p7884
aa(lp7885
S'low'
p7886
aS'vhigh'
p7887
ag59
ag4
aS'big'
p7888
aS'high'
p7889
aS'unacc'
p7890
aa(lp7891
S'low'
p7892
aS'vhigh'
p7893
ag59
ag59
aS'small'
p7894
aS'low'
p7895
aS'unacc'
p7896
aa(lp7897
S'low'
p7898
aS'vhigh'
p7899
ag59
ag59
aS'small'
p7900
aS'med'
p7901
aS'unacc'
p7902
aa(lp7903
S'low'
p7904
aS'vhigh'
p7905
ag59
ag59
aS'small'
p7906
aS'high'
p7907
aS'acc'
p7908
aa(lp7909
S'low'
p7910
aS'vhigh'
p7911
ag59
ag59
aS'med'
p7912
aS'low'
p7913
aS'unacc'
p7914
aa(lp7915
S'low'
p7916
aS'vhigh'
p7917
ag59
ag59
aS'med'
p7918
aS'med'
p7919
aS'acc'
p7920
aa(lp7921
S'low'
p7922
aS'vhigh'
p7923
ag59
ag59
aS'med'
p7924
aS'high'
p7925
aS'acc'
p7926
aa(lp7927
S'low'
p7928
aS'vhigh'
p7929
ag59
ag59
aS'big'
p7930
aS'low'
p7931
aS'unacc'
p7932
aa(lp7933
S'low'
p7934
aS'vhigh'
p7935
ag59
ag59
aS'big'
p7936
aS'med'
p7937
aS'acc'
p7938
aa(lp7939
S'low'
p7940
aS'vhigh'
p7941
ag59
ag59
aS'big'
p7942
aS'high'
p7943
aS'acc'
p7944
aa(lp7945
S'low'
p7946
aS'vhigh'
p7947
ag59
aS'more'
p7948
aS'small'
p7949
aS'low'
p7950
aS'unacc'
p7951
aa(lp7952
S'low'
p7953
aS'vhigh'
p7954
ag59
aS'more'
p7955
aS'small'
p7956
aS'med'
p7957
aS'unacc'
p7958
aa(lp7959
S'low'
p7960
aS'vhigh'
p7961
ag59
aS'more'
p7962
aS'small'
p7963
aS'high'
p7964
aS'acc'
p7965
aa(lp7966
S'low'
p7967
aS'vhigh'
p7968
ag59
aS'more'
p7969
aS'med'
p7970
aS'low'
p7971
aS'unacc'
p7972
aa(lp7973
S'low'
p7974
aS'vhigh'
p7975
ag59
aS'more'
p7976
aS'med'
p7977
aS'med'
p7978
aS'acc'
p7979
aa(lp7980
S'low'
p7981
aS'vhigh'
p7982
ag59
aS'more'
p7983
aS'med'
p7984
aS'high'
p7985
aS'acc'
p7986
aa(lp7987
S'low'
p7988
aS'vhigh'
p7989
ag59
aS'more'
p7990
aS'big'
p7991
aS'low'
p7992
aS'unacc'
p7993
aa(lp7994
S'low'
p7995
aS'vhigh'
p7996
ag59
aS'more'
p7997
aS'big'
p7998
aS'med'
p7999
aS'acc'
p8000
aa(lp8001
S'low'
p8002
aS'vhigh'
p8003
ag59
aS'more'
p8004
aS'big'
p8005
aS'high'
p8006
aS'acc'
p8007
aa(lp8008
S'low'
p8009
aS'vhigh'
p8010
aS'5more'
p8011
ag4
aS'small'
p8012
aS'low'
p8013
aS'unacc'
p8014
aa(lp8015
S'low'
p8016
aS'vhigh'
p8017
aS'5more'
p8018
ag4
aS'small'
p8019
aS'med'
p8020
aS'unacc'
p8021
aa(lp8022
S'low'
p8023
aS'vhigh'
p8024
aS'5more'
p8025
ag4
aS'small'
p8026
aS'high'
p8027
aS'unacc'
p8028
aa(lp8029
S'low'
p8030
aS'vhigh'
p8031
aS'5more'
p8032
ag4
aS'med'
p8033
aS'low'
p8034
aS'unacc'
p8035
aa(lp8036
S'low'
p8037
aS'vhigh'
p8038
aS'5more'
p8039
ag4
aS'med'
p8040
aS'med'
p8041
aS'unacc'
p8042
aa(lp8043
S'low'
p8044
aS'vhigh'
p8045
aS'5more'
p8046
ag4
aS'med'
p8047
aS'high'
p8048
aS'unacc'
p8049
aa(lp8050
S'low'
p8051
aS'vhigh'
p8052
aS'5more'
p8053
ag4
aS'big'
p8054
aS'low'
p8055
aS'unacc'
p8056
aa(lp8057
S'low'
p8058
aS'vhigh'
p8059
aS'5more'
p8060
ag4
aS'big'
p8061
aS'med'
p8062
aS'unacc'
p8063
aa(lp8064
S'low'
p8065
aS'vhigh'
p8066
aS'5more'
p8067
ag4
aS'big'
p8068
aS'high'
p8069
aS'unacc'
p8070
aa(lp8071
S'low'
p8072
aS'vhigh'
p8073
aS'5more'
p8074
ag59
aS'small'
p8075
aS'low'
p8076
aS'unacc'
p8077
aa(lp8078
S'low'
p8079
aS'vhigh'
p8080
aS'5more'
p8081
ag59
aS'small'
p8082
aS'med'
p8083
aS'unacc'
p8084
aa(lp8085
S'low'
p8086
aS'vhigh'
p8087
aS'5more'
p8088
ag59
aS'small'
p8089
aS'high'
p8090
aS'acc'
p8091
aa(lp8092
S'low'
p8093
aS'vhigh'
p8094
aS'5more'
p8095
ag59
aS'med'
p8096
aS'low'
p8097
aS'unacc'
p8098
aa(lp8099
S'low'
p8100
aS'vhigh'
p8101
aS'5more'
p8102
ag59
aS'med'
p8103
aS'med'
p8104
aS'acc'
p8105
aa(lp8106
S'low'
p8107
aS'vhigh'
p8108
aS'5more'
p8109
ag59
aS'med'
p8110
aS'high'
p8111
aS'acc'
p8112
aa(lp8113
S'low'
p8114
aS'vhigh'
p8115
aS'5more'
p8116
ag59
aS'big'
p8117
aS'low'
p8118
aS'unacc'
p8119
aa(lp8120
S'low'
p8121
aS'vhigh'
p8122
aS'5more'
p8123
ag59
aS'big'
p8124
aS'med'
p8125
aS'acc'
p8126
aa(lp8127
S'low'
p8128
aS'vhigh'
p8129
aS'5more'
p8130
ag59
aS'big'
p8131
aS'high'
p8132
aS'acc'
p8133
aa(lp8134
S'low'
p8135
aS'vhigh'
p8136
aS'5more'
p8137
aS'more'
p8138
aS'small'
p8139
aS'low'
p8140
aS'unacc'
p8141
aa(lp8142
S'low'
p8143
aS'vhigh'
p8144
aS'5more'
p8145
aS'more'
p8146
aS'small'
p8147
aS'med'
p8148
aS'unacc'
p8149
aa(lp8150
S'low'
p8151
aS'vhigh'
p8152
aS'5more'
p8153
aS'more'
p8154
aS'small'
p8155
aS'high'
p8156
aS'acc'
p8157
aa(lp8158
S'low'
p8159
aS'vhigh'
p8160
aS'5more'
p8161
aS'more'
p8162
aS'med'
p8163
aS'low'
p8164
aS'unacc'
p8165
aa(lp8166
S'low'
p8167
aS'vhigh'
p8168
aS'5more'
p8169
aS'more'
p8170
aS'med'
p8171
aS'med'
p8172
aS'acc'
p8173
aa(lp8174
S'low'
p8175
aS'vhigh'
p8176
aS'5more'
p8177
aS'more'
p8178
aS'med'
p8179
aS'high'
p8180
aS'acc'
p8181
aa(lp8182
S'low'
p8183
aS'vhigh'
p8184
aS'5more'
p8185
aS'more'
p8186
aS'big'
p8187
aS'low'
p8188
aS'unacc'
p8189
aa(lp8190
S'low'
p8191
aS'vhigh'
p8192
aS'5more'
p8193
aS'more'
p8194
aS'big'
p8195
aS'med'
p8196
aS'acc'
p8197
aa(lp8198
S'low'
p8199
aS'vhigh'
p8200
aS'5more'
p8201
aS'more'
p8202
aS'big'
p8203
aS'high'
p8204
aS'acc'
p8205
aa(lp8206
S'low'
p8207
aS'high'
p8208
ag4
ag4
aS'small'
p8209
aS'low'
p8210
aS'unacc'
p8211
aa(lp8212
S'low'
p8213
aS'high'
p8214
ag4
ag4
aS'small'
p8215
aS'med'
p8216
aS'unacc'
p8217
aa(lp8218
S'low'
p8219
aS'high'
p8220
ag4
ag4
aS'small'
p8221
aS'high'
p8222
aS'unacc'
p8223
aa(lp8224
S'low'
p8225
aS'high'
p8226
ag4
ag4
aS'med'
p8227
aS'low'
p8228
aS'unacc'
p8229
aa(lp8230
S'low'
p8231
aS'high'
p8232
ag4
ag4
aS'med'
p8233
aS'med'
p8234
aS'unacc'
p8235
aa(lp8236
S'low'
p8237
aS'high'
p8238
ag4
ag4
aS'med'
p8239
aS'high'
p8240
aS'unacc'
p8241
aa(lp8242
S'low'
p8243
aS'high'
p8244
ag4
ag4
aS'big'
p8245
aS'low'
p8246
aS'unacc'
p8247
aa(lp8248
S'low'
p8249
aS'high'
p8250
ag4
ag4
aS'big'
p8251
aS'med'
p8252
aS'unacc'
p8253
aa(lp8254
S'low'
p8255
aS'high'
p8256
ag4
ag4
aS'big'
p8257
aS'high'
p8258
aS'unacc'
p8259
aa(lp8260
S'low'
p8261
aS'high'
p8262
ag4
ag59
aS'small'
p8263
aS'low'
p8264
aS'unacc'
p8265
aa(lp8266
S'low'
p8267
aS'high'
p8268
ag4
ag59
aS'small'
p8269
aS'med'
p8270
aS'acc'
p8271
aa(lp8272
S'low'
p8273
aS'high'
p8274
ag4
ag59
aS'small'
p8275
aS'high'
p8276
aS'acc'
p8277
aa(lp8278
S'low'
p8279
aS'high'
p8280
ag4
ag59
aS'med'
p8281
aS'low'
p8282
aS'unacc'
p8283
aa(lp8284
S'low'
p8285
aS'high'
p8286
ag4
ag59
aS'med'
p8287
aS'med'
p8288
aS'acc'
p8289
aa(lp8290
S'low'
p8291
aS'high'
p8292
ag4
ag59
aS'med'
p8293
aS'high'
p8294
aS'acc'
p8295
aa(lp8296
S'low'
p8297
aS'high'
p8298
ag4
ag59
aS'big'
p8299
aS'low'
p8300
aS'unacc'
p8301
aa(lp8302
S'low'
p8303
aS'high'
p8304
ag4
ag59
aS'big'
p8305
aS'med'
p8306
aS'acc'
p8307
aa(lp8308
S'low'
p8309
aS'high'
p8310
ag4
ag59
aS'big'
p8311
aS'high'
p8312
aS'vgood'
p8313
aa(lp8314
S'low'
p8315
aS'high'
p8316
ag4
aS'more'
p8317
aS'small'
p8318
aS'low'
p8319
aS'unacc'
p8320
aa(lp8321
S'low'
p8322
aS'high'
p8323
ag4
aS'more'
p8324
aS'small'
p8325
aS'med'
p8326
aS'unacc'
p8327
aa(lp8328
S'low'
p8329
aS'high'
p8330
ag4
aS'more'
p8331
aS'small'
p8332
aS'high'
p8333
aS'unacc'
p8334
aa(lp8335
S'low'
p8336
aS'high'
p8337
ag4
aS'more'
p8338
aS'med'
p8339
aS'low'
p8340
aS'unacc'
p8341
aa(lp8342
S'low'
p8343
aS'high'
p8344
ag4
aS'more'
p8345
aS'med'
p8346
aS'med'
p8347
aS'acc'
p8348
aa(lp8349
S'low'
p8350
aS'high'
p8351
ag4
aS'more'
p8352
aS'med'
p8353
aS'high'
p8354
aS'acc'
p8355
aa(lp8356
S'low'
p8357
aS'high'
p8358
ag4
aS'more'
p8359
aS'big'
p8360
aS'low'
p8361
aS'unacc'
p8362
aa(lp8363
S'low'
p8364
aS'high'
p8365
ag4
aS'more'
p8366
aS'big'
p8367
aS'med'
p8368
aS'acc'
p8369
aa(lp8370
S'low'
p8371
aS'high'
p8372
ag4
aS'more'
p8373
aS'big'
p8374
aS'high'
p8375
aS'vgood'
p8376
aa(lp8377
S'low'
p8378
aS'high'
p8379
ag177
ag4
aS'small'
p8380
aS'low'
p8381
aS'unacc'
p8382
aa(lp8383
S'low'
p8384
aS'high'
p8385
ag177
ag4
aS'small'
p8386
aS'med'
p8387
aS'unacc'
p8388
aa(lp8389
S'low'
p8390
aS'high'
p8391
ag177
ag4
aS'small'
p8392
aS'high'
p8393
aS'unacc'
p8394
aa(lp8395
S'low'
p8396
aS'high'
p8397
ag177
ag4
aS'med'
p8398
aS'low'
p8399
aS'unacc'
p8400
aa(lp8401
S'low'
p8402
aS'high'
p8403
ag177
ag4
aS'med'
p8404
aS'med'
p8405
aS'unacc'
p8406
aa(lp8407
S'low'
p8408
aS'high'
p8409
ag177
ag4
aS'med'
p8410
aS'high'
p8411
aS'unacc'
p8412
aa(lp8413
S'low'
p8414
aS'high'
p8415
ag177
ag4
aS'big'
p8416
aS'low'
p8417
aS'unacc'
p8418
aa(lp8419
S'low'
p8420
aS'high'
p8421
ag177
ag4
aS'big'
p8422
aS'med'
p8423
aS'unacc'
p8424
aa(lp8425
S'low'
p8426
aS'high'
p8427
ag177
ag4
aS'big'
p8428
aS'high'
p8429
aS'unacc'
p8430
aa(lp8431
S'low'
p8432
aS'high'
p8433
ag177
ag59
aS'small'
p8434
aS'low'
p8435
aS'unacc'
p8436
aa(lp8437
S'low'
p8438
aS'high'
p8439
ag177
ag59
aS'small'
p8440
aS'med'
p8441
aS'acc'
p8442
aa(lp8443
S'low'
p8444
aS'high'
p8445
ag177
ag59
aS'small'
p8446
aS'high'
p8447
aS'acc'
p8448
aa(lp8449
S'low'
p8450
aS'high'
p8451
ag177
ag59
aS'med'
p8452
aS'low'
p8453
aS'unacc'
p8454
aa(lp8455
S'low'
p8456
aS'high'
p8457
ag177
ag59
aS'med'
p8458
aS'med'
p8459
aS'acc'
p8460
aa(lp8461
S'low'
p8462
aS'high'
p8463
ag177
ag59
aS'med'
p8464
aS'high'
p8465
aS'acc'
p8466
aa(lp8467
S'low'
p8468
aS'high'
p8469
ag177
ag59
aS'big'
p8470
aS'low'
p8471
aS'unacc'
p8472
aa(lp8473
S'low'
p8474
aS'high'
p8475
ag177
ag59
aS'big'
p8476
aS'med'
p8477
aS'acc'
p8478
aa(lp8479
S'low'
p8480
aS'high'
p8481
ag177
aS'more'
p8482
aS'small'
p8483
aS'low'
p8484
aS'unacc'
p8485
aa(lp8486
S'low'
p8487
aS'high'
p8488
ag177
aS'more'
p8489
aS'small'
p8490
aS'med'
p8491
aS'acc'
p8492
aa(lp8493
S'low'
p8494
aS'high'
p8495
ag177
aS'more'
p8496
aS'small'
p8497
aS'high'
p8498
aS'acc'
p8499
aa(lp8500
S'low'
p8501
aS'high'
p8502
ag177
aS'more'
p8503
aS'med'
p8504
aS'low'
p8505
aS'unacc'
p8506
aa(lp8507
S'low'
p8508
aS'high'
p8509
ag177
aS'more'
p8510
aS'med'
p8511
aS'med'
p8512
aS'acc'
p8513
aa(lp8514
S'low'
p8515
aS'high'
p8516
ag177
aS'more'
p8517
aS'big'
p8518
aS'low'
p8519
aS'unacc'
p8520
aa(lp8521
S'low'
p8522
aS'high'
p8523
ag177
aS'more'
p8524
aS'big'
p8525
aS'med'
p8526
aS'acc'
p8527
aa(lp8528
S'low'
p8529
aS'high'
p8530
ag59
ag4
aS'small'
p8531
aS'low'
p8532
aS'unacc'
p8533
aa(lp8534
S'low'
p8535
aS'high'
p8536
ag59
ag4
aS'small'
p8537
aS'med'
p8538
aS'unacc'
p8539
aa(lp8540
S'low'
p8541
aS'high'
p8542
ag59
ag4
aS'small'
p8543
aS'high'
p8544
aS'unacc'
p8545
aa(lp8546
S'low'
p8547
aS'high'
p8548
ag59
ag4
aS'med'
p8549
aS'low'
p8550
aS'unacc'
p8551
aa(lp8552
S'low'
p8553
aS'high'
p8554
ag59
ag4
aS'med'
p8555
aS'med'
p8556
aS'unacc'
p8557
aa(lp8558
S'low'
p8559
aS'high'
p8560
ag59
ag4
aS'med'
p8561
aS'high'
p8562
aS'unacc'
p8563
aa(lp8564
S'low'
p8565
aS'high'
p8566
ag59
ag4
aS'big'
p8567
aS'low'
p8568
aS'unacc'
p8569
aa(lp8570
S'low'
p8571
aS'high'
p8572
ag59
ag4
aS'big'
p8573
aS'med'
p8574
aS'unacc'
p8575
aa(lp8576
S'low'
p8577
aS'high'
p8578
ag59
ag4
aS'big'
p8579
aS'high'
p8580
aS'unacc'
p8581
aa(lp8582
S'low'
p8583
aS'high'
p8584
ag59
ag59
aS'small'
p8585
aS'low'
p8586
aS'unacc'
p8587
aa(lp8588
S'low'
p8589
aS'high'
p8590
ag59
ag59
aS'small'
p8591
aS'med'
p8592
aS'acc'
p8593
aa(lp8594
S'low'
p8595
aS'high'
p8596
ag59
ag59
aS'small'
p8597
aS'high'
p8598
aS'acc'
p8599
aa(lp8600
S'low'
p8601
aS'high'
p8602
ag59
ag59
aS'med'
p8603
aS'low'
p8604
aS'unacc'
p8605
aa(lp8606
S'low'
p8607
aS'high'
p8608
ag59
ag59
aS'med'
p8609
aS'med'
p8610
aS'acc'
p8611
aa(lp8612
S'low'
p8613
aS'high'
p8614
ag59
ag59
aS'big'
p8615
aS'low'
p8616
aS'unacc'
p8617
aa(lp8618
S'low'
p8619
aS'high'
p8620
ag59
ag59
aS'big'
p8621
aS'med'
p8622
aS'acc'
p8623
aa(lp8624
S'low'
p8625
aS'high'
p8626
ag59
aS'more'
p8627
aS'small'
p8628
aS'low'
p8629
aS'unacc'
p8630
aa(lp8631
S'low'
p8632
aS'high'
p8633
ag59
aS'more'
p8634
aS'small'
p8635
aS'med'
p8636
aS'acc'
p8637
aa(lp8638
S'low'
p8639
aS'high'
p8640
ag59
aS'more'
p8641
aS'small'
p8642
aS'high'
p8643
aS'acc'
p8644
aa(lp8645
S'low'
p8646
aS'high'
p8647
ag59
aS'more'
p8648
aS'med'
p8649
aS'low'
p8650
aS'unacc'
p8651
aa(lp8652
S'low'
p8653
aS'high'
p8654
ag59
aS'more'
p8655
aS'med'
p8656
aS'med'
p8657
aS'acc'
p8658
aa(lp8659
S'low'
p8660
aS'high'
p8661
ag59
aS'more'
p8662
aS'big'
p8663
aS'low'
p8664
aS'unacc'
p8665
aa(lp8666
S'low'
p8667
aS'high'
p8668
ag59
aS'more'
p8669
aS'big'
p8670
aS'med'
p8671
aS'acc'
p8672
aa(lp8673
S'low'
p8674
aS'high'
p8675
aS'5more'
p8676
ag4
aS'small'
p8677
aS'low'
p8678
aS'unacc'
p8679
aa(lp8680
S'low'
p8681
aS'high'
p8682
aS'5more'
p8683
ag4
aS'small'
p8684
aS'med'
p8685
aS'unacc'
p8686
aa(lp8687
S'low'
p8688
aS'high'
p8689
aS'5more'
p8690
ag4
aS'small'
p8691
aS'high'
p8692
aS'unacc'
p8693
aa(lp8694
S'low'
p8695
aS'high'
p8696
aS'5more'
p8697
ag4
aS'med'
p8698
aS'low'
p8699
aS'unacc'
p8700
aa(lp8701
S'low'
p8702
aS'high'
p8703
aS'5more'
p8704
ag4
aS'med'
p8705
aS'med'
p8706
aS'unacc'
p8707
aa(lp8708
S'low'
p8709
aS'high'
p8710
aS'5more'
p8711
ag4
aS'med'
p8712
aS'high'
p8713
aS'unacc'
p8714
aa(lp8715
S'low'
p8716
aS'high'
p8717
aS'5more'
p8718
ag4
aS'big'
p8719
aS'low'
p8720
aS'unacc'
p8721
aa(lp8722
S'low'
p8723
aS'high'
p8724
aS'5more'
p8725
ag4
aS'big'
p8726
aS'med'
p8727
aS'unacc'
p8728
aa(lp8729
S'low'
p8730
aS'high'
p8731
aS'5more'
p8732
ag4
aS'big'
p8733
aS'high'
p8734
aS'unacc'
p8735
aa(lp8736
S'low'
p8737
aS'high'
p8738
aS'5more'
p8739
ag59
aS'small'
p8740
aS'low'
p8741
aS'unacc'
p8742
aa(lp8743
S'low'
p8744
aS'high'
p8745
aS'5more'
p8746
ag59
aS'small'
p8747
aS'med'
p8748
aS'acc'
p8749
aa(lp8750
S'low'
p8751
aS'high'
p8752
aS'5more'
p8753
ag59
aS'small'
p8754
aS'high'
p8755
aS'acc'
p8756
aa(lp8757
S'low'
p8758
aS'high'
p8759
aS'5more'
p8760
ag59
aS'med'
p8761
aS'low'
p8762
aS'unacc'
p8763
aa(lp8764
S'low'
p8765
aS'high'
p8766
aS'5more'
p8767
ag59
aS'med'
p8768
aS'med'
p8769
aS'acc'
p8770
aa(lp8771
S'low'
p8772
aS'high'
p8773
aS'5more'
p8774
ag59
aS'med'
p8775
aS'high'
p8776
aS'vgood'
p8777
aa(lp8778
S'low'
p8779
aS'high'
p8780
aS'5more'
p8781
ag59
aS'big'
p8782
aS'low'
p8783
aS'unacc'
p8784
aa(lp8785
S'low'
p8786
aS'high'
p8787
aS'5more'
p8788
ag59
aS'big'
p8789
aS'med'
p8790
aS'acc'
p8791
aa(lp8792
S'low'
p8793
aS'high'
p8794
aS'5more'
p8795
ag59
aS'big'
p8796
aS'high'
p8797
aS'vgood'
p8798
aa(lp8799
S'low'
p8800
aS'high'
p8801
aS'5more'
p8802
aS'more'
p8803
aS'small'
p8804
aS'low'
p8805
aS'unacc'
p8806
aa(lp8807
S'low'
p8808
aS'high'
p8809
aS'5more'
p8810
aS'more'
p8811
aS'small'
p8812
aS'med'
p8813
aS'acc'
p8814
aa(lp8815
S'low'
p8816
aS'high'
p8817
aS'5more'
p8818
aS'more'
p8819
aS'small'
p8820
aS'high'
p8821
aS'acc'
p8822
aa(lp8823
S'low'
p8824
aS'high'
p8825
aS'5more'
p8826
aS'more'
p8827
aS'med'
p8828
aS'low'
p8829
aS'unacc'
p8830
aa(lp8831
S'low'
p8832
aS'high'
p8833
aS'5more'
p8834
aS'more'
p8835
aS'med'
p8836
aS'med'
p8837
aS'acc'
p8838
aa(lp8839
S'low'
p8840
aS'high'
p8841
aS'5more'
p8842
aS'more'
p8843
aS'med'
p8844
aS'high'
p8845
aS'vgood'
p8846
aa(lp8847
S'low'
p8848
aS'high'
p8849
aS'5more'
p8850
aS'more'
p8851
aS'big'
p8852
aS'low'
p8853
aS'unacc'
p8854
aa(lp8855
S'low'
p8856
aS'high'
p8857
aS'5more'
p8858
aS'more'
p8859
aS'big'
p8860
aS'med'
p8861
aS'acc'
p8862
aa(lp8863
S'low'
p8864
aS'high'
p8865
aS'5more'
p8866
aS'more'
p8867
aS'big'
p8868
aS'high'
p8869
aS'vgood'
p8870
aa(lp8871
S'low'
p8872
aS'med'
p8873
ag4
ag4
aS'small'
p8874
aS'low'
p8875
aS'unacc'
p8876
aa(lp8877
S'low'
p8878
aS'med'
p8879
ag4
ag4
aS'small'
p8880
aS'med'
p8881
aS'unacc'
p8882
aa(lp8883
S'low'
p8884
aS'med'
p8885
ag4
ag4
aS'small'
p8886
aS'high'
p8887
aS'unacc'
p8888
aa(lp8889
S'low'
p8890
aS'med'
p8891
ag4
ag4
aS'med'
p8892
aS'low'
p8893
aS'unacc'
p8894
aa(lp8895
S'low'
p8896
aS'med'
p8897
ag4
ag4
aS'med'
p8898
aS'med'
p8899
aS'unacc'
p8900
aa(lp8901
S'low'
p8902
aS'med'
p8903
ag4
ag4
aS'med'
p8904
aS'high'
p8905
aS'unacc'
p8906
aa(lp8907
S'low'
p8908
aS'med'
p8909
ag4
ag4
aS'big'
p8910
aS'low'
p8911
aS'unacc'
p8912
aa(lp8913
S'low'
p8914
aS'med'
p8915
ag4
ag4
aS'big'
p8916
aS'med'
p8917
aS'unacc'
p8918
aa(lp8919
S'low'
p8920
aS'med'
p8921
ag4
ag4
aS'big'
p8922
aS'high'
p8923
aS'unacc'
p8924
aa(lp8925
S'low'
p8926
aS'med'
p8927
ag4
ag59
aS'small'
p8928
aS'low'
p8929
aS'unacc'
p8930
aa(lp8931
S'low'
p8932
aS'med'
p8933
ag4
ag59
aS'small'
p8934
aS'med'
p8935
aS'acc'
p8936
aa(lp8937
S'low'
p8938
aS'med'
p8939
ag4
ag59
aS'small'
p8940
aS'high'
p8941
aS'good'
p8942
aa(lp8943
S'low'
p8944
aS'med'
p8945
ag4
ag59
aS'med'
p8946
aS'low'
p8947
aS'unacc'
p8948
aa(lp8949
S'low'
p8950
aS'med'
p8951
ag4
ag59
aS'med'
p8952
aS'med'
p8953
aS'acc'
p8954
aa(lp8955
S'low'
p8956
aS'med'
p8957
ag4
ag59
aS'med'
p8958
aS'high'
p8959
aS'good'
p8960
aa(lp8961
S'low'
p8962
aS'med'
p8963
ag4
ag59
aS'big'
p8964
aS'low'
p8965
aS'unacc'
p8966
aa(lp8967
S'low'
p8968
aS'med'
p8969
ag4
ag59
aS'big'
p8970
aS'med'
p8971
aS'good'
p8972
aa(lp8973
S'low'
p8974
aS'med'
p8975
ag4
ag59
aS'big'
p8976
aS'high'
p8977
aS'vgood'
p8978
aa(lp8979
S'low'
p8980
aS'med'
p8981
ag4
aS'more'
p8982
aS'small'
p8983
aS'low'
p8984
aS'unacc'
p8985
aa(lp8986
S'low'
p8987
aS'med'
p8988
ag4
aS'more'
p8989
aS'small'
p8990
aS'med'
p8991
aS'unacc'
p8992
aa(lp8993
S'low'
p8994
aS'med'
p8995
ag4
aS'more'
p8996
aS'small'
p8997
aS'high'
p8998
aS'unacc'
p8999
aa(lp9000
S'low'
p9001
aS'med'
p9002
ag4
aS'more'
p9003
aS'med'
p9004
aS'low'
p9005
aS'unacc'
p9006
aa(lp9007
S'low'
p9008
aS'med'
p9009
ag4
aS'more'
p9010
aS'med'
p9011
aS'med'
p9012
aS'acc'
p9013
aa(lp9014
S'low'
p9015
aS'med'
p9016
ag4
aS'more'
p9017
aS'med'
p9018
aS'high'
p9019
aS'good'
p9020
aa(lp9021
S'low'
p9022
aS'med'
p9023
ag4
aS'more'
p9024
aS'big'
p9025
aS'low'
p9026
aS'unacc'
p9027
aa(lp9028
S'low'
p9029
aS'med'
p9030
ag4
aS'more'
p9031
aS'big'
p9032
aS'med'
p9033
aS'good'
p9034
aa(lp9035
S'low'
p9036
aS'med'
p9037
ag4
aS'more'
p9038
aS'big'
p9039
aS'high'
p9040
aS'vgood'
p9041
aa(lp9042
S'low'
p9043
aS'med'
p9044
ag177
ag4
aS'small'
p9045
aS'low'
p9046
aS'unacc'
p9047
aa(lp9048
S'low'
p9049
aS'med'
p9050
ag177
ag4
aS'small'
p9051
aS'med'
p9052
aS'unacc'
p9053
aa(lp9054
S'low'
p9055
aS'med'
p9056
ag177
ag4
aS'small'
p9057
aS'high'
p9058
aS'unacc'
p9059
aa(lp9060
S'low'
p9061
aS'med'
p9062
ag177
ag4
aS'med'
p9063
aS'low'
p9064
aS'unacc'
p9065
aa(lp9066
S'low'
p9067
aS'med'
p9068
ag177
ag4
aS'med'
p9069
aS'med'
p9070
aS'unacc'
p9071
aa(lp9072
S'low'
p9073
aS'med'
p9074
ag177
ag4
aS'med'
p9075
aS'high'
p9076
aS'unacc'
p9077
aa(lp9078
S'low'
p9079
aS'med'
p9080
ag177
ag4
aS'big'
p9081
aS'low'
p9082
aS'unacc'
p9083
aa(lp9084
S'low'
p9085
aS'med'
p9086
ag177
ag4
aS'big'
p9087
aS'med'
p9088
aS'unacc'
p9089
aa(lp9090
S'low'
p9091
aS'med'
p9092
ag177
ag4
aS'big'
p9093
aS'high'
p9094
aS'unacc'
p9095
aa(lp9096
S'low'
p9097
aS'med'
p9098
ag177
ag59
aS'small'
p9099
aS'low'
p9100
aS'unacc'
p9101
aa(lp9102
S'low'
p9103
aS'med'
p9104
ag177
ag59
aS'small'
p9105
aS'med'
p9106
aS'acc'
p9107
aa(lp9108
S'low'
p9109
aS'med'
p9110
ag177
ag59
aS'med'
p9111
aS'low'
p9112
aS'unacc'
p9113
aa(lp9114
S'low'
p9115
aS'med'
p9116
ag177
ag59
aS'med'
p9117
aS'med'
p9118
aS'acc'
p9119
aa(lp9120
S'low'
p9121
aS'med'
p9122
ag177
ag59
aS'big'
p9123
aS'low'
p9124
aS'unacc'
p9125
aa(lp9126
S'low'
p9127
aS'med'
p9128
ag177
ag59
aS'big'
p9129
aS'high'
p9130
aS'vgood'
p9131
aa(lp9132
S'low'
p9133
aS'med'
p9134
ag177
aS'more'
p9135
aS'small'
p9136
aS'low'
p9137
aS'unacc'
p9138
aa(lp9139
S'low'
p9140
aS'med'
p9141
ag177
aS'more'
p9142
aS'small'
p9143
aS'med'
p9144
aS'acc'
p9145
aa(lp9146
S'low'
p9147
aS'med'
p9148
ag177
aS'more'
p9149
aS'med'
p9150
aS'low'
p9151
aS'unacc'
p9152
aa(lp9153
S'low'
p9154
aS'med'
p9155
ag177
aS'more'
p9156
aS'med'
p9157
aS'high'
p9158
aS'vgood'
p9159
aa(lp9160
S'low'
p9161
aS'med'
p9162
ag177
aS'more'
p9163
aS'big'
p9164
aS'low'
p9165
aS'unacc'
p9166
aa(lp9167
S'low'
p9168
aS'med'
p9169
ag177
aS'more'
p9170
aS'big'
p9171
aS'high'
p9172
aS'vgood'
p9173
aa(lp9174
S'low'
p9175
aS'med'
p9176
ag59
ag4
aS'small'
p9177
aS'low'
p9178
aS'unacc'
p9179
aa(lp9180
S'low'
p9181
aS'med'
p9182
ag59
ag4
aS'small'
p9183
aS'med'
p9184
aS'unacc'
p9185
aa(lp9186
S'low'
p9187
aS'med'
p9188
ag59
ag4
aS'small'
p9189
aS'high'
p9190
aS'unacc'
p9191
aa(lp9192
S'low'
p9193
aS'med'
p9194
ag59
ag4
aS'med'
p9195
aS'low'
p9196
aS'unacc'
p9197
aa(lp9198
S'low'
p9199
aS'med'
p9200
ag59
ag4
aS'med'
p9201
aS'med'
p9202
aS'unacc'
p9203
aa(lp9204
S'low'
p9205
aS'med'
p9206
ag59
ag4
aS'med'
p9207
aS'high'
p9208
aS'unacc'
p9209
aa(lp9210
S'low'
p9211
aS'med'
p9212
ag59
ag4
aS'big'
p9213
aS'low'
p9214
aS'unacc'
p9215
aa(lp9216
S'low'
p9217
aS'med'
p9218
ag59
ag4
aS'big'
p9219
aS'med'
p9220
aS'unacc'
p9221
aa(lp9222
S'low'
p9223
aS'med'
p9224
ag59
ag4
aS'big'
p9225
aS'high'
p9226
aS'unacc'
p9227
aa(lp9228
S'low'
p9229
aS'med'
p9230
ag59
ag59
aS'small'
p9231
aS'low'
p9232
aS'unacc'
p9233
aa(lp9234
S'low'
p9235
aS'med'
p9236
ag59
ag59
aS'small'
p9237
aS'med'
p9238
aS'acc'
p9239
aa(lp9240
S'low'
p9241
aS'med'
p9242
ag59
ag59
aS'med'
p9243
aS'low'
p9244
aS'unacc'
p9245
aa(lp9246
S'low'
p9247
aS'med'
p9248
ag59
ag59
aS'med'
p9249
aS'med'
p9250
aS'good'
p9251
aa(lp9252
S'low'
p9253
aS'med'
p9254
ag59
ag59
aS'med'
p9255
aS'high'
p9256
aS'vgood'
p9257
aa(lp9258
S'low'
p9259
aS'med'
p9260
ag59
ag59
aS'big'
p9261
aS'low'
p9262
aS'unacc'
p9263
aa(lp9264
S'low'
p9265
aS'med'
p9266
ag59
ag59
aS'big'
p9267
aS'med'
p9268
aS'good'
p9269
aa(lp9270
S'low'
p9271
aS'med'
p9272
ag59
ag59
aS'big'
p9273
aS'high'
p9274
aS'vgood'
p9275
aa(lp9276
S'low'
p9277
aS'med'
p9278
ag59
aS'more'
p9279
aS'small'
p9280
aS'low'
p9281
aS'unacc'
p9282
aa(lp9283
S'low'
p9284
aS'med'
p9285
ag59
aS'more'
p9286
aS'small'
p9287
aS'med'
p9288
aS'acc'
p9289
aa(lp9290
S'low'
p9291
aS'med'
p9292
ag59
aS'more'
p9293
aS'small'
p9294
aS'high'
p9295
aS'good'
p9296
aa(lp9297
S'low'
p9298
aS'med'
p9299
ag59
aS'more'
p9300
aS'med'
p9301
aS'low'
p9302
aS'unacc'
p9303
aa(lp9304
S'low'
p9305
aS'med'
p9306
ag59
aS'more'
p9307
aS'med'
p9308
aS'med'
p9309
aS'good'
p9310
aa(lp9311
S'low'
p9312
aS'med'
p9313
ag59
aS'more'
p9314
aS'med'
p9315
aS'high'
p9316
aS'vgood'
p9317
aa(lp9318
S'low'
p9319
aS'med'
p9320
ag59
aS'more'
p9321
aS'big'
p9322
aS'low'
p9323
aS'unacc'
p9324
aa(lp9325
S'low'
p9326
aS'med'
p9327
ag59
aS'more'
p9328
aS'big'
p9329
aS'med'
p9330
aS'good'
p9331
aa(lp9332
S'low'
p9333
aS'med'
p9334
ag59
aS'more'
p9335
aS'big'
p9336
aS'high'
p9337
aS'vgood'
p9338
aa(lp9339
S'low'
p9340
aS'med'
p9341
aS'5more'
p9342
ag4
aS'small'
p9343
aS'low'
p9344
aS'unacc'
p9345
aa(lp9346
S'low'
p9347
aS'med'
p9348
aS'5more'
p9349
ag4
aS'small'
p9350
aS'med'
p9351
aS'unacc'
p9352
aa(lp9353
S'low'
p9354
aS'med'
p9355
aS'5more'
p9356
ag4
aS'small'
p9357
aS'high'
p9358
aS'unacc'
p9359
aa(lp9360
S'low'
p9361
aS'med'
p9362
aS'5more'
p9363
ag4
aS'med'
p9364
aS'low'
p9365
aS'unacc'
p9366
aa(lp9367
S'low'
p9368
aS'med'
p9369
aS'5more'
p9370
ag4
aS'med'
p9371
aS'med'
p9372
aS'unacc'
p9373
aa(lp9374
S'low'
p9375
aS'med'
p9376
aS'5more'
p9377
ag4
aS'med'
p9378
aS'high'
p9379
aS'unacc'
p9380
aa(lp9381
S'low'
p9382
aS'med'
p9383
aS'5more'
p9384
ag4
aS'big'
p9385
aS'low'
p9386
aS'unacc'
p9387
aa(lp9388
S'low'
p9389
aS'med'
p9390
aS'5more'
p9391
ag4
aS'big'
p9392
aS'med'
p9393
aS'unacc'
p9394
aa(lp9395
S'low'
p9396
aS'med'
p9397
aS'5more'
p9398
ag4
aS'big'
p9399
aS'high'
p9400
aS'unacc'
p9401
aa(lp9402
S'low'
p9403
aS'med'
p9404
aS'5more'
p9405
ag59
aS'small'
p9406
aS'low'
p9407
aS'unacc'
p9408
aa(lp9409
S'low'
p9410
aS'med'
p9411
aS'5more'
p9412
ag59
aS'small'
p9413
aS'med'
p9414
aS'acc'
p9415
aa(lp9416
S'low'
p9417
aS'med'
p9418
aS'5more'
p9419
ag59
aS'small'
p9420
aS'high'
p9421
aS'good'
p9422
aa(lp9423
S'low'
p9424
aS'med'
p9425
aS'5more'
p9426
ag59
aS'med'
p9427
aS'low'
p9428
aS'unacc'
p9429
aa(lp9430
S'low'
p9431
aS'med'
p9432
aS'5more'
p9433
ag59
aS'med'
p9434
aS'med'
p9435
aS'good'
p9436
aa(lp9437
S'low'
p9438
aS'med'
p9439
aS'5more'
p9440
ag59
aS'med'
p9441
aS'high'
p9442
aS'vgood'
p9443
aa(lp9444
S'low'
p9445
aS'med'
p9446
aS'5more'
p9447
ag59
aS'big'
p9448
aS'low'
p9449
aS'unacc'
p9450
aa(lp9451
S'low'
p9452
aS'med'
p9453
aS'5more'
p9454
ag59
aS'big'
p9455
aS'med'
p9456
aS'good'
p9457
aa(lp9458
S'low'
p9459
aS'med'
p9460
aS'5more'
p9461
ag59
aS'big'
p9462
aS'high'
p9463
aS'vgood'
p9464
aa(lp9465
S'low'
p9466
aS'med'
p9467
aS'5more'
p9468
aS'more'
p9469
aS'small'
p9470
aS'low'
p9471
aS'unacc'
p9472
aa(lp9473
S'low'
p9474
aS'med'
p9475
aS'5more'
p9476
aS'more'
p9477
aS'small'
p9478
aS'med'
p9479
aS'acc'
p9480
aa(lp9481
S'low'
p9482
aS'med'
p9483
aS'5more'
p9484
aS'more'
p9485
aS'small'
p9486
aS'high'
p9487
aS'good'
p9488
aa(lp9489
S'low'
p9490
aS'med'
p9491
aS'5more'
p9492
aS'more'
p9493
aS'med'
p9494
aS'low'
p9495
aS'unacc'
p9496
aa(lp9497
S'low'
p9498
aS'med'
p9499
aS'5more'
p9500
aS'more'
p9501
aS'med'
p9502
aS'med'
p9503
aS'good'
p9504
aa(lp9505
S'low'
p9506
aS'med'
p9507
aS'5more'
p9508
aS'more'
p9509
aS'med'
p9510
aS'high'
p9511
aS'vgood'
p9512
aa(lp9513
S'low'
p9514
aS'med'
p9515
aS'5more'
p9516
aS'more'
p9517
aS'big'
p9518
aS'low'
p9519
aS'unacc'
p9520
aa(lp9521
S'low'
p9522
aS'med'
p9523
aS'5more'
p9524
aS'more'
p9525
aS'big'
p9526
aS'med'
p9527
aS'good'
p9528
aa(lp9529
S'low'
p9530
aS'med'
p9531
aS'5more'
p9532
aS'more'
p9533
aS'big'
p9534
aS'high'
p9535
aS'vgood'
p9536
aa(lp9537
S'low'
p9538
aS'low'
p9539
ag4
ag4
aS'small'
p9540
aS'low'
p9541
aS'unacc'
p9542
aa(lp9543
S'low'
p9544
aS'low'
p9545
ag4
ag4
aS'small'
p9546
aS'med'
p9547
aS'unacc'
p9548
aa(lp9549
S'low'
p9550
aS'low'
p9551
ag4
ag4
aS'small'
p9552
aS'high'
p9553
aS'unacc'
p9554
aa(lp9555
S'low'
p9556
aS'low'
p9557
ag4
ag4
aS'med'
p9558
aS'low'
p9559
aS'unacc'
p9560
aa(lp9561
S'low'
p9562
aS'low'
p9563
ag4
ag4
aS'med'
p9564
aS'med'
p9565
aS'unacc'
p9566
aa(lp9567
S'low'
p9568
aS'low'
p9569
ag4
ag4
aS'med'
p9570
aS'high'
p9571
aS'unacc'
p9572
aa(lp9573
S'low'
p9574
aS'low'
p9575
ag4
ag4
aS'big'
p9576
aS'low'
p9577
aS'unacc'
p9578
aa(lp9579
S'low'
p9580
aS'low'
p9581
ag4
ag4
aS'big'
p9582
aS'med'
p9583
aS'unacc'
p9584
aa(lp9585
S'low'
p9586
aS'low'
p9587
ag4
ag4
aS'big'
p9588
aS'high'
p9589
aS'unacc'
p9590
aa(lp9591
S'low'
p9592
aS'low'
p9593
ag4
ag59
aS'small'
p9594
aS'low'
p9595
aS'unacc'
p9596
aa(lp9597
S'low'
p9598
aS'low'
p9599
ag4
ag59
aS'small'
p9600
aS'med'
p9601
aS'acc'
p9602
aa(lp9603
S'low'
p9604
aS'low'
p9605
ag4
ag59
aS'small'
p9606
aS'high'
p9607
aS'good'
p9608
aa(lp9609
S'low'
p9610
aS'low'
p9611
ag4
ag59
aS'med'
p9612
aS'low'
p9613
aS'unacc'
p9614
aa(lp9615
S'low'
p9616
aS'low'
p9617
ag4
ag59
aS'med'
p9618
aS'med'
p9619
aS'acc'
p9620
aa(lp9621
S'low'
p9622
aS'low'
p9623
ag4
ag59
aS'med'
p9624
aS'high'
p9625
aS'good'
p9626
aa(lp9627
S'low'
p9628
aS'low'
p9629
ag4
ag59
aS'big'
p9630
aS'low'
p9631
aS'unacc'
p9632
aa(lp9633
S'low'
p9634
aS'low'
p9635
ag4
ag59
aS'big'
p9636
aS'med'
p9637
aS'good'
p9638
aa(lp9639
S'low'
p9640
aS'low'
p9641
ag4
ag59
aS'big'
p9642
aS'high'
p9643
aS'vgood'
p9644
aa(lp9645
S'low'
p9646
aS'low'
p9647
ag4
aS'more'
p9648
aS'small'
p9649
aS'low'
p9650
aS'unacc'
p9651
aa(lp9652
S'low'
p9653
aS'low'
p9654
ag4
aS'more'
p9655
aS'small'
p9656
aS'med'
p9657
aS'unacc'
p9658
aa(lp9659
S'low'
p9660
aS'low'
p9661
ag4
aS'more'
p9662
aS'small'
p9663
aS'high'
p9664
aS'unacc'
p9665
aa(lp9666
S'low'
p9667
aS'low'
p9668
ag4
aS'more'
p9669
aS'med'
p9670
aS'low'
p9671
aS'unacc'
p9672
aa(lp9673
S'low'
p9674
aS'low'
p9675
ag4
aS'more'
p9676
aS'med'
p9677
aS'med'
p9678
aS'acc'
p9679
aa(lp9680
S'low'
p9681
aS'low'
p9682
ag4
aS'more'
p9683
aS'med'
p9684
aS'high'
p9685
aS'good'
p9686
aa(lp9687
S'low'
p9688
aS'low'
p9689
ag4
aS'more'
p9690
aS'big'
p9691
aS'low'
p9692
aS'unacc'
p9693
aa(lp9694
S'low'
p9695
aS'low'
p9696
ag4
aS'more'
p9697
aS'big'
p9698
aS'med'
p9699
aS'good'
p9700
aa(lp9701
S'low'
p9702
aS'low'
p9703
ag4
aS'more'
p9704
aS'big'
p9705
aS'high'
p9706
aS'vgood'
p9707
aa(lp9708
S'low'
p9709
aS'low'
p9710
ag177
ag4
aS'small'
p9711
aS'low'
p9712
aS'unacc'
p9713
aa(lp9714
S'low'
p9715
aS'low'
p9716
ag177
ag4
aS'small'
p9717
aS'med'
p9718
aS'unacc'
p9719
aa(lp9720
S'low'
p9721
aS'low'
p9722
ag177
ag4
aS'small'
p9723
aS'high'
p9724
aS'unacc'
p9725
aa(lp9726
S'low'
p9727
aS'low'
p9728
ag177
ag4
aS'med'
p9729
aS'low'
p9730
aS'unacc'
p9731
aa(lp9732
S'low'
p9733
aS'low'
p9734
ag177
ag4
aS'med'
p9735
aS'med'
p9736
aS'unacc'
p9737
aa(lp9738
S'low'
p9739
aS'low'
p9740
ag177
ag4
aS'med'
p9741
aS'high'
p9742
aS'unacc'
p9743
aa(lp9744
S'low'
p9745
aS'low'
p9746
ag177
ag4
aS'big'
p9747
aS'low'
p9748
aS'unacc'
p9749
aa(lp9750
S'low'
p9751
aS'low'
p9752
ag177
ag4
aS'big'
p9753
aS'med'
p9754
aS'unacc'
p9755
aa(lp9756
S'low'
p9757
aS'low'
p9758
ag177
ag4
aS'big'
p9759
aS'high'
p9760
aS'unacc'
p9761
aa(lp9762
S'low'
p9763
aS'low'
p9764
ag177
ag59
aS'small'
p9765
aS'low'
p9766
aS'unacc'
p9767
aa(lp9768
S'low'
p9769
aS'low'
p9770
ag177
ag59
aS'small'
p9771
aS'med'
p9772
aS'acc'
p9773
aa(lp9774
S'low'
p9775
aS'low'
p9776
ag177
ag59
aS'small'
p9777
aS'high'
p9778
aS'good'
p9779
aa(lp9780
S'low'
p9781
aS'low'
p9782
ag177
ag59
aS'med'
p9783
aS'low'
p9784
aS'unacc'
p9785
aa(lp9786
S'low'
p9787
aS'low'
p9788
ag177
ag59
aS'med'
p9789
aS'med'
p9790
aS'acc'
p9791
aa(lp9792
S'low'
p9793
aS'low'
p9794
ag177
ag59
aS'med'
p9795
aS'high'
p9796
aS'good'
p9797
aa(lp9798
S'low'
p9799
aS'low'
p9800
ag177
ag59
aS'big'
p9801
aS'low'
p9802
aS'unacc'
p9803
aa(lp9804
S'low'
p9805
aS'low'
p9806
ag177
ag59
aS'big'
p9807
aS'med'
p9808
aS'good'
p9809
aa(lp9810
S'low'
p9811
aS'low'
p9812
ag177
ag59
aS'big'
p9813
aS'high'
p9814
aS'vgood'
p9815
aa(lp9816
S'low'
p9817
aS'low'
p9818
ag177
aS'more'
p9819
aS'small'
p9820
aS'low'
p9821
aS'unacc'
p9822
aa(lp9823
S'low'
p9824
aS'low'
p9825
ag177
aS'more'
p9826
aS'small'
p9827
aS'med'
p9828
aS'acc'
p9829
aa(lp9830
S'low'
p9831
aS'low'
p9832
ag177
aS'more'
p9833
aS'small'
p9834
aS'high'
p9835
aS'good'
p9836
aa(lp9837
S'low'
p9838
aS'low'
p9839
ag177
aS'more'
p9840
aS'med'
p9841
aS'low'
p9842
aS'unacc'
p9843
aa(lp9844
S'low'
p9845
aS'low'
p9846
ag177
aS'more'
p9847
aS'med'
p9848
aS'med'
p9849
aS'good'
p9850
aa(lp9851
S'low'
p9852
aS'low'
p9853
ag177
aS'more'
p9854
aS'med'
p9855
aS'high'
p9856
aS'vgood'
p9857
aa(lp9858
S'low'
p9859
aS'low'
p9860
ag177
aS'more'
p9861
aS'big'
p9862
aS'low'
p9863
aS'unacc'
p9864
aa(lp9865
S'low'
p9866
aS'low'
p9867
ag177
aS'more'
p9868
aS'big'
p9869
aS'med'
p9870
aS'good'
p9871
aa(lp9872
S'low'
p9873
aS'low'
p9874
ag177
aS'more'
p9875
aS'big'
p9876
aS'high'
p9877
aS'vgood'
p9878
aa(lp9879
S'low'
p9880
aS'low'
p9881
ag59
ag4
aS'small'
p9882
aS'low'
p9883
aS'unacc'
p9884
aa(lp9885
S'low'
p9886
aS'low'
p9887
ag59
ag4
aS'small'
p9888
aS'med'
p9889
aS'unacc'
p9890
aa(lp9891
S'low'
p9892
aS'low'
p9893
ag59
ag4
aS'small'
p9894
aS'high'
p9895
aS'unacc'
p9896
aa(lp9897
S'low'
p9898
aS'low'
p9899
ag59
ag4
aS'med'
p9900
aS'low'
p9901
aS'unacc'
p9902
aa(lp9903
S'low'
p9904
aS'low'
p9905
ag59
ag4
aS'med'
p9906
aS'med'
p9907
aS'unacc'
p9908
aa(lp9909
S'low'
p9910
aS'low'
p9911
ag59
ag4
aS'med'
p9912
aS'high'
p9913
aS'unacc'
p9914
aa(lp9915
S'low'
p9916
aS'low'
p9917
ag59
ag4
aS'big'
p9918
aS'low'
p9919
aS'unacc'
p9920
aa(lp9921
S'low'
p9922
aS'low'
p9923
ag59
ag4
aS'big'
p9924
aS'med'
p9925
aS'unacc'
p9926
aa(lp9927
S'low'
p9928
aS'low'
p9929
ag59
ag4
aS'big'
p9930
aS'high'
p9931
aS'unacc'
p9932
aa(lp9933
S'low'
p9934
aS'low'
p9935
ag59
ag59
aS'small'
p9936
aS'low'
p9937
aS'unacc'
p9938
aa(lp9939
S'low'
p9940
aS'low'
p9941
ag59
ag59
aS'small'
p9942
aS'med'
p9943
aS'acc'
p9944
aa(lp9945
S'low'
p9946
aS'low'
p9947
ag59
ag59
aS'small'
p9948
aS'high'
p9949
aS'good'
p9950
aa(lp9951
S'low'
p9952
aS'low'
p9953
ag59
ag59
aS'med'
p9954
aS'low'
p9955
aS'unacc'
p9956
aa(lp9957
S'low'
p9958
aS'low'
p9959
ag59
ag59
aS'med'
p9960
aS'med'
p9961
aS'good'
p9962
aa(lp9963
S'low'
p9964
aS'low'
p9965
ag59
ag59
aS'med'
p9966
aS'high'
p9967
aS'vgood'
p9968
aa(lp9969
S'low'
p9970
aS'low'
p9971
ag59
ag59
aS'big'
p9972
aS'low'
p9973
aS'unacc'
p9974
aa(lp9975
S'low'
p9976
aS'low'
p9977
ag59
ag59
aS'big'
p9978
aS'med'
p9979
aS'good'
p9980
aa(lp9981
S'low'
p9982
aS'low'
p9983
ag59
ag59
aS'big'
p9984
aS'high'
p9985
aS'vgood'
p9986
aa(lp9987
S'low'
p9988
aS'low'
p9989
ag59
aS'more'
p9990
aS'small'
p9991
aS'low'
p9992
aS'unacc'
p9993
aa(lp9994
S'low'
p9995
aS'low'
p9996
ag59
aS'more'
p9997
aS'small'
p9998
aS'med'
p9999
aS'acc'
p10000
aa(lp10001
S'low'
p10002
aS'low'
p10003
ag59
aS'more'
p10004
aS'small'
p10005
aS'high'
p10006
aS'good'
p10007
aa(lp10008
S'low'
p10009
aS'low'
p10010
ag59
aS'more'
p10011
aS'med'
p10012
aS'low'
p10013
aS'unacc'
p10014
aa(lp10015
S'low'
p10016
aS'low'
p10017
ag59
aS'more'
p10018
aS'med'
p10019
aS'med'
p10020
aS'good'
p10021
aa(lp10022
S'low'
p10023
aS'low'
p10024
ag59
aS'more'
p10025
aS'med'
p10026
aS'high'
p10027
aS'vgood'
p10028
aa(lp10029
S'low'
p10030
aS'low'
p10031
ag59
aS'more'
p10032
aS'big'
p10033
aS'low'
p10034
aS'unacc'
p10035
aa(lp10036
S'low'
p10037
aS'low'
p10038
ag59
aS'more'
p10039
aS'big'
p10040
aS'med'
p10041
aS'good'
p10042
aa(lp10043
S'low'
p10044
aS'low'
p10045
ag59
aS'more'
p10046
aS'big'
p10047
aS'high'
p10048
aS'vgood'
p10049
aa(lp10050
S'low'
p10051
aS'low'
p10052
aS'5more'
p10053
ag4
aS'small'
p10054
aS'low'
p10055
aS'unacc'
p10056
aa(lp10057
S'low'
p10058
aS'low'
p10059
aS'5more'
p10060
ag4
aS'small'
p10061
aS'med'
p10062
aS'unacc'
p10063
aa(lp10064
S'low'
p10065
aS'low'
p10066
aS'5more'
p10067
ag4
aS'small'
p10068
aS'high'
p10069
aS'unacc'
p10070
aa(lp10071
S'low'
p10072
aS'low'
p10073
aS'5more'
p10074
ag4
aS'med'
p10075
aS'low'
p10076
aS'unacc'
p10077
aa(lp10078
S'low'
p10079
aS'low'
p10080
aS'5more'
p10081
ag4
aS'med'
p10082
aS'med'
p10083
aS'unacc'
p10084
aa(lp10085
S'low'
p10086
aS'low'
p10087
aS'5more'
p10088
ag4
aS'med'
p10089
aS'high'
p10090
aS'unacc'
p10091
aa(lp10092
S'low'
p10093
aS'low'
p10094
aS'5more'
p10095
ag4
aS'big'
p10096
aS'low'
p10097
aS'unacc'
p10098
aa(lp10099
S'low'
p10100
aS'low'
p10101
aS'5more'
p10102
ag4
aS'big'
p10103
aS'med'
p10104
aS'unacc'
p10105
aa(lp10106
S'low'
p10107
aS'low'
p10108
aS'5more'
p10109
ag4
aS'big'
p10110
aS'high'
p10111
aS'unacc'
p10112
aa(lp10113
S'low'
p10114
aS'low'
p10115
aS'5more'
p10116
ag59
aS'small'
p10117
aS'low'
p10118
aS'unacc'
p10119
aa(lp10120
S'low'
p10121
aS'low'
p10122
aS'5more'
p10123
ag59
aS'small'
p10124
aS'med'
p10125
aS'acc'
p10126
aa(lp10127
S'low'
p10128
aS'low'
p10129
aS'5more'
p10130
ag59
aS'small'
p10131
aS'high'
p10132
aS'good'
p10133
aa(lp10134
S'low'
p10135
aS'low'
p10136
aS'5more'
p10137
ag59
aS'med'
p10138
aS'low'
p10139
aS'unacc'
p10140
aa(lp10141
S'low'
p10142
aS'low'
p10143
aS'5more'
p10144
ag59
aS'med'
p10145
aS'med'
p10146
aS'good'
p10147
aa(lp10148
S'low'
p10149
aS'low'
p10150
aS'5more'
p10151
ag59
aS'med'
p10152
aS'high'
p10153
aS'vgood'
p10154
aa(lp10155
S'low'
p10156
aS'low'
p10157
aS'5more'
p10158
ag59
aS'big'
p10159
aS'low'
p10160
aS'unacc'
p10161
aa(lp10162
S'low'
p10163
aS'low'
p10164
aS'5more'
p10165
ag59
aS'big'
p10166
aS'med'
p10167
aS'good'
p10168
aa(lp10169
S'low'
p10170
aS'low'
p10171
aS'5more'
p10172
ag59
aS'big'
p10173
aS'high'
p10174
aS'vgood'
p10175
aa(lp10176
S'low'
p10177
aS'low'
p10178
aS'5more'
p10179
aS'more'
p10180
aS'small'
p10181
aS'low'
p10182
aS'unacc'
p10183
aa(lp10184
S'low'
p10185
aS'low'
p10186
aS'5more'
p10187
aS'more'
p10188
aS'small'
p10189
aS'med'
p10190
aS'acc'
p10191
aa(lp10192
S'low'
p10193
aS'low'
p10194
aS'5more'
p10195
aS'more'
p10196
aS'small'
p10197
aS'high'
p10198
aS'good'
p10199
aa(lp10200
S'low'
p10201
aS'low'
p10202
aS'5more'
p10203
aS'more'
p10204
aS'med'
p10205
aS'low'
p10206
aS'unacc'
p10207
aa(lp10208
S'low'
p10209
aS'low'
p10210
aS'5more'
p10211
aS'more'
p10212
aS'med'
p10213
aS'med'
p10214
aS'good'
p10215
aa(lp10216
S'low'
p10217
aS'low'
p10218
aS'5more'
p10219
aS'more'
p10220
aS'med'
p10221
aS'high'
p10222
aS'vgood'
p10223
aa(lp10224
S'low'
p10225
aS'low'
p10226
aS'5more'
p10227
aS'more'
p10228
aS'big'
p10229
aS'low'
p10230
aS'unacc'
p10231
aa(lp10232
S'low'
p10233
aS'low'
p10234
aS'5more'
p10235
aS'more'
p10236
aS'big'
p10237
aS'med'
p10238
aS'good'
p10239
aa(lp10240
S'low'
p10241
aS'low'
p10242
aS'5more'
p10243
aS'more'
p10244
aS'big'
p10245
aS'high'
p10246
aS'vgood'
p10247
aa.