(lp0
(lp1
S'vhigh'
p2
aS'vhigh'
p3
aS'2'
p4
ag4
aS'small'
p5
aS'low'
p6
aS'unacc'
p7
aa(lp8
S'vhigh'
p9
aS'vhigh'
p10
ag4
ag4
aS'small'
p11
aS'med'
p12
aS'unacc'
p13
aa(lp14
S'vhigh'
p15
aS'vhigh'
p16
ag4
ag4
aS'small'
p17
aS'high'
p18
aS'unacc'
p19
aa(lp20
S'vhigh'
p21
aS'vhigh'
p22
ag4
ag4
aS'med'
p23
aS'low'
p24
aS'unacc'
p25
aa(lp26
S'vhigh'
p27
aS'vhigh'
p28
ag4
ag4
aS'med'
p29
aS'med'
p30
aS'unacc'
p31
aa(lp32
S'vhigh'
p33
aS'vhigh'
p34
ag4
ag4
aS'med'
p35
aS'high'
p36
aS'unacc'
p37
aa(lp38
S'vhigh'
p39
aS'vhigh'
p40
ag4
ag4
aS'big'
p41
aS'low'
p42
aS'unacc'
p43
aa(lp44
S'vhigh'
p45
aS'vhigh'
p46
ag4
ag4
aS'big'
p47
aS'med'
p48
aS'unacc'
p49
aa(lp50
S'vhigh'
p51
aS'vhigh'
p52
ag4
ag4
aS'big'
p53
aS'high'
p54
aS'unacc'
p55
aa(lp56
S'vhigh'
p57
aS'vhigh'
p58
ag4
aS'4'
p59
aS'small'
p60
aS'low'
p61
aS'unacc'
p62
aa(lp63
S'vhigh'
p64
aS'vhigh'
p65
ag4
ag59
aS'small'
p66
aS'med'
p67
aS'unacc'
p68
aa(lp69
S'vhigh'
p70
aS'vhigh'
p71
ag4
ag59
aS'small'
p72
aS'high'
p73
aS'unacc'
p74
aa(lp75
S'vhigh'
p76
aS'vhigh'
p77
ag4
ag59
aS'med'
p78
aS'low'
p79
aS'unacc'
p80
aa(lp81
S'vhigh'
p82
aS'vhigh'
p83
ag4
ag59
aS'med'
p84
aS'med'
p85
aS'unacc'
p86
aa(lp87
S'vhigh'
p88
aS'vhigh'
p89
ag4
ag59
aS'med'
p90
aS'high'
p91
aS'unacc'
p92
aa(lp93
S'vhigh'
p94
aS'vhigh'
p95
ag4
ag59
aS'big'
p96
aS'low'
p97
aS'unacc'
p98
aa(lp99
S'vhigh'
p100
aS'vhigh'
p101
ag4
ag59
aS'big'
p102
aS'med'
p103
aS'unacc'
p104
aa(lp105
S'vhigh'
p106
aS'vhigh'
p107
ag4
ag59
aS'big'
p108
aS'high'
p109
aS'unacc'
p110
aa(lp111
S'vhigh'
p112
aS'vhigh'
p113
ag4
aS'more'
p114
aS'small'
p115
aS'low'
p116
aS'unacc'
p117
aa(lp118
S'vhigh'
p119
aS'vhigh'
p120
ag4
aS'more'
p121
aS'small'
p122
aS'med'
p123
aS'unacc'
p124
aa(lp125
S'vhigh'
p126
aS'vhigh'
p127
ag4
aS'more'
p128
aS'small'
p129
aS'high'
p130
aS'unacc'
p131
aa(lp132
S'vhigh'
p133
aS'vhigh'
p134
ag4
aS'more'
p135
aS'med'
p136
aS'low'
p137
aS'unacc'
p138
aa(lp139
S'vhigh'
p140
aS'vhigh'
p141
ag4
aS'more'
p142
aS'med'
p143
aS'med'
p144
aS'unacc'
p145
aa(lp146
S'vhigh'
p147
aS'vhigh'
p148
ag4
aS'more'
p149
aS'med'
p150
aS'high'
p151
aS'unacc'
p152
aa(lp153
S'vhigh'
p154
aS'vhigh'
p155
ag4
aS'more'
p156
aS'big'
p157
aS'low'
p158
aS'unacc'
p159
aa(lp160
S'vhigh'
p161
aS'vhigh'
p162
ag4
aS'more'
p163
aS'big'
p164
aS'med'
p165
aS'unacc'
p166
aa(lp167
S'vhigh'
p168
aS'vhigh'
p169
ag4
aS'more'
p170
aS'big'
p171
aS'high'
p172
aS'unacc'
p173
aa(lp174
S'vhigh'
p175
aS'vhigh'
p176
aS'3'
p177
ag4
aS'small'
p178
aS'low'
p179
aS'unacc'
p180
aa(lp181
S'vhigh'
p182
aS'vhigh'
p183
ag177
ag4
aS'small'
p184
aS'med'
p185
aS'unacc'
p186
aa(lp187
S'vhigh'
p188
aS'vhigh'
p189
ag177
ag4
aS'small'
p190
aS'high'
p191
aS'unacc'
p192
aa(lp193
S'vhigh'
p194
aS'vhigh'
p195
ag177
ag4
aS'med'
p196
aS'low'
p197
aS'unacc'
p198
aa(lp199
S'vhigh'
p200
aS'vhigh'
p201
ag177
ag4
aS'med'
p202
aS'med'
p203
aS'unacc'
p204
aa(lp205
S'vhigh'
p206
aS'vhigh'
p207
ag177
ag4
aS'med'
p208
aS'high'
p209
aS'unacc'
p210
aa(lp211
S'vhigh'
p212
aS'vhigh'
p213
ag177
ag4
aS'big'
p214
aS'low'
p215
aS'unacc'
p216
aa(lp217
S'vhigh'
p218
aS'vhigh'
p219
ag177
ag4
aS'big'
p220
aS'med'
p221
aS'unacc'
p222
aa(lp223
S'vhigh'
p224
aS'vhigh'
p225
ag177
ag4
aS'big'
p226
aS'high'
p227
aS'unacc'
p228
aa(lp229
S'vhigh'
p230
aS'vhigh'
p231
ag177
ag59
aS'small'
p232
aS'low'
p233
aS'unacc'
p234
aa(lp235
S'vhigh'
p236
aS'vhigh'
p237
ag177
ag59
aS'small'
p238
aS'med'
p239
aS'unacc'
p240
aa(lp241
S'vhigh'
p242
aS'vhigh'
p243
ag177
ag59
aS'small'
p244
aS'high'
p245
aS'unacc'
p246
aa(lp247
S'vhigh'
p248
aS'vhigh'
p249
ag177
ag59
aS'med'
p250
aS'low'
p251
aS'unacc'
p252
aa(lp253
S'vhigh'
p254
aS'vhigh'
p255
ag177
ag59
aS'med'
p256
aS'med'
p257
aS'unacc'
p258
aa(lp259
S'vhigh'
p260
aS'vhigh'
p261
ag177
ag59
aS'med'
p262
aS'high'
p263
aS'unacc'
p264
aa(lp265
S'vhigh'
p266
aS'vhigh'
p267
ag177
ag59
aS'big'
p268
aS'low'
p269
aS'unacc'
p270
aa(lp271
S'vhigh'
p272
aS'vhigh'
p273
ag177
ag59
aS'big'
p274
aS'med'
p275
aS'unacc'
p276
aa(lp277
S'vhigh'
p278
aS'vhigh'
p279
ag177
ag59
aS'big'
p280
aS'high'
p281
aS'unacc'
p282
aa(lp283
S'vhigh'
p284
aS'vhigh'
p285
ag177
aS'more'
p286
aS'small'
p287
aS'low'
p288
aS'unacc'
p289
aa(lp290
S'vhigh'
p291
aS'vhigh'
p292
ag177
aS'more'
p293
aS'small'
p294
aS'med'
p295
aS'unacc'
p296
aa(lp297
S'vhigh'
p298
aS'vhigh'
p299
ag177
aS'more'
p300
aS'small'
p301
aS'high'
p302
aS'unacc'
p303
aa(lp304
S'vhigh'
p305
aS'vhigh'
p306
ag177
aS'more'
p307
aS'med'
p308
aS'low'
p309
aS'unacc'
p310
aa(lp311
S'vhigh'
p312
aS'vhigh'
p313
ag177
aS'more'
p314
aS'med'
p315
aS'med'
p316
aS'unacc'
p317
aa(lp318
S'vhigh'
p319
aS'vhigh'
p320
ag177
aS'more'
p321
aS'med'
p322
aS'high'
p323
aS'unacc'
p324
aa(lp325
S'vhigh'
p326
aS'vhigh'
p327
ag177
aS'more'
p328
aS'big'
p329
aS'low'
p330
aS'unacc'
p331
aa(lp332
S'vhigh'
p333
aS'vhigh'
p334
ag177
aS'more'
p335
aS'big'
p336
aS'med'
p337
aS'unacc'
p338
aa(lp339
S'vhigh'
p340
aS'vhigh'
p341
ag177
aS'more'
p342
aS'big'
p343
aS'high'
p344
aS'unacc'
p345
aa(lp346
S'vhigh'
p347
aS'vhigh'
p348
ag59
ag4
aS'small'
p349
aS'low'
p350
aS'unacc'
p351
aa(lp352
S'vhigh'
p353
aS'vhigh'
p354
ag59
ag4
aS'small'
p355
aS'med'
p356
aS'unacc'
p357
aa(lp358
S'vhigh'
p359
aS'vhigh'
p360
ag59
ag4
aS'small'
p361
aS'high'
p362
aS'unacc'
p363
aa(lp364
S'vhigh'
p365
aS'vhigh'
p366
ag59
ag4
aS'med'
p367
aS'low'
p368
aS'unacc'
p369
aa(lp370
S'vhigh'
p371
aS'vhigh'
p372
ag59
ag4
aS'med'
p373
aS'med'
p374
aS'unacc'
p375
aa(lp376
S'vhigh'
p377
aS'vhigh'
p378
ag59
ag4
aS'med'
p379
aS'high'
p380
aS'unacc'
p381
aa(lp382
S'vhigh'
p383
aS'vhigh'
p384
ag59
ag4
aS'big'
p385
aS'low'
p386
aS'unacc'
p387
aa(lp388
S'vhigh'
p389
aS'vhigh'
p390
ag59
ag4
aS'big'
p391
aS'med'
p392
aS'unacc'
p393
aa(lp394
S'vhigh'
p395
aS'vhigh'
p396
ag59
ag4
aS'big'
p397
aS'high'
p398
aS'unacc'
p399
aa(lp400
S'vhigh'
p401
aS'vhigh'
p402
ag59
ag59
aS'small'
p403
aS'low'
p404
aS'unacc'
p405
aa(lp406
S'vhigh'
p407
aS'vhigh'
p408
ag59
ag59
aS'small'
p409
aS'med'
p410
aS'unacc'
p411
aa(lp412
S'vhigh'
p413
aS'vhigh'
p414
ag59
ag59
aS'small'
p415
aS'high'
p416
aS'unacc'
p417
aa(lp418
S'vhigh'
p419
aS'vhigh'
p420
ag59
ag59
aS'med'
p421
aS'low'
p422
aS'unacc'
p423
aa(lp424
S'vhigh'
p425
aS'vhigh'
p426
ag59
ag59
aS'med'
p427
aS'med'
p428
aS'unacc'
p429
aa(lp430
S'vhigh'
p431
aS'vhigh'
p432
ag59
ag59
aS'med'
p433
aS'high'
p434
aS'unacc'
p435
aa(lp436
S'vhigh'
p437
aS'vhigh'
p438
ag59
ag59
aS'big'
p439
aS'low'
p440
aS'unacc'
p441
aa(lp442
S'vhigh'
p443
aS'vhigh'
p444
ag59
ag59
aS'big'
p445
aS'med'
p446
aS'unacc'
p447
aa(lp448
S'vhigh'
p449
aS'vhigh'
p450
ag59
ag59
aS'big'
p451
aS'high'
p452
aS'unacc'
p453
aa(lp454
S'vhigh'
p455
aS'vhigh'
p456
ag59
aS'more'
p457
aS'small'
p458
aS'low'
p459
aS'unacc'
p460
aa(lp461
S'vhigh'
p462
aS'vhigh'
p463
ag59
aS'more'
p464
aS'small'
p465
aS'med'
p466
aS'unacc'
p467
aa(lp468
S'vhigh'
p469
aS'vhigh'
p470
ag59
aS'more'
p471
aS'small'
p472
aS'high'
p473
aS'unacc'
p474
aa(lp475
S'vhigh'
p476
aS'vhigh'
p477
ag59
aS'more'
p478
aS'med'
p479
aS'low'
p480
aS'unacc'
p481
aa(lp482
S'vhigh'
p483
aS'vhigh'
p484
ag59
aS'more'
p485
aS'med'
p486
aS'med'
p487
aS'unacc'
p488
aa(lp489
S'vhigh'
p490
aS'vhigh'
p491
ag59
aS'more'
p492
aS'med'
p493
aS'high'
p494
aS'unacc'
p495
aa(lp496
S'vhigh'
p497
aS'vhigh'
p498
ag59
aS'more'
p499
aS'big'
p500
aS'low'
p501
aS'unacc'
p502
aa(lp503
S'vhigh'
p504
aS'vhigh'
p505
ag59
aS'more'
p506
aS'big'
p507
aS'med'
p508
aS'unacc'
p509
aa(lp510
S'vhigh'
p511
aS'vhigh'
p512
ag59
aS'more'
p513
aS'big'
p514
aS'high'
p515
aS'unacc'
p516
aa(lp517
S'vhigh'
p518
aS'vhigh'
p519
aS'5more'
p520
ag4
aS'small'
p521
aS'low'
p522
aS'unacc'
p523
aa(lp524
S'vhigh'
p525
aS'vhigh'
p526
aS'5more'
p527
ag4
aS'small'
p528
aS'med'
p529
aS'unacc'
p530
aa(lp531
S'vhigh'
p532
aS'vhigh'
p533
aS'5more'
p534
ag4
aS'small'
p535
aS'high'
p536
aS'unacc'
p537
aa(lp538
S'vhigh'
p539
aS'vhigh'
p540
aS'5more'
p541
ag4
aS'med'
p542
aS'low'
p543
aS'unacc'
p544
aa(lp545
S'vhigh'
p546
aS'vhigh'
p547
aS'5more'
p548
ag4
aS'med'
p549
aS'med'
p550
aS'unacc'
p551
aa(lp552
S'vhigh'
p553
aS'vhigh'
p554
aS'5more'
p555
ag4
aS'med'
p556
aS'high'
p557
aS'unacc'
p558
aa(lp559
S'vhigh'
p560
aS'vhigh'
p561
aS'5more'
p562
ag4
aS'big'
p563
aS'low'
p564
aS'unacc'
p565
aa(lp566
S'vhigh'
p567
aS'vhigh'
p568
aS'5more'
p569
ag4
aS'big'
p570
aS'med'
p571
aS'unacc'
p572
aa(lp573
S'vhigh'
p574
aS'vhigh'
p575
aS'5more'
p576
ag4
aS'big'
p577
aS'high'
p578
aS'unacc'
p579
aa(lp580
S'vhigh'
p581
aS'vhigh'
p582
aS'5more'
p583
ag59
aS'small'
p584
aS'low'
p585
aS'unacc'
p586
aa(lp587
S'vhigh'
p588
aS'vhigh'
p589
aS'5more'
p590
ag59
aS'small'
p591
aS'med'
p592
aS'unacc'
p593
aa(lp594
S'vhigh'
p595
aS'vhigh'
p596
aS'5more'
p597
ag59
aS'small'
p598
aS'high'
p599
aS'unacc'
p600
aa(lp601
S'vhigh'
p602
aS'vhigh'
p603
aS'5more'
p604
ag59
aS'med'
p605
aS'low'
p606
aS'unacc'
p607
aa(lp608
S'vhigh'
p609
aS'vhigh'
p610
aS'5more'
p611
ag59
aS'med'
p612
aS'med'
p613
aS'unacc'
p614
aa(lp615
S'vhigh'
p616
aS'vhigh'
p617
aS'5more'
p618
ag59
aS'med'
p619
aS'high'
p620
aS'unacc'
p621
aa(lp622
S'vhigh'
p623
aS'vhigh'
p624
aS'5more'
p625
ag59
aS'big'
p626
aS'low'
p627
aS'unacc'
p628
aa(lp629
S'vhigh'
p630
aS'vhigh'
p631
aS'5more'
p632
ag59
aS'big'
p633
aS'med'
p634
aS'unacc'
p635
aa(lp636
S'vhigh'
p637
aS'vhigh'
p638
aS'5more'
p639
ag59
aS'big'
p640
aS'high'
p641
aS'unacc'
p642
aa(lp643
S'vhigh'
p644
aS'vhigh'
p645
aS'5more'
p646
aS'more'
p647
aS'small'
p648
aS'low'
p649
aS'unacc'
p650
aa(lp651
S'vhigh'
p652
aS'vhigh'
p653
aS'5more'
p654
aS'more'
p655
aS'small'
p656
aS'med'
p657
aS'unacc'
p658
aa(lp659
S'vhigh'
p660
aS'vhigh'
p661
aS'5more'
p662
aS'more'
p663
aS'small'
p664
aS'high'
p665
aS'unacc'
p666
aa(lp667
S'vhigh'
p668
aS'vhigh'
p669
aS'5more'
p670
aS'more'
p671
aS'med'
p672
aS'low'
p673
aS'unacc'
p674
aa(lp675
S'vhigh'
p676
aS'vhigh'
p677
aS'5more'
p678
aS'more'
p679
aS'med'
p680
aS'med'
p681
aS'unacc'
p682
aa(lp683
S'vhigh'
p684
aS'vhigh'
p685
aS'5more'
p686
aS'more'
p687
aS'med'
p688
aS'high'
p689
aS'unacc'
p690
aa(lp691
S'vhigh'
p692
aS'vhigh'
p693
aS'5more'
p694
aS'more'
p695
aS'big'
p696
aS'low'
p697
aS'unacc'
p698
aa(lp699
S'vhigh'
p700
aS'vhigh'
p701
aS'5more'
p702
aS'more'
p703
aS'big'
p704
aS'med'
p705
aS'unacc'
p706
aa(lp707
S'vhigh'
p708
aS'vhigh'
p709
aS'5more'
p710
aS'more'
p711
aS'big'
p712
aS'high'
p713
aS'unacc'
p714
aa(lp715
S'vhigh'
p716
aS'high'
p717
ag4
ag4
aS'small'
p718
aS'low'
p719
aS'unacc'
p720
aa(lp721
S'vhigh'
p722
aS'high'
p723
ag4
ag4
aS'small'
p724
aS'med'
p725
aS'unacc'
p726
aa(lp727
S'vhigh'
p728
aS'high'
p729
ag4
ag4
aS'small'
p730
aS'high'
p731
aS'unacc'
p732
aa(lp733
S'vhigh'
p734
aS'high'
p735
ag4
ag4
aS'med'
p736
aS'low'
p737
aS'unacc'
p738
aa(lp739
S'vhigh'
p740
aS'high'
p741
ag4
ag4
aS'med'
p742
aS'med'
p743
aS'unacc'
p744
aa(lp745
S'vhigh'
p746
aS'high'
p747
ag4
ag4
aS'med'
p748
aS'high'
p749
aS'unacc'
p750
aa(lp751
S'vhigh'
p752
aS'high'
p753
ag4
ag4
aS'big'
p754
aS'low'
p755
aS'unacc'
p756
aa(lp757
S'vhigh'
p758
aS'high'
p759
ag4
ag4
aS'big'
p760
aS'med'
p761
aS'unacc'
p762
aa(lp763
S'vhigh'
p764
aS'high'
p765
ag4
ag4
aS'big'
p766
aS'high'
p767
aS'unacc'
p768
aa(lp769
S'vhigh'
p770
aS'high'
p771
ag4
ag59
aS'small'
p772
aS'low'
p773
aS'unacc'
p774
aa(lp775
S'vhigh'
p776
aS'high'
p777
ag4
ag59
aS'small'
p778
aS'med'
p779
aS'unacc'
p780
aa(lp781
S'vhigh'
p782
aS'high'
p783
ag4
ag59
aS'small'
p784
aS'high'
p785
aS'unacc'
p786
aa(lp787
S'vhigh'
p788
aS'high'
p789
ag4
ag59
aS'med'
p790
aS'low'
p791
aS'unacc'
p792
aa(lp793
S'vhigh'
p794
aS'med'
p795
ag4
ag59
aS'small'
p796
aS'high'
p797
aS'acc'
p798
aa(lp799
S'vhigh'
p800
aS'med'
p801
ag4
ag59
aS'med'
p802
aS'high'
p803
aS'acc'
p804
aa(lp805
S'vhigh'
p806
aS'med'
p807
ag4
ag59
aS'big'
p808
aS'med'
p809
aS'acc'
p810
aa(lp811
S'vhigh'
p812
aS'med'
p813
ag4
ag59
aS'big'
p814
aS'high'
p815
aS'acc'
p816
aa(lp817
S'vhigh'
p818
aS'med'
p819
ag4
aS'more'
p820
aS'med'
p821
aS'high'
p822
aS'acc'
p823
aa(lp824
S'vhigh'
p825
aS'med'
p826
ag4
aS'more'
p827
aS'big'
p828
aS'med'
p829
aS'acc'
p830
aa(lp831
S'vhigh'
p832
aS'med'
p833
ag4
aS'more'
p834
aS'big'
p835
aS'high'
p836
aS'acc'
p837
aa(lp838
S'vhigh'
p839
aS'med'
p840
ag177
ag4
aS'big'
p841
aS'low'
p842
aS'unacc'
p843
aa(lp844
S'vhigh'
p845
aS'med'
p846
ag177
ag4
aS'big'
p847
aS'med'
p848
aS'unacc'
p849
aa(lp850
S'vhigh'
p851
aS'med'
p852
ag177
ag4
aS'big'
p853
aS'high'
p854
aS'unacc'
p855
aa(lp856
S'vhigh'
p857
aS'med'
p858
ag177
ag59
aS'small'
p859
aS'low'
p860
aS'unacc'
p861
aa(lp862
S'vhigh'
p863
aS'med'
p864
ag177
ag59
aS'small'
p865
aS'med'
p866
aS'unacc'
p867
aa(lp868
S'vhigh'
p869
aS'med'
p870
ag177
ag59
aS'small'
p871
aS'high'
p872
aS'acc'
p873
aa(lp874
S'vhigh'
p875
aS'med'
p876
ag177
ag59
aS'med'
p877
aS'low'
p878
aS'unacc'
p879
aa(lp880
S'vhigh'
p881
aS'med'
p882
ag177
ag59
aS'med'
p883
aS'med'
p884
aS'unacc'
p885
aa(lp886
S'vhigh'
p887
aS'med'
p888
ag177
ag59
aS'med'
p889
aS'high'
p890
aS'acc'
p891
aa(lp892
S'vhigh'
p893
aS'med'
p894
ag177
ag59
aS'big'
p895
aS'low'
p896
aS'unacc'
p897
aa(lp898
S'vhigh'
p899
aS'med'
p900
ag177
ag59
aS'big'
p901
aS'med'
p902
aS'acc'
p903
aa(lp904
S'vhigh'
p905
aS'med'
p906
ag177
ag59
aS'big'
p907
aS'high'
p908
aS'acc'
p909
aa(lp910
S'vhigh'
p911
aS'med'
p912
ag177
aS'more'
p913
aS'small'
p914
aS'low'
p915
aS'unacc'
p916
aa(lp917
S'vhigh'
p918
aS'med'
p919
ag177
aS'more'
p920
aS'small'
p921
aS'med'
p922
aS'unacc'
p923
aa(lp924
S'vhigh'
p925
aS'med'
p926
ag177
aS'more'
p927
aS'small'
p928
aS'high'
p929
aS'acc'
p930
aa(lp931
S'vhigh'
p932
aS'med'
p933
ag177
aS'more'
p934
aS'med'
p935
aS'low'
p936
aS'unacc'
p937
aa(lp938
S'vhigh'
p939
aS'med'
p940
ag177
aS'more'
p941
aS'med'
p942
aS'med'
p943
aS'acc'
p944
aa(lp945
S'vhigh'
p946
aS'med'
p947
ag177
aS'more'
p948
aS'med'
p949
aS'high'
p950
aS'acc'
p951
aa(lp952
S'vhigh'
p953
aS'med'
p954
ag177
aS'more'
p955
aS'big'
p956
aS'low'
p957
aS'unacc'
p958
aa(lp959
S'vhigh'
p960
aS'med'
p961
ag177
aS'more'
p962
aS'big'
p963
aS'med'
p964
aS'acc'
p965
aa(lp966
S'vhigh'
p967
aS'med'
p968
ag177
aS'more'
p969
aS'big'
p970
aS'high'
p971
aS'acc'
p972
aa(lp973
S'vhigh'
p974
aS'med'
p975
ag59
ag4
aS'small'
p976
aS'low'
p977
aS'unacc'
p978
aa(lp979
S'vhigh'
p980
aS'med'
p981
ag59
ag4
aS'small'
p982
aS'med'
p983
aS'unacc'
p984
aa(lp985
S'vhigh'
p986
aS'med'
p987
ag59
ag4
aS'small'
p988
aS'high'
p989
aS'unacc'
p990
aa(lp991
S'vhigh'
p992
aS'med'
p993
ag59
ag4
aS'med'
p994
aS'low'
p995
aS'unacc'
p996
aa(lp997
S'vhigh'
p998
aS'med'
p999
ag59
ag4
aS'med'
p1000
aS'med'
p1001
aS'unacc'
p1002
aa(lp1003
S'vhigh'
p1004
aS'med'
p1005
ag59
ag4
aS'med'
p1006
aS'high'
p1007
aS'unacc'
p1008
aa(lp1009
S'vhigh'
p1010
aS'med'
p1011
ag59
ag4
aS'big'
p1012
aS'low'
p1013
aS'unacc'
p1014
aa(lp1015
S'vhigh'
p1016
aS'med'
p1017
ag59
ag4
aS'big'
p1018
aS'med'
p1019
aS'unacc'
p1020
aa(lp1021
S'vhigh'
p1022
aS'med'
p1023
ag59
ag4
aS'big'
p1024
aS'high'
p1025
aS'unacc'
p1026
aa(lp1027
S'vhigh'
p1028
aS'med'
p1029
ag59
ag59
aS'small'
p1030
aS'low'
p1031
aS'unacc'
p1032
aa(lp1033
S'vhigh'
p1034
aS'med'
p1035
ag59
ag59
aS'small'
p1036
aS'med'
p1037
aS'unacc'
p1038
aa(lp1039
S'vhigh'
p1040
aS'med'
p1041
ag59
ag59
aS'small'
p1042
aS'high'
p1043
aS'acc'
p1044
aa(lp1045
S'vhigh'
p1046
aS'med'
p1047
ag59
ag59
aS'med'
p1048
aS'low'
p1049
aS'unacc'
p1050
aa(lp1051
S'vhigh'
p1052
aS'med'
p1053
ag59
ag59
aS'med'
p1054
aS'med'
p1055
aS'acc'
p1056
aa(lp1057
S'vhigh'
p1058
aS'med'
p1059
ag59
ag59
aS'med'
p1060
aS'high'
p1061
aS'acc'
p1062
aa(lp1063
S'vhigh'
p1064
aS'med'
p1065
ag59
ag59
aS'big'
p1066
aS'low'
p1067
aS'unacc'
p1068
aa(lp1069
S'vhigh'
p1070
aS'med'
p1071
ag59
ag59
aS'big'
p1072
aS'med'
p1073
aS'acc'
p1074
aa(lp1075
S'vhigh'
p1076
aS'med'
p1077
ag59
ag59
aS'big'
p1078
aS'high'
p1079
aS'acc'
p1080
aa(lp1081
S'vhigh'
p1082
aS'med'
p1083
ag59
aS'more'
p1084
aS'small'
p1085
aS'low'
p1086
aS'unacc'
p1087
aa(lp1088
S'vhigh'
p1089
aS'med'
p1090
ag59
aS'more'
p1091
aS'small'
p1092
aS'med'
p1093
aS'unacc'
p1094
aa(lp1095
S'vhigh'
p1096
aS'med'
p1097
ag59
aS'more'
p1098
aS'small'
p1099
aS'high'
p1100
aS'acc'
p1101
aa(lp1102
S'vhigh'
p1103
aS'med'
p1104
ag59
aS'more'
p1105
aS'med'
p1106
aS'low'
p1107
aS'unacc'
p1108
aa(lp1109
S'vhigh'
p1110
aS'med'
p1111
ag59
aS'more'
p1112
aS'med'
p1113
aS'med'
p1114
aS'acc'
p1115
aa(lp1116
S'vhigh'
p1117
aS'med'
p1118
ag59
aS'more'
p1119
aS'med'
p1120
aS'high'
p1121
aS'acc'
p1122
aa(lp1123
S'vhigh'
p1124
aS'med'
p1125
ag59
aS'more'
p1126
aS'big'
p1127
aS'low'
p1128
aS'unacc'
p1129
aa(lp1130
S'vhigh'
p1131
aS'med'
p1132
ag59
aS'more'
p1133
aS'big'
p1134
aS'med'
p1135
aS'acc'
p1136
aa(lp1137
S'vhigh'
p1138
aS'med'
p1139
ag59
aS'more'
p1140
aS'big'
p1141
aS'high'
p1142
aS'acc'
p1143
aa(lp1144
S'vhigh'
p1145
aS'med'
p1146
aS'5more'
p1147
ag4
aS'small'
p1148
aS'low'
p1149
aS'unacc'
p1150
aa(lp1151
S'vhigh'
p1152
aS'med'
p1153
aS'5more'
p1154
ag4
aS'small'
p1155
aS'med'
p1156
aS'unacc'
p1157
aa(lp1158
S'vhigh'
p1159
aS'med'
p1160
aS'5more'
p1161
ag4
aS'small'
p1162
aS'high'
p1163
aS'unacc'
p1164
aa(lp1165
S'vhigh'
p1166
aS'med'
p1167
aS'5more'
p1168
ag4
aS'med'
p1169
aS'low'
p1170
aS'unacc'
p1171
aa(lp1172
S'vhigh'
p1173
aS'med'
p1174
aS'5more'
p1175
ag4
aS'med'
p1176
aS'med'
p1177
aS'unacc'
p1178
aa(lp1179
S'vhigh'
p1180
aS'med'
p1181
aS'5more'
p1182
ag4
aS'med'
p1183
aS'high'
p1184
aS'unacc'
p1185
aa(lp1186
S'vhigh'
p1187
aS'med'
p1188
aS'5more'
p1189
ag4
aS'big'
p1190
aS'low'
p1191
aS'unacc'
p1192
aa(lp1193
S'vhigh'
p1194
aS'med'
p1195
aS'5more'
p1196
ag4
aS'big'
p1197
aS'med'
p1198
aS'unacc'
p1199
aa(lp1200
S'vhigh'
p1201
aS'med'
p1202
aS'5more'
p1203
ag4
aS'big'
p1204
aS'high'
p1205
aS'unacc'
p1206
aa(lp1207
S'vhigh'
p1208
aS'med'
p1209
aS'5more'
p1210
ag59
aS'small'
p1211
aS'low'
p1212
aS'unacc'
p1213
aa(lp1214
S'vhigh'
p1215
aS'med'
p1216
aS'5more'
p1217
ag59
aS'small'
p1218
aS'med'
p1219
aS'unacc'
p1220
aa(lp1221
S'vhigh'
p1222
aS'med'
p1223
aS'5more'
p1224
ag59
aS'small'
p1225
aS'high'
p1226
aS'acc'
p1227
aa(lp1228
S'vhigh'
p1229
aS'med'
p1230
aS'5more'
p1231
ag59
aS'med'
p1232
aS'low'
p1233
aS'unacc'
p1234
aa(lp1235
S'vhigh'
p1236
aS'med'
p1237
aS'5more'
p1238
ag59
aS'med'
p1239
aS'med'
p1240
aS'acc'
p1241
aa(lp1242
S'vhigh'
p1243
aS'med'
p1244
aS'5more'
p1245
ag59
aS'med'
p1246
aS'high'
p1247
aS'acc'
p1248
aa(lp1249
S'vhigh'
p1250
aS'med'
p1251
aS'5more'
p1252
ag59
aS'big'
p1253
aS'low'
p1254
aS'unacc'
p1255
aa(lp1256
S'vhigh'
p1257
aS'med'
p1258
aS'5more'
p1259
ag59
aS'big'
p1260
aS'med'
p1261
aS'acc'
p1262
aa(lp1263
S'vhigh'
p1264
aS'med'
p1265
aS'5more'
p1266
ag59
aS'big'
p1267
aS'high'
p1268
aS'acc'
p1269
aa(lp1270
S'vhigh'
p1271
aS'med'
p1272
aS'5more'
p1273
aS'more'
p1274
aS'small'
p1275
aS'low'
p1276
aS'unacc'
p1277
aa(lp1278
S'vhigh'
p1279
aS'med'
p1280
aS'5more'
p1281
aS'more'
p1282
aS'small'
p1283
aS'med'
p1284
aS'unacc'
p1285
aa(lp1286
S'vhigh'
p1287
aS'med'
p1288
aS'5more'
p1289
aS'more'
p1290
aS'small'
p1291
aS'high'
p1292
aS'acc'
p1293
aa(lp1294
S'vhigh'
p1295
aS'med'
p1296
aS'5more'
p1297
aS'more'
p1298
aS'med'
p1299
aS'low'
p1300
aS'unacc'
p1301
aa(lp1302
S'vhigh'
p1303
aS'med'
p1304
aS'5more'
p1305
aS'more'
p1306
aS'med'
p1307
aS'med'
p1308
aS'acc'
p1309
aa(lp1310
S'vhigh'
p1311
aS'med'
p1312
aS'5more'
p1313
aS'more'
p1314
aS'med'
p1315
aS'high'
p1316
aS'acc'
p1317
aa(lp1318
S'vhigh'
p1319
aS'med'
p1320
aS'5more'
p1321
aS'more'
p1322
aS'big'
p1323
aS'low'
p1324
aS'unacc'
p1325
aa(lp1326
S'vhigh'
p1327
aS'med'
p1328
aS'5more'
p1329
aS'more'
p1330
aS'big'
p1331
aS'med'
p1332
aS'acc'
p1333
aa(lp1334
S'vhigh'
p1335
aS'med'
p1336
aS'5more'
p1337
aS'more'
p1338
aS'big'
p1339
aS'high'
p1340
aS'acc'
p1341
aa(lp1342
S'vhigh'
p1343
aS'low'
p1344
ag4
ag4
aS'small'
p1345
aS'low'
p1346
aS'unacc'
p1347
aa(lp1348
S'vhigh'
p1349
aS'low'
p1350
ag4
ag4
aS'small'
p1351
aS'med'
p1352
aS'unacc'
p1353
aa(lp1354
S'vhigh'
p1355
aS'low'
p1356
ag4
ag4
aS'small'
p1357
aS'high'
p1358
aS'unacc'
p1359
aa(lp1360
S'vhigh'
p1361
aS'low'
p1362
ag4
ag4
aS'med'
p1363
aS'low'
p1364
aS'unacc'
p1365
aa(lp1366
S'vhigh'
p1367
aS'low'
p1368
ag4
ag4
aS'med'
p1369
aS'med'
p1370
aS'unacc'
p1371
aa(lp1372
S'vhigh'
p1373
aS'low'
p1374
ag4
ag4
aS'med'
p1375
aS'high'
p1376
aS'unacc'
p1377
aa(lp1378
S'vhigh'
p1379
aS'low'
p1380
ag4
ag4
aS'big'
p1381
aS'low'
p1382
aS'unacc'
p1383
aa(lp1384
S'vhigh'
p1385
aS'low'
p1386
ag4
ag4
aS'big'
p1387
aS'med'
p1388
aS'unacc'
p1389
aa(lp1390
S'vhigh'
p1391
aS'low'
p1392
ag4
ag4
aS'big'
p1393
aS'high'
p1394
aS'unacc'
p1395
aa(lp1396
S'vhigh'
p1397
aS'low'
p1398
ag4
ag59
aS'small'
p1399
aS'low'
p1400
aS'unacc'
p1401
aa(lp1402
S'vhigh'
p1403
aS'low'
p1404
ag4
ag59
aS'small'
p1405
aS'med'
p1406
aS'unacc'
p1407
aa(lp1408
S'vhigh'
p1409
aS'low'
p1410
ag4
ag59
aS'small'
p1411
aS'high'
p1412
aS'acc'
p1413
aa(lp1414
S'vhigh'
p1415
aS'low'
p1416
ag4
ag59
aS'med'
p1417
aS'low'
p1418
aS'unacc'
p1419
aa(lp1420
S'vhigh'
p1421
aS'low'
p1422
ag4
ag59
aS'med'
p1423
aS'med'
p1424
aS'unacc'
p1425
aa(lp1426
S'vhigh'
p1427
aS'low'
p1428
ag4
ag59
aS'med'
p1429
aS'high'
p1430
aS'acc'
p1431
aa(lp1432
S'vhigh'
p1433
aS'low'
p1434
ag4
ag59
aS'big'
p1435
aS'low'
p1436
aS'unacc'
p1437
aa(lp1438
S'vhigh'
p1439
aS'low'
p1440
ag4
ag59
aS'big'
p1441
aS'med'
p1442
aS'acc'
p1443
aa(lp1444
S'vhigh'
p1445
aS'low'
p1446
ag4
aS'more'
p1447
aS'small'
p1448
aS'low'
p1449
aS'unacc'
p1450
aa(lp1451
S'vhigh'
p1452
aS'low'
p1453
ag4
aS'more'
p1454
aS'small'
p1455
aS'med'
p1456
aS'unacc'
p1457
aa(lp1458
S'vhigh'
p1459
aS'low'
p1460
ag4
aS'more'
p1461
aS'small'
p1462
aS'high'
p1463
aS'unacc'
p1464
aa(lp1465
S'vhigh'
p1466
aS'low'
p1467
ag4
aS'more'
p1468
aS'med'
p1469
aS'low'
p1470
aS'unacc'
p1471
aa(lp1472
S'vhigh'
p1473
aS'low'
p1474
ag4
aS'more'
p1475
aS'med'
p1476
aS'med'
p1477
aS'unacc'
p1478
aa(lp1479
S'vhigh'
p1480
aS'low'
p1481
ag4
aS'more'
p1482
aS'big'
p1483
aS'low'
p1484
aS'unacc'
p1485
aa(lp1486
S'vhigh'
p1487
aS'low'
p1488
ag177
ag4
aS'small'
p1489
aS'low'
p1490
aS'unacc'
p1491
aa(lp1492
S'vhigh'
p1493
aS'low'
p1494
ag177
ag4
aS'small'
p1495
aS'med'
p1496
aS'unacc'
p1497
aa(lp1498
S'vhigh'
p1499
aS'low'
p1500
ag177
ag4
aS'small'
p1501
aS'high'
p1502
aS'unacc'
p1503
aa(lp1504
S'vhigh'
p1505
aS'low'
p1506
ag177
ag4
aS'med'
p1507
aS'low'
p1508
aS'unacc'
p1509
aa(lp1510
S'vhigh'
p1511
aS'low'
p1512
ag177
ag4
aS'med'
p1513
aS'med'
p1514
aS'unacc'
p1515
aa(lp1516
S'vhigh'
p1517
aS'low'
p1518
ag177
ag4
aS'med'
p1519
aS'high'
p1520
aS'unacc'
p1521
aa(lp1522
S'vhigh'
p1523
aS'low'
p1524
ag177
ag4
aS'big'
p1525
aS'low'
p1526
aS'unacc'
p1527
aa(lp1528
S'vhigh'
p1529
aS'low'
p1530
ag177
ag4
aS'big'
p1531
aS'med'
p1532
aS'unacc'
p1533
aa(lp1534
S'vhigh'
p1535
aS'low'
p1536
ag177
ag4
aS'big'
p1537
aS'high'
p1538
aS'unacc'
p1539
aa(lp1540
S'vhigh'
p1541
aS'low'
p1542
ag177
ag59
aS'small'
p1543
aS'low'
p1544
aS'unacc'
p1545
aa(lp1546
S'vhigh'
p1547
aS'low'
p1548
ag177
ag59
aS'small'
p1549
aS'med'
p1550
aS'unacc'
p1551
aa(lp1552
S'vhigh'
p1553
aS'low'
p1554
ag177
ag59
aS'med'
p1555
aS'low'
p1556
aS'unacc'
p1557
aa(lp1558
S'vhigh'
p1559
aS'low'
p1560
ag177
ag59
aS'med'
p1561
aS'med'
p1562
aS'unacc'
p1563
aa(lp1564
S'vhigh'
p1565
aS'low'
p1566
ag177
ag59
aS'big'
p1567
aS'low'
p1568
aS'unacc'
p1569
aa(lp1570
S'vhigh'
p1571
aS'low'
p1572
ag177
aS'more'
p1573
aS'small'
p1574
aS'low'
p1575
aS'unacc'
p1576
aa(lp1577
S'vhigh'
p1578
aS'low'
p1579
ag177
aS'more'
p1580
aS'small'
p1581
aS'med'
p1582
aS'unacc'
p1583
aa(lp1584
S'vhigh'
p1585
aS'low'
p1586
ag177
aS'more'
p1587
aS'med'
p1588
aS'low'
p1589
aS'unacc'
p1590
aa(lp1591
S'vhigh'
p1592
aS'low'
p1593
ag177
aS'more'
p1594
aS'big'
p1595
aS'low'
p1596
aS'unacc'
p1597
aa(lp1598
S'vhigh'
p1599
aS'low'
p1600
ag59
ag4
aS'small'
p1601
aS'low'
p1602
aS'unacc'
p1603
aa(lp1604
S'vhigh'
p1605
aS'low'
p1606
ag59
ag4
aS'small'
p1607
aS'med'
p1608
aS'unacc'
p1609
aa(lp1610
S'vhigh'
p1611
aS'low'
p1612
ag59
ag4
aS'small'
p1613
aS'high'
p1614
aS'unacc'
p1615
aa(lp1616
S'vhigh'
p1617
aS'low'
p1618
ag59
ag4
aS'med'
p1619
aS'low'
p1620
aS'unacc'
p1621
aa(lp1622
S'vhigh'
p1623
aS'low'
p1624
ag59
ag4
aS'med'
p1625
aS'med'
p1626
aS'unacc'
p1627
aa(lp1628
S'vhigh'
p1629
aS'low'
p1630
ag59
ag4
aS'med'
p1631
aS'high'
p1632
aS'unacc'
p1633
aa(lp1634
S'vhigh'
p1635
aS'low'
p1636
ag59
ag4
aS'big'
p1637
aS'low'
p1638
aS'unacc'
p1639
aa(lp1640
S'vhigh'
p1641
aS'low'
p1642
ag59
ag4
aS'big'
p1643
aS'med'
p1644
aS'unacc'
p1645
aa(lp1646
S'vhigh'
p1647
aS'low'
p1648
ag59
ag4
aS'big'
p1649
aS'high'
p1650
aS'unacc'
p1651
aa(lp1652
S'vhigh'
p1653
aS'low'
p1654
ag59
ag59
aS'small'
p1655
aS'low'
p1656
aS'unacc'
p1657
aa(lp1658
S'vhigh'
p1659
aS'low'
p1660
ag59
ag59
aS'small'
p1661
aS'med'
p1662
aS'unacc'
p1663
aa(lp1664
S'vhigh'
p1665
aS'low'
p1666
ag59
ag59
aS'med'
p1667
aS'low'
p1668
aS'unacc'
p1669
aa(lp1670
S'vhigh'
p1671
aS'low'
p1672
ag59
ag59
aS'big'
p1673
aS'low'
p1674
aS'unacc'
p1675
aa(lp1676
S'vhigh'
p1677
aS'low'
p1678
ag59
aS'more'
p1679
aS'small'
p1680
aS'low'
p1681
aS'unacc'
p1682
aa(lp1683
S'vhigh'
p1684
aS'low'
p1685
ag59
aS'more'
p1686
aS'small'
p1687
aS'med'
p1688
aS'unacc'
p1689
aa(lp1690
S'vhigh'
p1691
aS'low'
p1692
ag59
aS'more'
p1693
aS'med'
p1694
aS'low'
p1695
aS'unacc'
p1696
aa(lp1697
S'vhigh'
p1698
aS'low'
p1699
ag59
aS'more'
p1700
aS'big'
p1701
aS'low'
p1702
aS'unacc'
p1703
aa(lp1704
S'vhigh'
p1705
aS'low'
p1706
aS'5more'
p1707
ag4
aS'small'
p1708
aS'low'
p1709
aS'unacc'
p1710
aa(lp1711
S'vhigh'
p1712
aS'low'
p1713
aS'5more'
p1714
ag4
aS'small'
p1715
aS'med'
p1716
aS'unacc'
p1717
aa(lp1718
S'vhigh'
p1719
aS'low'
p1720
aS'5more'
p1721
ag4
aS'small'
p1722
aS'high'
p1723
aS'unacc'
p1724
aa(lp1725
S'vhigh'
p1726
aS'low'
p1727
aS'5more'
p1728
ag4
aS'med'
p1729
aS'low'
p1730
aS'unacc'
p1731
aa(lp1732
S'vhigh'
p1733
aS'low'
p1734
aS'5more'
p1735
ag4
aS'med'
p1736
aS'med'
p1737
aS'unacc'
p1738
aa(lp1739
S'vhigh'
p1740
aS'low'
p1741
aS'5more'
p1742
ag4
aS'med'
p1743
aS'high'
p1744
aS'unacc'
p1745
aa(lp1746
S'vhigh'
p1747
aS'low'
p1748
aS'5more'
p1749
ag4
aS'big'
p1750
aS'low'
p1751
aS'unacc'
p1752
aa(lp1753
S'vhigh'
p1754
aS'low'
p1755
aS'5more'
p1756
ag4
aS'big'
p1757
aS'med'
p1758
aS'unacc'
p1759
aa(lp1760
S'vhigh'
p1761
aS'low'
p1762
aS'5more'
p1763
ag4
aS'big'
p1764
aS'high'
p1765
aS'unacc'
p1766
aa(lp1767
S'vhigh'
p1768
aS'low'
p1769
aS'5more'
p1770
ag59
aS'small'
p1771
aS'low'
p1772
aS'unacc'
p1773
aa(lp1774
S'vhigh'
p1775
aS'low'
p1776
aS'5more'
p1777
ag59
aS'small'
p1778
aS'med'
p1779
aS'unacc'
p1780
aa(lp1781
S'vhigh'
p1782
aS'low'
p1783
aS'5more'
p1784
ag59
aS'med'
p1785
aS'low'
p1786
aS'unacc'
p1787
aa(lp1788
S'vhigh'
p1789
aS'low'
p1790
aS'5more'
p1791
ag59
aS'big'
p1792
aS'low'
p1793
aS'unacc'
p1794
aa(lp1795
S'vhigh'
p1796
aS'low'
p1797
aS'5more'
p1798
aS'more'
p1799
aS'small'
p1800
aS'low'
p1801
aS'unacc'
p1802
aa(lp1803
S'vhigh'
p1804
aS'low'
p1805
aS'5more'
p1806
aS'more'
p1807
aS'small'
p1808
aS'med'
p1809
aS'unacc'
p1810
aa(lp1811
S'vhigh'
p1812
aS'low'
p1813
aS'5more'
p1814
aS'more'
p1815
aS'med'
p1816
aS'low'
p1817
aS'unacc'
p1818
aa(lp1819
S'vhigh'
p1820
aS'low'
p1821
aS'5more'
p1822
aS'more'
p1823
aS'big'
p1824
aS'low'
p1825
aS'unacc'
p1826
aa(lp1827
S'high'
p1828
aS'vhigh'
p1829
ag4
ag4
aS'small'
p1830
aS'low'
p1831
aS'unacc'
p1832
aa(lp1833
S'high'
p1834
aS'vhigh'
p1835
ag4
ag4
aS'small'
p1836
aS'med'
p1837
aS'unacc'
p1838
aa(lp1839
S'high'
p1840
aS'vhigh'
p1841
ag4
ag4
aS'small'
p1842
aS'high'
p1843
aS'unacc'
p1844
aa(lp1845
S'high'
p1846
aS'vhigh'
p1847
ag4
ag4
aS'med'
p1848
aS'low'
p1849
aS'unacc'
p1850
aa(lp1851
S'high'
p1852
aS'vhigh'
p1853
ag4
ag4
aS'med'
p1854
aS'med'
p1855
aS'unacc'
p1856
aa(lp1857
S'high'
p1858
aS'vhigh'
p1859
ag4
ag4
aS'med'
p1860
aS'high'
p1861
aS'unacc'
p1862
aa(lp1863
S'high'
p1864
aS'vhigh'
p1865
ag4
ag4
aS'big'
p1866
aS'low'
p1867
aS'unacc'
p1868
aa(lp1869
S'high'
p1870
aS'vhigh'
p1871
ag4
ag4
aS'big'
p1872
aS'med'
p1873
aS'unacc'
p1874
aa(lp1875
S'high'
p1876
aS'vhigh'
p1877
ag4
ag4
aS'big'
p1878
aS'high'
p1879
aS'unacc'
p1880
aa(lp1881
S'high'
p1882
aS'vhigh'
p1883
ag4
ag59
aS'small'
p1884
aS'low'
p1885
aS'unacc'
p1886
aa(lp1887
S'high'
p1888
aS'vhigh'
p1889
ag4
ag59
aS'small'
p1890
aS'med'
p1891
aS'unacc'
p1892
aa(lp1893
S'high'
p1894
aS'vhigh'
p1895
ag4
ag59
aS'small'
p1896
aS'high'
p1897
aS'unacc'
p1898
aa(lp1899
S'high'
p1900
aS'vhigh'
p1901
ag4
ag59
aS'med'
p1902
aS'low'
p1903
aS'unacc'
p1904
aa(lp1905
S'high'
p1906
aS'vhigh'
p1907
ag4
ag59
aS'med'
p1908
aS'med'
p1909
aS'unacc'
p1910
aa(lp1911
S'high'
p1912
aS'vhigh'
p1913
ag4
ag59
aS'med'
p1914
aS'high'
p1915
aS'unacc'
p1916
aa(lp1917
S'high'
p1918
aS'vhigh'
p1919
ag4
ag59
aS'big'
p1920
aS'low'
p1921
aS'unacc'
p1922
aa(lp1923
S'high'
p1924
aS'vhigh'
p1925
ag4
ag59
aS'big'
p1926
aS'med'
p1927
aS'unacc'
p1928
aa(lp1929
S'high'
p1930
aS'vhigh'
p1931
ag4
ag59
aS'big'
p1932
aS'high'
p1933
aS'unacc'
p1934
aa(lp1935
S'high'
p1936
aS'vhigh'
p1937
ag4
aS'more'
p1938
aS'small'
p1939
aS'low'
p1940
aS'unacc'
p1941
aa(lp1942
S'high'
p1943
aS'vhigh'
p1944
ag4
aS'more'
p1945
aS'small'
p1946
aS'med'
p1947
aS'unacc'
p1948
aa(lp1949
S'high'
p1950
aS'vhigh'
p1951
ag4
aS'more'
p1952
aS'small'
p1953
aS'high'
p1954
aS'unacc'
p1955
aa(lp1956
S'high'
p1957
aS'vhigh'
p1958
ag4
aS'more'
p1959
aS'med'
p1960
aS'low'
p1961
aS'unacc'
p1962
aa(lp1963
S'high'
p1964
aS'vhigh'
p1965
ag4
aS'more'
p1966
aS'med'
p1967
aS'med'
p1968
aS'unacc'
p1969
aa(lp1970
S'high'
p1971
aS'vhigh'
p1972
ag4
aS'more'
p1973
aS'med'
p1974
aS'high'
p1975
aS'unacc'
p1976
aa(lp1977
S'high'
p1978
aS'vhigh'
p1979
ag4
aS'more'
p1980
aS'big'
p1981
aS'low'
p1982
aS'unacc'
p1983
aa(lp1984
S'high'
p1985
aS'vhigh'
p1986
ag4
aS'more'
p1987
aS'big'
p1988
aS'med'
p1989
aS'unacc'
p1990
aa(lp1991
S'high'
p1992
aS'vhigh'
p1993
ag4
aS'more'
p1994
aS'big'
p1995
aS'high'
p1996
aS'unacc'
p1997
aa(lp1998
S'high'
p1999
aS'vhigh'
p2000
ag177
ag4
aS'small'
p2001
aS'low'
p2002
aS'unacc'
p2003
aa(lp2004
S'high'
p2005
aS'vhigh'
p2006
ag177
ag4
aS'small'
p2007
aS'med'
p2008
aS'unacc'
p2009
aa(lp2010
S'high'
p2011
aS'vhigh'
p2012
ag177
ag4
aS'small'
p2013
aS'high'
p2014
aS'unacc'
p2015
aa(lp2016
S'high'
p2017
aS'vhigh'
p2018
ag177
ag4
aS'med'
p2019
aS'low'
p2020
aS'unacc'
p2021
aa(lp2022
S'high'
p2023
aS'vhigh'
p2024
ag177
ag4
aS'med'
p2025
aS'med'
p2026
aS'unacc'
p2027
aa(lp2028
S'high'
p2029
aS'vhigh'
p2030
ag177
ag4
aS'med'
p2031
aS'high'
p2032
aS'unacc'
p2033
aa(lp2034
S'high'
p2035
aS'vhigh'
p2036
ag177
ag4
aS'big'
p2037
aS'low'
p2038
aS'unacc'
p2039
aa(lp2040
S'high'
p2041
aS'vhigh'
p2042
ag177
ag4
aS'big'
p2043
aS'med'
p2044
aS'unacc'
p2045
aa(lp2046
S'high'
p2047
aS'vhigh'
p2048
ag177
ag4
aS'big'
p2049
aS'high'
p2050
aS'unacc'
p2051
aa(lp2052
S'high'
p2053
aS'vhigh'
p2054
ag177
ag59
aS'small'
p2055
aS'low'
p2056
aS'unacc'
p2057
aa(lp2058
S'high'
p2059
aS'vhigh'
p2060
ag177
ag59
aS'small'
p2061
aS'med'
p2062
aS'unacc'
p2063
aa(lp2064
S'high'
p2065
aS'vhigh'
p2066
ag177
ag59
aS'small'
p2067
aS'high'
p2068
aS'unacc'
p2069
aa(lp2070
S'high'
p2071
aS'vhigh'
p2072
ag177
ag59
aS'med'
p2073
aS'low'
p2074
aS'unacc'
p2075
aa(lp2076
S'high'
p2077
aS'vhigh'
p2078
ag177
ag59
aS'med'
p2079
aS'med'
p2080
aS'unacc'
p2081
aa(lp2082
S'high'
p2083
aS'vhigh'
p2084
ag177
ag59
aS'med'
p2085
aS'high'
p2086
aS'unacc'
p2087
aa(lp2088
S'high'
p2089
aS'vhigh'
p2090
ag177
ag59
aS'big'
p2091
aS'low'
p2092
aS'unacc'
p2093
aa(lp2094
S'high'
p2095
aS'vhigh'
p2096
ag177
ag59
aS'big'
p2097
aS'med'
p2098
aS'unacc'
p2099
aa(lp2100
S'high'
p2101
aS'vhigh'
p2102
ag177
ag59
aS'big'
p2103
aS'high'
p2104
aS'unacc'
p2105
aa(lp2106
S'high'
p2107
aS'vhigh'
p2108
ag177
aS'more'
p2109
aS'small'
p2110
aS'low'
p2111
aS'unacc'
p2112
aa(lp2113
S'high'
p2114
aS'vhigh'
p2115
ag177
aS'more'
p2116
aS'small'
p2117
aS'med'
p2118
aS'unacc'
p2119
aa(lp2120
S'high'
p2121
aS'vhigh'
p2122
ag177
aS'more'
p2123
aS'small'
p2124
aS'high'
p2125
aS'unacc'
p2126
aa(lp2127
S'high'
p2128
aS'vhigh'
p2129
ag177
aS'more'
p2130
aS'med'
p2131
aS'low'
p2132
aS'unacc'
p2133
aa(lp2134
S'high'
p2135
aS'vhigh'
p2136
ag177
aS'more'
p2137
aS'med'
p2138
aS'med'
p2139
aS'unacc'
p2140
aa(lp2141
S'high'
p2142
aS'vhigh'
p2143
ag177
aS'more'
p2144
aS'med'
p2145
aS'high'
p2146
aS'unacc'
p2147
aa(lp2148
S'high'
p2149
aS'vhigh'
p2150
ag177
aS'more'
p2151
aS'big'
p2152
aS'low'
p2153
aS'unacc'
p2154
aa(lp2155
S'high'
p2156
aS'vhigh'
p2157
ag177
aS'more'
p2158
aS'big'
p2159
aS'med'
p2160
aS'unacc'
p2161
aa(lp2162
S'high'
p2163
aS'vhigh'
p2164
ag177
aS'more'
p2165
aS'big'
p2166
aS'high'
p2167
aS'unacc'
p2168
aa(lp2169
S'high'
p2170
aS'vhigh'
p2171
ag59
ag4
aS'small'
p2172
aS'low'
p2173
aS'unacc'
p2174
aa(lp2175
S'high'
p2176
aS'vhigh'
p2177
ag59
ag4
aS'small'
p2178
aS'med'
p2179
aS'unacc'
p2180
aa(lp2181
S'high'
p2182
aS'vhigh'
p2183
ag59
ag4
aS'small'
p2184
aS'high'
p2185
aS'unacc'
p2186
aa(lp2187
S'high'
p2188
aS'vhigh'
p2189
ag59
ag4
aS'med'
p2190
aS'low'
p2191
aS'unacc'
p2192
aa(lp2193
S'high'
p2194
aS'vhigh'
p2195
ag59
ag4
aS'med'
p2196
aS'med'
p2197
aS'unacc'
p2198
aa(lp2199
S'high'
p2200
aS'vhigh'
p2201
ag59
ag4
aS'med'
p2202
aS'high'
p2203
aS'unacc'
p2204
aa(lp2205
S'high'
p2206
aS'vhigh'
p2207
ag59
ag4
aS'big'
p2208
aS'low'
p2209
aS'unacc'
p2210
aa(lp2211
S'high'
p2212
aS'vhigh'
p2213
ag59
ag4
aS'big'
p2214
aS'med'
p2215
aS'unacc'
p2216
aa(lp2217
S'high'
p2218
aS'vhigh'
p2219
ag59
ag4
aS'big'
p2220
aS'high'
p2221
aS'unacc'
p2222
aa(lp2223
S'high'
p2224
aS'vhigh'
p2225
ag59
ag59
aS'small'
p2226
aS'low'
p2227
aS'unacc'
p2228
aa(lp2229
S'high'
p2230
aS'vhigh'
p2231
ag59
ag59
aS'small'
p2232
aS'med'
p2233
aS'unacc'
p2234
aa(lp2235
S'high'
p2236
aS'vhigh'
p2237
ag59
ag59
aS'small'
p2238
aS'high'
p2239
aS'unacc'
p2240
aa(lp2241
S'high'
p2242
aS'vhigh'
p2243
ag59
ag59
aS'med'
p2244
aS'low'
p2245
aS'unacc'
p2246
aa(lp2247
S'high'
p2248
aS'vhigh'
p2249
ag59
ag59
aS'med'
p2250
aS'med'
p2251
aS'unacc'
p2252
aa(lp2253
S'high'
p2254
aS'vhigh'
p2255
ag59
ag59
aS'med'
p2256
aS'high'
p2257
aS'unacc'
p2258
aa(lp2259
S'high'
p2260
aS'vhigh'
p2261
ag59
ag59
aS'big'
p2262
aS'low'
p2263
aS'unacc'
p2264
aa(lp2265
S'high'
p2266
aS'vhigh'
p2267
ag59
ag59
aS'big'
p2268
aS'med'
p2269
aS'unacc'
p2270
aa(lp2271
S'high'
p2272
aS'vhigh'
p2273
ag59
ag59
aS'big'
p2274
aS'high'
p2275
aS'unacc'
p2276
aa(lp2277
S'high'
p2278
aS'vhigh'
p2279
ag59
aS'more'
p2280
aS'small'
p2281
aS'low'
p2282
aS'unacc'
p2283
aa(lp2284
S'high'
p2285
aS'vhigh'
p2286
ag59
aS'more'
p2287
aS'small'
p2288
aS'med'
p2289
aS'unacc'
p2290
aa(lp2291
S'high'
p2292
aS'vhigh'
p2293
ag59
aS'more'
p2294
aS'small'
p2295
aS'high'
p2296
aS'unacc'
p2297
aa(lp2298
S'high'
p2299
aS'vhigh'
p2300
ag59
aS'more'
p2301
aS'med'
p2302
aS'low'
p2303
aS'unacc'
p2304
aa(lp2305
S'high'
p2306
aS'vhigh'
p2307
ag59
aS'more'
p2308
aS'med'
p2309
aS'med'
p2310
aS'unacc'
p2311
aa(lp2312
S'high'
p2313
aS'vhigh'
p2314
ag59
aS'more'
p2315
aS'med'
p2316
aS'high'
p2317
aS'unacc'
p2318
aa(lp2319
S'high'
p2320
aS'vhigh'
p2321
ag59
aS'more'
p2322
aS'big'
p2323
aS'low'
p2324
aS'unacc'
p2325
aa(lp2326
S'high'
p2327
aS'vhigh'
p2328
ag59
aS'more'
p2329
aS'big'
p2330
aS'med'
p2331
aS'unacc'
p2332
aa(lp2333
S'high'
p2334
aS'vhigh'
p2335
ag59
aS'more'
p2336
aS'big'
p2337
aS'high'
p2338
aS'unacc'
p2339
aa(lp2340
S'high'
p2341
aS'vhigh'
p2342
aS'5more'
p2343
ag4
aS'small'
p2344
aS'low'
p2345
aS'unacc'
p2346
aa(lp2347
S'high'
p2348
aS'vhigh'
p2349
aS'5more'
p2350
ag4
aS'small'
p2351
aS'med'
p2352
aS'unacc'
p2353
aa(lp2354
S'high'
p2355
aS'vhigh'
p2356
aS'5more'
p2357
ag4
aS'small'
p2358
aS'high'
p2359
aS'unacc'
p2360
aa(lp2361
S'high'
p2362
aS'vhigh'
p2363
aS'5more'
p2364
ag4
aS'med'
p2365
aS'low'
p2366
aS'unacc'
p2367
aa(lp2368
S'high'
p2369
aS'vhigh'
p2370
aS'5more'
p2371
ag4
aS'med'
p2372
aS'med'
p2373
aS'unacc'
p2374
aa(lp2375
S'high'
p2376
aS'vhigh'
p2377
aS'5more'
p2378
ag4
aS'med'
p2379
aS'high'
p2380
aS'unacc'
p2381
aa(lp2382
S'high'
p2383
aS'vhigh'
p2384
aS'5more'
p2385
ag4
aS'big'
p2386
aS'low'
p2387
aS'unacc'
p2388
aa(lp2389
S'high'
p2390
aS'vhigh'
p2391
aS'5more'
p2392
ag4
aS'big'
p2393
aS'med'
p2394
aS'unacc'
p2395
aa(lp2396
S'high'
p2397
aS'vhigh'
p2398
aS'5more'
p2399
ag4
aS'big'
p2400
aS'high'
p2401
aS'unacc'
p2402
aa(lp2403
S'high'
p2404
aS'vhigh'
p2405
aS'5more'
p2406
ag59
aS'small'
p2407
aS'low'
p2408
aS'unacc'
p2409
aa(lp2410
S'high'
p2411
aS'vhigh'
p2412
aS'5more'
p2413
ag59
aS'small'
p2414
aS'med'
p2415
aS'unacc'
p2416
aa(lp2417
S'high'
p2418
aS'vhigh'
p2419
aS'5more'
p2420
ag59
aS'small'
p2421
aS'high'
p2422
aS'unacc'
p2423
aa(lp2424
S'high'
p2425
aS'vhigh'
p2426
aS'5more'
p2427
ag59
aS'med'
p2428
aS'low'
p2429
aS'unacc'
p2430
aa(lp2431
S'high'
p2432
aS'vhigh'
p2433
aS'5more'
p2434
ag59
aS'med'
p2435
aS'med'
p2436
aS'unacc'
p2437
aa(lp2438
S'high'
p2439
aS'vhigh'
p2440
aS'5more'
p2441
ag59
aS'med'
p2442
aS'high'
p2443
aS'unacc'
p2444
aa(lp2445
S'high'
p2446
aS'vhigh'
p2447
aS'5more'
p2448
ag59
aS'big'
p2449
aS'low'
p2450
aS'unacc'
p2451
aa(lp2452
S'high'
p2453
aS'vhigh'
p2454
aS'5more'
p2455
ag59
aS'big'
p2456
aS'med'
p2457
aS'unacc'
p2458
aa(lp2459
S'high'
p2460
aS'vhigh'
p2461
aS'5more'
p2462
ag59
aS'big'
p2463
aS'high'
p2464
aS'unacc'
p2465
aa(lp2466
S'high'
p2467
aS'vhigh'
p2468
aS'5more'
p2469
aS'more'
p2470
aS'small'
p2471
aS'low'
p2472
aS'unacc'
p2473
aa(lp2474
S'high'
p2475
aS'vhigh'
p2476
aS'5more'
p2477
aS'more'
p2478
aS'small'
p2479
aS'med'
p2480
aS'unacc'
p2481
aa(lp2482
S'high'
p2483
aS'vhigh'
p2484
aS'5more'
p2485
aS'more'
p2486
aS'small'
p2487
aS'high'
p2488
aS'unacc'
p2489
aa(lp2490
S'high'
p2491
aS'vhigh'
p2492
aS'5more'
p2493
aS'more'
p2494
aS'med'
p2495
aS'low'
p2496
aS'unacc'
p2497
aa(lp2498
S'high'
p2499
aS'vhigh'
p2500
aS'5more'
p2501
aS'more'
p2502
aS'med'
p2503
aS'med'
p2504
aS'unacc'
p2505
aa(lp2506
S'high'
p2507
aS'vhigh'
p2508
aS'5more'
p2509
aS'more'
p2510
aS'med'
p2511
aS'high'
p2512
aS'unacc'
p2513
aa(lp2514
S'high'
p2515
aS'vhigh'
p2516
aS'5more'
p2517
aS'more'
p2518
aS'big'
p2519
aS'low'
p2520
aS'unacc'
p2521
aa(lp2522
S'high'
p2523
aS'vhigh'
p2524
aS'5more'
p2525
aS'more'
p2526
aS'big'
p2527
aS'med'
p2528
aS'unacc'
p2529
aa(lp2530
S'high'
p2531
aS'vhigh'
p2532
aS'5more'
p2533
aS'more'
p2534
aS'big'
p2535
aS'high'
p2536
aS'unacc'
p2537
aa(lp2538
S'high'
p2539
aS'high'
p2540
ag4
ag4
aS'small'
p2541
aS'low'
p2542
aS'unacc'
p2543
aa(lp2544
S'high'
p2545
aS'high'
p2546
ag4
ag4
aS'small'
p2547
aS'med'
p2548
aS'unacc'
p2549
aa(lp2550
S'high'
p2551
aS'high'
p2552
ag4
ag4
aS'small'
p2553
aS'high'
p2554
aS'unacc'
p2555
aa(lp2556
S'high'
p2557
aS'high'
p2558
ag4
ag4
aS'med'
p2559
aS'low'
p2560
aS'unacc'
p2561
aa(lp2562
S'high'
p2563
aS'high'
p2564
ag4
ag4
aS'med'
p2565
aS'med'
p2566
aS'unacc'
p2567
aa(lp2568
S'high'
p2569
aS'high'
p2570
ag4
ag4
aS'med'
p2571
aS'high'
p2572
aS'unacc'
p2573
aa(lp2574
S'high'
p2575
aS'high'
p2576
ag4
ag4
aS'big'
p2577
aS'low'
p2578
aS'unacc'
p2579
aa(lp2580
S'high'
p2581
aS'high'
p2582
ag4
ag4
aS'big'
p2583
aS'med'
p2584
aS'unacc'
p2585
aa(lp2586
S'high'
p2587
aS'high'
p2588
ag4
ag4
aS'big'
p2589
aS'high'
p2590
aS'unacc'
p2591
aa(lp2592
S'high'
p2593
aS'high'
p2594
ag4
ag59
aS'small'
p2595
aS'low'
p2596
aS'unacc'
p2597
aa(lp2598
S'high'
p2599
aS'high'
p2600
ag4
ag59
aS'small'
p2601
aS'med'
p2602
aS'unacc'
p2603
aa(lp2604
S'high'
p2605
aS'high'
p2606
ag4
ag59
aS'med'
p2607
aS'low'
p2608
aS'unacc'
p2609
aa(lp2610
S'high'
p2611
aS'high'
p2612
ag4
ag59
aS'med'
p2613
aS'med'
p2614
aS'unacc'
p2615
aa(lp2616
S'high'
p2617
aS'high'
p2618
ag4
ag59
aS'big'
p2619
aS'low'
p2620
aS'unacc'
p2621
aa(lp2622
S'high'
p2623
aS'high'
p2624
ag4
aS'more'
p2625
aS'small'
p2626
aS'low'
p2627
aS'unacc'
p2628
aa(lp2629
S'high'
p2630
aS'high'
p2631
ag4
aS'more'
p2632
aS'small'
p2633
aS'med'
p2634
aS'unacc'
p2635
aa(lp2636
S'high'
p2637
aS'high'
p2638
ag4
aS'more'
p2639
aS'small'
p2640
aS'high'
p2641
aS'unacc'
p2642
aa(lp2643
S'high'
p2644
aS'high'
p2645
ag4
aS'more'
p2646
aS'med'
p2647
aS'low'
p2648
aS'unacc'
p2649
aa(lp2650
S'high'
p2651
aS'high'
p2652
ag4
aS'more'
p2653
aS'med'
p2654
aS'med'
p2655
aS'unacc'
p2656
aa(lp2657
S'high'
p2658
aS'high'
p2659
ag4
aS'more'
p2660
aS'big'
p2661
aS'low'
p2662
aS'unacc'
p2663
aa(lp2664
S'high'
p2665
aS'high'
p2666
ag4
aS'more'
p2667
aS'big'
p2668
aS'high'
p2669
aS'acc'
p2670
aa(lp2671
S'high'
p2672
aS'high'
p2673
ag177
ag4
aS'small'
p2674
aS'low'
p2675
aS'unacc'
p2676
aa(lp2677
S'high'
p2678
aS'high'
p2679
ag177
ag4
aS'small'
p2680
aS'med'
p2681
aS'unacc'
p2682
aa(lp2683
S'high'
p2684
aS'high'
p2685
ag177
ag4
aS'small'
p2686
aS'high'
p2687
aS'unacc'
p2688
aa(lp2689
S'high'
p2690
aS'high'
p2691
ag177
ag4
aS'med'
p2692
aS'low'
p2693
aS'unacc'
p2694
aa(lp2695
S'high'
p2696
aS'high'
p2697
ag177
ag4
aS'med'
p2698
aS'med'
p2699
aS'unacc'
p2700
aa(lp2701
S'high'
p2702
aS'high'
p2703
ag177
ag4
aS'med'
p2704
aS'high'
p2705
aS'unacc'
p2706
aa(lp2707
S'high'
p2708
aS'high'
p2709
ag177
ag4
aS'big'
p2710
aS'low'
p2711
aS'unacc'
p2712
aa(lp2713
S'high'
p2714
aS'high'
p2715
ag177
ag4
aS'big'
p2716
aS'med'
p2717
aS'unacc'
p2718
aa(lp2719
S'high'
p2720
aS'high'
p2721
ag177
ag4
aS'big'
p2722
aS'high'
p2723
aS'unacc'
p2724
aa(lp2725
S'high'
p2726
aS'high'
p2727
ag177
ag59
aS'small'
p2728
aS'low'
p2729
aS'unacc'
p2730
aa(lp2731
S'high'
p2732
aS'high'
p2733
ag177
ag59
aS'small'
p2734
aS'med'
p2735
aS'unacc'
p2736
aa(lp2737
S'high'
p2738
aS'high'
p2739
ag177
ag59
aS'small'
p2740
aS'high'
p2741
aS'acc'
p2742
aa(lp2743
S'high'
p2744
aS'high'
p2745
ag177
ag59
aS'med'
p2746
aS'low'
p2747
aS'unacc'
p2748
aa(lp2749
S'high'
p2750
aS'high'
p2751
ag177
ag59
aS'med'
p2752
aS'med'
p2753
aS'unacc'
p2754
aa(lp2755
S'high'
p2756
aS'high'
p2757
ag177
ag59
aS'med'
p2758
aS'high'
p2759
aS'acc'
p2760
aa(lp2761
S'high'
p2762
aS'high'
p2763
ag177
ag59
aS'big'
p2764
aS'low'
p2765
aS'unacc'
p2766
aa(lp2767
S'high'
p2768
aS'high'
p2769
ag177
ag59
aS'big'
p2770
aS'med'
p2771
aS'acc'
p2772
aa(lp2773
S'high'
p2774
aS'high'
p2775
ag177
ag59
aS'big'
p2776
aS'high'
p2777
aS'acc'
p2778
aa(lp2779
S'high'
p2780
aS'high'
p2781
ag177
aS'more'
p2782
aS'small'
p2783
aS'low'
p2784
aS'unacc'
p2785
aa(lp2786
S'high'
p2787
aS'high'
p2788
ag177
aS'more'
p2789
aS'small'
p2790
aS'med'
p2791
aS'unacc'
p2792
aa(lp2793
S'high'
p2794
aS'high'
p2795
ag177
aS'more'
p2796
aS'small'
p2797
aS'high'
p2798
aS'acc'
p2799
aa(lp2800
S'high'
p2801
aS'high'
p2802
ag177
aS'more'
p2803
aS'med'
p2804
aS'low'
p2805
aS'unacc'
p2806
aa(lp2807
S'high'
p2808
aS'high'
p2809
ag177
aS'more'
p2810
aS'med'
p2811
aS'med'
p2812
aS'acc'
p2813
aa(lp2814
S'high'
p2815
aS'high'
p2816
ag177
aS'more'
p2817
aS'med'
p2818
aS'high'
p2819
aS'acc'
p2820
aa(lp2821
S'high'
p2822
aS'high'
p2823
ag177
aS'more'
p2824
aS'big'
p2825
aS'low'
p2826
aS'unacc'
p2827
aa(lp2828
S'high'
p2829
aS'high'
p2830
ag177
aS'more'
p2831
aS'big'
p2832
aS'med'
p2833
aS'acc'
p2834
aa(lp2835
S'high'
p2836
aS'high'
p2837
ag177
aS'more'
p2838
aS'big'
p2839
aS'high'
p2840
aS'acc'
p2841
aa(lp2842
S'high'
p2843
aS'high'
p2844
ag59
ag4
aS'small'
p2845
aS'low'
p2846
aS'unacc'
p2847
aa(lp2848
S'high'
p2849
aS'high'
p2850
ag59
ag4
aS'small'
p2851
aS'med'
p2852
aS'unacc'
p2853
aa(lp2854
S'high'
p2855
aS'high'
p2856
ag59
ag4
aS'small'
p2857
aS'high'
p2858
aS'unacc'
p2859
aa(lp2860
S'high'
p2861
aS'high'
p2862
ag59
ag4
aS'med'
p2863
aS'low'
p2864
aS'unacc'
p2865
aa(lp2866
S'high'
p2867
aS'high'
p2868
ag59
ag4
aS'med'
p2869
aS'med'
p2870
aS'unacc'
p2871
aa(lp2872
S'high'
p2873
aS'high'
p2874
ag59
ag4
aS'med'
p2875
aS'high'
p2876
aS'unacc'
p2877
aa(lp2878
S'high'
p2879
aS'high'
p2880
ag59
ag4
aS'big'
p2881
aS'low'
p2882
aS'unacc'
p2883
aa(lp2884
S'high'
p2885
aS'high'
p2886
ag59
ag4
aS'big'
p2887
aS'med'
p2888
aS'unacc'
p2889
aa(lp2890
S'high'
p2891
aS'high'
p2892
ag59
ag4
aS'big'
p2893
aS'high'
p2894
aS'unacc'
p2895
aa(lp2896
S'high'
p2897
aS'high'
p2898
ag59
ag59
aS'small'
p2899
aS'low'
p2900
aS'unacc'
p2901
aa(lp2902
S'high'
p2903
aS'high'
p2904
ag59
ag59
aS'small'
p2905
aS'med'
p2906
aS'unacc'
p2907
aa(lp2908
S'high'
p2909
aS'high'
p2910
ag59
ag59
aS'small'
p2911
aS'high'
p2912
aS'acc'
p2913
aa(lp2914
S'high'
p2915
aS'high'
p2916
ag59
ag59
aS'med'
p2917
aS'low'
p2918
aS'unacc'
p2919
aa(lp2920
S'high'
p2921
aS'high'
p2922
ag59
ag59
aS'med'
p2923
aS'med'
p2924
aS'acc'
p2925
aa(lp2926
S'high'
p2927
aS'high'
p2928
ag59
ag59
aS'med'
p2929
aS'high'
p2930
aS'acc'
p2931
aa(lp2932
S'high'
p2933
aS'high'
p2934
ag59
ag59
aS'big'
p2935
aS'low'
p2936
aS'unacc'
p2937
aa(lp2938
S'high'
p2939
aS'high'
p2940
ag59
ag59
aS'big'
p2941
aS'med'
p2942
aS'acc'
p2943
aa(lp2944
S'high'
p2945
aS'high'
p2946
ag59
ag59
aS'big'
p2947
aS'high'
p2948
aS'acc'
p2949
aa(lp2950
S'high'
p2951
aS'high'
p2952
ag59
aS'more'
p2953
aS'small'
p2954
aS'low'
p2955
aS'unacc'
p2956
aa(lp2957
S'high'
p2958
aS'high'
p2959
ag59
aS'more'
p2960
aS'small'
p2961
aS'med'
p2962
aS'unacc'
p2963
aa(lp2964
S'high'
p2965
aS'high'
p2966
ag59
aS'more'
p2967
aS'small'
p2968
aS'high'
p2969
aS'acc'
p2970
aa(lp2971
S'high'
p2972
aS'high'
p2973
ag59
aS'more'
p2974
aS'med'
p2975
aS'low'
p2976
aS'unacc'
p2977
aa(lp2978
S'high'
p2979
aS'high'
p2980
ag59
aS'more'
p2981
aS'med'
p2982
aS'med'
p2983
aS'acc'
p2984
aa(lp2985
S'high'
p2986
aS'high'
p2987
ag59
aS'more'
p2988
aS'med'
p2989
aS'high'
p2990
aS'acc'
p2991
aa(lp2992
S'high'
p2993
aS'high'
p2994
ag59
aS'more'
p2995
aS'big'
p2996
aS'low'
p2997
aS'unacc'
p2998
aa(lp2999
S'high'
p3000
aS'high'
p3001
ag59
aS'more'
p3002
aS'big'
p3003
aS'med'
p3004
aS'acc'
p3005
aa(lp3006
S'high'
p3007
aS'high'
p3008
ag59
aS'more'
p3009
aS'big'
p3010
aS'high'
p3011
aS'acc'
p3012
aa(lp3013
S'high'
p3014
aS'high'
p3015
aS'5more'
p3016
ag4
aS'small'
p3017
aS'low'
p3018
aS'unacc'
p3019
aa(lp3020
S'high'
p3021
aS'high'
p3022
aS'5more'
p3023
ag4
aS'small'
p3024
aS'med'
p3025
aS'unacc'
p3026
aa(lp3027
S'high'
p3028
aS'high'
p3029
aS'5more'
p3030
ag4
aS'small'
p3031
aS'high'
p3032
aS'unacc'
p3033
aa(lp3034
S'high'
p3035
aS'high'
p3036
aS'5more'
p3037
ag4
aS'med'
p3038
aS'low'
p3039
aS'unacc'
p3040
aa(lp3041
S'high'
p3042
aS'high'
p3043
aS'5more'
p3044
ag4
aS'med'
p3045
aS'med'
p3046
aS'unacc'
p3047
aa(lp3048
S'high'
p3049
aS'high'
p3050
aS'5more'
p3051
ag4
aS'med'
p3052
aS'high'
p3053
aS'unacc'
p3054
aa(lp3055
S'high'
p3056
aS'high'
p3057
aS'5more'
p3058
ag4
aS'big'
p3059
aS'low'
p3060
aS'unacc'
p3061
aa(lp3062
S'high'
p3063
aS'high'
p3064
aS'5more'
p3065
ag4
aS'big'
p3066
aS'med'
p3067
aS'unacc'
p3068
aa(lp3069
S'high'
p3070
aS'high'
p3071
aS'5more'
p3072
ag4
aS'big'
p3073
aS'high'
p3074
aS'unacc'
p3075
aa(lp3076
S'high'
p3077
aS'high'
p3078
aS'5more'
p3079
ag59
aS'small'
p3080
aS'low'
p3081
aS'unacc'
p3082
aa(lp3083
S'high'
p3084
aS'high'
p3085
aS'5more'
p3086
ag59
aS'small'
p3087
aS'med'
p3088
aS'unacc'
p3089
aa(lp3090
S'high'
p3091
aS'high'
p3092
aS'5more'
p3093
ag59
aS'small'
p3094
aS'high'
p3095
aS'acc'
p3096
aa(lp3097
S'high'
p3098
aS'high'
p3099
aS'5more'
p3100
ag59
aS'med'
p3101
aS'low'
p3102
aS'unacc'
p3103
aa(lp3104
S'high'
p3105
aS'high'
p3106
aS'5more'
p3107
ag59
aS'med'
p3108
aS'med'
p3109
aS'acc'
p3110
aa(lp3111
S'high'
p3112
aS'high'
p3113
aS'5more'
p3114
ag59
aS'med'
p3115
aS'high'
p3116
aS'acc'
p3117
aa(lp3118
S'high'
p3119
aS'high'
p3120
aS'5more'
p3121
ag59
aS'big'
p3122
aS'low'
p3123
aS'unacc'
p3124
aa(lp3125
S'high'
p3126
aS'high'
p3127
aS'5more'
p3128
ag59
aS'big'
p3129
aS'med'
p3130
aS'acc'
p3131
aa(lp3132
S'high'
p3133
aS'high'
p3134
aS'5more'
p3135
ag59
aS'big'
p3136
aS'high'
p3137
aS'acc'
p3138
aa(lp3139
S'high'
p3140
aS'high'
p3141
aS'5more'
p3142
aS'more'
p3143
aS'small'
p3144
aS'low'
p3145
aS'unacc'
p3146
aa(lp3147
S'high'
p3148
aS'high'
p3149
aS'5more'
p3150
aS'more'
p3151
aS'small'
p3152
aS'med'
p3153
aS'unacc'
p3154
aa(lp3155
S'high'
p3156
aS'high'
p3157
aS'5more'
p3158
aS'more'
p3159
aS'small'
p3160
aS'high'
p3161
aS'acc'
p3162
aa(lp3163
S'high'
p3164
aS'high'
p3165
aS'5more'
p3166
aS'more'
p3167
aS'med'
p3168
aS'low'
p3169
aS'unacc'
p3170
aa(lp3171
S'high'
p3172
aS'high'
p3173
aS'5more'
p3174
aS'more'
p3175
aS'med'
p3176
aS'med'
p3177
aS'acc'
p3178
aa(lp3179
S'high'
p3180
aS'high'
p3181
aS'5more'
p3182
aS'more'
p3183
aS'med'
p3184
aS'high'
p3185
aS'acc'
p3186
aa(lp3187
S'high'
p3188
aS'high'
p3189
aS'5more'
p3190
aS'more'
p3191
aS'big'
p3192
aS'low'
p3193
aS'unacc'
p3194
aa(lp3195
S'high'
p3196
aS'high'
p3197
aS'5more'
p3198
aS'more'
p3199
aS'big'
p3200
aS'med'
p3201
aS'acc'
p3202
aa(lp3203
S'high'
p3204
aS'high'
p3205
aS'5more'
p3206
aS'more'
p3207
aS'big'
p3208
aS'high'
p3209
aS'acc'
p3210
aa(lp3211
S'high'
p3212
aS'med'
p3213
ag4
ag4
aS'small'
p3214
aS'low'
p3215
aS'unacc'
p3216
aa(lp3217
S'high'
p3218
aS'med'
p3219
ag4
ag4
aS'small'
p3220
aS'med'
p3221
aS'unacc'
p3222
aa(lp3223
S'high'
p3224
aS'med'
p3225
ag4
ag4
aS'small'
p3226
aS'high'
p3227
aS'unacc'
p3228
aa(lp3229
S'high'
p3230
aS'med'
p3231
ag4
ag4
aS'med'
p3232
aS'low'
p3233
aS'unacc'
p3234
aa(lp3235
S'high'
p3236
aS'med'
p3237
ag4
ag4
aS'med'
p3238
aS'med'
p3239
aS'unacc'
p3240
aa(lp3241
S'high'
p3242
aS'med'
p3243
ag4
ag4
aS'med'
p3244
aS'high'
p3245
aS'unacc'
p3246
aa(lp3247
S'high'
p3248
aS'med'
p3249
ag4
ag4
aS'big'
p3250
aS'low'
p3251
aS'unacc'
p3252
aa(lp3253
S'high'
p3254
aS'med'
p3255
ag4
ag4
aS'big'
p3256
aS'med'
p3257
aS'unacc'
p3258
aa(lp3259
S'high'
p3260
aS'med'
p3261
ag4
ag4
aS'big'
p3262
aS'high'
p3263
aS'unacc'
p3264
aa(lp3265
S'high'
p3266
aS'med'
p3267
ag4
ag59
aS'small'
p3268
aS'low'
p3269
aS'unacc'
p3270
aa(lp3271
S'high'
p3272
aS'med'
p3273
ag4
ag59
aS'small'
p3274
aS'med'
p3275
aS'unacc'
p3276
aa(lp3277
S'high'
p3278
aS'med'
p3279
ag4
ag59
aS'small'
p3280
aS'high'
p3281
aS'acc'
p3282
aa(lp3283
S'high'
p3284
aS'med'
p3285
ag4
ag59
aS'med'
p3286
aS'low'
p3287
aS'unacc'
p3288
aa(lp3289
S'high'
p3290
aS'med'
p3291
ag4
ag59
aS'med'
p3292
aS'med'
p3293
aS'unacc'
p3294
aa(lp3295
S'high'
p3296
aS'med'
p3297
ag4
ag59
aS'med'
p3298
aS'high'
p3299
aS'acc'
p3300
aa(lp3301
S'high'
p3302
aS'med'
p3303
ag4
ag59
aS'big'
p3304
aS'low'
p3305
aS'unacc'
p3306
aa(lp3307
S'high'
p3308
aS'med'
p3309
ag4
ag59
aS'big'
p3310
aS'med'
p3311
aS'acc'
p3312
aa(lp3313
S'high'
p3314
aS'med'
p3315
ag4
ag59
aS'big'
p3316
aS'high'
p3317
aS'acc'
p3318
aa(lp3319
S'high'
p3320
aS'med'
p3321
ag4
aS'more'
p3322
aS'small'
p3323
aS'low'
p3324
aS'unacc'
p3325
aa(lp3326
S'high'
p3327
aS'med'
p3328
ag4
aS'more'
p3329
aS'small'
p3330
aS'med'
p3331
aS'unacc'
p3332
aa(lp3333
S'high'
p3334
aS'med'
p3335
ag4
aS'more'
p3336
aS'small'
p3337
aS'high'
p3338
aS'unacc'
p3339
aa(lp3340
S'high'
p3341
aS'med'
p3342
ag4
aS'more'
p3343
aS'med'
p3344
aS'low'
p3345
aS'unacc'
p3346
aa(lp3347
S'high'
p3348
aS'med'
p3349
ag4
aS'more'
p3350
aS'med'
p3351
aS'med'
p3352
aS'unacc'
p3353
aa(lp3354
S'high'
p3355
aS'med'
p3356
ag4
aS'more'
p3357
aS'med'
p3358
aS'high'
p3359
aS'acc'
p3360
aa(lp3361
S'high'
p3362
aS'med'
p3363
ag4
aS'more'
p3364
aS'big'
p3365
aS'low'
p3366
aS'unacc'
p3367
aa(lp3368
S'high'
p3369
aS'med'
p3370
ag4
aS'more'
p3371
aS'big'
p3372
aS'med'
p3373
aS'acc'
p3374
aa(lp3375
S'high'
p3376
aS'med'
p3377
ag4
aS'more'
p3378
aS'big'
p3379
aS'high'
p3380
aS'acc'
p3381
aa(lp3382
S'high'
p3383
aS'med'
p3384
ag177
ag4
aS'small'
p3385
aS'low'
p3386
aS'unacc'
p3387
aa(lp3388
S'high'
p3389
aS'med'
p3390
ag177
ag4
aS'small'
p3391
aS'med'
p3392
aS'unacc'
p3393
aa(lp3394
S'high'
p3395
aS'med'
p3396
ag177
ag4
aS'small'
p3397
aS'high'
p3398
aS'unacc'
p3399
aa(lp3400
S'high'
p3401
aS'med'
p3402
ag177
ag4
aS'med'
p3403
aS'low'
p3404
aS'unacc'
p3405
aa(lp3406
S'high'
p3407
aS'med'
p3408
ag177
ag4
aS'med'
p3409
aS'med'
p3410
aS'unacc'
p3411
aa(lp3412
S'high'
p3413
aS'med'
p3414
ag177
ag4
aS'med'
p3415
aS'high'
p3416
aS'unacc'
p3417
aa(lp3418
S'high'
p3419
aS'med'
p3420
ag177
ag4
aS'big'
p3421
aS'low'
p3422
aS'unacc'
p3423
aa(lp3424
S'high'
p3425
aS'med'
p3426
ag177
ag4
aS'big'
p3427
aS'med'
p3428
aS'unacc'
p3429
aa(lp3430
S'high'
p3431
aS'med'
p3432
ag177
ag4
aS'big'
p3433
aS'high'
p3434
aS'unacc'
p3435
aa(lp3436
S'high'
p3437
aS'med'
p3438
ag177
ag59
aS'small'
p3439
aS'low'
p3440
aS'unacc'
p3441
aa(lp3442
S'high'
p3443
aS'med'
p3444
ag177
ag59
aS'small'
p3445
aS'med'
p3446
aS'unacc'
p3447
aa(lp3448
S'high'
p3449
aS'med'
p3450
ag177
ag59
aS'small'
p3451
aS'high'
p3452
aS'acc'
p3453
aa(lp3454
S'high'
p3455
aS'med'
p3456
ag177
ag59
aS'med'
p3457
aS'low'
p3458
aS'unacc'
p3459
aa(lp3460
S'high'
p3461
aS'med'
p3462
ag177
ag59
aS'med'
p3463
aS'med'
p3464
aS'unacc'
p3465
aa(lp3466
S'high'
p3467
aS'med'
p3468
ag177
ag59
aS'med'
p3469
aS'high'
p3470
aS'acc'
p3471
aa(lp3472
S'high'
p3473
aS'med'
p3474
ag177
ag59
aS'big'
p3475
aS'low'
p3476
aS'unacc'
p3477
aa(lp3478
S'high'
p3479
aS'med'
p3480
ag177
ag59
aS'big'
p3481
aS'med'
p3482
aS'acc'
p3483
aa(lp3484
S'high'
p3485
aS'med'
p3486
ag177
ag59
aS'big'
p3487
aS'high'
p3488
aS'acc'
p3489
aa(lp3490
S'high'
p3491
aS'med'
p3492
ag177
aS'more'
p3493
aS'small'
p3494
aS'low'
p3495
aS'unacc'
p3496
aa(lp3497
S'high'
p3498
aS'med'
p3499
ag177
aS'more'
p3500
aS'small'
p3501
aS'med'
p3502
aS'unacc'
p3503
aa(lp3504
S'high'
p3505
aS'med'
p3506
ag177
aS'more'
p3507
aS'small'
p3508
aS'high'
p3509
aS'acc'
p3510
aa(lp3511
S'high'
p3512
aS'med'
p3513
ag177
aS'more'
p3514
aS'med'
p3515
aS'low'
p3516
aS'unacc'
p3517
aa(lp3518
S'high'
p3519
aS'med'
p3520
ag177
aS'more'
p3521
aS'med'
p3522
aS'med'
p3523
aS'acc'
p3524
aa(lp3525
S'high'
p3526
aS'med'
p3527
ag177
aS'more'
p3528
aS'med'
p3529
aS'high'
p3530
aS'acc'
p3531
aa(lp3532
S'high'
p3533
aS'med'
p3534
ag177
aS'more'
p3535
aS'big'
p3536
aS'low'
p3537
aS'unacc'
p3538
aa(lp3539
S'high'
p3540
aS'med'
p3541
ag177
aS'more'
p3542
aS'big'
p3543
aS'med'
p3544
aS'acc'
p3545
aa(lp3546
S'high'
p3547
aS'med'
p3548
ag177
aS'more'
p3549
aS'big'
p3550
aS'high'
p3551
aS'acc'
p3552
aa(lp3553
S'high'
p3554
aS'med'
p3555
ag59
ag4
aS'small'
p3556
aS'low'
p3557
aS'unacc'
p3558
aa(lp3559
S'high'
p3560
aS'med'
p3561
ag59
ag4
aS'small'
p3562
aS'med'
p3563
aS'unacc'
p3564
aa(lp3565
S'high'
p3566
aS'med'
p3567
ag59
ag4
aS'small'
p3568
aS'high'
p3569
aS'unacc'
p3570
aa(lp3571
S'high'
p3572
aS'med'
p3573
ag59
ag4
aS'med'
p3574
aS'low'
p3575
aS'unacc'
p3576
aa(lp3577
S'high'
p3578
aS'med'
p3579
ag59
ag4
aS'med'
p3580
aS'med'
p3581
aS'unacc'
p3582
aa(lp3583
S'high'
p3584
aS'med'
p3585
ag59
ag4
aS'med'
p3586
aS'high'
p3587
aS'unacc'
p3588
aa(lp3589
S'high'
p3590
aS'med'
p3591
ag59
ag4
aS'big'
p3592
aS'low'
p3593
aS'unacc'
p3594
aa(lp3595
S'high'
p3596
aS'med'
p3597
ag59
ag4
aS'big'
p3598
aS'med'
p3599
aS'unacc'
p3600
aa(lp3601
S'high'
p3602
aS'med'
p3603
ag59
ag4
aS'big'
p3604
aS'high'
p3605
aS'unacc'
p3606
aa(lp3607
S'high'
p3608
aS'med'
p3609
ag59
ag59
aS'small'
p3610
aS'low'
p3611
aS'unacc'
p3612
aa(lp3613
S'high'
p3614
aS'med'
p3615
ag59
ag59
aS'small'
p3616
aS'med'
p3617
aS'unacc'
p3618
aa(lp3619
S'high'
p3620
aS'med'
p3621
ag59
ag59
aS'small'
p3622
aS'high'
p3623
aS'acc'
p3624
aa(lp3625
S'high'
p3626
aS'med'
p3627
ag59
ag59
aS'med'
p3628
aS'low'
p3629
aS'unacc'
p3630
aa(lp3631
S'high'
p3632
aS'med'
p3633
ag59
ag59
aS'med'
p3634
aS'med'
p3635
aS'acc'
p3636
aa(lp3637
S'high'
p3638
aS'med'
p3639
ag59
ag59
aS'med'
p3640
aS'high'
p3641
aS'acc'
p3642
aa(lp3643
S'high'
p3644
aS'med'
p3645
ag59
ag59
aS'big'
p3646
aS'low'
p3647
aS'unacc'
p3648
aa(lp3649
S'high'
p3650
aS'med'
p3651
ag59
ag59
aS'big'
p3652
aS'med'
p3653
aS'acc'
p3654
aa(lp3655
S'high'
p3656
aS'med'
p3657
ag59
ag59
aS'big'
p3658
aS'high'
p3659
aS'acc'
p3660
aa(lp3661
S'high'
p3662
aS'med'
p3663
ag59
aS'more'
p3664
aS'small'
p3665
aS'low'
p3666
aS'unacc'
p3667
aa(lp3668
S'high'
p3669
aS'med'
p3670
ag59
aS'more'
p3671
aS'small'
p3672
aS'med'
p3673
aS'unacc'
p3674
aa(lp3675
S'high'
p3676
aS'med'
p3677
ag59
aS'more'
p3678
aS'small'
p3679
aS'high'
p3680
aS'acc'
p3681
aa(lp3682
S'high'
p3683
aS'med'
p3684
ag59
aS'more'
p3685
aS'med'
p3686
aS'low'
p3687
aS'unacc'
p3688
aa(lp3689
S'high'
p3690
aS'med'
p3691
ag59
aS'more'
p3692
aS'med'
p3693
aS'med'
p3694
aS'acc'
p3695
aa(lp3696
S'high'
p3697
aS'med'
p3698
ag59
aS'more'
p3699
aS'med'
p3700
aS'high'
p3701
aS'acc'
p3702
aa(lp3703
S'high'
p3704
aS'med'
p3705
ag59
aS'more'
p3706
aS'big'
p3707
aS'low'
p3708
aS'unacc'
p3709
aa(lp3710
S'high'
p3711
aS'med'
p3712
ag59
aS'more'
p3713
aS'big'
p3714
aS'med'
p3715
aS'acc'
p3716
aa(lp3717
S'high'
p3718
aS'med'
p3719
ag59
aS'more'
p3720
aS'big'
p3721
aS'high'
p3722
aS'acc'
p3723
aa(lp3724
S'high'
p3725
aS'med'
p3726
aS'5more'
p3727
ag4
aS'small'
p3728
aS'low'
p3729
aS'unacc'
p3730
aa(lp3731
S'high'
p3732
aS'med'
p3733
aS'5more'
p3734
ag4
aS'small'
p3735
aS'med'
p3736
aS'unacc'
p3737
aa(lp3738
S'high'
p3739
aS'med'
p3740
aS'5more'
p3741
ag4
aS'small'
p3742
aS'high'
p3743
aS'unacc'
p3744
aa(lp3745
S'high'
p3746
aS'med'
p3747
aS'5more'
p3748
ag4
aS'med'
p3749
aS'low'
p3750
aS'unacc'
p3751
aa(lp3752
S'high'
p3753
aS'med'
p3754
aS'5more'
p3755
ag4
aS'med'
p3756
aS'med'
p3757
aS'unacc'
p3758
aa(lp3759
S'high'
p3760
aS'med'
p3761
aS'5more'
p3762
ag4
aS'med'
p3763
aS'high'
p3764
aS'unacc'
p3765
aa(lp3766
S'high'
p3767
aS'med'
p3768
aS'5more'
p3769
ag4
aS'big'
p3770
aS'low'
p3771
aS'unacc'
p3772
aa(lp3773
S'high'
p3774
aS'med'
p3775
aS'5more'
p3776
ag4
aS'big'
p3777
aS'med'
p3778
aS'unacc'
p3779
aa(lp3780
S'high'
p3781
aS'med'
p3782
aS'5more'
p3783
ag4
aS'big'
p3784
aS'high'
p3785
aS'unacc'
p3786
aa(lp3787
S'high'
p3788
aS'med'
p3789
aS'5more'
p3790
ag59
aS'small'
p3791
aS'low'
p3792
aS'unacc'
p3793
aa(lp3794
S'high'
p3795
aS'med'
p3796
aS'5more'
p3797
ag59
aS'small'
p3798
aS'med'
p3799
aS'unacc'
p3800
aa(lp3801
S'high'
p3802
aS'med'
p3803
aS'5more'
p3804
ag59
aS'small'
p3805
aS'high'
p3806
aS'acc'
p3807
aa(lp3808
S'high'
p3809
aS'med'
p3810
aS'5more'
p3811
ag59
aS'med'
p3812
aS'low'
p3813
aS'unacc'
p3814
aa(lp3815
S'high'
p3816
aS'med'
p3817
aS'5more'
p3818
ag59
aS'med'
p3819
aS'med'
p3820
aS'acc'
p3821
aa(lp3822
S'high'
p3823
aS'med'
p3824
aS'5more'
p3825
ag59
aS'med'
p3826
aS'high'
p3827
aS'acc'
p3828
aa(lp3829
S'high'
p3830
aS'med'
p3831
aS'5more'
p3832
ag59
aS'big'
p3833
aS'low'
p3834
aS'unacc'
p3835
aa(lp3836
S'high'
p3837
aS'med'
p3838
aS'5more'
p3839
ag59
aS'big'
p3840
aS'med'
p3841
aS'acc'
p3842
aa(lp3843
S'high'
p3844
aS'med'
p3845
aS'5more'
p3846
ag59
aS'big'
p3847
aS'high'
p3848
aS'acc'
p3849
aa(lp3850
S'high'
p3851
aS'med'
p3852
aS'5more'
p3853
aS'more'
p3854
aS'small'
p3855
aS'low'
p3856
aS'unacc'
p3857
aa(lp3858
S'high'
p3859
aS'med'
p3860
aS'5more'
p3861
aS'more'
p3862
aS'small'
p3863
aS'med'
p3864
aS'unacc'
p3865
aa(lp3866
S'high'
p3867
aS'med'
p3868
aS'5more'
p3869
aS'more'
p3870
aS'small'
p3871
aS'high'
p3872
aS'acc'
p3873
aa(lp3874
S'high'
p3875
aS'med'
p3876
aS'5more'
p3877
aS'more'
p3878
aS'med'
p3879
aS'low'
p3880
aS'unacc'
p3881
aa(lp3882
S'high'
p3883
aS'med'
p3884
aS'5more'
p3885
aS'more'
p3886
aS'med'
p3887
aS'med'
p3888
aS'acc'
p3889
aa(lp3890
S'high'
p3891
aS'med'
p3892
aS'5more'
p3893
aS'more'
p3894
aS'med'
p3895
aS'high'
p3896
aS'acc'
p3897
aa(lp3898
S'high'
p3899
aS'med'
p3900
aS'5more'
p3901
aS'more'
p3902
aS'big'
p3903
aS'low'
p3904
aS'unacc'
p3905
aa(lp3906
S'high'
p3907
aS'med'
p3908
aS'5more'
p3909
aS'more'
p3910
aS'big'
p3911
aS'med'
p3912
aS'acc'
p3913
aa(lp3914
S'high'
p3915
aS'med'
p3916
aS'5more'
p3917
aS'more'
p3918
aS'big'
p3919
aS'high'
p3920
aS'acc'
p3921
aa(lp3922
S'high'
p3923
aS'low'
p3924
ag4
ag4
aS'small'
p3925
aS'low'
p3926
aS'unacc'
p3927
aa(lp3928
S'high'
p3929
aS'low'
p3930
ag4
ag4
aS'small'
p3931
aS'med'
p3932
aS'unacc'
p3933
aa(lp3934
S'high'
p3935
aS'low'
p3936
ag4
ag4
aS'small'
p3937
aS'high'
p3938
aS'unacc'
p3939
aa(lp3940
S'high'
p3941
aS'low'
p3942
ag4
ag4
aS'med'
p3943
aS'low'
p3944
aS'unacc'
p3945
aa(lp3946
S'high'
p3947
aS'low'
p3948
ag4
ag4
aS'med'
p3949
aS'med'
p3950
aS'unacc'
p3951
aa(lp3952
S'high'
p3953
aS'low'
p3954
ag4
ag4
aS'med'
p3955
aS'high'
p3956
aS'unacc'
p3957
aa(lp3958
S'high'
p3959
aS'low'
p3960
ag4
ag4
aS'big'
p3961
aS'low'
p3962
aS'unacc'
p3963
aa(lp3964
S'high'
p3965
aS'low'
p3966
ag4
ag4
aS'big'
p3967
aS'med'
p3968
aS'unacc'
p3969
aa(lp3970
S'high'
p3971
aS'low'
p3972
ag4
ag4
aS'big'
p3973
aS'high'
p3974
aS'unacc'
p3975
aa(lp3976
S'high'
p3977
aS'low'
p3978
ag4
ag59
aS'small'
p3979
aS'low'
p3980
aS'unacc'
p3981
aa(lp3982
S'high'
p3983
aS'low'
p3984
ag4
ag59
aS'small'
p3985
aS'med'
p3986
aS'unacc'
p3987
aa(lp3988
S'high'
p3989
aS'low'
p3990
ag4
ag59
aS'small'
p3991
aS'high'
p3992
aS'acc'
p3993
aa(lp3994
S'high'
p3995
aS'low'
p3996
ag4
ag59
aS'med'
p3997
aS'low'
p3998
aS'unacc'
p3999
aa(lp4000
S'high'
p4001
aS'low'
p4002
ag4
ag59
aS'med'
p4003
aS'med'
p4004
aS'unacc'
p4005
aa(lp4006
S'high'
p4007
aS'low'
p4008
ag4
ag59
aS'med'
p4009
aS'high'
p4010
aS'acc'
p4011
aa(lp4012
S'high'
p4013
aS'low'
p4014
ag4
ag59
aS'big'
p4015
aS'low'
p4016
aS'unacc'
p4017
aa(lp4018
S'high'
p4019
aS'low'
p4020
ag4
ag59
aS'big'
p4021
aS'med'
p4022
aS'acc'
p4023
aa(lp4024
S'high'
p4025
aS'low'
p4026
ag4
ag59
aS'big'
p4027
aS'high'
p4028
aS'acc'
p4029
aa(lp4030
S'high'
p4031
aS'low'
p4032
ag4
aS'more'
p4033
aS'small'
p4034
aS'low'
p4035
aS'unacc'
p4036
aa(lp4037
S'high'
p4038
aS'low'
p4039
ag4
aS'more'
p4040
aS'small'
p4041
aS'med'
p4042
aS'unacc'
p4043
aa(lp4044
S'high'
p4045
aS'low'
p4046
ag4
aS'more'
p4047
aS'small'
p4048
aS'high'
p4049
aS'unacc'
p4050
aa(lp4051
S'high'
p4052
aS'low'
p4053
ag4
aS'more'
p4054
aS'med'
p4055
aS'low'
p4056
aS'unacc'
p4057
aa(lp4058
S'high'
p4059
aS'low'
p4060
ag4
aS'more'
p4061
aS'med'
p4062
aS'med'
p4063
aS'unacc'
p4064
aa(lp4065
S'high'
p4066
aS'low'
p4067
ag4
aS'more'
p4068
aS'med'
p4069
aS'high'
p4070
aS'acc'
p4071
aa(lp4072
S'high'
p4073
aS'low'
p4074
ag4
aS'more'
p4075
aS'big'
p4076
aS'low'
p4077
aS'unacc'
p4078
aa(lp4079
S'high'
p4080
aS'low'
p4081
ag4
aS'more'
p4082
aS'big'
p4083
aS'med'
p4084
aS'acc'
p4085
aa(lp4086
S'high'
p4087
aS'low'
p4088
ag4
aS'more'
p4089
aS'big'
p4090
aS'high'
p4091
aS'acc'
p4092
aa(lp4093
S'high'
p4094
aS'low'
p4095
ag177
ag4
aS'small'
p4096
aS'low'
p4097
aS'unacc'
p4098
aa(lp4099
S'high'
p4100
aS'low'
p4101
ag177
ag4
aS'small'
p4102
aS'med'
p4103
aS'unacc'
p4104
aa(lp4105
S'high'
p4106
aS'low'
p4107
ag177
ag4
aS'small'
p4108
aS'high'
p4109
aS'unacc'
p4110
aa(lp4111
S'high'
p4112
aS'low'
p4113
ag177
ag4
aS'med'
p4114
aS'low'
p4115
aS'unacc'
p4116
aa(lp4117
S'high'
p4118
aS'low'
p4119
ag177
ag4
aS'med'
p4120
aS'med'
p4121
aS'unacc'
p4122
aa(lp4123
S'high'
p4124
aS'low'
p4125
ag177
ag4
aS'med'
p4126
aS'high'
p4127
aS'unacc'
p4128
aa(lp4129
S'high'
p4130
aS'low'
p4131
ag177
ag4
aS'big'
p4132
aS'low'
p4133
aS'unacc'
p4134
aa(lp4135
S'high'
p4136
aS'low'
p4137
ag177
ag4
aS'big'
p4138
aS'med'
p4139
aS'unacc'
p4140
aa(lp4141
S'high'
p4142
aS'low'
p4143
ag177
ag4
aS'big'
p4144
aS'high'
p4145
aS'unacc'
p4146
aa(lp4147
S'high'
p4148
aS'low'
p4149
ag177
ag59
aS'small'
p4150
aS'low'
p4151
aS'unacc'
p4152
aa(lp4153
S'high'
p4154
aS'low'
p4155
ag177
ag59
aS'small'
p4156
aS'med'
p4157
aS'unacc'
p4158
aa(lp4159
S'high'
p4160
aS'low'
p4161
ag177
ag59
aS'small'
p4162
aS'high'
p4163
aS'acc'
p4164
aa(lp4165
S'high'
p4166
aS'low'
p4167
ag177
ag59
aS'med'
p4168
aS'low'
p4169
aS'unacc'
p4170
aa(lp4171
S'high'
p4172
aS'low'
p4173
ag177
ag59
aS'med'
p4174
aS'med'
p4175
aS'unacc'
p4176
aa(lp4177
S'high'
p4178
aS'low'
p4179
ag177
ag59
aS'med'
p4180
aS'high'
p4181
aS'acc'
p4182
aa(lp4183
S'high'
p4184
aS'low'
p4185
ag177
ag59
aS'big'
p4186
aS'low'
p4187
aS'unacc'
p4188
aa(lp4189
S'high'
p4190
aS'low'
p4191
ag177
ag59
aS'big'
p4192
aS'med'
p4193
aS'acc'
p4194
aa(lp4195
S'high'
p4196
aS'low'
p4197
ag177
ag59
aS'big'
p4198
aS'high'
p4199
aS'acc'
p4200
aa(lp4201
S'high'
p4202
aS'low'
p4203
ag177
aS'more'
p4204
aS'small'
p4205
aS'low'
p4206
aS'unacc'
p4207
aa(lp4208
S'high'
p4209
aS'low'
p4210
ag177
aS'more'
p4211
aS'small'
p4212
aS'med'
p4213
aS'unacc'
p4214
aa(lp4215
S'high'
p4216
aS'low'
p4217
ag177
aS'more'
p4218
aS'small'
p4219
aS'high'
p4220
aS'acc'
p4221
aa(lp4222
S'high'
p4223
aS'low'
p4224
ag177
aS'more'
p4225
aS'med'
p4226
aS'low'
p4227
aS'unacc'
p4228
aa(lp4229
S'high'
p4230
aS'low'
p4231
ag177
aS'more'
p4232
aS'med'
p4233
aS'med'
p4234
aS'acc'
p4235
aa(lp4236
S'high'
p4237
aS'low'
p4238
ag177
aS'more'
p4239
aS'med'
p4240
aS'high'
p4241
aS'acc'
p4242
aa(lp4243
S'high'
p4244
aS'low'
p4245
ag177
aS'more'
p4246
aS'big'
p4247
aS'low'
p4248
aS'unacc'
p4249
aa(lp4250
S'high'
p4251
aS'low'
p4252
ag177
aS'more'
p4253
aS'big'
p4254
aS'med'
p4255
aS'acc'
p4256
aa(lp4257
S'high'
p4258
aS'low'
p4259
ag177
aS'more'
p4260
aS'big'
p4261
aS'high'
p4262
aS'acc'
p4263
aa(lp4264
S'high'
p4265
aS'low'
p4266
ag59
ag4
aS'small'
p4267
aS'low'
p4268
aS'unacc'
p4269
aa(lp4270
S'high'
p4271
aS'low'
p4272
ag59
ag4
aS'small'
p4273
aS'med'
p4274
aS'unacc'
p4275
aa(lp4276
S'high'
p4277
aS'low'
p4278
ag59
ag4
aS'small'
p4279
aS'high'
p4280
aS'unacc'
p4281
aa(lp4282
S'high'
p4283
aS'low'
p4284
ag59
ag4
aS'med'
p4285
aS'low'
p4286
aS'unacc'
p4287
aa(lp4288
S'high'
p4289
aS'low'
p4290
ag59
ag4
aS'med'
p4291
aS'med'
p4292
aS'unacc'
p4293
aa(lp4294
S'high'
p4295
aS'low'
p4296
ag59
ag4
aS'med'
p4297
aS'high'
p4298
aS'unacc'
p4299
aa(lp4300
S'high'
p4301
aS'low'
p4302
ag59
ag4
aS'big'
p4303
aS'low'
p4304
aS'unacc'
p4305
aa(lp4306
S'high'
p4307
aS'low'
p4308
ag59
ag4
aS'big'
p4309
aS'med'
p4310
aS'unacc'
p4311
aa(lp4312
S'high'
p4313
aS'low'
p4314
ag59
ag4
aS'big'
p4315
aS'high'
p4316
aS'unacc'
p4317
aa(lp4318
S'high'
p4319
aS'low'
p4320
ag59
ag59
aS'small'
p4321
aS'low'
p4322
aS'unacc'
p4323
aa(lp4324
S'high'
p4325
aS'low'
p4326
ag59
ag59
aS'small'
p4327
aS'med'
p4328
aS'unacc'
p4329
aa(lp4330
S'high'
p4331
aS'low'
p4332
ag59
ag59
aS'small'
p4333
aS'high'
p4334
aS'acc'
p4335
aa(lp4336
S'high'
p4337
aS'low'
p4338
ag59
ag59
aS'med'
p4339
aS'low'
p4340
aS'unacc'
p4341
aa(lp4342
S'high'
p4343
aS'low'
p4344
ag59
ag59
aS'med'
p4345
aS'med'
p4346
aS'acc'
p4347
aa(lp4348
S'high'
p4349
aS'low'
p4350
ag59
ag59
aS'med'
p4351
aS'high'
p4352
aS'acc'
p4353
aa(lp4354
S'high'
p4355
aS'low'
p4356
ag59
ag59
aS'big'
p4357
aS'low'
p4358
aS'unacc'
p4359
aa(lp4360
S'high'
p4361
aS'low'
p4362
ag59
ag59
aS'big'
p4363
aS'med'
p4364
aS'acc'
p4365
aa(lp4366
S'high'
p4367
aS'low'
p4368
ag59
ag59
aS'big'
p4369
aS'high'
p4370
aS'acc'
p4371
aa(lp4372
S'high'
p4373
aS'low'
p4374
ag59
aS'more'
p4375
aS'small'
p4376
aS'low'
p4377
aS'unacc'
p4378
aa(lp4379
S'high'
p4380
aS'low'
p4381
ag59
aS'more'
p4382
aS'small'
p4383
aS'med'
p4384
aS'unacc'
p4385
aa(lp4386
S'high'
p4387
aS'low'
p4388
ag59
aS'more'
p4389
aS'small'
p4390
aS'high'
p4391
aS'acc'
p4392
aa(lp4393
S'high'
p4394
aS'low'
p4395
ag59
aS'more'
p4396
aS'med'
p4397
aS'low'
p4398
aS'unacc'
p4399
aa(lp4400
S'high'
p4401
aS'low'
p4402
ag59
aS'more'
p4403
aS'med'
p4404
aS'med'
p4405
aS'acc'
p4406
aa(lp4407
S'high'
p4408
aS'low'
p4409
ag59
aS'more'
p4410
aS'med'
p4411
aS'high'
p4412
aS'acc'
p4413
aa(lp4414
S'high'
p4415
aS'low'
p4416
ag59
aS'more'
p4417
aS'big'
p4418
aS'low'
p4419
aS'unacc'
p4420
aa(lp4421
S'high'
p4422
aS'low'
p4423
ag59
aS'more'
p4424
aS'big'
p4425
aS'med'
p4426
aS'acc'
p4427
aa(lp4428
S'high'
p4429
aS'low'
p4430
ag59
aS'more'
p4431
aS'big'
p4432
aS'high'
p4433
aS'acc'
p4434
aa(lp4435
S'high'
p4436
aS'low'
p4437
aS'5more'
p4438
ag4
aS'small'
p4439
aS'low'
p4440
aS'unacc'
p4441
aa(lp4442
S'high'
p4443
aS'low'
p4444
aS'5more'
p4445
ag4
aS'small'
p4446
aS'med'
p4447
aS'unacc'
p4448
aa(lp4449
S'high'
p4450
aS'low'
p4451
aS'5more'
p4452
ag4
aS'small'
p4453
aS'high'
p4454
aS'unacc'
p4455
aa(lp4456
S'high'
p4457
aS'low'
p4458
aS'5more'
p4459
ag4
aS'med'
p4460
aS'low'
p4461
aS'unacc'
p4462
aa(lp4463
S'high'
p4464
aS'low'
p4465
aS'5more'
p4466
ag4
aS'med'
p4467
aS'med'
p4468
aS'unacc'
p4469
aa(lp4470
S'high'
p4471
aS'low'
p4472
aS'5more'
p4473
ag4
aS'med'
p4474
aS'high'
p4475
aS'unacc'
p4476
aa(lp4477
S'high'
p4478
aS'low'
p4479
aS'5more'
p4480
ag4
aS'big'
p4481
aS'low'
p4482
aS'unacc'
p4483
aa(lp4484
S'high'
p4485
aS'low'
p4486
aS'5more'
p4487
ag4
aS'big'
p4488
aS'med'
p4489
aS'unacc'
p4490
aa(lp4491
S'high'
p4492
aS'low'
p4493
aS'5more'
p4494
ag4
aS'big'
p4495
aS'high'
p4496
aS'unacc'
p4497
aa(lp4498
S'high'
p4499
aS'low'
p4500
aS'5more'
p4501
ag59
aS'small'
p4502
aS'low'
p4503
aS'unacc'
p4504
aa(lp4505
S'high'
p4506
aS'low'
p4507
aS'5more'
p4508
ag59
aS'small'
p4509
aS'med'
p4510
aS'unacc'
p4511
aa(lp4512
S'high'
p4513
aS'low'
p4514
aS'5more'
p4515
ag59
aS'small'
p4516
aS'high'
p4517
aS'acc'
p4518
aa(lp4519
S'high'
p4520
aS'low'
p4521
aS'5more'
p4522
ag59
aS'med'
p4523
aS'low'
p4524
aS'unacc'
p4525
aa(lp4526
S'high'
p4527
aS'low'
p4528
aS'5more'
p4529
ag59
aS'med'
p4530
aS'med'
p4531
aS'acc'
p4532
aa(lp4533
S'high'
p4534
aS'low'
p4535
aS'5more'
p4536
ag59
aS'med'
p4537
aS'high'
p4538
aS'acc'
p4539
aa(lp4540
S'high'
p4541
aS'low'
p4542
aS'5more'
p4543
ag59
aS'big'
p4544
aS'low'
p4545
aS'unacc'
p4546
aa(lp4547
S'high'
p4548
aS'low'
p4549
aS'5more'
p4550
ag59
aS'big'
p4551
aS'med'
p4552
aS'acc'
p4553
aa(lp4554
S'high'
p4555
aS'low'
p4556
aS'5more'
p4557
ag59
aS'big'
p4558
aS'high'
p4559
aS'acc'
p4560
aa(lp4561
S'high'
p4562
aS'low'
p4563
aS'5more'
p4564
aS'more'
p4565
aS'small'
p4566
aS'low'
p4567
aS'unacc'
p4568
aa(lp4569
S'high'
p4570
aS'low'
p4571
aS'5more'
p4572
aS'more'
p4573
aS'small'
p4574
aS'med'
p4575
aS'unacc'
p4576
aa(lp4577
S'high'
p4578
aS'low'
p4579
aS'5more'
p4580
aS'more'
p4581
aS'small'
p4582
aS'high'
p4583
aS'acc'
p4584
aa(lp4585
S'high'
p4586
aS'low'
p4587
aS'5more'
p4588
aS'more'
p4589
aS'med'
p4590
aS'low'
p4591
aS'unacc'
p4592
aa(lp4593
S'high'
p4594
aS'low'
p4595
aS'5more'
p4596
aS'more'
p4597
aS'med'
p4598
aS'med'
p4599
aS'acc'
p4600
aa(lp4601
S'high'
p4602
aS'low'
p4603
aS'5more'
p4604
aS'more'
p4605
aS'med'
p4606
aS'high'
p4607
aS'acc'
p4608
aa(lp4609
S'high'
p4610
aS'low'
p4611
aS'5more'
p4612
aS'more'
p4613
aS'big'
p4614
aS'low'
p4615
aS'unacc'
p4616
aa(lp4617
S'high'
p4618
aS'low'
p4619
aS'5more'
p4620
aS'more'
p4621
aS'big'
p4622
aS'med'
p4623
aS'acc'
p4624
aa(lp4625
S'high'
p4626
aS'low'
p4627
aS'5more'
p4628
aS'more'
p4629
aS'big'
p4630
aS'high'
p4631
aS'acc'
p4632
aa(lp4633
S'med'
p4634
aS'vhigh'
p4635
ag4
ag4
aS'small'
p4636
aS'low'
p4637
aS'unacc'
p4638
aa(lp4639
S'med'
p4640
aS'vhigh'
p4641
ag4
ag4
aS'small'
p4642
aS'med'
p4643
aS'unacc'
p4644
aa(lp4645
S'med'
p4646
aS'vhigh'
p4647
ag4
ag4
aS'small'
p4648
aS'high'
p4649
aS'unacc'
p4650
aa(lp4651
S'med'
p4652
aS'vhigh'
p4653
ag4
ag4
aS'med'
p4654
aS'low'
p4655
aS'unacc'
p4656
aa(lp4657
S'med'
p4658
aS'vhigh'
p4659
ag4
ag4
aS'med'
p4660
aS'med'
p4661
aS'unacc'
p4662
aa(lp4663
S'med'
p4664
aS'vhigh'
p4665
ag4
ag4
aS'med'
p4666
aS'high'
p4667
aS'unacc'
p4668
aa(lp4669
S'med'
p4670
aS'vhigh'
p4671
ag4
ag4
aS'big'
p4672
aS'low'
p4673
aS'unacc'
p4674
aa(lp4675
S'med'
p4676
aS'vhigh'
p4677
ag4
ag4
aS'big'
p4678
aS'med'
p4679
aS'unacc'
p4680
aa(lp4681
S'med'
p4682
aS'vhigh'
p4683
ag4
ag4
aS'big'
p4684
aS'high'
p4685
aS'unacc'
p4686
aa(lp4687
S'med'
p4688
aS'vhigh'
p4689
ag4
ag59
aS'small'
p4690
aS'low'
p4691
aS'unacc'
p4692
aa(lp4693
S'med'
p4694
aS'vhigh'
p4695
ag4
ag59
aS'small'
p4696
aS'med'
p4697
aS'unacc'
p4698
aa(lp4699
S'med'
p4700
aS'vhigh'
p4701
ag4
ag59
aS'small'
p4702
aS'high'
p4703
aS'acc'
p4704
aa(lp4705
S'med'
p4706
aS'vhigh'
p4707
ag4
ag59
aS'med'
p4708
aS'low'
p4709
aS'unacc'
p4710
aa(lp4711
S'med'
p4712
aS'vhigh'
p4713
ag4
ag59
aS'med'
p4714
aS'med'
p4715
aS'unacc'
p4716
aa(lp4717
S'med'
p4718
aS'vhigh'
p4719
ag4
ag59
aS'med'
p4720
aS'high'
p4721
aS'acc'
p4722
aa(lp4723
S'med'
p4724
aS'vhigh'
p4725
ag4
ag59
aS'big'
p4726
aS'low'
p4727
aS'unacc'
p4728
aa(lp4729
S'med'
p4730
aS'vhigh'
p4731
ag4
ag59
aS'big'
p4732
aS'med'
p4733
aS'acc'
p4734
aa(lp4735
S'med'
p4736
aS'vhigh'
p4737
ag4
ag59
aS'big'
p4738
aS'high'
p4739
aS'acc'
p4740
aa(lp4741
S'med'
p4742
aS'vhigh'
p4743
ag4
aS'more'
p4744
aS'small'
p4745
aS'low'
p4746
aS'unacc'
p4747
aa(lp4748
S'med'
p4749
aS'vhigh'
p4750
ag4
aS'more'
p4751
aS'small'
p4752
aS'med'
p4753
aS'unacc'
p4754
aa(lp4755
S'med'
p4756
aS'vhigh'
p4757
ag4
aS'more'
p4758
aS'small'
p4759
aS'high'
p4760
aS'unacc'
p4761
aa(lp4762
S'med'
p4763
aS'vhigh'
p4764
ag4
aS'more'
p4765
aS'med'
p4766
aS'low'
p4767
aS'unacc'
p4768
aa(lp4769
S'med'
p4770
aS'vhigh'
p4771
ag4
aS'more'
p4772
aS'med'
p4773
aS'med'
p4774
aS'unacc'
p4775
aa(lp4776
S'med'
p4777
aS'vhigh'
p4778
ag4
aS'more'
p4779
aS'med'
p4780
aS'high'
p4781
aS'acc'
p4782
aa(lp4783
S'med'
p4784
aS'vhigh'
p4785
ag4
aS'more'
p4786
aS'big'
p4787
aS'low'
p4788
aS'unacc'
p4789
aa(lp4790
S'med'
p4791
aS'vhigh'
p4792
ag4
aS'more'
p4793
aS'big'
p4794
aS'med'
p4795
aS'acc'
p4796
aa(lp4797
S'med'
p4798
aS'vhigh'
p4799
ag4
aS'more'
p4800
aS'big'
p4801
aS'high'
p4802
aS'acc'
p4803
aa(lp4804
S'med'
p4805
aS'vhigh'
p4806
ag177
ag4
aS'small'
p4807
aS'low'
p4808
aS'unacc'
p4809
aa(lp4810
S'med'
p4811
aS'vhigh'
p4812
ag177
ag4
aS'small'
p4813
aS'med'
p4814
aS'unacc'
p4815
aa(lp4816
S'med'
p4817
aS'vhigh'
p4818
ag177
ag4
aS'small'
p4819
aS'high'
p4820
aS'unacc'
p4821
aa(lp4822
S'med'
p4823
aS'vhigh'
p4824
ag177
ag4
aS'med'
p4825
aS'low'
p4826
aS'unacc'
p4827
aa(lp4828
S'med'
p4829
aS'vhigh'
p4830
ag177
ag4
aS'med'
p4831
aS'med'
p4832
aS'unacc'
p4833
aa(lp4834
S'med'
p4835
aS'vhigh'
p4836
ag177
ag4
aS'med'
p4837
aS'high'
p4838
aS'unacc'
p4839
aa(lp4840
S'med'
p4841
aS'vhigh'
p4842
ag177
ag4
aS'big'
p4843
aS'low'
p4844
aS'unacc'
p4845
aa(lp4846
S'med'
p4847
aS'vhigh'
p4848
ag177
ag4
aS'big'
p4849
aS'med'
p4850
aS'unacc'
p4851
aa(lp4852
S'med'
p4853
aS'vhigh'
p4854
ag177
ag4
aS'big'
p4855
aS'high'
p4856
aS'unacc'
p4857
aa(lp4858
S'med'
p4859
aS'vhigh'
p4860
ag177
ag59
aS'small'
p4861
aS'low'
p4862
aS'unacc'
p4863
aa(lp4864
S'med'
p4865
aS'vhigh'
p4866
ag177
ag59
aS'small'
p4867
aS'med'
p4868
aS'unacc'
p4869
aa(lp4870
S'med'
p4871
aS'vhigh'
p4872
ag177
ag59
aS'small'
p4873
aS'high'
p4874
aS'acc'
p4875
aa(lp4876
S'med'
p4877
aS'vhigh'
p4878
ag177
ag59
aS'med'
p4879
aS'low'
p4880
aS'unacc'
p4881
aa(lp4882
S'med'
p4883
aS'vhigh'
p4884
ag177
ag59
aS'med'
p4885
aS'med'
p4886
aS'unacc'
p4887
aa(lp4888
S'med'
p4889
aS'vhigh'
p4890
ag177
ag59
aS'med'
p4891
aS'high'
p4892
aS'acc'
p4893
aa(lp4894
S'med'
p4895
aS'vhigh'
p4896
ag177
ag59
aS'big'
p4897
aS'low'
p4898
aS'unacc'
p4899
aa(lp4900
S'med'
p4901
aS'vhigh'
p4902
ag177
ag59
aS'big'
p4903
aS'med'
p4904
aS'acc'
p4905
aa(lp4906
S'med'
p4907
aS'vhigh'
p4908
ag177
ag59
aS'big'
p4909
aS'high'
p4910
aS'acc'
p4911
aa(lp4912
S'med'
p4913
aS'vhigh'
p4914
ag177
aS'more'
p4915
aS'small'
p4916
aS'low'
p4917
aS'unacc'
p4918
aa(lp4919
S'med'
p4920
aS'vhigh'
p4921
ag177
aS'more'
p4922
aS'small'
p4923
aS'med'
p4924
aS'unacc'
p4925
aa(lp4926
S'med'
p4927
aS'vhigh'
p4928
ag177
aS'more'
p4929
aS'small'
p4930
aS'high'
p4931
aS'acc'
p4932
aa(lp4933
S'med'
p4934
aS'vhigh'
p4935
ag177
aS'more'
p4936
aS'med'
p4937
aS'low'
p4938
aS'unacc'
p4939
aa(lp4940
S'med'
p4941
aS'vhigh'
p4942
ag177
aS'more'
p4943
aS'med'
p4944
aS'med'
p4945
aS'acc'
p4946
aa(lp4947
S'med'
p4948
aS'vhigh'
p4949
ag177
aS'more'
p4950
aS'med'
p4951
aS'high'
p4952
aS'acc'
p4953
aa(lp4954
S'med'
p4955
aS'vhigh'
p4956
ag177
aS'more'
p4957
aS'big'
p4958
aS'low'
p4959
aS'unacc'
p4960
aa(lp4961
S'med'
p4962
aS'vhigh'
p4963
ag177
aS'more'
p4964
aS'big'
p4965
aS'med'
p4966
aS'acc'
p4967
aa(lp4968
S'med'
p4969
aS'vhigh'
p4970
ag177
aS'more'
p4971
aS'big'
p4972
aS'high'
p4973
aS'acc'
p4974
aa(lp4975
S'med'
p4976
aS'vhigh'
p4977
ag59
ag4
aS'small'
p4978
aS'low'
p4979
aS'unacc'
p4980
aa(lp4981
S'med'
p4982
aS'vhigh'
p4983
ag59
ag4
aS'small'
p4984
aS'med'
p4985
aS'unacc'
p4986
aa(lp4987
S'med'
p4988
aS'vhigh'
p4989
ag59
ag4
aS'small'
p4990
aS'high'
p4991
aS'unacc'
p4992
aa(lp4993
S'med'
p4994
aS'vhigh'
p4995
ag59
ag4
aS'med'
p4996
aS'low'
p4997
aS'unacc'
p4998
aa(lp4999
S'med'
p5000
aS'vhigh'
p5001
ag59
ag4
aS'med'
p5002
aS'med'
p5003
aS'unacc'
p5004
aa(lp5005
S'med'
p5006
aS'vhigh'
p5007
ag59
ag4
aS'med'
p5008
aS'high'
p5009
aS'unacc'
p5010
aa(lp5011
S'med'
p5012
aS'vhigh'
p5013
ag59
ag4
aS'big'
p5014
aS'low'
p5015
aS'unacc'
p5016
aa(lp5017
S'med'
p5018
aS'vhigh'
p5019
ag59
ag4
aS'big'
p5020
aS'med'
p5021
aS'unacc'
p5022
aa(lp5023
S'med'
p5024
aS'vhigh'
p5025
ag59
ag4
aS'big'
p5026
aS'high'
p5027
aS'unacc'
p5028
aa(lp5029
S'med'
p5030
aS'vhigh'
p5031
ag59
ag59
aS'small'
p5032
aS'low'
p5033
aS'unacc'
p5034
aa(lp5035
S'med'
p5036
aS'vhigh'
p5037
ag59
ag59
aS'small'
p5038
aS'med'
p5039
aS'unacc'
p5040
aa(lp5041
S'med'
p5042
aS'vhigh'
p5043
ag59
ag59
aS'small'
p5044
aS'high'
p5045
aS'acc'
p5046
aa(lp5047
S'med'
p5048
aS'vhigh'
p5049
ag59
ag59
aS'med'
p5050
aS'low'
p5051
aS'unacc'
p5052
aa(lp5053
S'med'
p5054
aS'vhigh'
p5055
ag59
ag59
aS'med'
p5056
aS'med'
p5057
aS'acc'
p5058
aa(lp5059
S'med'
p5060
aS'vhigh'
p5061
ag59
ag59
aS'med'
p5062
aS'high'
p5063
aS'acc'
p5064
aa(lp5065
S'med'
p5066
aS'vhigh'
p5067
ag59
ag59
aS'big'
p5068
aS'low'
p5069
aS'unacc'
p5070
aa(lp5071
S'med'
p5072
aS'vhigh'
p5073
ag59
ag59
aS'big'
p5074
aS'med'
p5075
aS'acc'
p5076
aa(lp5077
S'med'
p5078
aS'vhigh'
p5079
ag59
ag59
aS'big'
p5080
aS'high'
p5081
aS'acc'
p5082
aa(lp5083
S'med'
p5084
aS'vhigh'
p5085
ag59
aS'more'
p5086
aS'small'
p5087
aS'low'
p5088
aS'unacc'
p5089
aa(lp5090
S'med'
p5091
aS'vhigh'
p5092
ag59
aS'more'
p5093
aS'small'
p5094
aS'med'
p5095
aS'unacc'
p5096
aa(lp5097
S'med'
p5098
aS'vhigh'
p5099
ag59
aS'more'
p5100
aS'small'
p5101
aS'high'
p5102
aS'acc'
p5103
aa(lp5104
S'med'
p5105
aS'vhigh'
p5106
ag59
aS'more'
p5107
aS'med'
p5108
aS'low'
p5109
aS'unacc'
p5110
aa(lp5111
S'med'
p5112
aS'vhigh'
p5113
ag59
aS'more'
p5114
aS'med'
p5115
aS'med'
p5116
aS'acc'
p5117
aa(lp5118
S'med'
p5119
aS'vhigh'
p5120
ag59
aS'more'
p5121
aS'med'
p5122
aS'high'
p5123
aS'acc'
p5124
aa(lp5125
S'med'
p5126
aS'vhigh'
p5127
ag59
aS'more'
p5128
aS'big'
p5129
aS'low'
p5130
aS'unacc'
p5131
aa(lp5132
S'med'
p5133
aS'vhigh'
p5134
ag59
aS'more'
p5135
aS'big'
p5136
aS'med'
p5137
aS'acc'
p5138
aa(lp5139
S'med'
p5140
aS'vhigh'
p5141
ag59
aS'more'
p5142
aS'big'
p5143
aS'high'
p5144
aS'acc'
p5145
aa(lp5146
S'med'
p5147
aS'vhigh'
p5148
aS'5more'
p5149
ag4
aS'small'
p5150
aS'low'
p5151
aS'unacc'
p5152
aa(lp5153
S'med'
p5154
aS'vhigh'
p5155
aS'5more'
p5156
ag4
aS'small'
p5157
aS'med'
p5158
aS'unacc'
p5159
aa(lp5160
S'med'
p5161
aS'vhigh'
p5162
aS'5more'
p5163
ag4
aS'small'
p5164
aS'high'
p5165
aS'unacc'
p5166
aa(lp5167
S'med'
p5168
aS'vhigh'
p5169
aS'5more'
p5170
ag4
aS'med'
p5171
aS'low'
p5172
aS'unacc'
p5173
aa(lp5174
S'med'
p5175
aS'vhigh'
p5176
aS'5more'
p5177
ag4
aS'med'
p5178
aS'med'
p5179
aS'unacc'
p5180
aa(lp5181
S'med'
p5182
aS'vhigh'
p5183
aS'5more'
p5184
ag4
aS'med'
p5185
aS'high'
p5186
aS'unacc'
p5187
aa(lp5188
S'med'
p5189
aS'vhigh'
p5190
aS'5more'
p5191
ag4
aS'big'
p5192
aS'low'
p5193
aS'unacc'
p5194
aa(lp5195
S'med'
p5196
aS'vhigh'
p5197
aS'5more'
p5198
ag4
aS'big'
p5199
aS'med'
p5200
aS'unacc'
p5201
aa(lp5202
S'med'
p5203
aS'vhigh'
p5204
aS'5more'
p5205
ag4
aS'big'
p5206
aS'high'
p5207
aS'unacc'
p5208
aa(lp5209
S'med'
p5210
aS'vhigh'
p5211
aS'5more'
p5212
ag59
aS'small'
p5213
aS'low'
p5214
aS'unacc'
p5215
aa(lp5216
S'med'
p5217
aS'vhigh'
p5218
aS'5more'
p5219
ag59
aS'small'
p5220
aS'med'
p5221
aS'unacc'
p5222
aa(lp5223
S'med'
p5224
aS'vhigh'
p5225
aS'5more'
p5226
ag59
aS'small'
p5227
aS'high'
p5228
aS'acc'
p5229
aa(lp5230
S'med'
p5231
aS'vhigh'
p5232
aS'5more'
p5233
ag59
aS'med'
p5234
aS'low'
p5235
aS'unacc'
p5236
aa(lp5237
S'med'
p5238
aS'vhigh'
p5239
aS'5more'
p5240
ag59
aS'med'
p5241
aS'med'
p5242
aS'acc'
p5243
aa(lp5244
S'med'
p5245
aS'vhigh'
p5246
aS'5more'
p5247
ag59
aS'med'
p5248
aS'high'
p5249
aS'acc'
p5250
aa(lp5251
S'med'
p5252
aS'vhigh'
p5253
aS'5more'
p5254
ag59
aS'big'
p5255
aS'low'
p5256
aS'unacc'
p5257
aa(lp5258
S'med'
p5259
aS'vhigh'
p5260
aS'5more'
p5261
ag59
aS'big'
p5262
aS'med'
p5263
aS'acc'
p5264
aa(lp5265
S'med'
p5266
aS'vhigh'
p5267
aS'5more'
p5268
ag59
aS'big'
p5269
aS'high'
p5270
aS'acc'
p5271
aa(lp5272
S'med'
p5273
aS'vhigh'
p5274
aS'5more'
p5275
aS'more'
p5276
aS'small'
p5277
aS'low'
p5278
aS'unacc'
p5279
aa(lp5280
S'med'
p5281
aS'vhigh'
p5282
aS'5more'
p5283
aS'more'
p5284
aS'small'
p5285
aS'med'
p5286
aS'unacc'
p5287
aa(lp5288
S'med'
p5289
aS'vhigh'
p5290
aS'5more'
p5291
aS'more'
p5292
aS'small'
p5293
aS'high'
p5294
aS'acc'
p5295
aa(lp5296
S'med'
p5297
aS'vhigh'
p5298
aS'5more'
p5299
aS'more'
p5300
aS'med'
p5301
aS'low'
p5302
aS'unacc'
p5303
aa(lp5304
S'med'
p5305
aS'vhigh'
p5306
aS'5more'
p5307
aS'more'
p5308
aS'med'
p5309
aS'med'
p5310
aS'acc'
p5311
aa(lp5312
S'med'
p5313
aS'vhigh'
p5314
aS'5more'
p5315
aS'more'
p5316
aS'med'
p5317
aS'high'
p5318
aS'acc'
p5319
aa(lp5320
S'med'
p5321
aS'vhigh'
p5322
aS'5more'
p5323
aS'more'
p5324
aS'big'
p5325
aS'low'
p5326
aS'unacc'
p5327
aa(lp5328
S'med'
p5329
aS'vhigh'
p5330
aS'5more'
p5331
aS'more'
p5332
aS'big'
p5333
aS'med'
p5334
aS'acc'
p5335
aa(lp5336
S'med'
p5337
aS'vhigh'
p5338
aS'5more'
p5339
aS'more'
p5340
aS'big'
p5341
aS'high'
p5342
aS'acc'
p5343
aa(lp5344
S'med'
p5345
aS'high'
p5346
ag4
ag4
aS'small'
p5347
aS'low'
p5348
aS'unacc'
p5349
aa(lp5350
S'med'
p5351
aS'high'
p5352
ag4
ag4
aS'small'
p5353
aS'med'
p5354
aS'unacc'
p5355
aa(lp5356
S'med'
p5357
aS'high'
p5358
ag4
ag4
aS'small'
p5359
aS'high'
p5360
aS'unacc'
p5361
aa(lp5362
S'med'
p5363
aS'high'
p5364
ag4
ag4
aS'med'
p5365
aS'low'
p5366
aS'unacc'
p5367
aa(lp5368
S'med'
p5369
aS'high'
p5370
ag4
ag4
aS'med'
p5371
aS'med'
p5372
aS'unacc'
p5373
aa(lp5374
S'med'
p5375
aS'high'
p5376
ag4
ag4
aS'med'
p5377
aS'high'
p5378
aS'unacc'
p5379
aa(lp5380
S'med'
p5381
aS'high'
p5382
ag4
ag4
aS'big'
p5383
aS'low'
p5384
aS'unacc'
p5385
aa(lp5386
S'med'
p5387
aS'high'
p5388
ag4
ag4
aS'big'
p5389
aS'med'
p5390
aS'unacc'
p5391
aa(lp5392
S'med'
p5393
aS'high'
p5394
ag4
ag4
aS'big'
p5395
aS'high'
p5396
aS'unacc'
p5397
aa(lp5398
S'med'
p5399
aS'high'
p5400
ag4
ag59
aS'small'
p5401
aS'low'
p5402
aS'unacc'
p5403
aa(lp5404
S'med'
p5405
aS'high'
p5406
ag4
ag59
aS'small'
p5407
aS'med'
p5408
aS'unacc'
p5409
aa(lp5410
S'med'
p5411
aS'high'
p5412
ag4
ag59
aS'small'
p5413
aS'high'
p5414
aS'acc'
p5415
aa(lp5416
S'med'
p5417
aS'high'
p5418
ag4
ag59
aS'med'
p5419
aS'low'
p5420
aS'unacc'
p5421
aa(lp5422
S'med'
p5423
aS'high'
p5424
ag4
ag59
aS'med'
p5425
aS'med'
p5426
aS'unacc'
p5427
aa(lp5428
S'med'
p5429
aS'high'
p5430
ag4
ag59
aS'med'
p5431
aS'high'
p5432
aS'acc'
p5433
aa(lp5434
S'med'
p5435
aS'high'
p5436
ag4
ag59
aS'big'
p5437
aS'low'
p5438
aS'unacc'
p5439
aa(lp5440
S'med'
p5441
aS'high'
p5442
ag4
ag59
aS'big'
p5443
aS'med'
p5444
aS'acc'
p5445
aa(lp5446
S'med'
p5447
aS'high'
p5448
ag4
ag59
aS'big'
p5449
aS'high'
p5450
aS'acc'
p5451
aa(lp5452
S'med'
p5453
aS'high'
p5454
ag4
aS'more'
p5455
aS'small'
p5456
aS'low'
p5457
aS'unacc'
p5458
aa(lp5459
S'med'
p5460
aS'high'
p5461
ag4
aS'more'
p5462
aS'small'
p5463
aS'med'
p5464
aS'unacc'
p5465
aa(lp5466
S'med'
p5467
aS'high'
p5468
ag4
aS'more'
p5469
aS'small'
p5470
aS'high'
p5471
aS'unacc'
p5472
aa(lp5473
S'med'
p5474
aS'high'
p5475
ag4
aS'more'
p5476
aS'med'
p5477
aS'low'
p5478
aS'unacc'
p5479
aa(lp5480
S'med'
p5481
aS'high'
p5482
ag4
aS'more'
p5483
aS'med'
p5484
aS'med'
p5485
aS'unacc'
p5486
aa(lp5487
S'med'
p5488
aS'high'
p5489
ag4
aS'more'
p5490
aS'med'
p5491
aS'high'
p5492
aS'acc'
p5493
aa(lp5494
S'med'
p5495
aS'high'
p5496
ag4
aS'more'
p5497
aS'big'
p5498
aS'low'
p5499
aS'unacc'
p5500
aa(lp5501
S'med'
p5502
aS'high'
p5503
ag4
aS'more'
p5504
aS'big'
p5505
aS'med'
p5506
aS'acc'
p5507
aa(lp5508
S'med'
p5509
aS'high'
p5510
ag4
aS'more'
p5511
aS'big'
p5512
aS'high'
p5513
aS'acc'
p5514
aa(lp5515
S'med'
p5516
aS'high'
p5517
ag177
ag4
aS'small'
p5518
aS'low'
p5519
aS'unacc'
p5520
aa(lp5521
S'med'
p5522
aS'high'
p5523
ag177
ag4
aS'small'
p5524
aS'med'
p5525
aS'unacc'
p5526
aa(lp5527
S'med'
p5528
aS'high'
p5529
ag177
ag4
aS'small'
p5530
aS'high'
p5531
aS'unacc'
p5532
aa(lp5533
S'med'
p5534
aS'high'
p5535
ag177
ag4
aS'med'
p5536
aS'low'
p5537
aS'unacc'
p5538
aa(lp5539
S'med'
p5540
aS'high'
p5541
ag177
ag4
aS'med'
p5542
aS'med'
p5543
aS'unacc'
p5544
aa(lp5545
S'med'
p5546
aS'high'
p5547
ag177
ag4
aS'med'
p5548
aS'high'
p5549
aS'unacc'
p5550
aa(lp5551
S'med'
p5552
aS'high'
p5553
ag177
ag4
aS'big'
p5554
aS'low'
p5555
aS'unacc'
p5556
aa(lp5557
S'med'
p5558
aS'high'
p5559
ag177
ag4
aS'big'
p5560
aS'med'
p5561
aS'unacc'
p5562
aa(lp5563
S'med'
p5564
aS'high'
p5565
ag177
ag4
aS'big'
p5566
aS'high'
p5567
aS'unacc'
p5568
aa(lp5569
S'med'
p5570
aS'high'
p5571
ag177
ag59
aS'small'
p5572
aS'low'
p5573
aS'unacc'
p5574
aa(lp5575
S'med'
p5576
aS'high'
p5577
ag177
ag59
aS'small'
p5578
aS'med'
p5579
aS'unacc'
p5580
aa(lp5581
S'med'
p5582
aS'high'
p5583
ag177
ag59
aS'small'
p5584
aS'high'
p5585
aS'acc'
p5586
aa(lp5587
S'med'
p5588
aS'high'
p5589
ag177
ag59
aS'med'
p5590
aS'low'
p5591
aS'unacc'
p5592
aa(lp5593
S'med'
p5594
aS'high'
p5595
ag177
ag59
aS'med'
p5596
aS'med'
p5597
aS'unacc'
p5598
aa(lp5599
S'med'
p5600
aS'high'
p5601
ag177
ag59
aS'med'
p5602
aS'high'
p5603
aS'acc'
p5604
aa(lp5605
S'med'
p5606
aS'high'
p5607
ag177
ag59
aS'big'
p5608
aS'low'
p5609
aS'unacc'
p5610
aa(lp5611
S'med'
p5612
aS'high'
p5613
ag177
ag59
aS'big'
p5614
aS'med'
p5615
aS'acc'
p5616
aa(lp5617
S'med'
p5618
aS'high'
p5619
ag177
ag59
aS'big'
p5620
aS'high'
p5621
aS'acc'
p5622
aa(lp5623
S'med'
p5624
aS'high'
p5625
ag177
aS'more'
p5626
aS'small'
p5627
aS'low'
p5628
aS'unacc'
p5629
aa(lp5630
S'med'
p5631
aS'high'
p5632
ag177
aS'more'
p5633
aS'small'
p5634
aS'med'
p5635
aS'unacc'
p5636
aa(lp5637
S'med'
p5638
aS'high'
p5639
ag177
aS'more'
p5640
aS'small'
p5641
aS'high'
p5642
aS'acc'
p5643
aa(lp5644
S'med'
p5645
aS'high'
p5646
ag177
aS'more'
p5647
aS'med'
p5648
aS'low'
p5649
aS'unacc'
p5650
aa(lp5651
S'med'
p5652
aS'high'
p5653
ag177
aS'more'
p5654
aS'med'
p5655
aS'med'
p5656
aS'acc'
p5657
aa(lp5658
S'med'
p5659
aS'high'
p5660
ag177
aS'more'
p5661
aS'med'
p5662
aS'high'
p5663
aS'acc'
p5664
aa(lp5665
S'med'
p5666
aS'high'
p5667
ag177
aS'more'
p5668
aS'big'
p5669
aS'low'
p5670
aS'unacc'
p5671
aa(lp5672
S'med'
p5673
aS'high'
p5674
ag177
aS'more'
p5675
aS'big'
p5676
aS'med'
p5677
aS'acc'
p5678
aa(lp5679
S'med'
p5680
aS'high'
p5681
ag177
aS'more'
p5682
aS'big'
p5683
aS'high'
p5684
aS'acc'
p5685
aa(lp5686
S'med'
p5687
aS'high'
p5688
ag59
ag4
aS'small'
p5689
aS'low'
p5690
aS'unacc'
p5691
aa(lp5692
S'med'
p5693
aS'high'
p5694
ag59
ag4
aS'small'
p5695
aS'med'
p5696
aS'unacc'
p5697
aa(lp5698
S'med'
p5699
aS'high'
p5700
ag59
ag4
aS'small'
p5701
aS'high'
p5702
aS'unacc'
p5703
aa(lp5704
S'med'
p5705
aS'high'
p5706
ag59
ag4
aS'med'
p5707
aS'low'
p5708
aS'unacc'
p5709
aa(lp5710
S'med'
p5711
aS'high'
p5712
ag59
ag4
aS'med'
p5713
aS'med'
p5714
aS'unacc'
p5715
aa(lp5716
S'med'
p5717
aS'high'
p5718
ag59
ag4
aS'med'
p5719
aS'high'
p5720
aS'unacc'
p5721
aa(lp5722
S'med'
p5723
aS'high'
p5724
ag59
ag4
aS'big'
p5725
aS'low'
p5726
aS'unacc'
p5727
aa(lp5728
S'med'
p5729
aS'high'
p5730
ag59
ag4
aS'big'
p5731
aS'med'
p5732
aS'unacc'
p5733
aa(lp5734
S'med'
p5735
aS'high'
p5736
ag59
ag4
aS'big'
p5737
aS'high'
p5738
aS'unacc'
p5739
aa(lp5740
S'med'
p5741
aS'high'
p5742
ag59
ag59
aS'small'
p5743
aS'low'
p5744
aS'unacc'
p5745
aa(lp5746
S'med'
p5747
aS'high'
p5748
ag59
ag59
aS'small'
p5749
aS'med'
p5750
aS'unacc'
p5751
aa(lp5752
S'med'
p5753
aS'high'
p5754
ag59
ag59
aS'small'
p5755
aS'high'
p5756
aS'acc'
p5757
aa(lp5758
S'med'
p5759
aS'high'
p5760
ag59
ag59
aS'med'
p5761
aS'low'
p5762
aS'unacc'
p5763
aa(lp5764
S'med'
p5765
aS'high'
p5766
ag59
ag59
aS'med'
p5767
aS'med'
p5768
aS'acc'
p5769
aa(lp5770
S'med'
p5771
aS'high'
p5772
ag59
ag59
aS'med'
p5773
aS'high'
p5774
aS'acc'
p5775
aa(lp5776
S'med'
p5777
aS'high'
p5778
ag59
ag59
aS'big'
p5779
aS'low'
p5780
aS'unacc'
p5781
aa(lp5782
S'med'
p5783
aS'high'
p5784
ag59
ag59
aS'big'
p5785
aS'med'
p5786
aS'acc'
p5787
aa(lp5788
S'med'
p5789
aS'high'
p5790
ag59
ag59
aS'big'
p5791
aS'high'
p5792
aS'acc'
p5793
aa(lp5794
S'med'
p5795
aS'high'
p5796
ag59
aS'more'
p5797
aS'small'
p5798
aS'low'
p5799
aS'unacc'
p5800
aa(lp5801
S'med'
p5802
aS'high'
p5803
ag59
aS'more'
p5804
aS'small'
p5805
aS'med'
p5806
aS'unacc'
p5807
aa(lp5808
S'med'
p5809
aS'high'
p5810
ag59
aS'more'
p5811
aS'small'
p5812
aS'high'
p5813
aS'acc'
p5814
aa(lp5815
S'med'
p5816
aS'high'
p5817
ag59
aS'more'
p5818
aS'med'
p5819
aS'low'
p5820
aS'unacc'
p5821
aa(lp5822
S'med'
p5823
aS'high'
p5824
ag59
aS'more'
p5825
aS'med'
p5826
aS'med'
p5827
aS'acc'
p5828
aa(lp5829
S'med'
p5830
aS'high'
p5831
ag59
aS'more'
p5832
aS'med'
p5833
aS'high'
p5834
aS'acc'
p5835
aa(lp5836
S'med'
p5837
aS'high'
p5838
ag59
aS'more'
p5839
aS'big'
p5840
aS'low'
p5841
aS'unacc'
p5842
aa(lp5843
S'med'
p5844
aS'high'
p5845
ag59
aS'more'
p5846
aS'big'
p5847
aS'med'
p5848
aS'acc'
p5849
aa(lp5850
S'med'
p5851
aS'high'
p5852
ag59
aS'more'
p5853
aS'big'
p5854
aS'high'
p5855
aS'acc'
p5856
aa(lp5857
S'med'
p5858
aS'high'
p5859
aS'5more'
p5860
ag4
aS'small'
p5861
aS'low'
p5862
aS'unacc'
p5863
aa(lp5864
S'med'
p5865
aS'high'
p5866
aS'5more'
p5867
ag4
aS'small'
p5868
aS'med'
p5869
aS'unacc'
p5870
aa(lp5871
S'med'
p5872
aS'high'
p5873
aS'5more'
p5874
ag4
aS'small'
p5875
aS'high'
p5876
aS'unacc'
p5877
aa(lp5878
S'med'
p5879
aS'high'
p5880
aS'5more'
p5881
ag4
aS'med'
p5882
aS'low'
p5883
aS'unacc'
p5884
aa(lp5885
S'med'
p5886
aS'high'
p5887
aS'5more'
p5888
ag4
aS'med'
p5889
aS'med'
p5890
aS'unacc'
p5891
aa(lp5892
S'med'
p5893
aS'high'
p5894
aS'5more'
p5895
ag4
aS'med'
p5896
aS'high'
p5897
aS'unacc'
p5898
aa(lp5899
S'med'
p5900
aS'high'
p5901
aS'5more'
p5902
ag4
aS'big'
p5903
aS'low'
p5904
aS'unacc'
p5905
aa(lp5906
S'med'
p5907
aS'high'
p5908
aS'5more'
p5909
ag4
aS'big'
p5910
aS'med'
p5911
aS'unacc'
p5912
aa(lp5913
S'med'
p5914
aS'high'
p5915
aS'5more'
p5916
ag4
aS'big'
p5917
aS'high'
p5918
aS'unacc'
p5919
aa(lp5920
S'med'
p5921
aS'high'
p5922
aS'5more'
p5923
ag59
aS'small'
p5924
aS'low'
p5925
aS'unacc'
p5926
aa(lp5927
S'med'
p5928
aS'high'
p5929
aS'5more'
p5930
ag59
aS'small'
p5931
aS'med'
p5932
aS'unacc'
p5933
aa(lp5934
S'med'
p5935
aS'high'
p5936
aS'5more'
p5937
ag59
aS'small'
p5938
aS'high'
p5939
aS'acc'
p5940
aa(lp5941
S'med'
p5942
aS'high'
p5943
aS'5more'
p5944
ag59
aS'med'
p5945
aS'low'
p5946
aS'unacc'
p5947
aa(lp5948
S'med'
p5949
aS'high'
p5950
aS'5more'
p5951
ag59
aS'med'
p5952
aS'med'
p5953
aS'acc'
p5954
aa(lp5955
S'med'
p5956
aS'high'
p5957
aS'5more'
p5958
ag59
aS'med'
p5959
aS'high'
p5960
aS'acc'
p5961
aa(lp5962
S'med'
p5963
aS'high'
p5964
aS'5more'
p5965
ag59
aS'big'
p5966
aS'low'
p5967
aS'unacc'
p5968
aa(lp5969
S'med'
p5970
aS'high'
p5971
aS'5more'
p5972
ag59
aS'big'
p5973
aS'med'
p5974
aS'acc'
p5975
aa(lp5976
S'med'
p5977
aS'high'
p5978
aS'5more'
p5979
ag59
aS'big'
p5980
aS'high'
p5981
aS'acc'
p5982
aa(lp5983
S'med'
p5984
aS'high'
p5985
aS'5more'
p5986
aS'more'
p5987
aS'small'
p5988
aS'low'
p5989
aS'unacc'
p5990
aa(lp5991
S'med'
p5992
aS'high'
p5993
aS'5more'
p5994
aS'more'
p5995
aS'small'
p5996
aS'med'
p5997
aS'unacc'
p5998
aa(lp5999
S'med'
p6000
aS'high'
p6001
aS'5more'
p6002
aS'more'
p6003
aS'small'
p6004
aS'high'
p6005
aS'acc'
p6006
aa(lp6007
S'med'
p6008
aS'high'
p6009
aS'5more'
p6010
aS'more'
p6011
aS'med'
p6012
aS'low'
p6013
aS'unacc'
p6014
aa(lp6015
S'med'
p6016
aS'high'
p6017
aS'5more'
p6018
aS'more'
p6019
aS'med'
p6020
aS'med'
p6021
aS'acc'
p6022
aa(lp6023
S'med'
p6024
aS'high'
p6025
aS'5more'
p6026
aS'more'
p6027
aS'med'
p6028
aS'high'
p6029
aS'acc'
p6030
aa(lp6031
S'med'
p6032
aS'high'
p6033
aS'5more'
p6034
aS'more'
p6035
aS'big'
p6036
aS'low'
p6037
aS'unacc'
p6038
aa(lp6039
S'med'
p6040
aS'high'
p6041
aS'5more'
p6042
aS'more'
p6043
aS'big'
p6044
aS'med'
p6045
aS'acc'
p6046
aa(lp6047
S'med'
p6048
aS'high'
p6049
aS'5more'
p6050
aS'more'
p6051
aS'big'
p6052
aS'high'
p6053
aS'acc'
p6054
aa(lp6055
S'med'
p6056
aS'med'
p6057
ag4
ag4
aS'small'
p6058
aS'low'
p6059
aS'unacc'
p6060
aa(lp6061
S'med'
p6062
aS'med'
p6063
ag4
ag4
aS'small'
p6064
aS'med'
p6065
aS'unacc'
p6066
aa(lp6067
S'med'
p6068
aS'med'
p6069
ag4
ag4
aS'small'
p6070
aS'high'
p6071
aS'unacc'
p6072
aa(lp6073
S'med'
p6074
aS'med'
p6075
ag4
ag4
aS'med'
p6076
aS'low'
p6077
aS'unacc'
p6078
aa(lp6079
S'med'
p6080
aS'med'
p6081
ag4
ag4
aS'med'
p6082
aS'med'
p6083
aS'unacc'
p6084
aa(lp6085
S'med'
p6086
aS'med'
p6087
ag4
ag4
aS'med'
p6088
aS'high'
p6089
aS'unacc'
p6090
aa(lp6091
S'med'
p6092
aS'med'
p6093
ag4
ag4
aS'big'
p6094
aS'low'
p6095
aS'unacc'
p6096
aa(lp6097
S'med'
p6098
aS'med'
p6099
ag4
ag4
aS'big'
p6100
aS'med'
p6101
aS'unacc'
p6102
aa(lp6103
S'med'
p6104
aS'med'
p6105
ag4
ag4
aS'big'
p6106
aS'high'
p6107
aS'unacc'
p6108
aa(lp6109
S'med'
p6110
aS'med'
p6111
ag4
ag59
aS'small'
p6112
aS'low'
p6113
aS'unacc'
p6114
aa(lp6115
S'med'
p6116
aS'med'
p6117
ag4
ag59
aS'small'
p6118
aS'med'
p6119
aS'acc'
p6120
aa(lp6121
S'med'
p6122
aS'med'
p6123
ag4
ag59
aS'small'
p6124
aS'high'
p6125
aS'acc'
p6126
aa(lp6127
S'med'
p6128
aS'med'
p6129
ag4
ag59
aS'med'
p6130
aS'low'
p6131
aS'unacc'
p6132
aa(lp6133
S'med'
p6134
aS'med'
p6135
ag4
ag59
aS'med'
p6136
aS'med'
p6137
aS'acc'
p6138
aa(lp6139
S'med'
p6140
aS'med'
p6141
ag4
ag59
aS'med'
p6142
aS'high'
p6143
aS'acc'
p6144
aa(lp6145
S'med'
p6146
aS'med'
p6147
ag4
ag59
aS'big'
p6148
aS'low'
p6149
aS'unacc'
p6150
aa(lp6151
S'med'
p6152
aS'med'
p6153
ag4
ag59
aS'big'
p6154
aS'med'
p6155
aS'acc'
p6156
aa(lp6157
S'med'
p6158
aS'med'
p6159
ag4
ag59
aS'big'
p6160
aS'high'
p6161
aS'vgood'
p6162
aa(lp6163
S'med'
p6164
aS'med'
p6165
ag4
aS'more'
p6166
aS'small'
p6167
aS'low'
p6168
aS'unacc'
p6169
aa(lp6170
S'med'
p6171
aS'med'
p6172
ag4
aS'more'
p6173
aS'small'
p6174
aS'med'
p6175
aS'unacc'
p6176
aa(lp6177
S'med'
p6178
aS'med'
p6179
ag4
aS'more'
p6180
aS'small'
p6181
aS'high'
p6182
aS'unacc'
p6183
aa(lp6184
S'med'
p6185
aS'med'
p6186
ag4
aS'more'
p6187
aS'med'
p6188
aS'low'
p6189
aS'unacc'
p6190
aa(lp6191
S'med'
p6192
aS'med'
p6193
ag4
aS'more'
p6194
aS'med'
p6195
aS'med'
p6196
aS'acc'
p6197
aa(lp6198
S'med'
p6199
aS'med'
p6200
ag4
aS'more'
p6201
aS'med'
p6202
aS'high'
p6203
aS'acc'
p6204
aa(lp6205
S'med'
p6206
aS'med'
p6207
ag4
aS'more'
p6208
aS'big'
p6209
aS'low'
p6210
aS'unacc'
p6211
aa(lp6212
S'med'
p6213
aS'med'
p6214
ag4
aS'more'
p6215
aS'big'
p6216
aS'med'
p6217
aS'acc'
p6218
aa(lp6219
S'med'
p6220
aS'med'
p6221
ag4
aS'more'
p6222
aS'big'
p6223
aS'high'
p6224
aS'vgood'
p6225
aa(lp6226
S'med'
p6227
aS'med'
p6228
ag177
ag4
aS'small'
p6229
aS'low'
p6230
aS'unacc'
p6231
aa(lp6232
S'med'
p6233
aS'med'
p6234
ag177
ag4
aS'small'
p6235
aS'med'
p6236
aS'unacc'
p6237
aa(lp6238
S'med'
p6239
aS'med'
p6240
ag177
ag4
aS'small'
p6241
aS'high'
p6242
aS'unacc'
p6243
aa(lp6244
S'med'
p6245
aS'med'
p6246
ag177
ag4
aS'med'
p6247
aS'low'
p6248
aS'unacc'
p6249
aa(lp6250
S'med'
p6251
aS'med'
p6252
ag177
ag4
aS'med'
p6253
aS'med'
p6254
aS'unacc'
p6255
aa(lp6256
S'med'
p6257
aS'med'
p6258
ag177
ag4
aS'med'
p6259
aS'high'
p6260
aS'unacc'
p6261
aa(lp6262
S'med'
p6263
aS'med'
p6264
ag177
ag4
aS'big'
p6265
aS'low'
p6266
aS'unacc'
p6267
aa(lp6268
S'med'
p6269
aS'med'
p6270
ag177
ag4
aS'big'
p6271
aS'med'
p6272
aS'unacc'
p6273
aa(lp6274
S'med'
p6275
aS'med'
p6276
ag177
ag4
aS'big'
p6277
aS'high'
p6278
aS'unacc'
p6279
aa(lp6280
S'med'
p6281
aS'med'
p6282
ag177
ag59
aS'small'
p6283
aS'low'
p6284
aS'unacc'
p6285
aa(lp6286
S'med'
p6287
aS'med'
p6288
ag177
ag59
aS'small'
p6289
aS'med'
p6290
aS'acc'
p6291
aa(lp6292
S'med'
p6293
aS'med'
p6294
ag177
ag59
aS'small'
p6295
aS'high'
p6296
aS'acc'
p6297
aa(lp6298
S'med'
p6299
aS'med'
p6300
ag177
ag59
aS'med'
p6301
aS'low'
p6302
aS'unacc'
p6303
aa(lp6304
S'med'
p6305
aS'med'
p6306
ag177
ag59
aS'med'
p6307
aS'med'
p6308
aS'acc'
p6309
aa(lp6310
S'med'
p6311
aS'med'
p6312
ag177
ag59
aS'med'
p6313
aS'high'
p6314
aS'acc'
p6315
aa(lp6316
S'med'
p6317
aS'med'
p6318
ag177
ag59
aS'big'
p6319
aS'low'
p6320
aS'unacc'
p6321
aa(lp6322
S'med'
p6323
aS'med'
p6324
ag177
ag59
aS'big'
p6325
aS'med'
p6326
aS'acc'
p6327
aa(lp6328
S'med'
p6329
aS'med'
p6330
ag177
ag59
aS'big'
p6331
aS'high'
p6332
aS'vgood'
p6333
aa(lp6334
S'med'
p6335
aS'med'
p6336
ag177
aS'more'
p6337
aS'small'
p6338
aS'low'
p6339
aS'unacc'
p6340
aa(lp6341
S'med'
p6342
aS'med'
p6343
ag177
aS'more'
p6344
aS'small'
p6345
aS'med'
p6346
aS'acc'
p6347
aa(lp6348
S'med'
p6349
aS'med'
p6350
ag177
aS'more'
p6351
aS'small'
p6352
aS'high'
p6353
aS'acc'
p6354
aa(lp6355
S'med'
p6356
aS'med'
p6357
ag177
aS'more'
p6358
aS'med'
p6359
aS'low'
p6360
aS'unacc'
p6361
aa(lp6362
S'med'
p6363
aS'med'
p6364
ag177
aS'more'
p6365
aS'med'
p6366
aS'med'
p6367
aS'acc'
p6368
aa(lp6369
S'med'
p6370
aS'med'
p6371
ag177
aS'more'
p6372
aS'med'
p6373
aS'high'
p6374
aS'vgood'
p6375
aa(lp6376
S'med'
p6377
aS'med'
p6378
ag177
aS'more'
p6379
aS'big'
p6380
aS'low'
p6381
aS'unacc'
p6382
aa(lp6383
S'med'
p6384
aS'med'
p6385
ag177
aS'more'
p6386
aS'big'
p6387
aS'med'
p6388
aS'acc'
p6389
aa(lp6390
S'med'
p6391
aS'med'
p6392
ag177
aS'more'
p6393
aS'big'
p6394
aS'high'
p6395
aS'vgood'
p6396
aa(lp6397
S'med'
p6398
aS'med'
p6399
ag59
ag4
aS'small'
p6400
aS'low'
p6401
aS'unacc'
p6402
aa(lp6403
S'med'
p6404
aS'med'
p6405
ag59
ag4
aS'small'
p6406
aS'med'
p6407
aS'unacc'
p6408
aa(lp6409
S'med'
p6410
aS'med'
p6411
ag59
ag4
aS'small'
p6412
aS'high'
p6413
aS'unacc'
p6414
aa(lp6415
S'med'
p6416
aS'med'
p6417
ag59
ag4
aS'med'
p6418
aS'low'
p6419
aS'unacc'
p6420
aa(lp6421
S'med'
p6422
aS'med'
p6423
ag59
ag4
aS'med'
p6424
aS'med'
p6425
aS'unacc'
p6426
aa(lp6427
S'med'
p6428
aS'med'
p6429
ag59
ag4
aS'med'
p6430
aS'high'
p6431
aS'unacc'
p6432
aa(lp6433
S'med'
p6434
aS'med'
p6435
ag59
ag4
aS'big'
p6436
aS'low'
p6437
aS'unacc'
p6438
aa(lp6439
S'med'
p6440
aS'med'
p6441
ag59
ag4
aS'big'
p6442
aS'med'
p6443
aS'unacc'
p6444
aa(lp6445
S'med'
p6446
aS'med'
p6447
ag59
ag4
aS'big'
p6448
aS'high'
p6449
aS'unacc'
p6450
aa(lp6451
S'med'
p6452
aS'med'
p6453
ag59
ag59
aS'small'
p6454
aS'low'
p6455
aS'unacc'
p6456
aa(lp6457
S'med'
p6458
aS'med'
p6459
ag59
ag59
aS'small'
p6460
aS'med'
p6461
aS'acc'
p6462
aa(lp6463
S'med'
p6464
aS'med'
p6465
ag59
ag59
aS'small'
p6466
aS'high'
p6467
aS'acc'
p6468
aa(lp6469
S'med'
p6470
aS'med'
p6471
ag59
ag59
aS'med'
p6472
aS'low'
p6473
aS'unacc'
p6474
aa(lp6475
S'med'
p6476
aS'med'
p6477
ag59
ag59
aS'med'
p6478
aS'med'
p6479
aS'acc'
p6480
aa(lp6481
S'med'
p6482
aS'med'
p6483
ag59
ag59
aS'med'
p6484
aS'high'
p6485
aS'vgood'
p6486
aa(lp6487
S'med'
p6488
aS'med'
p6489
ag59
ag59
aS'big'
p6490
aS'low'
p6491
aS'unacc'
p6492
aa(lp6493
S'med'
p6494
aS'med'
p6495
ag59
ag59
aS'big'
p6496
aS'med'
p6497
aS'acc'
p6498
aa(lp6499
S'med'
p6500
aS'med'
p6501
ag59
ag59
aS'big'
p6502
aS'high'
p6503
aS'vgood'
p6504
aa(lp6505
S'med'
p6506
aS'med'
p6507
ag59
aS'more'
p6508
aS'small'
p6509
aS'low'
p6510
aS'unacc'
p6511
aa(lp6512
S'med'
p6513
aS'med'
p6514
ag59
aS'more'
p6515
aS'small'
p6516
aS'med'
p6517
aS'acc'
p6518
aa(lp6519
S'med'
p6520
aS'med'
p6521
ag59
aS'more'
p6522
aS'small'
p6523
aS'high'
p6524
aS'acc'
p6525
aa(lp6526
S'med'
p6527
aS'med'
p6528
ag59
aS'more'
p6529
aS'med'
p6530
aS'low'
p6531
aS'unacc'
p6532
aa(lp6533
S'med'
p6534
aS'med'
p6535
ag59
aS'more'
p6536
aS'med'
p6537
aS'med'
p6538
aS'acc'
p6539
aa(lp6540
S'med'
p6541
aS'med'
p6542
ag59
aS'more'
p6543
aS'big'
p6544
aS'low'
p6545
aS'unacc'
p6546
aa(lp6547
S'med'
p6548
aS'med'
p6549
ag59
aS'more'
p6550
aS'big'
p6551
aS'med'
p6552
aS'acc'
p6553
aa(lp6554
S'med'
p6555
aS'med'
p6556
aS'5more'
p6557
ag4
aS'small'
p6558
aS'low'
p6559
aS'unacc'
p6560
aa(lp6561
S'med'
p6562
aS'med'
p6563
aS'5more'
p6564
ag4
aS'small'
p6565
aS'med'
p6566
aS'unacc'
p6567
aa(lp6568
S'med'
p6569
aS'med'
p6570
aS'5more'
p6571
ag4
aS'small'
p6572
aS'high'
p6573
aS'unacc'
p6574
aa(lp6575
S'med'
p6576
aS'med'
p6577
aS'5more'
p6578
ag4
aS'med'
p6579
aS'low'
p6580
aS'unacc'
p6581
aa(lp6582
S'med'
p6583
aS'med'
p6584
aS'5more'
p6585
ag4
aS'med'
p6586
aS'med'
p6587
aS'unacc'
p6588
aa(lp6589
S'med'
p6590
aS'med'
p6591
aS'5more'
p6592
ag4
aS'med'
p6593
aS'high'
p6594
aS'unacc'
p6595
aa(lp6596
S'med'
p6597
aS'med'
p6598
aS'5more'
p6599
ag4
aS'big'
p6600
aS'low'
p6601
aS'unacc'
p6602
aa(lp6603
S'med'
p6604
aS'med'
p6605
aS'5more'
p6606
ag4
aS'big'
p6607
aS'med'
p6608
aS'unacc'
p6609
aa(lp6610
S'med'
p6611
aS'med'
p6612
aS'5more'
p6613
ag4
aS'big'
p6614
aS'high'
p6615
aS'unacc'
p6616
aa(lp6617
S'med'
p6618
aS'med'
p6619
aS'5more'
p6620
ag59
aS'small'
p6621
aS'low'
p6622
aS'unacc'
p6623
aa(lp6624
S'med'
p6625
aS'med'
p6626
aS'5more'
p6627
ag59
aS'small'
p6628
aS'med'
p6629
aS'acc'
p6630
aa(lp6631
S'med'
p6632
aS'med'
p6633
aS'5more'
p6634
ag59
aS'small'
p6635
aS'high'
p6636
aS'acc'
p6637
aa(lp6638
S'med'
p6639
aS'med'
p6640
aS'5more'
p6641
ag59
aS'med'
p6642
aS'low'
p6643
aS'unacc'
p6644
aa(lp6645
S'med'
p6646
aS'med'
p6647
aS'5more'
p6648
ag59
aS'med'
p6649
aS'med'
p6650
aS'acc'
p6651
aa(lp6652
S'med'
p6653
aS'med'
p6654
aS'5more'
p6655
ag59
aS'big'
p6656
aS'low'
p6657
aS'unacc'
p6658
aa(lp6659
S'med'
p6660
aS'med'
p6661
aS'5more'
p6662
ag59
aS'big'
p6663
aS'med'
p6664
aS'acc'
p6665
aa(lp6666
S'med'
p6667
aS'med'
p6668
aS'5more'
p6669
aS'more'
p6670
aS'small'
p6671
aS'low'
p6672
aS'unacc'
p6673
aa(lp6674
S'med'
p6675
aS'med'
p6676
aS'5more'
p6677
aS'more'
p6678
aS'small'
p6679
aS'med'
p6680
aS'acc'
p6681
aa(lp6682
S'med'
p6683
aS'med'
p6684
aS'5more'
p6685
aS'more'
p6686
aS'small'
p6687
aS'high'
p6688
aS'acc'
p6689
aa(lp6690
S'med'
p6691
aS'med'
p6692
aS'5more'
p6693
aS'more'
p6694
aS'med'
p6695
aS'low'
p6696
aS'unacc'
p6697
aa(lp6698
S'med'
p6699
aS'med'
p6700
aS'5more'
p6701
aS'more'
p6702
aS'med'
p6703
aS'med'
p6704
aS'acc'
p6705
aa(lp6706
S'med'
p6707
aS'med'
p6708
aS'5more'
p6709
aS'more'
p6710
aS'big'
p6711
aS'low'
p6712
aS'unacc'
p6713
aa(lp6714
S'med'
p6715
aS'med'
p6716
aS'5more'
p6717
aS'more'
p6718
aS'big'
p6719
aS'med'
p6720
aS'acc'
p6721
aa(lp6722
S'med'
p6723
aS'low'
p6724
ag4
ag4
aS'small'
p6725
aS'low'
p6726
aS'unacc'
p6727
aa(lp6728
S'med'
p6729
aS'low'
p6730
ag4
ag4
aS'small'
p6731
aS'med'
p6732
aS'unacc'
p6733
aa(lp6734
S'med'
p6735
aS'low'
p6736
ag4
ag4
aS'small'
p6737
aS'high'
p6738
aS'unacc'
p6739
aa(lp6740
S'med'
p6741
aS'low'
p6742
ag4
ag4
aS'med'
p6743
aS'low'
p6744
aS'unacc'
p6745
aa(lp6746
S'med'
p6747
aS'low'
p6748
ag4
ag4
aS'med'
p6749
aS'med'
p6750
aS'unacc'
p6751
aa(lp6752
S'med'
p6753
aS'low'
p6754
ag4
ag4
aS'med'
p6755
aS'high'
p6756
aS'unacc'
p6757
aa(lp6758
S'med'
p6759
aS'low'
p6760
ag4
ag4
aS'big'
p6761
aS'low'
p6762
aS'unacc'
p6763
aa(lp6764
S'med'
p6765
aS'low'
p6766
ag4
ag4
aS'big'
p6767
aS'med'
p6768
aS'unacc'
p6769
aa(lp6770
S'med'
p6771
aS'low'
p6772
ag4
ag4
aS'big'
p6773
aS'high'
p6774
aS'unacc'
p6775
aa(lp6776
S'med'
p6777
aS'low'
p6778
ag4
ag59
aS'small'
p6779
aS'low'
p6780
aS'unacc'
p6781
aa(lp6782
S'med'
p6783
aS'low'
p6784
ag4
ag59
aS'small'
p6785
aS'med'
p6786
aS'acc'
p6787
aa(lp6788
S'med'
p6789
aS'low'
p6790
ag4
ag59
aS'small'
p6791
aS'high'
p6792
aS'good'
p6793
aa(lp6794
S'med'
p6795
aS'low'
p6796
ag4
ag59
aS'med'
p6797
aS'low'
p6798
aS'unacc'
p6799
aa(lp6800
S'med'
p6801
aS'low'
p6802
ag4
ag59
aS'med'
p6803
aS'med'
p6804
aS'acc'
p6805
aa(lp6806
S'med'
p6807
aS'low'
p6808
ag4
ag59
aS'med'
p6809
aS'high'
p6810
aS'good'
p6811
aa(lp6812
S'med'
p6813
aS'low'
p6814
ag4
ag59
aS'big'
p6815
aS'low'
p6816
aS'unacc'
p6817
aa(lp6818
S'med'
p6819
aS'low'
p6820
ag4
ag59
aS'big'
p6821
aS'med'
p6822
aS'good'
p6823
aa(lp6824
S'med'
p6825
aS'low'
p6826
ag4
aS'more'
p6827
aS'small'
p6828
aS'low'
p6829
aS'unacc'
p6830
aa(lp6831
S'med'
p6832
aS'low'
p6833
ag4
aS'more'
p6834
aS'small'
p6835
aS'med'
p6836
aS'unacc'
p6837
aa(lp6838
S'med'
p6839
aS'low'
p6840
ag4
aS'more'
p6841
aS'small'
p6842
aS'high'
p6843
aS'unacc'
p6844
aa(lp6845
S'med'
p6846
aS'low'
p6847
ag4
aS'more'
p6848
aS'med'
p6849
aS'low'
p6850
aS'unacc'
p6851
aa(lp6852
S'med'
p6853
aS'low'
p6854
ag4
aS'more'
p6855
aS'med'
p6856
aS'med'
p6857
aS'acc'
p6858
aa(lp6859
S'med'
p6860
aS'low'
p6861
ag4
aS'more'
p6862
aS'med'
p6863
aS'high'
p6864
aS'good'
p6865
aa(lp6866
S'med'
p6867
aS'low'
p6868
ag4
aS'more'
p6869
aS'big'
p6870
aS'low'
p6871
aS'unacc'
p6872
aa(lp6873
S'med'
p6874
aS'low'
p6875
ag4
aS'more'
p6876
aS'big'
p6877
aS'med'
p6878
aS'good'
p6879
aa(lp6880
S'med'
p6881
aS'low'
p6882
ag4
aS'more'
p6883
aS'big'
p6884
aS'high'
p6885
aS'vgood'
p6886
aa(lp6887
S'med'
p6888
aS'low'
p6889
ag177
ag4
aS'small'
p6890
aS'low'
p6891
aS'unacc'
p6892
aa(lp6893
S'med'
p6894
aS'low'
p6895
ag177
ag4
aS'small'
p6896
aS'med'
p6897
aS'unacc'
p6898
aa(lp6899
S'med'
p6900
aS'low'
p6901
ag177
ag4
aS'small'
p6902
aS'high'
p6903
aS'unacc'
p6904
aa(lp6905
S'med'
p6906
aS'low'
p6907
ag177
ag4
aS'med'
p6908
aS'low'
p6909
aS'unacc'
p6910
aa(lp6911
S'med'
p6912
aS'low'
p6913
ag177
ag4
aS'med'
p6914
aS'med'
p6915
aS'unacc'
p6916
aa(lp6917
S'med'
p6918
aS'low'
p6919
ag177
ag4
aS'med'
p6920
aS'high'
p6921
aS'unacc'
p6922
aa(lp6923
S'med'
p6924
aS'low'
p6925
ag177
ag4
aS'big'
p6926
aS'low'
p6927
aS'unacc'
p6928
aa(lp6929
S'med'
p6930
aS'low'
p6931
ag177
ag4
aS'big'
p6932
aS'med'
p6933
aS'unacc'
p6934
aa(lp6935
S'med'
p6936
aS'low'
p6937
ag177
ag4
aS'big'
p6938
aS'high'
p6939
aS'unacc'
p6940
aa(lp6941
S'med'
p6942
aS'low'
p6943
ag177
ag59
aS'small'
p6944
aS'low'
p6945
aS'unacc'
p6946
aa(lp6947
S'med'
p6948
aS'low'
p6949
ag177
ag59
aS'small'
p6950
aS'med'
p6951
aS'acc'
p6952
aa(lp6953
S'med'
p6954
aS'low'
p6955
ag177
ag59
aS'small'
p6956
aS'high'
p6957
aS'good'
p6958
aa(lp6959
S'med'
p6960
aS'low'
p6961
ag177
ag59
aS'med'
p6962
aS'low'
p6963
aS'unacc'
p6964
aa(lp6965
S'med'
p6966
aS'low'
p6967
ag177
ag59
aS'med'
p6968
aS'med'
p6969
aS'acc'
p6970
aa(lp6971
S'med'
p6972
aS'low'
p6973
ag177
ag59
aS'med'
p6974
aS'high'
p6975
aS'good'
p6976
aa(lp6977
S'med'
p6978
aS'low'
p6979
ag177
ag59
aS'big'
p6980
aS'low'
p6981
aS'unacc'
p6982
aa(lp6983
S'med'
p6984
aS'low'
p6985
ag177
ag59
aS'big'
p6986
aS'high'
p6987
aS'vgood'
p6988
aa(lp6989
S'med'
p6990
aS'low'
p6991
ag177
aS'more'
p6992
aS'small'
p6993
aS'low'
p6994
aS'unacc'
p6995
aa(lp6996
S'med'
p6997
aS'low'
p6998
ag177
aS'more'
p6999
aS'small'
p7000
aS'med'
p7001
aS'acc'
p7002
aa(lp7003
S'med'
p7004
aS'low'
p7005
ag177
aS'more'
p7006
aS'med'
p7007
aS'low'
p7008
aS'unacc'
p7009
aa(lp7010
S'med'
p7011
aS'low'
p7012
ag177
aS'more'
p7013
aS'med'
p7014
aS'high'
p7015
aS'vgood'
p7016
aa(lp7017
S'med'
p7018
aS'low'
p7019
ag177
aS'more'
p7020
aS'big'
p7021
aS'low'
p7022
aS'unacc'
p7023
aa(lp7024
S'med'
p7025
aS'low'
p7026
ag177
aS'more'
p7027
aS'big'
p7028
aS'high'
p7029
aS'vgood'
p7030
aa(lp7031
S'med'
p7032
aS'low'
p7033
ag59
ag4
aS'small'
p7034
aS'low'
p7035
aS'unacc'
p7036
aa(lp7037
S'med'
p7038
aS'low'
p7039
ag59
ag4
aS'small'
p7040
aS'med'
p7041
aS'unacc'
p7042
aa(lp7043
S'med'
p7044
aS'low'
p7045
ag59
ag4
aS'small'
p7046
aS'high'
p7047
aS'unacc'
p7048
aa(lp7049
S'med'
p7050
aS'low'
p7051
ag59
ag4
aS'med'
p7052
aS'low'
p7053
aS'unacc'
p7054
aa(lp7055
S'med'
p7056
aS'low'
p7057
ag59
ag4
aS'med'
p7058
aS'med'
p7059
aS'unacc'
p7060
aa(lp7061
S'med'
p7062
aS'low'
p7063
ag59
ag4
aS'med'
p7064
aS'high'
p7065
aS'unacc'
p7066
aa(lp7067
S'med'
p7068
aS'low'
p7069
ag59
ag4
aS'big'
p7070
aS'low'
p7071
aS'unacc'
p7072
aa(lp7073
S'med'
p7074
aS'low'
p7075
ag59
ag4
aS'big'
p7076
aS'med'
p7077
aS'unacc'
p7078
aa(lp7079
S'med'
p7080
aS'low'
p7081
ag59
ag4
aS'big'
p7082
aS'high'
p7083
aS'unacc'
p7084
aa(lp7085
S'med'
p7086
aS'low'
p7087
ag59
ag59
aS'small'
p7088
aS'low'
p7089
aS'unacc'
p7090
aa(lp7091
S'med'
p7092
aS'low'
p7093
ag59
ag59
aS'small'
p7094
aS'med'
p7095
aS'acc'
p7096
aa(lp7097
S'med'
p7098
aS'low'
p7099
ag59
ag59
aS'med'
p7100
aS'low'
p7101
aS'unacc'
p7102
aa(lp7103
S'med'
p7104
aS'low'
p7105
ag59
ag59
aS'med'
p7106
aS'high'
p7107
aS'vgood'
p7108
aa(lp7109
S'med'
p7110
aS'low'
p7111
ag59
ag59
aS'big'
p7112
aS'low'
p7113
aS'unacc'
p7114
aa(lp7115
S'med'
p7116
aS'low'
p7117
ag59
ag59
aS'big'
p7118
aS'high'
p7119
aS'vgood'
p7120
aa(lp7121
S'med'
p7122
aS'low'
p7123
ag59
aS'more'
p7124
aS'small'
p7125
aS'low'
p7126
aS'unacc'
p7127
aa(lp7128
S'med'
p7129
aS'low'
p7130
ag59
aS'more'
p7131
aS'small'
p7132
aS'med'
p7133
aS'acc'
p7134
aa(lp7135
S'med'
p7136
aS'low'
p7137
ag59
aS'more'
p7138
aS'small'
p7139
aS'high'
p7140
aS'good'
p7141
aa(lp7142
S'med'
p7143
aS'low'
p7144
ag59
aS'more'
p7145
aS'med'
p7146
aS'low'
p7147
aS'unacc'
p7148
aa(lp7149
S'med'
p7150
aS'low'
p7151
ag59
aS'more'
p7152
aS'med'
p7153
aS'med'
p7154
aS'good'
p7155
aa(lp7156
S'med'
p7157
aS'low'
p7158
ag59
aS'more'
p7159
aS'med'
p7160
aS'high'
p7161
aS'vgood'
p7162
aa(lp7163
S'med'
p7164
aS'low'
p7165
ag59
aS'more'
p7166
aS'big'
p7167
aS'low'
p7168
aS'unacc'
p7169
aa(lp7170
S'med'
p7171
aS'low'
p7172
ag59
aS'more'
p7173
aS'big'
p7174
aS'med'
p7175
aS'good'
p7176
aa(lp7177
S'med'
p7178
aS'low'
p7179
ag59
aS'more'
p7180
aS'big'
p7181
aS'high'
p7182
aS'vgood'
p7183
aa(lp7184
S'med'
p7185
aS'low'
p7186
aS'5more'
p7187
ag4
aS'small'
p7188
aS'low'
p7189
aS'unacc'
p7190
aa(lp7191
S'med'
p7192
aS'low'
p7193
aS'5more'
p7194
ag4
aS'small'
p7195
aS'med'
p7196
aS'unacc'
p7197
aa(lp7198
S'med'
p7199
aS'low'
p7200
aS'5more'
p7201
ag4
aS'small'
p7202
aS'high'
p7203
aS'unacc'
p7204
aa(lp7205
S'med'
p7206
aS'low'
p7207
aS'5more'
p7208
ag4
aS'med'
p7209
aS'low'
p7210
aS'unacc'
p7211
aa(lp7212
S'med'
p7213
aS'low'
p7214
aS'5more'
p7215
ag4
aS'med'
p7216
aS'med'
p7217
aS'unacc'
p7218
aa(lp7219
S'med'
p7220
aS'low'
p7221
aS'5more'
p7222
ag4
aS'med'
p7223
aS'high'
p7224
aS'unacc'
p7225
aa(lp7226
S'med'
p7227
aS'low'
p7228
aS'5more'
p7229
ag4
aS'big'
p7230
aS'low'
p7231
aS'unacc'
p7232
aa(lp7233
S'med'
p7234
aS'low'
p7235
aS'5more'
p7236
ag4
aS'big'
p7237
aS'med'
p7238
aS'unacc'
p7239
aa(lp7240
S'med'
p7241
aS'low'
p7242
aS'5more'
p7243
ag4
aS'big'
p7244
aS'high'
p7245
aS'unacc'
p7246
aa(lp7247
S'med'
p7248
aS'low'
p7249
aS'5more'
p7250
ag59
aS'small'
p7251
aS'low'
p7252
aS'unacc'
p7253
aa(lp7254
S'med'
p7255
aS'low'
p7256
aS'5more'
p7257
ag59
aS'small'
p7258
aS'med'
p7259
aS'acc'
p7260
aa(lp7261
S'med'
p7262
aS'low'
p7263
aS'5more'
p7264
ag59
aS'small'
p7265
aS'high'
p7266
aS'good'
p7267
aa(lp7268
S'med'
p7269
aS'low'
p7270
aS'5more'
p7271
ag59
aS'med'
p7272
aS'low'
p7273
aS'unacc'
p7274
aa(lp7275
S'med'
p7276
aS'low'
p7277
aS'5more'
p7278
ag59
aS'med'
p7279
aS'med'
p7280
aS'good'
p7281
aa(lp7282
S'med'
p7283
aS'low'
p7284
aS'5more'
p7285
ag59
aS'med'
p7286
aS'high'
p7287
aS'vgood'
p7288
aa(lp7289
S'med'
p7290
aS'low'
p7291
aS'5more'
p7292
ag59
aS'big'
p7293
aS'low'
p7294
aS'unacc'
p7295
aa(lp7296
S'med'
p7297
aS'low'
p7298
aS'5more'
p7299
ag59
aS'big'
p7300
aS'med'
p7301
aS'good'
p7302
aa(lp7303
S'med'
p7304
aS'low'
p7305
aS'5more'
p7306
ag59
aS'big'
p7307
aS'high'
p7308
aS'vgood'
p7309
aa(lp7310
S'med'
p7311
aS'low'
p7312
aS'5more'
p7313
aS'more'
p7314
aS'small'
p7315
aS'low'
p7316
aS'unacc'
p7317
aa(lp7318
S'med'
p7319
aS'low'
p7320
aS'5more'
p7321
aS'more'
p7322
aS'small'
p7323
aS'med'
p7324
aS'acc'
p7325
aa(lp7326
S'med'
p7327
aS'low'
p7328
aS'5more'
p7329
aS'more'
p7330
aS'small'
p7331
aS'high'
p7332
aS'good'
p7333
aa(lp7334
S'med'
p7335
aS'low'
p7336
aS'5more'
p7337
aS'more'
p7338
aS'med'
p7339
aS'low'
p7340
aS'unacc'
p7341
aa(lp7342
S'med'
p7343
aS'low'
p7344
aS'5more'
p7345
aS'more'
p7346
aS'med'
p7347
aS'med'
p7348
aS'good'
p7349
aa(lp7350
S'med'
p7351
aS'low'
p7352
aS'5more'
p7353
aS'more'
p7354
aS'med'
p7355
aS'high'
p7356
aS'vgood'
p7357
aa(lp7358
S'med'
p7359
aS'low'
p7360
aS'5more'
p7361
aS'more'
p7362
aS'big'
p7363
aS'low'
p7364
aS'unacc'
p7365
aa(lp7366
S'med'
p7367
aS'low'
p7368
aS'5more'
p7369
aS'more'
p7370
aS'big'
p7371
aS'med'
p7372
aS'good'
p7373
aa(lp7374
S'med'
p7375
aS'low'
p7376
aS'5more'
p7377
aS'more'
p7378
aS'big'
p7379
aS'high'
p7380
aS'vgood'
p7381
aa(lp7382
S'low'
p7383
aS'vhigh'
p7384
ag4
ag4
aS'small'
p7385
aS'low'
p7386
aS'unacc'
p7387
aa(lp7388
S'low'
p7389
aS'vhigh'
p7390
ag4
ag4
aS'small'
p7391
aS'med'
p7392
aS'unacc'
p7393
aa(lp7394
S'low'
p7395
aS'vhigh'
p7396
ag4
ag4
aS'small'
p7397
aS'high'
p7398
aS'unacc'
p7399
aa(lp7400
S'low'
p7401
aS'vhigh'
p7402
ag4
ag4
aS'med'
p7403
aS'low'
p7404
aS'unacc'
p7405
aa(lp7406
S'low'
p7407
aS'vhigh'
p7408
ag4
ag4
aS'med'
p7409
aS'med'
p7410
aS'unacc'
p7411
aa(lp7412
S'low'
p7413
aS'vhigh'
p7414
ag4
ag4
aS'med'
p7415
aS'high'
p7416
aS'unacc'
p7417
aa(lp7418
S'low'
p7419
aS'vhigh'
p7420
ag4
ag4
aS'big'
p7421
aS'low'
p7422
aS'unacc'
p7423
aa(lp7424
S'low'
p7425
aS'vhigh'
p7426
ag4
ag4
aS'big'
p7427
aS'med'
p7428
aS'unacc'
p7429
aa(lp7430
S'low'
p7431
aS'vhigh'
p7432
ag4
ag4
aS'big'
p7433
aS'high'
p7434
aS'unacc'
p7435
aa(lp7436
S'low'
p7437
aS'vhigh'
p7438
ag4
ag59
aS'small'
p7439
aS'low'
p7440
aS'unacc'
p7441
aa(lp7442
S'low'
p7443
aS'vhigh'
p7444
ag4
ag59
aS'small'
p7445
aS'med'
p7446
aS'unacc'
p7447
aa(lp7448
S'low'
p7449
aS'vhigh'
p7450
ag4
ag59
aS'small'
p7451
aS'high'
p7452
aS'acc'
p7453
aa(lp7454
S'low'
p7455
aS'vhigh'
p7456
ag4
ag59
aS'med'
p7457
aS'low'
p7458
aS'unacc'
p7459
aa(lp7460
S'low'
p7461
aS'vhigh'
p7462
ag4
ag59
aS'med'
p7463
aS'med'
p7464
aS'unacc'
p7465
aa(lp7466
S'low'
p7467
aS'vhigh'
p7468
ag4
ag59
aS'med'
p7469
aS'high'
p7470
aS'acc'
p7471
aa(lp7472
S'low'
p7473
aS'vhigh'
p7474
ag4
ag59
aS'big'
p7475
aS'low'
p7476
aS'unacc'
p7477
aa(lp7478
S'low'
p7479
aS'vhigh'
p7480
ag4
ag59
aS'big'
p7481
aS'med'
p7482
aS'acc'
p7483
aa(lp7484
S'low'
p7485
aS'vhigh'
p7486
ag4
ag59
aS'big'
p7487
aS'high'
p7488
aS'acc'
p7489
aa(lp7490
S'low'
p7491
aS'vhigh'
p7492
ag4
aS'more'
p7493
aS'small'
p7494
aS'low'
p7495
aS'unacc'
p7496
aa(lp7497
S'low'
p7498
aS'vhigh'
p7499
ag4
aS'more'
p7500
aS'small'
p7501
aS'med'
p7502
aS'unacc'
p7503
aa(lp7504
S'low'
p7505
aS'vhigh'
p7506
ag4
aS'more'
p7507
aS'small'
p7508
aS'high'
p7509
aS'unacc'
p7510
aa(lp7511
S'low'
p7512
aS'vhigh'
p7513
ag4
aS'more'
p7514
aS'med'
p7515
aS'low'
p7516
aS'unacc'
p7517
aa(lp7518
S'low'
p7519
aS'vhigh'
p7520
ag4
aS'more'
p7521
aS'med'
p7522
aS'med'
p7523
aS'unacc'
p7524
aa(lp7525
S'low'
p7526
aS'vhigh'
p7527
ag4
aS'more'
p7528
aS'med'
p7529
aS'high'
p7530
aS'acc'
p7531
aa(lp7532
S'low'
p7533
aS'vhigh'
p7534
ag4
aS'more'
p7535
aS'big'
p7536
aS'low'
p7537
aS'unacc'
p7538
aa(lp7539
S'low'
p7540
aS'vhigh'
p7541
ag4
aS'more'
p7542
aS'big'
p7543
aS'med'
p7544
aS'acc'
p7545
aa(lp7546
S'low'
p7547
aS'vhigh'
p7548
ag4
aS'more'
p7549
aS'big'
p7550
aS'high'
p7551
aS'acc'
p7552
aa(lp7553
S'low'
p7554
aS'vhigh'
p7555
ag177
ag4
aS'small'
p7556
aS'low'
p7557
aS'unacc'
p7558
aa(lp7559
S'low'
p7560
aS'vhigh'
p7561
ag177
ag4
aS'small'
p7562
aS'med'
p7563
aS'unacc'
p7564
aa(lp7565
S'low'
p7566
aS'vhigh'
p7567
ag177
ag4
aS'small'
p7568
aS'high'
p7569
aS'unacc'
p7570
aa(lp7571
S'low'
p7572
aS'vhigh'
p7573
ag177
ag4
aS'med'
p7574
aS'low'
p7575
aS'unacc'
p7576
aa(lp7577
S'low'
p7578
aS'vhigh'
p7579
ag177
ag4
aS'med'
p7580
aS'med'
p7581
aS'unacc'
p7582
aa(lp7583
S'low'
p7584
aS'vhigh'
p7585
ag177
ag4
aS'med'
p7586
aS'high'
p7587
aS'unacc'
p7588
aa(lp7589
S'low'
p7590
aS'vhigh'
p7591
ag177
ag4
aS'big'
p7592
aS'low'
p7593
aS'unacc'
p7594
aa(lp7595
S'low'
p7596
aS'vhigh'
p7597
ag177
ag4
aS'big'
p7598
aS'med'
p7599
aS'unacc'
p7600
aa(lp7601
S'low'
p7602
aS'vhigh'
p7603
ag177
ag4
aS'big'
p7604
aS'high'
p7605
aS'unacc'
p7606
aa(lp7607
S'low'
p7608
aS'vhigh'
p7609
ag177
ag59
aS'small'
p7610
aS'low'
p7611
aS'unacc'
p7612
aa(lp7613
S'low'
p7614
aS'vhigh'
p7615
ag177
ag59
aS'small'
p7616
aS'med'
p7617
aS'unacc'
p7618
aa(lp7619
S'low'
p7620
aS'vhigh'
p7621
ag177
ag59
aS'small'
p7622
aS'high'
p7623
aS'acc'
p7624
aa(lp7625
S'low'
p7626
aS'vhigh'
p7627
ag177
ag59
aS'med'
p7628
aS'low'
p7629
aS'unacc'
p7630
aa(lp7631
S'low'
p7632
aS'vhigh'
p7633
ag177
ag59
aS'med'
p7634
aS'med'
p7635
aS'unacc'
p7636
aa(lp7637
S'low'
p7638
aS'vhigh'
p7639
ag177
ag59
aS'med'
p7640
aS'high'
p7641
aS'acc'
p7642
aa(lp7643
S'low'
p7644
aS'vhigh'
p7645
ag177
ag59
aS'big'
p7646
aS'low'
p7647
aS'unacc'
p7648
aa(lp7649
S'low'
p7650
aS'vhigh'
p7651
ag177
ag59
aS'big'
p7652
aS'med'
p7653
aS'acc'
p7654
aa(lp7655
S'low'
p7656
aS'vhigh'
p7657
ag177
ag59
aS'big'
p7658
aS'high'
p7659
aS'acc'
p7660
aa(lp7661
S'low'
p7662
aS'vhigh'
p7663
ag177
aS'more'
p7664
aS'small'
p7665
aS'low'
p7666
aS'unacc'
p7667
aa(lp7668
S'low'
p7669
aS'vhigh'
p7670
ag177
aS'more'
p7671
aS'small'
p7672
aS'med'
p7673
aS'unacc'
p7674
aa(lp7675
S'low'
p7676
aS'vhigh'
p7677
ag177
aS'more'
p7678
aS'small'
p7679
aS'high'
p7680
aS'acc'
p7681
aa(lp7682
S'low'
p7683
aS'vhigh'
p7684
ag177
aS'more'
p7685
aS'med'
p7686
aS'low'
p7687
aS'unacc'
p7688
aa(lp7689
S'low'
p7690
aS'vhigh'
p7691
ag177
aS'more'
p7692
aS'med'
p7693
aS'med'
p7694
aS'acc'
p7695
aa(lp7696
S'low'
p7697
aS'vhigh'
p7698
ag177
aS'more'
p7699
aS'med'
p7700
aS'high'
p7701
aS'acc'
p7702
aa(lp7703
S'low'
p7704
aS'vhigh'
p7705
ag177
aS'more'
p7706
aS'big'
p7707
aS'low'
p7708
aS'unacc'
p7709
aa(lp7710
S'low'
p7711
aS'vhigh'
p7712
ag177
aS'more'
p7713
aS'big'
p7714
aS'med'
p7715
aS'acc'
p7716
aa(lp7717
S'low'
p7718
aS'vhigh'
p7719
ag177
aS'more'
p7720
aS'big'
p7721
aS'high'
p7722
aS'acc'
p7723
aa(lp7724
S'low'
p7725
aS'vhigh'
p7726
ag59
ag4
aS'small'
p7727
aS'low'
p7728
aS'unacc'
p7729
aa(lp7730
S'low'
p7731
aS'vhigh'
p7732
ag59
ag4
aS'small'
p7733
aS'med'
p7734
aS'unacc'
p7735
aa(lp7736
S'low'
p7737
aS'vhigh'
p7738
ag59
ag4
aS'small'
p7739
aS'high'
p7740
aS'unacc'
p7741
aa(lp7742
S'low'
p7743
aS'vhigh'
p7744
ag59
ag4
aS'med'
p7745
aS'low'
p7746
aS'unacc'
p7747
aa(lp7748
S'low'
p7749
aS'vhigh'
p7750
ag59
ag4
aS'med'
p7751
aS'med'
p7752
aS'unacc'
p7753
aa(lp7754
S'low'
p7755
aS'vhigh'
p7756
ag59
ag4
aS'med'
p7757
aS'high'
p7758
aS'unacc'
p7759
aa(lp7760
S'low'
p7761
aS'vhigh'
p7762
ag59
ag4
aS'big'
p7763
aS'low'
p7764
aS'unacc'
p7765
aa(lp7766
S'low'
p7767
aS'vhigh'
p7768
ag59
ag4
aS'big'
p7769
aS'med'
p7770
aS'unacc'
p7771
aa(lp7772
S'low'
p7773
aS'vhigh'
p7774
ag59
ag4
aS'big'
p7775
aS'high'
p7776
aS'unacc'
p7777
aa(lp7778
S'low'
p7779
aS'vhigh'
p7780
ag59
ag59
aS'small'
p7781
aS'low'
p7782
aS'unacc'
p7783
aa(lp7784
S'low'
p7785
aS'vhigh'
p7786
ag59
ag59
aS'small'
p7787
aS'med'
p7788
aS'unacc'
p7789
aa(lp7790
S'low'
p7791
aS'vhigh'
p7792
ag59
ag59
aS'small'
p7793
aS'high'
p7794
aS'acc'
p7795
aa(lp7796
S'low'
p7797
aS'vhigh'
p7798
ag59
ag59
aS'med'
p7799
aS'low'
p7800
aS'unacc'
p7801
aa(lp7802
S'low'
p7803
aS'vhigh'
p7804
ag59
ag59
aS'med'
p7805
aS'med'
p7806
aS'acc'
p7807
aa(lp7808
S'low'
p7809
aS'vhigh'
p7810
ag59
ag59
aS'med'
p7811
aS'high'
p7812
aS'acc'
p7813
aa(lp7814
S'low'
p7815
aS'vhigh'
p7816
ag59
ag59
aS'big'
p7817
aS'low'
p7818
aS'unacc'
p7819
aa(lp7820
S'low'
p7821
aS'vhigh'
p7822
ag59
ag59
aS'big'
p7823
aS'med'
p7824
aS'acc'
p7825
aa(lp7826
S'low'
p7827
aS'vhigh'
p7828
ag59
ag59
aS'big'
p7829
aS'high'
p7830
aS'acc'
p7831
aa(lp7832
S'low'
p7833
aS'vhigh'
p7834
ag59
aS'more'
p7835
aS'small'
p7836
aS'low'
p7837
aS'unacc'
p7838
aa(lp7839
S'low'
p7840
aS'vhigh'
p7841
ag59
aS'more'
p7842
aS'small'
p7843
aS'med'
p7844
aS'unacc'
p7845
aa(lp7846
S'low'
p7847
aS'vhigh'
p7848
ag59
aS'more'
p7849
aS'small'
p7850
aS'high'
p7851
aS'acc'
p7852
aa(lp7853
S'low'
p7854
aS'vhigh'
p7855
ag59
aS'more'
p7856
aS'med'
p7857
aS'low'
p7858
aS'unacc'
p7859
aa(lp7860
S'low'
p7861
aS'vhigh'
p7862
ag59
aS'more'
p7863
aS'med'
p7864
aS'med'
p7865
aS'acc'
p7866
aa(lp7867
S'low'
p7868
aS'vhigh'
p7869
ag59
aS'more'
p7870
aS'med'
p7871
aS'high'
p7872
aS'acc'
p7873
aa(lp7874
S'low'
p7875
aS'vhigh'
p7876
ag59
aS'more'
p7877
aS'big'
p7878
aS'low'
p7879
aS'unacc'
p7880
aa(lp7881
S'low'
p7882
aS'vhigh'
p7883
ag59
aS'more'
p7884
aS'big'
p7885
aS'med'
p7886
aS'acc'
p7887
aa(lp7888
S'low'
p7889
aS'vhigh'
p7890
ag59
aS'more'
p7891
aS'big'
p7892
aS'high'
p7893
aS'acc'
p7894
aa(lp7895
S'low'
p7896
aS'vhigh'
p7897
aS'5more'
p7898
ag4
aS'small'
p7899
aS'low'
p7900
aS'unacc'
p7901
aa(lp7902
S'low'
p7903
aS'vhigh'
p7904
aS'5more'
p7905
ag4
aS'small'
p7906
aS'med'
p7907
aS'unacc'
p7908
aa(lp7909
S'low'
p7910
aS'vhigh'
p7911
aS'5more'
p7912
ag4
aS'small'
p7913
aS'high'
p7914
aS'unacc'
p7915
aa(lp7916
S'low'
p7917
aS'vhigh'
p7918
aS'5more'
p7919
ag4
aS'med'
p7920
aS'low'
p7921
aS'unacc'
p7922
aa(lp7923
S'low'
p7924
aS'vhigh'
p7925
aS'5more'
p7926
ag4
aS'med'
p7927
aS'med'
p7928
aS'unacc'
p7929
aa(lp7930
S'low'
p7931
aS'vhigh'
p7932
aS'5more'
p7933
ag4
aS'med'
p7934
aS'high'
p7935
aS'unacc'
p7936
aa(lp7937
S'low'
p7938
aS'vhigh'
p7939
aS'5more'
p7940
ag4
aS'big'
p7941
aS'low'
p7942
aS'unacc'
p7943
aa(lp7944
S'low'
p7945
aS'vhigh'
p7946
aS'5more'
p7947
ag4
aS'big'
p7948
aS'med'
p7949
aS'unacc'
p7950
aa(lp7951
S'low'
p7952
aS'vhigh'
p7953
aS'5more'
p7954
ag4
aS'big'
p7955
aS'high'
p7956
aS'unacc'
p7957
aa(lp7958
S'low'
p7959
aS'vhigh'
p7960
aS'5more'
p7961
ag59
aS'small'
p7962
aS'low'
p7963
aS'unacc'
p7964
aa(lp7965
S'low'
p7966
aS'vhigh'
p7967
aS'5more'
p7968
ag59
aS'small'
p7969
aS'med'
p7970
aS'unacc'
p7971
aa(lp7972
S'low'
p7973
aS'vhigh'
p7974
aS'5more'
p7975
ag59
aS'small'
p7976
aS'high'
p7977
aS'acc'
p7978
aa(lp7979
S'low'
p7980
aS'vhigh'
p7981
aS'5more'
p7982
ag59
aS'med'
p7983
aS'low'
p7984
aS'unacc'
p7985
aa(lp7986
S'low'
p7987
aS'vhigh'
p7988
aS'5more'
p7989
ag59
aS'med'
p7990
aS'med'
p7991
aS'acc'
p7992
aa(lp7993
S'low'
p7994
aS'vhigh'
p7995
aS'5more'
p7996
ag59
aS'med'
p7997
aS'high'
p7998
aS'acc'
p7999
aa(lp8000
S'low'
p8001
aS'vhigh'
p8002
aS'5more'
p8003
ag59
aS'big'
p8004
aS'low'
p8005
aS'unacc'
p8006
aa(lp8007
S'low'
p8008
aS'vhigh'
p8009
aS'5more'
p8010
ag59
aS'big'
p8011
aS'med'
p8012
aS'acc'
p8013
aa(lp8014
S'low'
p8015
aS'vhigh'
p8016
aS'5more'
p8017
ag59
aS'big'
p8018
aS'high'
p8019
aS'acc'
p8020
aa(lp8021
S'low'
p8022
aS'vhigh'
p8023
aS'5more'
p8024
aS'more'
p8025
aS'small'
p8026
aS'low'
p8027
aS'unacc'
p8028
aa(lp8029
S'low'
p8030
aS'vhigh'
p8031
aS'5more'
p8032
aS'more'
p8033
aS'small'
p8034
aS'med'
p8035
aS'unacc'
p8036
aa(lp8037
S'low'
p8038
aS'vhigh'
p8039
aS'5more'
p8040
aS'more'
p8041
aS'small'
p8042
aS'high'
p8043
aS'acc'
p8044
aa(lp8045
S'low'
p8046
aS'vhigh'
p8047
aS'5more'
p8048
aS'more'
p8049
aS'med'
p8050
aS'low'
p8051
aS'unacc'
p8052
aa(lp8053
S'low'
p8054
aS'vhigh'
p8055
aS'5more'
p8056
aS'more'
p8057
aS'med'
p8058
aS'med'
p8059
aS'acc'
p8060
aa(lp8061
S'low'
p8062
aS'vhigh'
p8063
aS'5more'
p8064
aS'more'
p8065
aS'med'
p8066
aS'high'
p8067
aS'acc'
p8068
aa(lp8069
S'low'
p8070
aS'vhigh'
p8071
aS'5more'
p8072
aS'more'
p8073
aS'big'
p8074
aS'low'
p8075
aS'unacc'
p8076
aa(lp8077
S'low'
p8078
aS'vhigh'
p8079
aS'5more'
p8080
aS'more'
p8081
aS'big'
p8082
aS'med'
p8083
aS'acc'
p8084
aa(lp8085
S'low'
p8086
aS'vhigh'
p8087
aS'5more'
p8088
aS'more'
p8089
aS'big'
p8090
aS'high'
p8091
aS'acc'
p8092
aa(lp8093
S'low'
p8094
aS'high'
p8095
ag4
ag4
aS'small'
p8096
aS'low'
p8097
aS'unacc'
p8098
aa(lp8099
S'low'
p8100
aS'high'
p8101
ag4
ag4
aS'small'
p8102
aS'med'
p8103
aS'unacc'
p8104
aa(lp8105
S'low'
p8106
aS'high'
p8107
ag4
ag4
aS'small'
p8108
aS'high'
p8109
aS'unacc'
p8110
aa(lp8111
S'low'
p8112
aS'high'
p8113
ag4
ag4
aS'med'
p8114
aS'low'
p8115
aS'unacc'
p8116
aa(lp8117
S'low'
p8118
aS'high'
p8119
ag4
ag4
aS'med'
p8120
aS'med'
p8121
aS'unacc'
p8122
aa(lp8123
S'low'
p8124
aS'high'
p8125
ag4
ag4
aS'med'
p8126
aS'high'
p8127
aS'unacc'
p8128
aa(lp8129
S'low'
p8130
aS'high'
p8131
ag4
ag4
aS'big'
p8132
aS'low'
p8133
aS'unacc'
p8134
aa(lp8135
S'low'
p8136
aS'high'
p8137
ag4
ag4
aS'big'
p8138
aS'med'
p8139
aS'unacc'
p8140
aa(lp8141
S'low'
p8142
aS'high'
p8143
ag4
ag4
aS'big'
p8144
aS'high'
p8145
aS'unacc'
p8146
aa(lp8147
S'low'
p8148
aS'high'
p8149
ag4
ag59
aS'small'
p8150
aS'low'
p8151
aS'unacc'
p8152
aa(lp8153
S'low'
p8154
aS'high'
p8155
ag4
ag59
aS'small'
p8156
aS'med'
p8157
aS'acc'
p8158
aa(lp8159
S'low'
p8160
aS'high'
p8161
ag4
ag59
aS'small'
p8162
aS'high'
p8163
aS'acc'
p8164
aa(lp8165
S'low'
p8166
aS'high'
p8167
ag4
ag59
aS'med'
p8168
aS'low'
p8169
aS'unacc'
p8170
aa(lp8171
S'low'
p8172
aS'high'
p8173
ag4
ag59
aS'med'
p8174
aS'med'
p8175
aS'acc'
p8176
aa(lp8177
S'low'
p8178
aS'high'
p8179
ag4
ag59
aS'med'
p8180
aS'high'
p8181
aS'acc'
p8182
aa(lp8183
S'low'
p8184
aS'high'
p8185
ag4
ag59
aS'big'
p8186
aS'low'
p8187
aS'unacc'
p8188
aa(lp8189
S'low'
p8190
aS'high'
p8191
ag4
ag59
aS'big'
p8192
aS'med'
p8193
aS'acc'
p8194
aa(lp8195
S'low'
p8196
aS'high'
p8197
ag4
ag59
aS'big'
p8198
aS'high'
p8199
aS'vgood'
p8200
aa(lp8201
S'low'
p8202
aS'high'
p8203
ag4
aS'more'
p8204
aS'small'
p8205
aS'low'
p8206
aS'unacc'
p8207
aa(lp8208
S'low'
p8209
aS'high'
p8210
ag4
aS'more'
p8211
aS'small'
p8212
aS'med'
p8213
aS'unacc'
p8214
aa(lp8215
S'low'
p8216
aS'high'
p8217
ag4
aS'more'
p8218
aS'small'
p8219
aS'high'
p8220
aS'unacc'
p8221
aa(lp8222
S'low'
p8223
aS'high'
p8224
ag4
aS'more'
p8225
aS'med'
p8226
aS'low'
p8227
aS'unacc'
p8228
aa(lp8229
S'low'
p8230
aS'high'
p8231
ag4
aS'more'
p8232
aS'med'
p8233
aS'med'
p8234
aS'acc'
p8235
aa(lp8236
S'low'
p8237
aS'high'
p8238
ag4
aS'more'
p8239
aS'med'
p8240
aS'high'
p8241
aS'acc'
p8242
aa(lp8243
S'low'
p8244
aS'high'
p8245
ag4
aS'more'
p8246
aS'big'
p8247
aS'low'
p8248
aS'unacc'
p8249
aa(lp8250
S'low'
p8251
aS'high'
p8252
ag4
aS'more'
p8253
aS'big'
p8254
aS'med'
p8255
aS'acc'
p8256
aa(lp8257
S'low'
p8258
aS'high'
p8259
ag4
aS'more'
p8260
aS'big'
p8261
aS'high'
p8262
aS'vgood'
p8263
aa(lp8264
S'low'
p8265
aS'high'
p8266
ag177
ag4
aS'small'
p8267
aS'low'
p8268
aS'unacc'
p8269
aa(lp8270
S'low'
p8271
aS'high'
p8272
ag177
ag4
aS'small'
p8273
aS'med'
p8274
aS'unacc'
p8275
aa(lp8276
S'low'
p8277
aS'high'
p8278
ag177
ag4
aS'small'
p8279
aS'high'
p8280
aS'unacc'
p8281
aa(lp8282
S'low'
p8283
aS'high'
p8284
ag177
ag4
aS'med'
p8285
aS'low'
p8286
aS'unacc'
p8287
aa(lp8288
S'low'
p8289
aS'high'
p8290
ag177
ag4
aS'med'
p8291
aS'med'
p8292
aS'unacc'
p8293
aa(lp8294
S'low'
p8295
aS'high'
p8296
ag177
ag4
aS'med'
p8297
aS'high'
p8298
aS'unacc'
p8299
aa(lp8300
S'low'
p8301
aS'high'
p8302
ag177
ag4
aS'big'
p8303
aS'low'
p8304
aS'unacc'
p8305
aa(lp8306
S'low'
p8307
aS'high'
p8308
ag177
ag4
aS'big'
p8309
aS'med'
p8310
aS'unacc'
p8311
aa(lp8312
S'low'
p8313
aS'high'
p8314
ag177
ag4
aS'big'
p8315
aS'high'
p8316
aS'unacc'
p8317
aa(lp8318
S'low'
p8319
aS'high'
p8320
ag177
ag59
aS'small'
p8321
aS'low'
p8322
aS'unacc'
p8323
aa(lp8324
S'low'
p8325
aS'high'
p8326
ag177
ag59
aS'small'
p8327
aS'med'
p8328
aS'acc'
p8329
aa(lp8330
S'low'
p8331
aS'high'
p8332
ag177
ag59
aS'small'
p8333
aS'high'
p8334
aS'acc'
p8335
aa(lp8336
S'low'
p8337
aS'high'
p8338
ag177
ag59
aS'med'
p8339
aS'low'
p8340
aS'unacc'
p8341
aa(lp8342
S'low'
p8343
aS'high'
p8344
ag177
ag59
aS'med'
p8345
aS'med'
p8346
aS'acc'
p8347
aa(lp8348
S'low'
p8349
aS'high'
p8350
ag177
ag59
aS'med'
p8351
aS'high'
p8352
aS'acc'
p8353
aa(lp8354
S'low'
p8355
aS'high'
p8356
ag177
ag59
aS'big'
p8357
aS'low'
p8358
aS'unacc'
p8359
aa(lp8360
S'low'
p8361
aS'high'
p8362
ag177
ag59
aS'big'
p8363
aS'med'
p8364
aS'acc'
p8365
aa(lp8366
S'low'
p8367
aS'high'
p8368
ag177
ag59
aS'big'
p8369
aS'high'
p8370
aS'vgood'
p8371
aa(lp8372
S'low'
p8373
aS'high'
p8374
ag177
aS'more'
p8375
aS'small'
p8376
aS'low'
p8377
aS'unacc'
p8378
aa(lp8379
S'low'
p8380
aS'high'
p8381
ag177
aS'more'
p8382
aS'small'
p8383
aS'med'
p8384
aS'acc'
p8385
aa(lp8386
S'low'
p8387
aS'high'
p8388
ag177
aS'more'
p8389
aS'small'
p8390
aS'high'
p8391
aS'acc'
p8392
aa(lp8393
S'low'
p8394
aS'high'
p8395
ag177
aS'more'
p8396
aS'med'
p8397
aS'low'
p8398
aS'unacc'
p8399
aa(lp8400
S'low'
p8401
aS'high'
p8402
ag177
aS'more'
p8403
aS'med'
p8404
aS'med'
p8405
aS'acc'
p8406
aa(lp8407
S'low'
p8408
aS'high'
p8409
ag177
aS'more'
p8410
aS'med'
p8411
aS'high'
p8412
aS'vgood'
p8413
aa(lp8414
S'low'
p8415
aS'high'
p8416
ag177
aS'more'
p8417
aS'big'
p8418
aS'low'
p8419
aS'unacc'
p8420
aa(lp8421
S'low'
p8422
aS'high'
p8423
ag177
aS'more'
p8424
aS'big'
p8425
aS'med'
p8426
aS'acc'
p8427
aa(lp8428
S'low'
p8429
aS'high'
p8430
ag177
aS'more'
p8431
aS'big'
p8432
aS'high'
p8433
aS'vgood'
p8434
aa(lp8435
S'low'
p8436
aS'high'
p8437
ag59
ag4
aS'small'
p8438
aS'low'
p8439
aS'unacc'
p8440
aa(lp8441
S'low'
p8442
aS'high'
p8443
ag59
ag4
aS'small'
p8444
aS'med'
p8445
aS'unacc'
p8446
aa(lp8447
S'low'
p8448
aS'high'
p8449
ag59
ag4
aS'small'
p8450
aS'high'
p8451
aS'unacc'
p8452
aa(lp8453
S'low'
p8454
aS'high'
p8455
ag59
ag4
aS'med'
p8456
aS'low'
p8457
aS'unacc'
p8458
aa(lp8459
S'low'
p8460
aS'high'
p8461
ag59
ag4
aS'med'
p8462
aS'med'
p8463
aS'unacc'
p8464
aa(lp8465
S'low'
p8466
aS'high'
p8467
ag59
ag4
aS'med'
p8468
aS'high'
p8469
aS'unacc'
p8470
aa(lp8471
S'low'
p8472
aS'high'
p8473
ag59
ag4
aS'big'
p8474
aS'low'
p8475
aS'unacc'
p8476
aa(lp8477
S'low'
p8478
aS'high'
p8479
ag59
ag4
aS'big'
p8480
aS'med'
p8481
aS'unacc'
p8482
aa(lp8483
S'low'
p8484
aS'high'
p8485
ag59
ag4
aS'big'
p8486
aS'high'
p8487
aS'unacc'
p8488
aa(lp8489
S'low'
p8490
aS'high'
p8491
ag59
ag59
aS'small'
p8492
aS'low'
p8493
aS'unacc'
p8494
aa(lp8495
S'low'
p8496
aS'high'
p8497
ag59
ag59
aS'small'
p8498
aS'med'
p8499
aS'acc'
p8500
aa(lp8501
S'low'
p8502
aS'high'
p8503
ag59
ag59
aS'small'
p8504
aS'high'
p8505
aS'acc'
p8506
aa(lp8507
S'low'
p8508
aS'high'
p8509
ag59
ag59
aS'med'
p8510
aS'low'
p8511
aS'unacc'
p8512
aa(lp8513
S'low'
p8514
aS'high'
p8515
ag59
ag59
aS'med'
p8516
aS'med'
p8517
aS'acc'
p8518
aa(lp8519
S'low'
p8520
aS'high'
p8521
ag59
ag59
aS'med'
p8522
aS'high'
p8523
aS'vgood'
p8524
aa(lp8525
S'low'
p8526
aS'high'
p8527
ag59
ag59
aS'big'
p8528
aS'low'
p8529
aS'unacc'
p8530
aa(lp8531
S'low'
p8532
aS'high'
p8533
ag59
ag59
aS'big'
p8534
aS'med'
p8535
aS'acc'
p8536
aa(lp8537
S'low'
p8538
aS'high'
p8539
ag59
ag59
aS'big'
p8540
aS'high'
p8541
aS'vgood'
p8542
aa(lp8543
S'low'
p8544
aS'high'
p8545
ag59
aS'more'
p8546
aS'small'
p8547
aS'low'
p8548
aS'unacc'
p8549
aa(lp8550
S'low'
p8551
aS'high'
p8552
ag59
aS'more'
p8553
aS'small'
p8554
aS'med'
p8555
aS'acc'
p8556
aa(lp8557
S'low'
p8558
aS'high'
p8559
ag59
aS'more'
p8560
aS'small'
p8561
aS'high'
p8562
aS'acc'
p8563
aa(lp8564
S'low'
p8565
aS'high'
p8566
ag59
aS'more'
p8567
aS'med'
p8568
aS'low'
p8569
aS'unacc'
p8570
aa(lp8571
S'low'
p8572
aS'high'
p8573
ag59
aS'more'
p8574
aS'med'
p8575
aS'med'
p8576
aS'acc'
p8577
aa(lp8578
S'low'
p8579
aS'high'
p8580
ag59
aS'more'
p8581
aS'med'
p8582
aS'high'
p8583
aS'vgood'
p8584
aa(lp8585
S'low'
p8586
aS'high'
p8587
ag59
aS'more'
p8588
aS'big'
p8589
aS'low'
p8590
aS'unacc'
p8591
aa(lp8592
S'low'
p8593
aS'high'
p8594
ag59
aS'more'
p8595
aS'big'
p8596
aS'med'
p8597
aS'acc'
p8598
aa(lp8599
S'low'
p8600
aS'high'
p8601
ag59
aS'more'
p8602
aS'big'
p8603
aS'high'
p8604
aS'vgood'
p8605
aa(lp8606
S'low'
p8607
aS'high'
p8608
aS'5more'
p8609
ag4
aS'small'
p8610
aS'low'
p8611
aS'unacc'
p8612
aa(lp8613
S'low'
p8614
aS'high'
p8615
aS'5more'
p8616
ag4
aS'small'
p8617
aS'med'
p8618
aS'unacc'
p8619
aa(lp8620
S'low'
p8621
aS'high'
p8622
aS'5more'
p8623
ag4
aS'small'
p8624
aS'high'
p8625
aS'unacc'
p8626
aa(lp8627
S'low'
p8628
aS'high'
p8629
aS'5more'
p8630
ag4
aS'med'
p8631
aS'low'
p8632
aS'unacc'
p8633
aa(lp8634
S'low'
p8635
aS'high'
p8636
aS'5more'
p8637
ag4
aS'med'
p8638
aS'med'
p8639
aS'unacc'
p8640
aa(lp8641
S'low'
p8642
aS'high'
p8643
aS'5more'
p8644
ag4
aS'med'
p8645
aS'high'
p8646
aS'unacc'
p8647
aa(lp8648
S'low'
p8649
aS'high'
p8650
aS'5more'
p8651
ag4
aS'big'
p8652
aS'low'
p8653
aS'unacc'
p8654
aa(lp8655
S'low'
p8656
aS'high'
p8657
aS'5more'
p8658
ag4
aS'big'
p8659
aS'med'
p8660
aS'unacc'
p8661
aa(lp8662
S'low'
p8663
aS'high'
p8664
aS'5more'
p8665
ag4
aS'big'
p8666
aS'high'
p8667
aS'unacc'
p8668
aa(lp8669
S'low'
p8670
aS'high'
p8671
aS'5more'
p8672
ag59
aS'small'
p8673
aS'low'
p8674
aS'unacc'
p8675
aa(lp8676
S'low'
p8677
aS'high'
p8678
aS'5more'
p8679
ag59
aS'small'
p8680
aS'med'
p8681
aS'acc'
p8682
aa(lp8683
S'low'
p8684
aS'high'
p8685
aS'5more'
p8686
ag59
aS'small'
p8687
aS'high'
p8688
aS'acc'
p8689
aa(lp8690
S'low'
p8691
aS'high'
p8692
aS'5more'
p8693
ag59
aS'med'
p8694
aS'low'
p8695
aS'unacc'
p8696
aa(lp8697
S'low'
p8698
aS'high'
p8699
aS'5more'
p8700
ag59
aS'med'
p8701
aS'med'
p8702
aS'acc'
p8703
aa(lp8704
S'low'
p8705
aS'high'
p8706
aS'5more'
p8707
ag59
aS'med'
p8708
aS'high'
p8709
aS'vgood'
p8710
aa(lp8711
S'low'
p8712
aS'high'
p8713
aS'5more'
p8714
ag59
aS'big'
p8715
aS'low'
p8716
aS'unacc'
p8717
aa(lp8718
S'low'
p8719
aS'high'
p8720
aS'5more'
p8721
ag59
aS'big'
p8722
aS'med'
p8723
aS'acc'
p8724
aa(lp8725
S'low'
p8726
aS'high'
p8727
aS'5more'
p8728
ag59
aS'big'
p8729
aS'high'
p8730
aS'vgood'
p8731
aa(lp8732
S'low'
p8733
aS'high'
p8734
aS'5more'
p8735
aS'more'
p8736
aS'small'
p8737
aS'low'
p8738
aS'unacc'
p8739
aa(lp8740
S'low'
p8741
aS'high'
p8742
aS'5more'
p8743
aS'more'
p8744
aS'small'
p8745
aS'med'
p8746
aS'acc'
p8747
aa(lp8748
S'low'
p8749
aS'high'
p8750
aS'5more'
p8751
aS'more'
p8752
aS'small'
p8753
aS'high'
p8754
aS'acc'
p8755
aa(lp8756
S'low'
p8757
aS'high'
p8758
aS'5more'
p8759
aS'more'
p8760
aS'med'
p8761
aS'low'
p8762
aS'unacc'
p8763
aa(lp8764
S'low'
p8765
aS'high'
p8766
aS'5more'
p8767
aS'more'
p8768
aS'med'
p8769
aS'med'
p8770
aS'acc'
p8771
aa(lp8772
S'low'
p8773
aS'high'
p8774
aS'5more'
p8775
aS'more'
p8776
aS'med'
p8777
aS'high'
p8778
aS'vgood'
p8779
aa(lp8780
S'low'
p8781
aS'high'
p8782
aS'5more'
p8783
aS'more'
p8784
aS'big'
p8785
aS'low'
p8786
aS'unacc'
p8787
aa(lp8788
S'low'
p8789
aS'high'
p8790
aS'5more'
p8791
aS'more'
p8792
aS'big'
p8793
aS'med'
p8794
aS'acc'
p8795
aa(lp8796
S'low'
p8797
aS'high'
p8798
aS'5more'
p8799
aS'more'
p8800
aS'big'
p8801
aS'high'
p8802
aS'vgood'
p8803
aa(lp8804
S'low'
p8805
aS'med'
p8806
ag4
ag4
aS'small'
p8807
aS'low'
p8808
aS'unacc'
p8809
aa(lp8810
S'low'
p8811
aS'med'
p8812
ag4
ag4
aS'small'
p8813
aS'med'
p8814
aS'unacc'
p8815
aa(lp8816
S'low'
p8817
aS'med'
p8818
ag4
ag4
aS'small'
p8819
aS'high'
p8820
aS'unacc'
p8821
aa(lp8822
S'low'
p8823
aS'med'
p8824
ag4
ag4
aS'med'
p8825
aS'low'
p8826
aS'unacc'
p8827
aa(lp8828
S'low'
p8829
aS'med'
p8830
ag4
ag4
aS'med'
p8831
aS'med'
p8832
aS'unacc'
p8833
aa(lp8834
S'low'
p8835
aS'med'
p8836
ag4
ag4
aS'med'
p8837
aS'high'
p8838
aS'unacc'
p8839
aa(lp8840
S'low'
p8841
aS'med'
p8842
ag4
ag4
aS'big'
p8843
aS'low'
p8844
aS'unacc'
p8845
aa(lp8846
S'low'
p8847
aS'med'
p8848
ag4
ag4
aS'big'
p8849
aS'med'
p8850
aS'unacc'
p8851
aa(lp8852
S'low'
p8853
aS'med'
p8854
ag4
ag4
aS'big'
p8855
aS'high'
p8856
aS'unacc'
p8857
aa(lp8858
S'low'
p8859
aS'med'
p8860
ag4
ag59
aS'small'
p8861
aS'low'
p8862
aS'unacc'
p8863
aa(lp8864
S'low'
p8865
aS'med'
p8866
ag4
ag59
aS'small'
p8867
aS'med'
p8868
aS'acc'
p8869
aa(lp8870
S'low'
p8871
aS'med'
p8872
ag4
ag59
aS'small'
p8873
aS'high'
p8874
aS'good'
p8875
aa(lp8876
S'low'
p8877
aS'med'
p8878
ag4
ag59
aS'med'
p8879
aS'low'
p8880
aS'unacc'
p8881
aa(lp8882
S'low'
p8883
aS'med'
p8884
ag4
ag59
aS'med'
p8885
aS'med'
p8886
aS'acc'
p8887
aa(lp8888
S'low'
p8889
aS'med'
p8890
ag4
ag59
aS'med'
p8891
aS'high'
p8892
aS'good'
p8893
aa(lp8894
S'low'
p8895
aS'med'
p8896
ag4
ag59
aS'big'
p8897
aS'low'
p8898
aS'unacc'
p8899
aa(lp8900
S'low'
p8901
aS'med'
p8902
ag4
ag59
aS'big'
p8903
aS'med'
p8904
aS'good'
p8905
aa(lp8906
S'low'
p8907
aS'med'
p8908
ag4
ag59
aS'big'
p8909
aS'high'
p8910
aS'vgood'
p8911
aa(lp8912
S'low'
p8913
aS'med'
p8914
ag4
aS'more'
p8915
aS'small'
p8916
aS'low'
p8917
aS'unacc'
p8918
aa(lp8919
S'low'
p8920
aS'med'
p8921
ag4
aS'more'
p8922
aS'small'
p8923
aS'med'
p8924
aS'unacc'
p8925
aa(lp8926
S'low'
p8927
aS'med'
p8928
ag4
aS'more'
p8929
aS'small'
p8930
aS'high'
p8931
aS'unacc'
p8932
aa(lp8933
S'low'
p8934
aS'med'
p8935
ag4
aS'more'
p8936
aS'med'
p8937
aS'low'
p8938
aS'unacc'
p8939
aa(lp8940
S'low'
p8941
aS'med'
p8942
ag4
aS'more'
p8943
aS'med'
p8944
aS'med'
p8945
aS'acc'
p8946
aa(lp8947
S'low'
p8948
aS'med'
p8949
ag4
aS'more'
p8950
aS'med'
p8951
aS'high'
p8952
aS'good'
p8953
aa(lp8954
S'low'
p8955
aS'med'
p8956
ag4
aS'more'
p8957
aS'big'
p8958
aS'low'
p8959
aS'unacc'
p8960
aa(lp8961
S'low'
p8962
aS'med'
p8963
ag4
aS'more'
p8964
aS'big'
p8965
aS'med'
p8966
aS'good'
p8967
aa(lp8968
S'low'
p8969
aS'med'
p8970
ag4
aS'more'
p8971
aS'big'
p8972
aS'high'
p8973
aS'vgood'
p8974
aa(lp8975
S'low'
p8976
aS'med'
p8977
ag177
ag4
aS'small'
p8978
aS'low'
p8979
aS'unacc'
p8980
aa(lp8981
S'low'
p8982
aS'med'
p8983
ag177
ag4
aS'small'
p8984
aS'med'
p8985
aS'unacc'
p8986
aa(lp8987
S'low'
p8988
aS'med'
p8989
ag177
ag4
aS'small'
p8990
aS'high'
p8991
aS'unacc'
p8992
aa(lp8993
S'low'
p8994
aS'med'
p8995
ag177
ag4
aS'med'
p8996
aS'low'
p8997
aS'unacc'
p8998
aa(lp8999
S'low'
p9000
aS'med'
p9001
ag177
ag4
aS'med'
p9002
aS'med'
p9003
aS'unacc'
p9004
aa(lp9005
S'low'
p9006
aS'med'
p9007
ag177
ag4
aS'med'
p9008
aS'high'
p9009
aS'unacc'
p9010
aa(lp9011
S'low'
p9012
aS'med'
p9013
ag177
ag4
aS'big'
p9014
aS'low'
p9015
aS'unacc'
p9016
aa(lp9017
S'low'
p9018
aS'med'
p9019
ag177
ag4
aS'big'
p9020
aS'med'
p9021
aS'unacc'
p9022
aa(lp9023
S'low'
p9024
aS'med'
p9025
ag177
ag4
aS'big'
p9026
aS'high'
p9027
aS'unacc'
p9028
aa(lp9029
S'low'
p9030
aS'med'
p9031
ag177
ag59
aS'small'
p9032
aS'low'
p9033
aS'unacc'
p9034
aa(lp9035
S'low'
p9036
aS'med'
p9037
ag177
ag59
aS'small'
p9038
aS'med'
p9039
aS'acc'
p9040
aa(lp9041
S'low'
p9042
aS'med'
p9043
ag177
ag59
aS'small'
p9044
aS'high'
p9045
aS'good'
p9046
aa(lp9047
S'low'
p9048
aS'med'
p9049
ag177
ag59
aS'med'
p9050
aS'low'
p9051
aS'unacc'
p9052
aa(lp9053
S'low'
p9054
aS'med'
p9055
ag177
ag59
aS'med'
p9056
aS'med'
p9057
aS'acc'
p9058
aa(lp9059
S'low'
p9060
aS'med'
p9061
ag177
ag59
aS'med'
p9062
aS'high'
p9063
aS'good'
p9064
aa(lp9065
S'low'
p9066
aS'med'
p9067
ag177
ag59
aS'big'
p9068
aS'low'
p9069
aS'unacc'
p9070
aa(lp9071
S'low'
p9072
aS'med'
p9073
ag177
ag59
aS'big'
p9074
aS'med'
p9075
aS'good'
p9076
aa(lp9077
S'low'
p9078
aS'med'
p9079
ag177
ag59
aS'big'
p9080
aS'high'
p9081
aS'vgood'
p9082
aa(lp9083
S'low'
p9084
aS'med'
p9085
ag177
aS'more'
p9086
aS'small'
p9087
aS'low'
p9088
aS'unacc'
p9089
aa(lp9090
S'low'
p9091
aS'med'
p9092
ag177
aS'more'
p9093
aS'small'
p9094
aS'med'
p9095
aS'acc'
p9096
aa(lp9097
S'low'
p9098
aS'med'
p9099
ag177
aS'more'
p9100
aS'small'
p9101
aS'high'
p9102
aS'good'
p9103
aa(lp9104
S'low'
p9105
aS'med'
p9106
ag177
aS'more'
p9107
aS'med'
p9108
aS'low'
p9109
aS'unacc'
p9110
aa(lp9111
S'low'
p9112
aS'med'
p9113
ag177
aS'more'
p9114
aS'med'
p9115
aS'med'
p9116
aS'good'
p9117
aa(lp9118
S'low'
p9119
aS'med'
p9120
ag177
aS'more'
p9121
aS'med'
p9122
aS'high'
p9123
aS'vgood'
p9124
aa(lp9125
S'low'
p9126
aS'med'
p9127
ag177
aS'more'
p9128
aS'big'
p9129
aS'low'
p9130
aS'unacc'
p9131
aa(lp9132
S'low'
p9133
aS'med'
p9134
ag177
aS'more'
p9135
aS'big'
p9136
aS'med'
p9137
aS'good'
p9138
aa(lp9139
S'low'
p9140
aS'med'
p9141
ag177
aS'more'
p9142
aS'big'
p9143
aS'high'
p9144
aS'vgood'
p9145
aa(lp9146
S'low'
p9147
aS'med'
p9148
ag59
ag4
aS'small'
p9149
aS'low'
p9150
aS'unacc'
p9151
aa(lp9152
S'low'
p9153
aS'med'
p9154
ag59
ag4
aS'small'
p9155
aS'med'
p9156
aS'unacc'
p9157
aa(lp9158
S'low'
p9159
aS'med'
p9160
ag59
ag4
aS'small'
p9161
aS'high'
p9162
aS'unacc'
p9163
aa(lp9164
S'low'
p9165
aS'med'
p9166
ag59
ag4
aS'med'
p9167
aS'low'
p9168
aS'unacc'
p9169
aa(lp9170
S'low'
p9171
aS'med'
p9172
ag59
ag4
aS'med'
p9173
aS'med'
p9174
aS'unacc'
p9175
aa(lp9176
S'low'
p9177
aS'med'
p9178
ag59
ag4
aS'med'
p9179
aS'high'
p9180
aS'unacc'
p9181
aa(lp9182
S'low'
p9183
aS'med'
p9184
ag59
ag4
aS'big'
p9185
aS'low'
p9186
aS'unacc'
p9187
aa(lp9188
S'low'
p9189
aS'med'
p9190
ag59
ag4
aS'big'
p9191
aS'med'
p9192
aS'unacc'
p9193
aa(lp9194
S'low'
p9195
aS'med'
p9196
ag59
ag4
aS'big'
p9197
aS'high'
p9198
aS'unacc'
p9199
aa(lp9200
S'low'
p9201
aS'med'
p9202
ag59
ag59
aS'small'
p9203
aS'low'
p9204
aS'unacc'
p9205
aa(lp9206
S'low'
p9207
aS'med'
p9208
ag59
ag59
aS'small'
p9209
aS'med'
p9210
aS'acc'
p9211
aa(lp9212
S'low'
p9213
aS'med'
p9214
ag59
ag59
aS'small'
p9215
aS'high'
p9216
aS'good'
p9217
aa(lp9218
S'low'
p9219
aS'med'
p9220
ag59
ag59
aS'med'
p9221
aS'low'
p9222
aS'unacc'
p9223
aa(lp9224
S'low'
p9225
aS'med'
p9226
ag59
ag59
aS'med'
p9227
aS'med'
p9228
aS'good'
p9229
aa(lp9230
S'low'
p9231
aS'med'
p9232
ag59
ag59
aS'med'
p9233
aS'high'
p9234
aS'vgood'
p9235
aa(lp9236
S'low'
p9237
aS'med'
p9238
ag59
ag59
aS'big'
p9239
aS'low'
p9240
aS'unacc'
p9241
aa(lp9242
S'low'
p9243
aS'med'
p9244
ag59
ag59
aS'big'
p9245
aS'med'
p9246
aS'good'
p9247
aa(lp9248
S'low'
p9249
aS'med'
p9250
ag59
ag59
aS'big'
p9251
aS'high'
p9252
aS'vgood'
p9253
aa(lp9254
S'low'
p9255
aS'med'
p9256
ag59
aS'more'
p9257
aS'small'
p9258
aS'low'
p9259
aS'unacc'
p9260
aa(lp9261
S'low'
p9262
aS'med'
p9263
ag59
aS'more'
p9264
aS'small'
p9265
aS'med'
p9266
aS'acc'
p9267
aa(lp9268
S'low'
p9269
aS'med'
p9270
ag59
aS'more'
p9271
aS'small'
p9272
aS'high'
p9273
aS'good'
p9274
aa(lp9275
S'low'
p9276
aS'med'
p9277
ag59
aS'more'
p9278
aS'med'
p9279
aS'low'
p9280
aS'unacc'
p9281
aa(lp9282
S'low'
p9283
aS'med'
p9284
ag59
aS'more'
p9285
aS'med'
p9286
aS'med'
p9287
aS'good'
p9288
aa(lp9289
S'low'
p9290
aS'med'
p9291
ag59
aS'more'
p9292
aS'med'
p9293
aS'high'
p9294
aS'vgood'
p9295
aa(lp9296
S'low'
p9297
aS'med'
p9298
ag59
aS'more'
p9299
aS'big'
p9300
aS'low'
p9301
aS'unacc'
p9302
aa(lp9303
S'low'
p9304
aS'med'
p9305
ag59
aS'more'
p9306
aS'big'
p9307
aS'med'
p9308
aS'good'
p9309
aa(lp9310
S'low'
p9311
aS'med'
p9312
ag59
aS'more'
p9313
aS'big'
p9314
aS'high'
p9315
aS'vgood'
p9316
aa(lp9317
S'low'
p9318
aS'med'
p9319
aS'5more'
p9320
ag4
aS'small'
p9321
aS'low'
p9322
aS'unacc'
p9323
aa(lp9324
S'low'
p9325
aS'med'
p9326
aS'5more'
p9327
ag4
aS'small'
p9328
aS'med'
p9329
aS'unacc'
p9330
aa(lp9331
S'low'
p9332
aS'med'
p9333
aS'5more'
p9334
ag4
aS'small'
p9335
aS'high'
p9336
aS'unacc'
p9337
aa(lp9338
S'low'
p9339
aS'med'
p9340
aS'5more'
p9341
ag4
aS'med'
p9342
aS'low'
p9343
aS'unacc'
p9344
aa(lp9345
S'low'
p9346
aS'med'
p9347
aS'5more'
p9348
ag4
aS'med'
p9349
aS'med'
p9350
aS'unacc'
p9351
aa(lp9352
S'low'
p9353
aS'med'
p9354
aS'5more'
p9355
ag4
aS'med'
p9356
aS'high'
p9357
aS'unacc'
p9358
aa(lp9359
S'low'
p9360
aS'med'
p9361
aS'5more'
p9362
ag4
aS'big'
p9363
aS'low'
p9364
aS'unacc'
p9365
aa(lp9366
S'low'
p9367
aS'med'
p9368
aS'5more'
p9369
ag4
aS'big'
p9370
aS'med'
p9371
aS'unacc'
p9372
aa(lp9373
S'low'
p9374
aS'med'
p9375
aS'5more'
p9376
ag4
aS'big'
p9377
aS'high'
p9378
aS'unacc'
p9379
aa(lp9380
S'low'
p9381
aS'med'
p9382
aS'5more'
p9383
ag59
aS'small'
p9384
aS'low'
p9385
aS'unacc'
p9386
aa(lp9387
S'low'
p9388
aS'med'
p9389
aS'5more'
p9390
ag59
aS'small'
p9391
aS'med'
p9392
aS'acc'
p9393
aa(lp9394
S'low'
p9395
aS'med'
p9396
aS'5more'
p9397
ag59
aS'small'
p9398
aS'high'
p9399
aS'good'
p9400
aa(lp9401
S'low'
p9402
aS'med'
p9403
aS'5more'
p9404
ag59
aS'med'
p9405
aS'low'
p9406
aS'unacc'
p9407
aa(lp9408
S'low'
p9409
aS'med'
p9410
aS'5more'
p9411
ag59
aS'med'
p9412
aS'med'
p9413
aS'good'
p9414
aa(lp9415
S'low'
p9416
aS'med'
p9417
aS'5more'
p9418
ag59
aS'med'
p9419
aS'high'
p9420
aS'vgood'
p9421
aa(lp9422
S'low'
p9423
aS'med'
p9424
aS'5more'
p9425
ag59
aS'big'
p9426
aS'low'
p9427
aS'unacc'
p9428
aa(lp9429
S'low'
p9430
aS'med'
p9431
aS'5more'
p9432
ag59
aS'big'
p9433
aS'med'
p9434
aS'good'
p9435
aa(lp9436
S'low'
p9437
aS'med'
p9438
aS'5more'
p9439
ag59
aS'big'
p9440
aS'high'
p9441
aS'vgood'
p9442
aa(lp9443
S'low'
p9444
aS'med'
p9445
aS'5more'
p9446
aS'more'
p9447
aS'small'
p9448
aS'low'
p9449
aS'unacc'
p9450
aa(lp9451
S'low'
p9452
aS'med'
p9453
aS'5more'
p9454
aS'more'
p9455
aS'small'
p9456
aS'med'
p9457
aS'acc'
p9458
aa(lp9459
S'low'
p9460
aS'med'
p9461
aS'5more'
p9462
aS'more'
p9463
aS'small'
p9464
aS'high'
p9465
aS'good'
p9466
aa(lp9467
S'low'
p9468
aS'med'
p9469
aS'5more'
p9470
aS'more'
p9471
aS'med'
p9472
aS'low'
p9473
aS'unacc'
p9474
aa(lp9475
S'low'
p9476
aS'med'
p9477
aS'5more'
p9478
aS'more'
p9479
aS'med'
p9480
aS'med'
p9481
aS'good'
p9482
aa(lp9483
S'low'
p9484
aS'med'
p9485
aS'5more'
p9486
aS'more'
p9487
aS'med'
p9488
aS'high'
p9489
aS'vgood'
p9490
aa(lp9491
S'low'
p9492
aS'med'
p9493
aS'5more'
p9494
aS'more'
p9495
aS'big'
p9496
aS'low'
p9497
aS'unacc'
p9498
aa(lp9499
S'low'
p9500
aS'med'
p9501
aS'5more'
p9502
aS'more'
p9503
aS'big'
p9504
aS'med'
p9505
aS'good'
p9506
aa(lp9507
S'low'
p9508
aS'med'
p9509
aS'5more'
p9510
aS'more'
p9511
aS'big'
p9512
aS'high'
p9513
aS'vgood'
p9514
aa(lp9515
S'low'
p9516
aS'low'
p9517
ag4
ag4
aS'small'
p9518
aS'low'
p9519
aS'unacc'
p9520
aa(lp9521
S'low'
p9522
aS'low'
p9523
ag4
ag4
aS'small'
p9524
aS'med'
p9525
aS'unacc'
p9526
aa(lp9527
S'low'
p9528
aS'low'
p9529
ag4
ag4
aS'small'
p9530
aS'high'
p9531
aS'unacc'
p9532
aa(lp9533
S'low'
p9534
aS'low'
p9535
ag4
ag4
aS'med'
p9536
aS'low'
p9537
aS'unacc'
p9538
aa(lp9539
S'low'
p9540
aS'low'
p9541
ag4
ag4
aS'med'
p9542
aS'med'
p9543
aS'unacc'
p9544
aa(lp9545
S'low'
p9546
aS'low'
p9547
ag4
ag4
aS'med'
p9548
aS'high'
p9549
aS'unacc'
p9550
aa(lp9551
S'low'
p9552
aS'low'
p9553
ag4
ag4
aS'big'
p9554
aS'low'
p9555
aS'unacc'
p9556
aa(lp9557
S'low'
p9558
aS'low'
p9559
ag4
ag4
aS'big'
p9560
aS'med'
p9561
aS'unacc'
p9562
aa(lp9563
S'low'
p9564
aS'low'
p9565
ag4
ag4
aS'big'
p9566
aS'high'
p9567
aS'unacc'
p9568
aa(lp9569
S'low'
p9570
aS'low'
p9571
ag4
ag59
aS'small'
p9572
aS'low'
p9573
aS'unacc'
p9574
aa(lp9575
S'low'
p9576
aS'low'
p9577
ag4
ag59
aS'small'
p9578
aS'med'
p9579
aS'acc'
p9580
aa(lp9581
S'low'
p9582
aS'low'
p9583
ag4
ag59
aS'small'
p9584
aS'high'
p9585
aS'good'
p9586
aa(lp9587
S'low'
p9588
aS'low'
p9589
ag4
ag59
aS'med'
p9590
aS'low'
p9591
aS'unacc'
p9592
aa(lp9593
S'low'
p9594
aS'low'
p9595
ag4
ag59
aS'med'
p9596
aS'med'
p9597
aS'acc'
p9598
aa(lp9599
S'low'
p9600
aS'low'
p9601
ag4
ag59
aS'med'
p9602
aS'high'
p9603
aS'good'
p9604
aa(lp9605
S'low'
p9606
aS'low'
p9607
ag4
ag59
aS'big'
p9608
aS'low'
p9609
aS'unacc'
p9610
aa(lp9611
S'low'
p9612
aS'low'
p9613
ag4
ag59
aS'big'
p9614
aS'med'
p9615
aS'good'
p9616
aa(lp9617
S'low'
p9618
aS'low'
p9619
ag4
ag59
aS'big'
p9620
aS'high'
p9621
aS'vgood'
p9622
aa(lp9623
S'low'
p9624
aS'low'
p9625
ag4
aS'more'
p9626
aS'small'
p9627
aS'low'
p9628
aS'unacc'
p9629
aa(lp9630
S'low'
p9631
aS'low'
p9632
ag4
aS'more'
p9633
aS'small'
p9634
aS'med'
p9635
aS'unacc'
p9636
aa(lp9637
S'low'
p9638
aS'low'
p9639
ag4
aS'more'
p9640
aS'small'
p9641
aS'high'
p9642
aS'unacc'
p9643
aa(lp9644
S'low'
p9645
aS'low'
p9646
ag4
aS'more'
p9647
aS'med'
p9648
aS'low'
p9649
aS'unacc'
p9650
aa(lp9651
S'low'
p9652
aS'low'
p9653
ag4
aS'more'
p9654
aS'med'
p9655
aS'med'
p9656
aS'acc'
p9657
aa(lp9658
S'low'
p9659
aS'low'
p9660
ag4
aS'more'
p9661
aS'med'
p9662
aS'high'
p9663
aS'good'
p9664
aa(lp9665
S'low'
p9666
aS'low'
p9667
ag4
aS'more'
p9668
aS'big'
p9669
aS'low'
p9670
aS'unacc'
p9671
aa(lp9672
S'low'
p9673
aS'low'
p9674
ag4
aS'more'
p9675
aS'big'
p9676
aS'med'
p9677
aS'good'
p9678
aa(lp9679
S'low'
p9680
aS'low'
p9681
ag4
aS'more'
p9682
aS'big'
p9683
aS'high'
p9684
aS'vgood'
p9685
aa(lp9686
S'low'
p9687
aS'low'
p9688
ag177
ag4
aS'small'
p9689
aS'low'
p9690
aS'unacc'
p9691
aa(lp9692
S'low'
p9693
aS'low'
p9694
ag177
ag4
aS'small'
p9695
aS'med'
p9696
aS'unacc'
p9697
aa(lp9698
S'low'
p9699
aS'low'
p9700
ag177
ag4
aS'small'
p9701
aS'high'
p9702
aS'unacc'
p9703
aa(lp9704
S'low'
p9705
aS'low'
p9706
ag177
ag4
aS'med'
p9707
aS'low'
p9708
aS'unacc'
p9709
aa(lp9710
S'low'
p9711
aS'low'
p9712
ag177
ag4
aS'med'
p9713
aS'med'
p9714
aS'unacc'
p9715
aa(lp9716
S'low'
p9717
aS'low'
p9718
ag177
ag4
aS'med'
p9719
aS'high'
p9720
aS'unacc'
p9721
aa(lp9722
S'low'
p9723
aS'low'
p9724
ag177
ag4
aS'big'
p9725
aS'low'
p9726
aS'unacc'
p9727
aa(lp9728
S'low'
p9729
aS'low'
p9730
ag177
ag4
aS'big'
p9731
aS'med'
p9732
aS'unacc'
p9733
aa(lp9734
S'low'
p9735
aS'low'
p9736
ag177
ag4
aS'big'
p9737
aS'high'
p9738
aS'unacc'
p9739
aa(lp9740
S'low'
p9741
aS'low'
p9742
ag177
ag59
aS'small'
p9743
aS'low'
p9744
aS'unacc'
p9745
aa(lp9746
S'low'
p9747
aS'low'
p9748
ag177
ag59
aS'small'
p9749
aS'med'
p9750
aS'acc'
p9751
aa(lp9752
S'low'
p9753
aS'low'
p9754
ag177
ag59
aS'small'
p9755
aS'high'
p9756
aS'good'
p9757
aa(lp9758
S'low'
p9759
aS'low'
p9760
ag177
ag59
aS'med'
p9761
aS'low'
p9762
aS'unacc'
p9763
aa(lp9764
S'low'
p9765
aS'low'
p9766
ag177
ag59
aS'med'
p9767
aS'med'
p9768
aS'acc'
p9769
aa(lp9770
S'low'
p9771
aS'low'
p9772
ag177
ag59
aS'med'
p9773
aS'high'
p9774
aS'good'
p9775
aa(lp9776
S'low'
p9777
aS'low'
p9778
ag177
ag59
aS'big'
p9779
aS'low'
p9780
aS'unacc'
p9781
aa(lp9782
S'low'
p9783
aS'low'
p9784
ag177
ag59
aS'big'
p9785
aS'med'
p9786
aS'good'
p9787
aa(lp9788
S'low'
p9789
aS'low'
p9790
ag177
ag59
aS'big'
p9791
aS'high'
p9792
aS'vgood'
p9793
aa(lp9794
S'low'
p9795
aS'low'
p9796
ag177
aS'more'
p9797
aS'small'
p9798
aS'low'
p9799
aS'unacc'
p9800
aa(lp9801
S'low'
p9802
aS'low'
p9803
ag177
aS'more'
p9804
aS'small'
p9805
aS'med'
p9806
aS'acc'
p9807
aa(lp9808
S'low'
p9809
aS'low'
p9810
ag177
aS'more'
p9811
aS'small'
p9812
aS'high'
p9813
aS'good'
p9814
aa(lp9815
S'low'
p9816
aS'low'
p9817
ag177
aS'more'
p9818
aS'med'
p9819
aS'low'
p9820
aS'unacc'
p9821
aa(lp9822
S'low'
p9823
aS'low'
p9824
ag177
aS'more'
p9825
aS'med'
p9826
aS'med'
p9827
aS'good'
p9828
aa(lp9829
S'low'
p9830
aS'low'
p9831
ag177
aS'more'
p9832
aS'med'
p9833
aS'high'
p9834
aS'vgood'
p9835
aa(lp9836
S'low'
p9837
aS'low'
p9838
ag177
aS'more'
p9839
aS'big'
p9840
aS'low'
p9841
aS'unacc'
p9842
aa(lp9843
S'low'
p9844
aS'low'
p9845
ag177
aS'more'
p9846
aS'big'
p9847
aS'med'
p9848
aS'good'
p9849
aa(lp9850
S'low'
p9851
aS'low'
p9852
ag177
aS'more'
p9853
aS'big'
p9854
aS'high'
p9855
aS'vgood'
p9856
aa(lp9857
S'low'
p9858
aS'low'
p9859
ag59
ag4
aS'small'
p9860
aS'low'
p9861
aS'unacc'
p9862
aa(lp9863
S'low'
p9864
aS'low'
p9865
ag59
ag4
aS'small'
p9866
aS'med'
p9867
aS'unacc'
p9868
aa(lp9869
S'low'
p9870
aS'low'
p9871
ag59
ag4
aS'small'
p9872
aS'high'
p9873
aS'unacc'
p9874
aa(lp9875
S'low'
p9876
aS'low'
p9877
ag59
ag4
aS'med'
p9878
aS'low'
p9879
aS'unacc'
p9880
aa(lp9881
S'low'
p9882
aS'low'
p9883
ag59
ag4
aS'med'
p9884
aS'med'
p9885
aS'unacc'
p9886
aa(lp9887
S'low'
p9888
aS'low'
p9889
ag59
ag4
aS'med'
p9890
aS'high'
p9891
aS'unacc'
p9892
aa(lp9893
S'low'
p9894
aS'low'
p9895
ag59
ag4
aS'big'
p9896
aS'low'
p9897
aS'unacc'
p9898
aa(lp9899
S'low'
p9900
aS'low'
p9901
ag59
ag4
aS'big'
p9902
aS'med'
p9903
aS'unacc'
p9904
aa(lp9905
S'low'
p9906
aS'low'
p9907
ag59
ag4
aS'big'
p9908
aS'high'
p9909
aS'unacc'
p9910
aa(lp9911
S'low'
p9912
aS'low'
p9913
ag59
ag59
aS'small'
p9914
aS'low'
p9915
aS'unacc'
p9916
aa(lp9917
S'low'
p9918
aS'low'
p9919
ag59
ag59
aS'small'
p9920
aS'med'
p9921
aS'acc'
p9922
aa(lp9923
S'low'
p9924
aS'low'
p9925
ag59
ag59
aS'small'
p9926
aS'high'
p9927
aS'good'
p9928
aa(lp9929
S'low'
p9930
aS'low'
p9931
ag59
ag59
aS'med'
p9932
aS'low'
p9933
aS'unacc'
p9934
aa(lp9935
S'low'
p9936
aS'low'
p9937
ag59
ag59
aS'med'
p9938
aS'med'
p9939
aS'good'
p9940
aa(lp9941
S'low'
p9942
aS'low'
p9943
ag59
ag59
aS'med'
p9944
aS'high'
p9945
aS'vgood'
p9946
aa(lp9947
S'low'
p9948
aS'low'
p9949
ag59
ag59
aS'big'
p9950
aS'low'
p9951
aS'unacc'
p9952
aa(lp9953
S'low'
p9954
aS'low'
p9955
ag59
ag59
aS'big'
p9956
aS'med'
p9957
aS'good'
p9958
aa(lp9959
S'low'
p9960
aS'low'
p9961
ag59
ag59
aS'big'
p9962
aS'high'
p9963
aS'vgood'
p9964
aa(lp9965
S'low'
p9966
aS'low'
p9967
ag59
aS'more'
p9968
aS'small'
p9969
aS'low'
p9970
aS'unacc'
p9971
aa(lp9972
S'low'
p9973
aS'low'
p9974
ag59
aS'more'
p9975
aS'small'
p9976
aS'med'
p9977
aS'acc'
p9978
aa(lp9979
S'low'
p9980
aS'low'
p9981
ag59
aS'more'
p9982
aS'small'
p9983
aS'high'
p9984
aS'good'
p9985
aa(lp9986
S'low'
p9987
aS'low'
p9988
ag59
aS'more'
p9989
aS'med'
p9990
aS'low'
p9991
aS'unacc'
p9992
aa(lp9993
S'low'
p9994
aS'low'
p9995
ag59
aS'more'
p9996
aS'med'
p9997
aS'med'
p9998
aS'good'
p9999
aa(lp10000
S'low'
p10001
aS'low'
p10002
ag59
aS'more'
p10003
aS'med'
p10004
aS'high'
p10005
aS'vgood'
p10006
aa(lp10007
S'low'
p10008
aS'low'
p10009
ag59
aS'more'
p10010
aS'big'
p10011
aS'low'
p10012
aS'unacc'
p10013
aa(lp10014
S'low'
p10015
aS'low'
p10016
ag59
aS'more'
p10017
aS'big'
p10018
aS'med'
p10019
aS'good'
p10020
aa(lp10021
S'low'
p10022
aS'low'
p10023
ag59
aS'more'
p10024
aS'big'
p10025
aS'high'
p10026
aS'vgood'
p10027
aa(lp10028
S'low'
p10029
aS'low'
p10030
aS'5more'
p10031
ag4
aS'small'
p10032
aS'low'
p10033
aS'unacc'
p10034
aa(lp10035
S'low'
p10036
aS'low'
p10037
aS'5more'
p10038
ag4
aS'small'
p10039
aS'med'
p10040
aS'unacc'
p10041
aa(lp10042
S'low'
p10043
aS'low'
p10044
aS'5more'
p10045
ag4
aS'small'
p10046
aS'high'
p10047
aS'unacc'
p10048
aa(lp10049
S'low'
p10050
aS'low'
p10051
aS'5more'
p10052
ag4
aS'med'
p10053
aS'low'
p10054
aS'unacc'
p10055
aa(lp10056
S'low'
p10057
aS'low'
p10058
aS'5more'
p10059
ag4
aS'med'
p10060
aS'med'
p10061
aS'unacc'
p10062
aa(lp10063
S'low'
p10064
aS'low'
p10065
aS'5more'
p10066
ag4
aS'med'
p10067
aS'high'
p10068
aS'unacc'
p10069
aa(lp10070
S'low'
p10071
aS'low'
p10072
aS'5more'
p10073
ag4
aS'big'
p10074
aS'low'
p10075
aS'unacc'
p10076
aa(lp10077
S'low'
p10078
aS'low'
p10079
aS'5more'
p10080
ag4
aS'big'
p10081
aS'med'
p10082
aS'unacc'
p10083
aa(lp10084
S'low'
p10085
aS'low'
p10086
aS'5more'
p10087
ag4
aS'big'
p10088
aS'high'
p10089
aS'unacc'
p10090
aa(lp10091
S'low'
p10092
aS'low'
p10093
aS'5more'
p10094
ag59
aS'small'
p10095
aS'low'
p10096
aS'unacc'
p10097
aa(lp10098
S'low'
p10099
aS'low'
p10100
aS'5more'
p10101
ag59
aS'small'
p10102
aS'med'
p10103
aS'acc'
p10104
aa(lp10105
S'low'
p10106
aS'low'
p10107
aS'5more'
p10108
ag59
aS'small'
p10109
aS'high'
p10110
aS'good'
p10111
aa(lp10112
S'low'
p10113
aS'low'
p10114
aS'5more'
p10115
ag59
aS'med'
p10116
aS'low'
p10117
aS'unacc'
p10118
aa(lp10119
S'low'
p10120
aS'low'
p10121
aS'5more'
p10122
ag59
aS'med'
p10123
aS'med'
p10124
aS'good'
p10125
aa(lp10126
S'low'
p10127
aS'low'
p10128
aS'5more'
p10129
ag59
aS'med'
p10130
aS'high'
p10131
aS'vgood'
p10132
aa(lp10133
S'low'
p10134
aS'low'
p10135
aS'5more'
p10136
ag59
aS'big'
p10137
aS'low'
p10138
aS'unacc'
p10139
aa(lp10140
S'low'
p10141
aS'low'
p10142
aS'5more'
p10143
ag59
aS'big'
p10144
aS'med'
p10145
aS'good'
p10146
aa(lp10147
S'low'
p10148
aS'low'
p10149
aS'5more'
p10150
ag59
aS'big'
p10151
aS'high'
p10152
aS'vgood'
p10153
aa(lp10154
S'low'
p10155
aS'low'
p10156
aS'5more'
p10157
aS'more'
p10158
aS'small'
p10159
aS'low'
p10160
aS'unacc'
p10161
aa(lp10162
S'low'
p10163
aS'low'
p10164
aS'5more'
p10165
aS'more'
p10166
aS'small'
p10167
aS'med'
p10168
aS'acc'
p10169
aa(lp10170
S'low'
p10171
aS'low'
p10172
aS'5more'
p10173
aS'more'
p10174
aS'small'
p10175
aS'high'
p10176
aS'good'
p10177
aa(lp10178
S'low'
p10179
aS'low'
p10180
aS'5more'
p10181
aS'more'
p10182
aS'med'
p10183
aS'low'
p10184
aS'unacc'
p10185
aa(lp10186
S'low'
p10187
aS'low'
p10188
aS'5more'
p10189
aS'more'
p10190
aS'med'
p10191
aS'med'
p10192
aS'good'
p10193
aa(lp10194
S'low'
p10195
aS'low'
p10196
aS'5more'
p10197
aS'more'
p10198
aS'med'
p10199
aS'high'
p10200
aS'vgood'
p10201
aa(lp10202
S'low'
p10203
aS'low'
p10204
aS'5more'
p10205
aS'more'
p10206
aS'big'
p10207
aS'low'
p10208
aS'unacc'
p10209
aa(lp10210
S'low'
p10211
aS'low'
p10212
aS'5more'
p10213
aS'more'
p10214
aS'big'
p10215
aS'med'
p10216
aS'good'
p10217
aa(lp10218
S'low'
p10219
aS'low'
p10220
aS'5more'
p10221
aS'more'
p10222
aS'big'
p10223
aS'high'
p10224
aS'vgood'
p10225
aa.