(lp0
(lp1
S'vhigh'
p2
aS'vhigh'
p3
aS'2'
p4
ag4
aS'small'
p5
aS'low'
p6
aS'unacc'
p7
aa(lp8
S'vhigh'
p9
aS'vhigh'
p10
ag4
ag4
aS'small'
p11
aS'med'
p12
aS'unacc'
p13
aa(lp14
S'vhigh'
p15
aS'vhigh'
p16
ag4
ag4
aS'small'
p17
aS'high'
p18
aS'unacc'
p19
aa(lp20
S'vhigh'
p21
aS'vhigh'
p22
ag4
ag4
aS'med'
p23
aS'low'
p24
aS'unacc'
p25
aa(lp26
S'vhigh'
p27
aS'vhigh'
p28
ag4
ag4
aS'med'
p29
aS'med'
p30
aS'unacc'
p31
aa(lp32
S'vhigh'
p33
aS'vhigh'
p34
ag4
ag4
aS'med'
p35
aS'high'
p36
aS'unacc'
p37
aa(lp38
S'vhigh'
p39
aS'vhigh'
p40
ag4
ag4
aS'big'
p41
aS'low'
p42
aS'unacc'
p43
aa(lp44
S'vhigh'
p45
aS'vhigh'
p46
ag4
ag4
aS'big'
p47
aS'med'
p48
aS'unacc'
p49
aa(lp50
S'vhigh'
p51
aS'vhigh'
p52
ag4
ag4
aS'big'
p53
aS'high'
p54
aS'unacc'
p55
aa(lp56
S'vhigh'
p57
aS'vhigh'
p58
ag4
aS'4'
p59
aS'small'
p60
aS'low'
p61
aS'unacc'
p62
aa(lp63
S'vhigh'
p64
aS'vhigh'
p65
ag4
ag59
aS'small'
p66
aS'med'
p67
aS'unacc'
p68
aa(lp69
S'vhigh'
p70
aS'vhigh'
p71
ag4
ag59
aS'small'
p72
aS'high'
p73
aS'unacc'
p74
aa(lp75
S'vhigh'
p76
aS'vhigh'
p77
ag4
ag59
aS'med'
p78
aS'low'
p79
aS'unacc'
p80
aa(lp81
S'vhigh'
p82
aS'vhigh'
p83
ag4
ag59
aS'med'
p84
aS'med'
p85
aS'unacc'
p86
aa(lp87
S'vhigh'
p88
aS'vhigh'
p89
ag4
ag59
aS'med'
p90
aS'high'
p91
aS'unacc'
p92
aa(lp93
S'vhigh'
p94
aS'vhigh'
p95
ag4
ag59
aS'big'
p96
aS'low'
p97
aS'unacc'
p98
aa(lp99
S'vhigh'
p100
aS'vhigh'
p101
ag4
ag59
aS'big'
p102
aS'med'
p103
aS'unacc'
p104
aa(lp105
S'vhigh'
p106
aS'vhigh'
p107
ag4
ag59
aS'big'
p108
aS'high'
p109
aS'unacc'
p110
aa(lp111
S'vhigh'
p112
aS'vhigh'
p113
ag4
aS'more'
p114
aS'small'
p115
aS'low'
p116
aS'unacc'
p117
aa(lp118
S'vhigh'
p119
aS'vhigh'
p120
ag4
aS'more'
p121
aS'small'
p122
aS'med'
p123
aS'unacc'
p124
aa(lp125
S'vhigh'
p126
aS'vhigh'
p127
ag4
aS'more'
p128
aS'small'
p129
aS'high'
p130
aS'unacc'
p131
aa(lp132
S'vhigh'
p133
aS'vhigh'
p134
ag4
aS'more'
p135
aS'med'
p136
aS'low'
p137
aS'unacc'
p138
aa(lp139
S'vhigh'
p140
aS'vhigh'
p141
ag4
aS'more'
p142
aS'med'
p143
aS'med'
p144
aS'unacc'
p145
aa(lp146
S'vhigh'
p147
aS'vhigh'
p148
ag4
aS'more'
p149
aS'med'
p150
aS'high'
p151
aS'unacc'
p152
aa(lp153
S'vhigh'
p154
aS'vhigh'
p155
ag4
aS'more'
p156
aS'big'
p157
aS'low'
p158
aS'unacc'
p159
aa(lp160
S'vhigh'
p161
aS'vhigh'
p162
ag4
aS'more'
p163
aS'big'
p164
aS'med'
p165
aS'unacc'
p166
aa(lp167
S'vhigh'
p168
aS'vhigh'
p169
ag4
aS'more'
p170
aS'big'
p171
aS'high'
p172
aS'unacc'
p173
aa(lp174
S'vhigh'
p175
aS'vhigh'
p176
aS'3'
p177
ag4
aS'small'
p178
aS'low'
p179
aS'unacc'
p180
aa(lp181
S'vhigh'
p182
aS'vhigh'
p183
ag177
ag4
aS'small'
p184
aS'med'
p185
aS'unacc'
p186
aa(lp187
S'vhigh'
p188
aS'vhigh'
p189
ag177
ag4
aS'small'
p190
aS'high'
p191
aS'unacc'
p192
aa(lp193
S'vhigh'
p194
aS'vhigh'
p195
ag177
ag4
aS'med'
p196
aS'low'
p197
aS'unacc'
p198
aa(lp199
S'vhigh'
p200
aS'vhigh'
p201
ag177
ag4
aS'med'
p202
aS'med'
p203
aS'unacc'
p204
aa(lp205
S'vhigh'
p206
aS'vhigh'
p207
ag177
ag4
aS'med'
p208
aS'high'
p209
aS'unacc'
p210
aa(lp211
S'vhigh'
p212
aS'vhigh'
p213
ag177
ag4
aS'big'
p214
aS'low'
p215
aS'unacc'
p216
aa(lp217
S'vhigh'
p218
aS'vhigh'
p219
ag177
ag4
aS'big'
p220
aS'med'
p221
aS'unacc'
p222
aa(lp223
S'vhigh'
p224
aS'vhigh'
p225
ag177
ag4
aS'big'
p226
aS'high'
p227
aS'unacc'
p228
aa(lp229
S'vhigh'
p230
aS'vhigh'
p231
ag177
ag59
aS'small'
p232
aS'low'
p233
aS'unacc'
p234
aa(lp235
S'vhigh'
p236
aS'vhigh'
p237
ag177
ag59
aS'small'
p238
aS'med'
p239
aS'unacc'
p240
aa(lp241
S'vhigh'
p242
aS'vhigh'
p243
ag177
ag59
aS'small'
p244
aS'high'
p245
aS'unacc'
p246
aa(lp247
S'vhigh'
p248
aS'vhigh'
p249
ag177
ag59
aS'med'
p250
aS'low'
p251
aS'unacc'
p252
aa(lp253
S'vhigh'
p254
aS'vhigh'
p255
ag177
ag59
aS'med'
p256
aS'med'
p257
aS'unacc'
p258
aa(lp259
S'vhigh'
p260
aS'vhigh'
p261
ag177
ag59
aS'med'
p262
aS'high'
p263
aS'unacc'
p264
aa(lp265
S'vhigh'
p266
aS'vhigh'
p267
ag177
ag59
aS'big'
p268
aS'low'
p269
aS'unacc'
p270
aa(lp271
S'vhigh'
p272
aS'vhigh'
p273
ag177
ag59
aS'big'
p274
aS'med'
p275
aS'unacc'
p276
aa(lp277
S'vhigh'
p278
aS'vhigh'
p279
ag177
ag59
aS'big'
p280
aS'high'
p281
aS'unacc'
p282
aa(lp283
S'vhigh'
p284
aS'vhigh'
p285
ag177
aS'more'
p286
aS'small'
p287
aS'low'
p288
aS'unacc'
p289
aa(lp290
S'vhigh'
p291
aS'vhigh'
p292
ag177
aS'more'
p293
aS'small'
p294
aS'med'
p295
aS'unacc'
p296
aa(lp297
S'vhigh'
p298
aS'vhigh'
p299
ag177
aS'more'
p300
aS'small'
p301
aS'high'
p302
aS'unacc'
p303
aa(lp304
S'vhigh'
p305
aS'vhigh'
p306
ag177
aS'more'
p307
aS'med'
p308
aS'low'
p309
aS'unacc'
p310
aa(lp311
S'vhigh'
p312
aS'vhigh'
p313
ag177
aS'more'
p314
aS'med'
p315
aS'med'
p316
aS'unacc'
p317
aa(lp318
S'vhigh'
p319
aS'vhigh'
p320
ag177
aS'more'
p321
aS'med'
p322
aS'high'
p323
aS'unacc'
p324
aa(lp325
S'vhigh'
p326
aS'vhigh'
p327
ag177
aS'more'
p328
aS'big'
p329
aS'low'
p330
aS'unacc'
p331
aa(lp332
S'vhigh'
p333
aS'vhigh'
p334
ag177
aS'more'
p335
aS'big'
p336
aS'med'
p337
aS'unacc'
p338
aa(lp339
S'vhigh'
p340
aS'vhigh'
p341
ag177
aS'more'
p342
aS'big'
p343
aS'high'
p344
aS'unacc'
p345
aa(lp346
S'vhigh'
p347
aS'vhigh'
p348
ag59
ag4
aS'small'
p349
aS'low'
p350
aS'unacc'
p351
aa(lp352
S'vhigh'
p353
aS'vhigh'
p354
ag59
ag4
aS'small'
p355
aS'med'
p356
aS'unacc'
p357
aa(lp358
S'vhigh'
p359
aS'vhigh'
p360
ag59
ag4
aS'small'
p361
aS'high'
p362
aS'unacc'
p363
aa(lp364
S'vhigh'
p365
aS'vhigh'
p366
ag59
ag4
aS'med'
p367
aS'low'
p368
aS'unacc'
p369
aa(lp370
S'vhigh'
p371
aS'vhigh'
p372
ag59
ag4
aS'med'
p373
aS'med'
p374
aS'unacc'
p375
aa(lp376
S'vhigh'
p377
aS'vhigh'
p378
ag59
ag4
aS'med'
p379
aS'high'
p380
aS'unacc'
p381
aa(lp382
S'vhigh'
p383
aS'vhigh'
p384
ag59
ag4
aS'big'
p385
aS'low'
p386
aS'unacc'
p387
aa(lp388
S'vhigh'
p389
aS'vhigh'
p390
ag59
ag4
aS'big'
p391
aS'med'
p392
aS'unacc'
p393
aa(lp394
S'vhigh'
p395
aS'vhigh'
p396
ag59
ag4
aS'big'
p397
aS'high'
p398
aS'unacc'
p399
aa(lp400
S'vhigh'
p401
aS'vhigh'
p402
ag59
ag59
aS'small'
p403
aS'low'
p404
aS'unacc'
p405
aa(lp406
S'vhigh'
p407
aS'vhigh'
p408
ag59
ag59
aS'small'
p409
aS'med'
p410
aS'unacc'
p411
aa(lp412
S'vhigh'
p413
aS'vhigh'
p414
ag59
ag59
aS'small'
p415
aS'high'
p416
aS'unacc'
p417
aa(lp418
S'vhigh'
p419
aS'vhigh'
p420
ag59
ag59
aS'med'
p421
aS'low'
p422
aS'unacc'
p423
aa(lp424
S'vhigh'
p425
aS'vhigh'
p426
ag59
ag59
aS'med'
p427
aS'med'
p428
aS'unacc'
p429
aa(lp430
S'vhigh'
p431
aS'vhigh'
p432
ag59
ag59
aS'med'
p433
aS'high'
p434
aS'unacc'
p435
aa(lp436
S'vhigh'
p437
aS'vhigh'
p438
ag59
ag59
aS'big'
p439
aS'low'
p440
aS'unacc'
p441
aa(lp442
S'vhigh'
p443
aS'vhigh'
p444
ag59
ag59
aS'big'
p445
aS'med'
p446
aS'unacc'
p447
aa(lp448
S'vhigh'
p449
aS'vhigh'
p450
ag59
ag59
aS'big'
p451
aS'high'
p452
aS'unacc'
p453
aa(lp454
S'vhigh'
p455
aS'vhigh'
p456
ag59
aS'more'
p457
aS'small'
p458
aS'low'
p459
aS'unacc'
p460
aa(lp461
S'vhigh'
p462
aS'vhigh'
p463
ag59
aS'more'
p464
aS'small'
p465
aS'med'
p466
aS'unacc'
p467
aa(lp468
S'vhigh'
p469
aS'vhigh'
p470
ag59
aS'more'
p471
aS'small'
p472
aS'high'
p473
aS'unacc'
p474
aa(lp475
S'vhigh'
p476
aS'vhigh'
p477
ag59
aS'more'
p478
aS'med'
p479
aS'low'
p480
aS'unacc'
p481
aa(lp482
S'vhigh'
p483
aS'vhigh'
p484
ag59
aS'more'
p485
aS'med'
p486
aS'med'
p487
aS'unacc'
p488
aa(lp489
S'vhigh'
p490
aS'vhigh'
p491
ag59
aS'more'
p492
aS'med'
p493
aS'high'
p494
aS'unacc'
p495
aa(lp496
S'vhigh'
p497
aS'vhigh'
p498
ag59
aS'more'
p499
aS'big'
p500
aS'low'
p501
aS'unacc'
p502
aa(lp503
S'vhigh'
p504
aS'vhigh'
p505
ag59
aS'more'
p506
aS'big'
p507
aS'med'
p508
aS'unacc'
p509
aa(lp510
S'vhigh'
p511
aS'vhigh'
p512
ag59
aS'more'
p513
aS'big'
p514
aS'high'
p515
aS'unacc'
p516
aa(lp517
S'vhigh'
p518
aS'vhigh'
p519
aS'5more'
p520
ag4
aS'small'
p521
aS'low'
p522
aS'unacc'
p523
aa(lp524
S'vhigh'
p525
aS'vhigh'
p526
aS'5more'
p527
ag4
aS'small'
p528
aS'med'
p529
aS'unacc'
p530
aa(lp531
S'vhigh'
p532
aS'vhigh'
p533
aS'5more'
p534
ag4
aS'small'
p535
aS'high'
p536
aS'unacc'
p537
aa(lp538
S'vhigh'
p539
aS'vhigh'
p540
aS'5more'
p541
ag4
aS'med'
p542
aS'low'
p543
aS'unacc'
p544
aa(lp545
S'vhigh'
p546
aS'vhigh'
p547
aS'5more'
p548
ag4
aS'med'
p549
aS'med'
p550
aS'unacc'
p551
aa(lp552
S'vhigh'
p553
aS'vhigh'
p554
aS'5more'
p555
ag4
aS'med'
p556
aS'high'
p557
aS'unacc'
p558
aa(lp559
S'vhigh'
p560
aS'vhigh'
p561
aS'5more'
p562
ag4
aS'big'
p563
aS'low'
p564
aS'unacc'
p565
aa(lp566
S'vhigh'
p567
aS'vhigh'
p568
aS'5more'
p569
ag4
aS'big'
p570
aS'med'
p571
aS'unacc'
p572
aa(lp573
S'vhigh'
p574
aS'vhigh'
p575
aS'5more'
p576
ag4
aS'big'
p577
aS'high'
p578
aS'unacc'
p579
aa(lp580
S'vhigh'
p581
aS'vhigh'
p582
aS'5more'
p583
ag59
aS'small'
p584
aS'low'
p585
aS'unacc'
p586
aa(lp587
S'vhigh'
p588
aS'vhigh'
p589
aS'5more'
p590
ag59
aS'small'
p591
aS'med'
p592
aS'unacc'
p593
aa(lp594
S'vhigh'
p595
aS'vhigh'
p596
aS'5more'
p597
ag59
aS'small'
p598
aS'high'
p599
aS'unacc'
p600
aa(lp601
S'vhigh'
p602
aS'vhigh'
p603
aS'5more'
p604
ag59
aS'med'
p605
aS'low'
p606
aS'unacc'
p607
aa(lp608
S'vhigh'
p609
aS'vhigh'
p610
aS'5more'
p611
ag59
aS'med'
p612
aS'med'
p613
aS'unacc'
p614
aa(lp615
S'vhigh'
p616
aS'vhigh'
p617
aS'5more'
p618
ag59
aS'med'
p619
aS'high'
p620
aS'unacc'
p621
aa(lp622
S'vhigh'
p623
aS'vhigh'
p624
aS'5more'
p625
ag59
aS'big'
p626
aS'low'
p627
aS'unacc'
p628
aa(lp629
S'vhigh'
p630
aS'vhigh'
p631
aS'5more'
p632
ag59
aS'big'
p633
aS'med'
p634
aS'unacc'
p635
aa(lp636
S'vhigh'
p637
aS'vhigh'
p638
aS'5more'
p639
ag59
aS'big'
p640
aS'high'
p641
aS'unacc'
p642
aa(lp643
S'vhigh'
p644
aS'vhigh'
p645
aS'5more'
p646
aS'more'
p647
aS'small'
p648
aS'low'
p649
aS'unacc'
p650
aa(lp651
S'vhigh'
p652
aS'vhigh'
p653
aS'5more'
p654
aS'more'
p655
aS'small'
p656
aS'med'
p657
aS'unacc'
p658
aa(lp659
S'vhigh'
p660
aS'vhigh'
p661
aS'5more'
p662
aS'more'
p663
aS'small'
p664
aS'high'
p665
aS'unacc'
p666
aa(lp667
S'vhigh'
p668
aS'vhigh'
p669
aS'5more'
p670
aS'more'
p671
aS'med'
p672
aS'low'
p673
aS'unacc'
p674
aa(lp675
S'vhigh'
p676
aS'vhigh'
p677
aS'5more'
p678
aS'more'
p679
aS'med'
p680
aS'med'
p681
aS'unacc'
p682
aa(lp683
S'vhigh'
p684
aS'vhigh'
p685
aS'5more'
p686
aS'more'
p687
aS'med'
p688
aS'high'
p689
aS'unacc'
p690
aa(lp691
S'vhigh'
p692
aS'vhigh'
p693
aS'5more'
p694
aS'more'
p695
aS'big'
p696
aS'low'
p697
aS'unacc'
p698
aa(lp699
S'vhigh'
p700
aS'vhigh'
p701
aS'5more'
p702
aS'more'
p703
aS'big'
p704
aS'med'
p705
aS'unacc'
p706
aa(lp707
S'vhigh'
p708
aS'vhigh'
p709
aS'5more'
p710
aS'more'
p711
aS'big'
p712
aS'high'
p713
aS'unacc'
p714
aa(lp715
S'vhigh'
p716
aS'high'
p717
ag4
ag4
aS'small'
p718
aS'low'
p719
aS'unacc'
p720
aa(lp721
S'vhigh'
p722
aS'high'
p723
ag4
ag4
aS'small'
p724
aS'med'
p725
aS'unacc'
p726
aa(lp727
S'vhigh'
p728
aS'high'
p729
ag4
ag4
aS'small'
p730
aS'high'
p731
aS'unacc'
p732
aa(lp733
S'vhigh'
p734
aS'high'
p735
ag4
ag4
aS'med'
p736
aS'low'
p737
aS'unacc'
p738
aa(lp739
S'vhigh'
p740
aS'high'
p741
ag4
ag4
aS'med'
p742
aS'med'
p743
aS'unacc'
p744
aa(lp745
S'vhigh'
p746
aS'high'
p747
ag4
ag4
aS'med'
p748
aS'high'
p749
aS'unacc'
p750
aa(lp751
S'vhigh'
p752
aS'high'
p753
ag4
ag4
aS'big'
p754
aS'low'
p755
aS'unacc'
p756
aa(lp757
S'vhigh'
p758
aS'high'
p759
ag4
ag4
aS'big'
p760
aS'med'
p761
aS'unacc'
p762
aa(lp763
S'vhigh'
p764
aS'high'
p765
ag4
ag4
aS'big'
p766
aS'high'
p767
aS'unacc'
p768
aa(lp769
S'vhigh'
p770
aS'high'
p771
ag4
ag59
aS'small'
p772
aS'low'
p773
aS'unacc'
p774
aa(lp775
S'vhigh'
p776
aS'high'
p777
ag4
ag59
aS'small'
p778
aS'med'
p779
aS'unacc'
p780
aa(lp781
S'vhigh'
p782
aS'high'
p783
ag4
ag59
aS'small'
p784
aS'high'
p785
aS'unacc'
p786
aa(lp787
S'vhigh'
p788
aS'high'
p789
ag4
ag59
aS'med'
p790
aS'low'
p791
aS'unacc'
p792
aa(lp793
S'vhigh'
p794
aS'high'
p795
ag4
ag59
aS'med'
p796
aS'med'
p797
aS'unacc'
p798
aa(lp799
S'vhigh'
p800
aS'high'
p801
ag4
ag59
aS'med'
p802
aS'high'
p803
aS'unacc'
p804
aa(lp805
S'vhigh'
p806
aS'high'
p807
ag4
ag59
aS'big'
p808
aS'low'
p809
aS'unacc'
p810
aa(lp811
S'vhigh'
p812
aS'high'
p813
ag4
ag59
aS'big'
p814
aS'med'
p815
aS'unacc'
p816
aa(lp817
S'vhigh'
p818
aS'high'
p819
ag4
ag59
aS'big'
p820
aS'high'
p821
aS'unacc'
p822
aa(lp823
S'vhigh'
p824
aS'high'
p825
ag4
aS'more'
p826
aS'small'
p827
aS'low'
p828
aS'unacc'
p829
aa(lp830
S'vhigh'
p831
aS'high'
p832
ag4
aS'more'
p833
aS'small'
p834
aS'med'
p835
aS'unacc'
p836
aa(lp837
S'vhigh'
p838
aS'high'
p839
ag4
aS'more'
p840
aS'small'
p841
aS'high'
p842
aS'unacc'
p843
aa(lp844
S'vhigh'
p845
aS'high'
p846
ag4
aS'more'
p847
aS'med'
p848
aS'low'
p849
aS'unacc'
p850
aa(lp851
S'vhigh'
p852
aS'high'
p853
ag4
aS'more'
p854
aS'med'
p855
aS'med'
p856
aS'unacc'
p857
aa(lp858
S'vhigh'
p859
aS'high'
p860
ag4
aS'more'
p861
aS'med'
p862
aS'high'
p863
aS'unacc'
p864
aa(lp865
S'vhigh'
p866
aS'high'
p867
ag4
aS'more'
p868
aS'big'
p869
aS'low'
p870
aS'unacc'
p871
aa(lp872
S'vhigh'
p873
aS'high'
p874
ag4
aS'more'
p875
aS'big'
p876
aS'med'
p877
aS'unacc'
p878
aa(lp879
S'vhigh'
p880
aS'high'
p881
ag4
aS'more'
p882
aS'big'
p883
aS'high'
p884
aS'unacc'
p885
aa(lp886
S'vhigh'
p887
aS'high'
p888
ag177
ag4
aS'small'
p889
aS'low'
p890
aS'unacc'
p891
aa(lp892
S'vhigh'
p893
aS'high'
p894
ag177
ag4
aS'small'
p895
aS'med'
p896
aS'unacc'
p897
aa(lp898
S'vhigh'
p899
aS'high'
p900
ag177
ag4
aS'small'
p901
aS'high'
p902
aS'unacc'
p903
aa(lp904
S'vhigh'
p905
aS'high'
p906
ag177
ag4
aS'med'
p907
aS'low'
p908
aS'unacc'
p909
aa(lp910
S'vhigh'
p911
aS'high'
p912
ag177
ag4
aS'med'
p913
aS'med'
p914
aS'unacc'
p915
aa(lp916
S'vhigh'
p917
aS'high'
p918
ag177
ag4
aS'med'
p919
aS'high'
p920
aS'unacc'
p921
aa(lp922
S'vhigh'
p923
aS'high'
p924
ag177
ag4
aS'big'
p925
aS'low'
p926
aS'unacc'
p927
aa(lp928
S'vhigh'
p929
aS'high'
p930
ag177
ag4
aS'big'
p931
aS'med'
p932
aS'unacc'
p933
aa(lp934
S'vhigh'
p935
aS'high'
p936
ag177
ag4
aS'big'
p937
aS'high'
p938
aS'unacc'
p939
aa(lp940
S'vhigh'
p941
aS'high'
p942
ag177
ag59
aS'small'
p943
aS'low'
p944
aS'unacc'
p945
aa(lp946
S'vhigh'
p947
aS'high'
p948
ag177
ag59
aS'small'
p949
aS'med'
p950
aS'unacc'
p951
aa(lp952
S'vhigh'
p953
aS'high'
p954
ag177
ag59
aS'small'
p955
aS'high'
p956
aS'unacc'
p957
aa(lp958
S'vhigh'
p959
aS'high'
p960
ag177
ag59
aS'med'
p961
aS'low'
p962
aS'unacc'
p963
aa(lp964
S'vhigh'
p965
aS'high'
p966
ag177
ag59
aS'med'
p967
aS'med'
p968
aS'unacc'
p969
aa(lp970
S'vhigh'
p971
aS'high'
p972
ag177
ag59
aS'med'
p973
aS'high'
p974
aS'unacc'
p975
aa(lp976
S'vhigh'
p977
aS'high'
p978
ag177
ag59
aS'big'
p979
aS'low'
p980
aS'unacc'
p981
aa(lp982
S'vhigh'
p983
aS'high'
p984
ag177
ag59
aS'big'
p985
aS'med'
p986
aS'unacc'
p987
aa(lp988
S'vhigh'
p989
aS'high'
p990
ag177
ag59
aS'big'
p991
aS'high'
p992
aS'unacc'
p993
aa(lp994
S'vhigh'
p995
aS'high'
p996
ag177
aS'more'
p997
aS'small'
p998
aS'low'
p999
aS'unacc'
p1000
aa(lp1001
S'vhigh'
p1002
aS'high'
p1003
ag177
aS'more'
p1004
aS'small'
p1005
aS'med'
p1006
aS'unacc'
p1007
aa(lp1008
S'vhigh'
p1009
aS'high'
p1010
ag177
aS'more'
p1011
aS'small'
p1012
aS'high'
p1013
aS'unacc'
p1014
aa(lp1015
S'vhigh'
p1016
aS'high'
p1017
ag177
aS'more'
p1018
aS'med'
p1019
aS'low'
p1020
aS'unacc'
p1021
aa(lp1022
S'vhigh'
p1023
aS'high'
p1024
ag177
aS'more'
p1025
aS'med'
p1026
aS'med'
p1027
aS'unacc'
p1028
aa(lp1029
S'vhigh'
p1030
aS'high'
p1031
ag177
aS'more'
p1032
aS'med'
p1033
aS'high'
p1034
aS'unacc'
p1035
aa(lp1036
S'vhigh'
p1037
aS'high'
p1038
ag177
aS'more'
p1039
aS'big'
p1040
aS'low'
p1041
aS'unacc'
p1042
aa(lp1043
S'vhigh'
p1044
aS'high'
p1045
ag177
aS'more'
p1046
aS'big'
p1047
aS'med'
p1048
aS'unacc'
p1049
aa(lp1050
S'vhigh'
p1051
aS'high'
p1052
ag177
aS'more'
p1053
aS'big'
p1054
aS'high'
p1055
aS'unacc'
p1056
aa(lp1057
S'vhigh'
p1058
aS'high'
p1059
ag59
ag4
aS'small'
p1060
aS'low'
p1061
aS'unacc'
p1062
aa(lp1063
S'vhigh'
p1064
aS'high'
p1065
ag59
ag4
aS'small'
p1066
aS'med'
p1067
aS'unacc'
p1068
aa(lp1069
S'vhigh'
p1070
aS'high'
p1071
ag59
ag4
aS'small'
p1072
aS'high'
p1073
aS'unacc'
p1074
aa(lp1075
S'vhigh'
p1076
aS'high'
p1077
ag59
ag4
aS'med'
p1078
aS'low'
p1079
aS'unacc'
p1080
aa(lp1081
S'vhigh'
p1082
aS'high'
p1083
ag59
ag4
aS'med'
p1084
aS'med'
p1085
aS'unacc'
p1086
aa(lp1087
S'vhigh'
p1088
aS'high'
p1089
ag59
ag4
aS'med'
p1090
aS'high'
p1091
aS'unacc'
p1092
aa(lp1093
S'vhigh'
p1094
aS'high'
p1095
ag59
ag4
aS'big'
p1096
aS'low'
p1097
aS'unacc'
p1098
aa(lp1099
S'vhigh'
p1100
aS'high'
p1101
ag59
ag4
aS'big'
p1102
aS'med'
p1103
aS'unacc'
p1104
aa(lp1105
S'vhigh'
p1106
aS'high'
p1107
ag59
ag4
aS'big'
p1108
aS'high'
p1109
aS'unacc'
p1110
aa(lp1111
S'vhigh'
p1112
aS'high'
p1113
ag59
ag59
aS'small'
p1114
aS'low'
p1115
aS'unacc'
p1116
aa(lp1117
S'vhigh'
p1118
aS'high'
p1119
ag59
ag59
aS'small'
p1120
aS'med'
p1121
aS'unacc'
p1122
aa(lp1123
S'vhigh'
p1124
aS'high'
p1125
ag59
ag59
aS'small'
p1126
aS'high'
p1127
aS'unacc'
p1128
aa(lp1129
S'vhigh'
p1130
aS'high'
p1131
ag59
ag59
aS'med'
p1132
aS'low'
p1133
aS'unacc'
p1134
aa(lp1135
S'vhigh'
p1136
aS'high'
p1137
ag59
ag59
aS'med'
p1138
aS'med'
p1139
aS'unacc'
p1140
aa(lp1141
S'vhigh'
p1142
aS'high'
p1143
ag59
ag59
aS'med'
p1144
aS'high'
p1145
aS'unacc'
p1146
aa(lp1147
S'vhigh'
p1148
aS'high'
p1149
ag59
ag59
aS'big'
p1150
aS'low'
p1151
aS'unacc'
p1152
aa(lp1153
S'vhigh'
p1154
aS'high'
p1155
ag59
ag59
aS'big'
p1156
aS'med'
p1157
aS'unacc'
p1158
aa(lp1159
S'vhigh'
p1160
aS'high'
p1161
ag59
ag59
aS'big'
p1162
aS'high'
p1163
aS'unacc'
p1164
aa(lp1165
S'vhigh'
p1166
aS'high'
p1167
ag59
aS'more'
p1168
aS'small'
p1169
aS'low'
p1170
aS'unacc'
p1171
aa(lp1172
S'vhigh'
p1173
aS'high'
p1174
ag59
aS'more'
p1175
aS'small'
p1176
aS'med'
p1177
aS'unacc'
p1178
aa(lp1179
S'vhigh'
p1180
aS'high'
p1181
ag59
aS'more'
p1182
aS'small'
p1183
aS'high'
p1184
aS'unacc'
p1185
aa(lp1186
S'vhigh'
p1187
aS'high'
p1188
ag59
aS'more'
p1189
aS'med'
p1190
aS'low'
p1191
aS'unacc'
p1192
aa(lp1193
S'vhigh'
p1194
aS'high'
p1195
ag59
aS'more'
p1196
aS'med'
p1197
aS'med'
p1198
aS'unacc'
p1199
aa(lp1200
S'vhigh'
p1201
aS'high'
p1202
ag59
aS'more'
p1203
aS'med'
p1204
aS'high'
p1205
aS'unacc'
p1206
aa(lp1207
S'vhigh'
p1208
aS'high'
p1209
ag59
aS'more'
p1210
aS'big'
p1211
aS'low'
p1212
aS'unacc'
p1213
aa(lp1214
S'vhigh'
p1215
aS'high'
p1216
ag59
aS'more'
p1217
aS'big'
p1218
aS'med'
p1219
aS'unacc'
p1220
aa(lp1221
S'vhigh'
p1222
aS'high'
p1223
ag59
aS'more'
p1224
aS'big'
p1225
aS'high'
p1226
aS'unacc'
p1227
aa(lp1228
S'vhigh'
p1229
aS'high'
p1230
aS'5more'
p1231
ag4
aS'small'
p1232
aS'low'
p1233
aS'unacc'
p1234
aa(lp1235
S'vhigh'
p1236
aS'high'
p1237
aS'5more'
p1238
ag4
aS'small'
p1239
aS'med'
p1240
aS'unacc'
p1241
aa(lp1242
S'vhigh'
p1243
aS'high'
p1244
aS'5more'
p1245
ag4
aS'small'
p1246
aS'high'
p1247
aS'unacc'
p1248
aa(lp1249
S'vhigh'
p1250
aS'high'
p1251
aS'5more'
p1252
ag4
aS'med'
p1253
aS'low'
p1254
aS'unacc'
p1255
aa(lp1256
S'vhigh'
p1257
aS'high'
p1258
aS'5more'
p1259
ag4
aS'med'
p1260
aS'med'
p1261
aS'unacc'
p1262
aa(lp1263
S'vhigh'
p1264
aS'high'
p1265
aS'5more'
p1266
ag4
aS'med'
p1267
aS'high'
p1268
aS'unacc'
p1269
aa(lp1270
S'vhigh'
p1271
aS'high'
p1272
aS'5more'
p1273
ag4
aS'big'
p1274
aS'low'
p1275
aS'unacc'
p1276
aa(lp1277
S'vhigh'
p1278
aS'high'
p1279
aS'5more'
p1280
ag4
aS'big'
p1281
aS'med'
p1282
aS'unacc'
p1283
aa(lp1284
S'vhigh'
p1285
aS'high'
p1286
aS'5more'
p1287
ag4
aS'big'
p1288
aS'high'
p1289
aS'unacc'
p1290
aa(lp1291
S'vhigh'
p1292
aS'high'
p1293
aS'5more'
p1294
ag59
aS'small'
p1295
aS'low'
p1296
aS'unacc'
p1297
aa(lp1298
S'vhigh'
p1299
aS'high'
p1300
aS'5more'
p1301
ag59
aS'small'
p1302
aS'med'
p1303
aS'unacc'
p1304
aa(lp1305
S'vhigh'
p1306
aS'high'
p1307
aS'5more'
p1308
ag59
aS'small'
p1309
aS'high'
p1310
aS'unacc'
p1311
aa(lp1312
S'vhigh'
p1313
aS'high'
p1314
aS'5more'
p1315
ag59
aS'med'
p1316
aS'low'
p1317
aS'unacc'
p1318
aa(lp1319
S'vhigh'
p1320
aS'high'
p1321
aS'5more'
p1322
ag59
aS'med'
p1323
aS'med'
p1324
aS'unacc'
p1325
aa(lp1326
S'vhigh'
p1327
aS'high'
p1328
aS'5more'
p1329
ag59
aS'med'
p1330
aS'high'
p1331
aS'unacc'
p1332
aa(lp1333
S'vhigh'
p1334
aS'high'
p1335
aS'5more'
p1336
ag59
aS'big'
p1337
aS'low'
p1338
aS'unacc'
p1339
aa(lp1340
S'vhigh'
p1341
aS'high'
p1342
aS'5more'
p1343
ag59
aS'big'
p1344
aS'med'
p1345
aS'unacc'
p1346
aa(lp1347
S'vhigh'
p1348
aS'high'
p1349
aS'5more'
p1350
ag59
aS'big'
p1351
aS'high'
p1352
aS'unacc'
p1353
aa(lp1354
S'vhigh'
p1355
aS'high'
p1356
aS'5more'
p1357
aS'more'
p1358
aS'small'
p1359
aS'low'
p1360
aS'unacc'
p1361
aa(lp1362
S'vhigh'
p1363
aS'high'
p1364
aS'5more'
p1365
aS'more'
p1366
aS'small'
p1367
aS'med'
p1368
aS'unacc'
p1369
aa(lp1370
S'vhigh'
p1371
aS'high'
p1372
aS'5more'
p1373
aS'more'
p1374
aS'small'
p1375
aS'high'
p1376
aS'unacc'
p1377
aa(lp1378
S'vhigh'
p1379
aS'high'
p1380
aS'5more'
p1381
aS'more'
p1382
aS'med'
p1383
aS'low'
p1384
aS'unacc'
p1385
aa(lp1386
S'vhigh'
p1387
aS'high'
p1388
aS'5more'
p1389
aS'more'
p1390
aS'med'
p1391
aS'med'
p1392
aS'unacc'
p1393
aa(lp1394
S'vhigh'
p1395
aS'high'
p1396
aS'5more'
p1397
aS'more'
p1398
aS'med'
p1399
aS'high'
p1400
aS'unacc'
p1401
aa(lp1402
S'vhigh'
p1403
aS'high'
p1404
aS'5more'
p1405
aS'more'
p1406
aS'big'
p1407
aS'low'
p1408
aS'unacc'
p1409
aa(lp1410
S'vhigh'
p1411
aS'high'
p1412
aS'5more'
p1413
aS'more'
p1414
aS'big'
p1415
aS'med'
p1416
aS'unacc'
p1417
aa(lp1418
S'vhigh'
p1419
aS'high'
p1420
aS'5more'
p1421
aS'more'
p1422
aS'big'
p1423
aS'high'
p1424
aS'unacc'
p1425
aa(lp1426
S'vhigh'
p1427
aS'med'
p1428
ag4
ag4
aS'small'
p1429
aS'low'
p1430
aS'unacc'
p1431
aa(lp1432
S'vhigh'
p1433
aS'med'
p1434
ag4
ag4
aS'small'
p1435
aS'med'
p1436
aS'unacc'
p1437
aa(lp1438
S'vhigh'
p1439
aS'med'
p1440
ag4
ag4
aS'small'
p1441
aS'high'
p1442
aS'unacc'
p1443
aa(lp1444
S'vhigh'
p1445
aS'med'
p1446
ag4
ag4
aS'med'
p1447
aS'low'
p1448
aS'unacc'
p1449
aa(lp1450
S'vhigh'
p1451
aS'med'
p1452
ag4
ag4
aS'med'
p1453
aS'med'
p1454
aS'unacc'
p1455
aa(lp1456
S'vhigh'
p1457
aS'med'
p1458
ag4
ag4
aS'med'
p1459
aS'high'
p1460
aS'unacc'
p1461
aa(lp1462
S'vhigh'
p1463
aS'med'
p1464
ag4
ag4
aS'big'
p1465
aS'low'
p1466
aS'unacc'
p1467
aa(lp1468
S'vhigh'
p1469
aS'med'
p1470
ag4
ag4
aS'big'
p1471
aS'med'
p1472
aS'unacc'
p1473
aa(lp1474
S'vhigh'
p1475
aS'med'
p1476
ag4
ag4
aS'big'
p1477
aS'high'
p1478
aS'unacc'
p1479
aa(lp1480
S'vhigh'
p1481
aS'med'
p1482
ag4
ag59
aS'small'
p1483
aS'low'
p1484
aS'unacc'
p1485
aa(lp1486
S'vhigh'
p1487
aS'med'
p1488
ag4
ag59
aS'small'
p1489
aS'med'
p1490
aS'unacc'
p1491
aa(lp1492
S'vhigh'
p1493
aS'med'
p1494
ag4
ag59
aS'small'
p1495
aS'high'
p1496
aS'acc'
p1497
aa(lp1498
S'vhigh'
p1499
aS'med'
p1500
ag4
ag59
aS'med'
p1501
aS'low'
p1502
aS'unacc'
p1503
aa(lp1504
S'vhigh'
p1505
aS'med'
p1506
ag4
ag59
aS'med'
p1507
aS'med'
p1508
aS'unacc'
p1509
aa(lp1510
S'vhigh'
p1511
aS'med'
p1512
ag4
ag59
aS'med'
p1513
aS'high'
p1514
aS'acc'
p1515
aa(lp1516
S'vhigh'
p1517
aS'med'
p1518
ag4
ag59
aS'big'
p1519
aS'low'
p1520
aS'unacc'
p1521
aa(lp1522
S'vhigh'
p1523
aS'med'
p1524
ag4
ag59
aS'big'
p1525
aS'med'
p1526
aS'acc'
p1527
aa(lp1528
S'vhigh'
p1529
aS'med'
p1530
ag4
ag59
aS'big'
p1531
aS'high'
p1532
aS'acc'
p1533
aa(lp1534
S'vhigh'
p1535
aS'med'
p1536
ag4
aS'more'
p1537
aS'small'
p1538
aS'low'
p1539
aS'unacc'
p1540
aa(lp1541
S'vhigh'
p1542
aS'med'
p1543
ag4
aS'more'
p1544
aS'small'
p1545
aS'med'
p1546
aS'unacc'
p1547
aa(lp1548
S'vhigh'
p1549
aS'med'
p1550
ag4
aS'more'
p1551
aS'small'
p1552
aS'high'
p1553
aS'unacc'
p1554
aa(lp1555
S'vhigh'
p1556
aS'med'
p1557
ag4
aS'more'
p1558
aS'med'
p1559
aS'low'
p1560
aS'unacc'
p1561
aa(lp1562
S'vhigh'
p1563
aS'med'
p1564
ag4
aS'more'
p1565
aS'med'
p1566
aS'med'
p1567
aS'unacc'
p1568
aa(lp1569
S'vhigh'
p1570
aS'med'
p1571
ag4
aS'more'
p1572
aS'med'
p1573
aS'high'
p1574
aS'acc'
p1575
aa(lp1576
S'vhigh'
p1577
aS'med'
p1578
ag4
aS'more'
p1579
aS'big'
p1580
aS'low'
p1581
aS'unacc'
p1582
aa(lp1583
S'vhigh'
p1584
aS'med'
p1585
ag4
aS'more'
p1586
aS'big'
p1587
aS'med'
p1588
aS'acc'
p1589
aa(lp1590
S'vhigh'
p1591
aS'med'
p1592
ag4
aS'more'
p1593
aS'big'
p1594
aS'high'
p1595
aS'acc'
p1596
aa(lp1597
S'vhigh'
p1598
aS'med'
p1599
ag177
ag4
aS'small'
p1600
aS'low'
p1601
aS'unacc'
p1602
aa(lp1603
S'vhigh'
p1604
aS'med'
p1605
ag177
ag4
aS'small'
p1606
aS'med'
p1607
aS'unacc'
p1608
aa(lp1609
S'vhigh'
p1610
aS'med'
p1611
ag177
ag4
aS'small'
p1612
aS'high'
p1613
aS'unacc'
p1614
aa(lp1615
S'vhigh'
p1616
aS'med'
p1617
ag177
ag4
aS'med'
p1618
aS'low'
p1619
aS'unacc'
p1620
aa(lp1621
S'vhigh'
p1622
aS'med'
p1623
ag177
ag4
aS'med'
p1624
aS'med'
p1625
aS'unacc'
p1626
aa(lp1627
S'vhigh'
p1628
aS'med'
p1629
ag177
ag4
aS'med'
p1630
aS'high'
p1631
aS'unacc'
p1632
aa(lp1633
S'vhigh'
p1634
aS'med'
p1635
ag177
ag4
aS'big'
p1636
aS'low'
p1637
aS'unacc'
p1638
aa(lp1639
S'vhigh'
p1640
aS'med'
p1641
ag177
ag4
aS'big'
p1642
aS'med'
p1643
aS'unacc'
p1644
aa(lp1645
S'vhigh'
p1646
aS'med'
p1647
ag177
ag4
aS'big'
p1648
aS'high'
p1649
aS'unacc'
p1650
aa(lp1651
S'vhigh'
p1652
aS'med'
p1653
ag177
ag59
aS'small'
p1654
aS'low'
p1655
aS'unacc'
p1656
aa(lp1657
S'vhigh'
p1658
aS'med'
p1659
ag177
ag59
aS'small'
p1660
aS'med'
p1661
aS'unacc'
p1662
aa(lp1663
S'vhigh'
p1664
aS'med'
p1665
ag177
ag59
aS'small'
p1666
aS'high'
p1667
aS'acc'
p1668
aa(lp1669
S'vhigh'
p1670
aS'med'
p1671
ag177
ag59
aS'med'
p1672
aS'low'
p1673
aS'unacc'
p1674
aa(lp1675
S'vhigh'
p1676
aS'med'
p1677
ag177
ag59
aS'med'
p1678
aS'med'
p1679
aS'unacc'
p1680
aa(lp1681
S'vhigh'
p1682
aS'med'
p1683
ag177
ag59
aS'med'
p1684
aS'high'
p1685
aS'acc'
p1686
aa(lp1687
S'vhigh'
p1688
aS'med'
p1689
ag177
ag59
aS'big'
p1690
aS'low'
p1691
aS'unacc'
p1692
aa(lp1693
S'vhigh'
p1694
aS'med'
p1695
ag177
ag59
aS'big'
p1696
aS'med'
p1697
aS'acc'
p1698
aa(lp1699
S'vhigh'
p1700
aS'med'
p1701
ag177
ag59
aS'big'
p1702
aS'high'
p1703
aS'acc'
p1704
aa(lp1705
S'vhigh'
p1706
aS'med'
p1707
ag177
aS'more'
p1708
aS'small'
p1709
aS'low'
p1710
aS'unacc'
p1711
aa(lp1712
S'vhigh'
p1713
aS'med'
p1714
ag177
aS'more'
p1715
aS'small'
p1716
aS'med'
p1717
aS'unacc'
p1718
aa(lp1719
S'vhigh'
p1720
aS'med'
p1721
ag177
aS'more'
p1722
aS'small'
p1723
aS'high'
p1724
aS'acc'
p1725
aa(lp1726
S'vhigh'
p1727
aS'med'
p1728
ag177
aS'more'
p1729
aS'med'
p1730
aS'low'
p1731
aS'unacc'
p1732
aa(lp1733
S'vhigh'
p1734
aS'med'
p1735
ag177
aS'more'
p1736
aS'med'
p1737
aS'med'
p1738
aS'acc'
p1739
aa(lp1740
S'vhigh'
p1741
aS'med'
p1742
ag177
aS'more'
p1743
aS'med'
p1744
aS'high'
p1745
aS'acc'
p1746
aa(lp1747
S'vhigh'
p1748
aS'med'
p1749
ag177
aS'more'
p1750
aS'big'
p1751
aS'low'
p1752
aS'unacc'
p1753
aa(lp1754
S'vhigh'
p1755
aS'med'
p1756
ag177
aS'more'
p1757
aS'big'
p1758
aS'med'
p1759
aS'acc'
p1760
aa(lp1761
S'vhigh'
p1762
aS'med'
p1763
ag177
aS'more'
p1764
aS'big'
p1765
aS'high'
p1766
aS'acc'
p1767
aa(lp1768
S'vhigh'
p1769
aS'med'
p1770
ag59
ag4
aS'small'
p1771
aS'low'
p1772
aS'unacc'
p1773
aa(lp1774
S'vhigh'
p1775
aS'med'
p1776
ag59
ag4
aS'small'
p1777
aS'med'
p1778
aS'unacc'
p1779
aa(lp1780
S'vhigh'
p1781
aS'med'
p1782
ag59
ag4
aS'small'
p1783
aS'high'
p1784
aS'unacc'
p1785
aa(lp1786
S'vhigh'
p1787
aS'med'
p1788
ag59
ag4
aS'med'
p1789
aS'low'
p1790
aS'unacc'
p1791
aa(lp1792
S'vhigh'
p1793
aS'med'
p1794
ag59
ag4
aS'med'
p1795
aS'med'
p1796
aS'unacc'
p1797
aa(lp1798
S'vhigh'
p1799
aS'med'
p1800
ag59
ag4
aS'med'
p1801
aS'high'
p1802
aS'unacc'
p1803
aa(lp1804
S'vhigh'
p1805
aS'med'
p1806
ag59
ag4
aS'big'
p1807
aS'low'
p1808
aS'unacc'
p1809
aa(lp1810
S'vhigh'
p1811
aS'med'
p1812
ag59
ag4
aS'big'
p1813
aS'med'
p1814
aS'unacc'
p1815
aa(lp1816
S'vhigh'
p1817
aS'med'
p1818
ag59
ag4
aS'big'
p1819
aS'high'
p1820
aS'unacc'
p1821
aa(lp1822
S'vhigh'
p1823
aS'med'
p1824
ag59
ag59
aS'small'
p1825
aS'low'
p1826
aS'unacc'
p1827
aa(lp1828
S'vhigh'
p1829
aS'med'
p1830
ag59
ag59
aS'small'
p1831
aS'med'
p1832
aS'unacc'
p1833
aa(lp1834
S'vhigh'
p1835
aS'med'
p1836
ag59
ag59
aS'small'
p1837
aS'high'
p1838
aS'acc'
p1839
aa(lp1840
S'vhigh'
p1841
aS'med'
p1842
ag59
ag59
aS'med'
p1843
aS'low'
p1844
aS'unacc'
p1845
aa(lp1846
S'vhigh'
p1847
aS'med'
p1848
ag59
ag59
aS'med'
p1849
aS'med'
p1850
aS'acc'
p1851
aa(lp1852
S'vhigh'
p1853
aS'med'
p1854
ag59
ag59
aS'med'
p1855
aS'high'
p1856
aS'acc'
p1857
aa(lp1858
S'vhigh'
p1859
aS'med'
p1860
ag59
ag59
aS'big'
p1861
aS'low'
p1862
aS'unacc'
p1863
aa(lp1864
S'vhigh'
p1865
aS'med'
p1866
ag59
ag59
aS'big'
p1867
aS'med'
p1868
aS'acc'
p1869
aa(lp1870
S'vhigh'
p1871
aS'med'
p1872
ag59
ag59
aS'big'
p1873
aS'high'
p1874
aS'acc'
p1875
aa(lp1876
S'vhigh'
p1877
aS'med'
p1878
ag59
aS'more'
p1879
aS'small'
p1880
aS'low'
p1881
aS'unacc'
p1882
aa(lp1883
S'vhigh'
p1884
aS'med'
p1885
ag59
aS'more'
p1886
aS'small'
p1887
aS'med'
p1888
aS'unacc'
p1889
aa(lp1890
S'vhigh'
p1891
aS'med'
p1892
ag59
aS'more'
p1893
aS'small'
p1894
aS'high'
p1895
aS'acc'
p1896
aa(lp1897
S'vhigh'
p1898
aS'med'
p1899
ag59
aS'more'
p1900
aS'med'
p1901
aS'low'
p1902
aS'unacc'
p1903
aa(lp1904
S'vhigh'
p1905
aS'med'
p1906
ag59
aS'more'
p1907
aS'med'
p1908
aS'med'
p1909
aS'acc'
p1910
aa(lp1911
S'vhigh'
p1912
aS'med'
p1913
ag59
aS'more'
p1914
aS'med'
p1915
aS'high'
p1916
aS'acc'
p1917
aa(lp1918
S'vhigh'
p1919
aS'med'
p1920
ag59
aS'more'
p1921
aS'big'
p1922
aS'low'
p1923
aS'unacc'
p1924
aa(lp1925
S'vhigh'
p1926
aS'med'
p1927
ag59
aS'more'
p1928
aS'big'
p1929
aS'med'
p1930
aS'acc'
p1931
aa(lp1932
S'vhigh'
p1933
aS'med'
p1934
ag59
aS'more'
p1935
aS'big'
p1936
aS'high'
p1937
aS'acc'
p1938
aa(lp1939
S'vhigh'
p1940
aS'med'
p1941
aS'5more'
p1942
ag4
aS'small'
p1943
aS'low'
p1944
aS'unacc'
p1945
aa(lp1946
S'vhigh'
p1947
aS'med'
p1948
aS'5more'
p1949
ag4
aS'small'
p1950
aS'med'
p1951
aS'unacc'
p1952
aa(lp1953
S'vhigh'
p1954
aS'med'
p1955
aS'5more'
p1956
ag4
aS'small'
p1957
aS'high'
p1958
aS'unacc'
p1959
aa(lp1960
S'vhigh'
p1961
aS'med'
p1962
aS'5more'
p1963
ag4
aS'med'
p1964
aS'low'
p1965
aS'unacc'
p1966
aa(lp1967
S'vhigh'
p1968
aS'med'
p1969
aS'5more'
p1970
ag4
aS'med'
p1971
aS'med'
p1972
aS'unacc'
p1973
aa(lp1974
S'vhigh'
p1975
aS'med'
p1976
aS'5more'
p1977
ag4
aS'med'
p1978
aS'high'
p1979
aS'unacc'
p1980
aa(lp1981
S'vhigh'
p1982
aS'med'
p1983
aS'5more'
p1984
ag4
aS'big'
p1985
aS'low'
p1986
aS'unacc'
p1987
aa(lp1988
S'vhigh'
p1989
aS'med'
p1990
aS'5more'
p1991
ag4
aS'big'
p1992
aS'med'
p1993
aS'unacc'
p1994
aa(lp1995
S'vhigh'
p1996
aS'med'
p1997
aS'5more'
p1998
ag4
aS'big'
p1999
aS'high'
p2000
aS'unacc'
p2001
aa(lp2002
S'vhigh'
p2003
aS'med'
p2004
aS'5more'
p2005
ag59
aS'small'
p2006
aS'low'
p2007
aS'unacc'
p2008
aa(lp2009
S'vhigh'
p2010
aS'med'
p2011
aS'5more'
p2012
ag59
aS'small'
p2013
aS'med'
p2014
aS'unacc'
p2015
aa(lp2016
S'vhigh'
p2017
aS'med'
p2018
aS'5more'
p2019
ag59
aS'small'
p2020
aS'high'
p2021
aS'acc'
p2022
aa(lp2023
S'vhigh'
p2024
aS'med'
p2025
aS'5more'
p2026
ag59
aS'med'
p2027
aS'low'
p2028
aS'unacc'
p2029
aa(lp2030
S'vhigh'
p2031
aS'med'
p2032
aS'5more'
p2033
ag59
aS'med'
p2034
aS'med'
p2035
aS'acc'
p2036
aa(lp2037
S'vhigh'
p2038
aS'med'
p2039
aS'5more'
p2040
ag59
aS'med'
p2041
aS'high'
p2042
aS'acc'
p2043
aa(lp2044
S'vhigh'
p2045
aS'med'
p2046
aS'5more'
p2047
ag59
aS'big'
p2048
aS'low'
p2049
aS'unacc'
p2050
aa(lp2051
S'vhigh'
p2052
aS'med'
p2053
aS'5more'
p2054
ag59
aS'big'
p2055
aS'med'
p2056
aS'acc'
p2057
aa(lp2058
S'vhigh'
p2059
aS'med'
p2060
aS'5more'
p2061
ag59
aS'big'
p2062
aS'high'
p2063
aS'acc'
p2064
aa(lp2065
S'vhigh'
p2066
aS'med'
p2067
aS'5more'
p2068
aS'more'
p2069
aS'small'
p2070
aS'low'
p2071
aS'unacc'
p2072
aa(lp2073
S'vhigh'
p2074
aS'med'
p2075
aS'5more'
p2076
aS'more'
p2077
aS'small'
p2078
aS'med'
p2079
aS'unacc'
p2080
aa(lp2081
S'vhigh'
p2082
aS'med'
p2083
aS'5more'
p2084
aS'more'
p2085
aS'small'
p2086
aS'high'
p2087
aS'acc'
p2088
aa(lp2089
S'vhigh'
p2090
aS'med'
p2091
aS'5more'
p2092
aS'more'
p2093
aS'med'
p2094
aS'low'
p2095
aS'unacc'
p2096
aa(lp2097
S'vhigh'
p2098
aS'med'
p2099
aS'5more'
p2100
aS'more'
p2101
aS'med'
p2102
aS'med'
p2103
aS'acc'
p2104
aa(lp2105
S'vhigh'
p2106
aS'med'
p2107
aS'5more'
p2108
aS'more'
p2109
aS'med'
p2110
aS'high'
p2111
aS'acc'
p2112
aa(lp2113
S'vhigh'
p2114
aS'med'
p2115
aS'5more'
p2116
aS'more'
p2117
aS'big'
p2118
aS'low'
p2119
aS'unacc'
p2120
aa(lp2121
S'vhigh'
p2122
aS'med'
p2123
aS'5more'
p2124
aS'more'
p2125
aS'big'
p2126
aS'med'
p2127
aS'acc'
p2128
aa(lp2129
S'vhigh'
p2130
aS'med'
p2131
aS'5more'
p2132
aS'more'
p2133
aS'big'
p2134
aS'high'
p2135
aS'acc'
p2136
aa(lp2137
S'vhigh'
p2138
aS'low'
p2139
ag4
ag4
aS'small'
p2140
aS'low'
p2141
aS'unacc'
p2142
aa(lp2143
S'vhigh'
p2144
aS'low'
p2145
ag4
ag4
aS'small'
p2146
aS'med'
p2147
aS'unacc'
p2148
aa(lp2149
S'vhigh'
p2150
aS'low'
p2151
ag4
ag4
aS'small'
p2152
aS'high'
p2153
aS'unacc'
p2154
aa(lp2155
S'vhigh'
p2156
aS'low'
p2157
ag4
ag4
aS'med'
p2158
aS'low'
p2159
aS'unacc'
p2160
aa(lp2161
S'vhigh'
p2162
aS'low'
p2163
ag4
ag4
aS'med'
p2164
aS'med'
p2165
aS'unacc'
p2166
aa(lp2167
S'vhigh'
p2168
aS'low'
p2169
ag4
ag4
aS'med'
p2170
aS'high'
p2171
aS'unacc'
p2172
aa(lp2173
S'vhigh'
p2174
aS'low'
p2175
ag4
ag4
aS'big'
p2176
aS'low'
p2177
aS'unacc'
p2178
aa(lp2179
S'vhigh'
p2180
aS'low'
p2181
ag4
ag4
aS'big'
p2182
aS'med'
p2183
aS'unacc'
p2184
aa(lp2185
S'vhigh'
p2186
aS'low'
p2187
ag4
ag4
aS'big'
p2188
aS'high'
p2189
aS'unacc'
p2190
aa(lp2191
S'vhigh'
p2192
aS'low'
p2193
ag4
ag59
aS'small'
p2194
aS'low'
p2195
aS'unacc'
p2196
aa(lp2197
S'vhigh'
p2198
aS'low'
p2199
ag4
ag59
aS'small'
p2200
aS'med'
p2201
aS'unacc'
p2202
aa(lp2203
S'vhigh'
p2204
aS'low'
p2205
ag4
ag59
aS'small'
p2206
aS'high'
p2207
aS'acc'
p2208
aa(lp2209
S'vhigh'
p2210
aS'low'
p2211
ag4
ag59
aS'med'
p2212
aS'low'
p2213
aS'unacc'
p2214
aa(lp2215
S'vhigh'
p2216
aS'low'
p2217
ag4
ag59
aS'med'
p2218
aS'med'
p2219
aS'unacc'
p2220
aa(lp2221
S'vhigh'
p2222
aS'low'
p2223
ag4
ag59
aS'med'
p2224
aS'high'
p2225
aS'acc'
p2226
aa(lp2227
S'vhigh'
p2228
aS'low'
p2229
ag4
ag59
aS'big'
p2230
aS'low'
p2231
aS'unacc'
p2232
aa(lp2233
S'vhigh'
p2234
aS'low'
p2235
ag4
ag59
aS'big'
p2236
aS'med'
p2237
aS'acc'
p2238
aa(lp2239
S'vhigh'
p2240
aS'low'
p2241
ag4
ag59
aS'big'
p2242
aS'high'
p2243
aS'acc'
p2244
aa(lp2245
S'vhigh'
p2246
aS'low'
p2247
ag4
aS'more'
p2248
aS'small'
p2249
aS'low'
p2250
aS'unacc'
p2251
aa(lp2252
S'vhigh'
p2253
aS'low'
p2254
ag4
aS'more'
p2255
aS'small'
p2256
aS'med'
p2257
aS'unacc'
p2258
aa(lp2259
S'vhigh'
p2260
aS'low'
p2261
ag4
aS'more'
p2262
aS'small'
p2263
aS'high'
p2264
aS'unacc'
p2265
aa(lp2266
S'vhigh'
p2267
aS'low'
p2268
ag4
aS'more'
p2269
aS'med'
p2270
aS'low'
p2271
aS'unacc'
p2272
aa(lp2273
S'vhigh'
p2274
aS'low'
p2275
ag4
aS'more'
p2276
aS'med'
p2277
aS'med'
p2278
aS'unacc'
p2279
aa(lp2280
S'vhigh'
p2281
aS'low'
p2282
ag4
aS'more'
p2283
aS'med'
p2284
aS'high'
p2285
aS'acc'
p2286
aa(lp2287
S'vhigh'
p2288
aS'low'
p2289
ag4
aS'more'
p2290
aS'big'
p2291
aS'low'
p2292
aS'unacc'
p2293
aa(lp2294
S'vhigh'
p2295
aS'low'
p2296
ag4
aS'more'
p2297
aS'big'
p2298
aS'med'
p2299
aS'acc'
p2300
aa(lp2301
S'vhigh'
p2302
aS'low'
p2303
ag4
aS'more'
p2304
aS'big'
p2305
aS'high'
p2306
aS'acc'
p2307
aa(lp2308
S'vhigh'
p2309
aS'low'
p2310
ag177
ag4
aS'small'
p2311
aS'low'
p2312
aS'unacc'
p2313
aa(lp2314
S'vhigh'
p2315
aS'low'
p2316
ag177
ag4
aS'small'
p2317
aS'med'
p2318
aS'unacc'
p2319
aa(lp2320
S'vhigh'
p2321
aS'low'
p2322
ag177
ag4
aS'small'
p2323
aS'high'
p2324
aS'unacc'
p2325
aa(lp2326
S'vhigh'
p2327
aS'low'
p2328
ag177
ag4
aS'med'
p2329
aS'low'
p2330
aS'unacc'
p2331
aa(lp2332
S'vhigh'
p2333
aS'low'
p2334
ag177
ag4
aS'med'
p2335
aS'med'
p2336
aS'unacc'
p2337
aa(lp2338
S'vhigh'
p2339
aS'low'
p2340
ag177
ag4
aS'med'
p2341
aS'high'
p2342
aS'unacc'
p2343
aa(lp2344
S'vhigh'
p2345
aS'low'
p2346
ag177
ag4
aS'big'
p2347
aS'low'
p2348
aS'unacc'
p2349
aa(lp2350
S'vhigh'
p2351
aS'low'
p2352
ag177
ag4
aS'big'
p2353
aS'med'
p2354
aS'unacc'
p2355
aa(lp2356
S'vhigh'
p2357
aS'low'
p2358
ag177
ag4
aS'big'
p2359
aS'high'
p2360
aS'unacc'
p2361
aa(lp2362
S'vhigh'
p2363
aS'low'
p2364
ag177
ag59
aS'small'
p2365
aS'low'
p2366
aS'unacc'
p2367
aa(lp2368
S'vhigh'
p2369
aS'low'
p2370
ag177
ag59
aS'small'
p2371
aS'med'
p2372
aS'unacc'
p2373
aa(lp2374
S'vhigh'
p2375
aS'low'
p2376
ag177
ag59
aS'small'
p2377
aS'high'
p2378
aS'acc'
p2379
aa(lp2380
S'vhigh'
p2381
aS'low'
p2382
ag177
ag59
aS'med'
p2383
aS'low'
p2384
aS'unacc'
p2385
aa(lp2386
S'vhigh'
p2387
aS'low'
p2388
ag177
ag59
aS'med'
p2389
aS'med'
p2390
aS'unacc'
p2391
aa(lp2392
S'vhigh'
p2393
aS'low'
p2394
ag177
ag59
aS'med'
p2395
aS'high'
p2396
aS'acc'
p2397
aa(lp2398
S'vhigh'
p2399
aS'low'
p2400
ag177
ag59
aS'big'
p2401
aS'low'
p2402
aS'unacc'
p2403
aa(lp2404
S'vhigh'
p2405
aS'low'
p2406
ag177
ag59
aS'big'
p2407
aS'med'
p2408
aS'acc'
p2409
aa(lp2410
S'vhigh'
p2411
aS'low'
p2412
ag177
ag59
aS'big'
p2413
aS'high'
p2414
aS'acc'
p2415
aa(lp2416
S'vhigh'
p2417
aS'low'
p2418
ag177
aS'more'
p2419
aS'small'
p2420
aS'low'
p2421
aS'unacc'
p2422
aa(lp2423
S'vhigh'
p2424
aS'low'
p2425
ag177
aS'more'
p2426
aS'small'
p2427
aS'med'
p2428
aS'unacc'
p2429
aa(lp2430
S'vhigh'
p2431
aS'low'
p2432
ag177
aS'more'
p2433
aS'small'
p2434
aS'high'
p2435
aS'acc'
p2436
aa(lp2437
S'vhigh'
p2438
aS'low'
p2439
ag177
aS'more'
p2440
aS'med'
p2441
aS'low'
p2442
aS'unacc'
p2443
aa(lp2444
S'vhigh'
p2445
aS'low'
p2446
ag177
aS'more'
p2447
aS'med'
p2448
aS'med'
p2449
aS'acc'
p2450
aa(lp2451
S'vhigh'
p2452
aS'low'
p2453
ag177
aS'more'
p2454
aS'med'
p2455
aS'high'
p2456
aS'acc'
p2457
aa(lp2458
S'vhigh'
p2459
aS'low'
p2460
ag177
aS'more'
p2461
aS'big'
p2462
aS'low'
p2463
aS'unacc'
p2464
aa(lp2465
S'vhigh'
p2466
aS'low'
p2467
ag177
aS'more'
p2468
aS'big'
p2469
aS'med'
p2470
aS'acc'
p2471
aa(lp2472
S'vhigh'
p2473
aS'low'
p2474
ag177
aS'more'
p2475
aS'big'
p2476
aS'high'
p2477
aS'acc'
p2478
aa(lp2479
S'vhigh'
p2480
aS'low'
p2481
ag59
ag4
aS'small'
p2482
aS'low'
p2483
aS'unacc'
p2484
aa(lp2485
S'vhigh'
p2486
aS'low'
p2487
ag59
ag4
aS'small'
p2488
aS'med'
p2489
aS'unacc'
p2490
aa(lp2491
S'vhigh'
p2492
aS'low'
p2493
ag59
ag4
aS'small'
p2494
aS'high'
p2495
aS'unacc'
p2496
aa(lp2497
S'vhigh'
p2498
aS'low'
p2499
ag59
ag4
aS'med'
p2500
aS'low'
p2501
aS'unacc'
p2502
aa(lp2503
S'vhigh'
p2504
aS'low'
p2505
ag59
ag4
aS'med'
p2506
aS'med'
p2507
aS'unacc'
p2508
aa(lp2509
S'vhigh'
p2510
aS'low'
p2511
ag59
ag4
aS'med'
p2512
aS'high'
p2513
aS'unacc'
p2514
aa(lp2515
S'vhigh'
p2516
aS'low'
p2517
ag59
ag4
aS'big'
p2518
aS'low'
p2519
aS'unacc'
p2520
aa(lp2521
S'vhigh'
p2522
aS'low'
p2523
ag59
ag4
aS'big'
p2524
aS'med'
p2525
aS'unacc'
p2526
aa(lp2527
S'vhigh'
p2528
aS'low'
p2529
ag59
ag4
aS'big'
p2530
aS'high'
p2531
aS'unacc'
p2532
aa(lp2533
S'vhigh'
p2534
aS'low'
p2535
ag59
ag59
aS'small'
p2536
aS'low'
p2537
aS'unacc'
p2538
aa(lp2539
S'vhigh'
p2540
aS'low'
p2541
ag59
ag59
aS'small'
p2542
aS'med'
p2543
aS'unacc'
p2544
aa(lp2545
S'vhigh'
p2546
aS'low'
p2547
ag59
ag59
aS'small'
p2548
aS'high'
p2549
aS'acc'
p2550
aa(lp2551
S'vhigh'
p2552
aS'low'
p2553
ag59
ag59
aS'med'
p2554
aS'low'
p2555
aS'unacc'
p2556
aa(lp2557
S'vhigh'
p2558
aS'low'
p2559
ag59
ag59
aS'med'
p2560
aS'med'
p2561
aS'acc'
p2562
aa(lp2563
S'vhigh'
p2564
aS'low'
p2565
ag59
ag59
aS'med'
p2566
aS'high'
p2567
aS'acc'
p2568
aa(lp2569
S'vhigh'
p2570
aS'low'
p2571
ag59
ag59
aS'big'
p2572
aS'low'
p2573
aS'unacc'
p2574
aa(lp2575
S'vhigh'
p2576
aS'low'
p2577
ag59
ag59
aS'big'
p2578
aS'med'
p2579
aS'acc'
p2580
aa(lp2581
S'vhigh'
p2582
aS'low'
p2583
ag59
ag59
aS'big'
p2584
aS'high'
p2585
aS'acc'
p2586
aa(lp2587
S'vhigh'
p2588
aS'low'
p2589
ag59
aS'more'
p2590
aS'small'
p2591
aS'low'
p2592
aS'unacc'
p2593
aa(lp2594
S'vhigh'
p2595
aS'low'
p2596
ag59
aS'more'
p2597
aS'small'
p2598
aS'med'
p2599
aS'unacc'
p2600
aa(lp2601
S'vhigh'
p2602
aS'low'
p2603
ag59
aS'more'
p2604
aS'small'
p2605
aS'high'
p2606
aS'acc'
p2607
aa(lp2608
S'vhigh'
p2609
aS'low'
p2610
ag59
aS'more'
p2611
aS'med'
p2612
aS'low'
p2613
aS'unacc'
p2614
aa(lp2615
S'vhigh'
p2616
aS'low'
p2617
ag59
aS'more'
p2618
aS'med'
p2619
aS'med'
p2620
aS'acc'
p2621
aa(lp2622
S'vhigh'
p2623
aS'low'
p2624
ag59
aS'more'
p2625
aS'med'
p2626
aS'high'
p2627
aS'acc'
p2628
aa(lp2629
S'vhigh'
p2630
aS'low'
p2631
ag59
aS'more'
p2632
aS'big'
p2633
aS'low'
p2634
aS'unacc'
p2635
aa(lp2636
S'vhigh'
p2637
aS'low'
p2638
ag59
aS'more'
p2639
aS'big'
p2640
aS'med'
p2641
aS'acc'
p2642
aa(lp2643
S'vhigh'
p2644
aS'low'
p2645
ag59
aS'more'
p2646
aS'big'
p2647
aS'high'
p2648
aS'acc'
p2649
aa(lp2650
S'vhigh'
p2651
aS'low'
p2652
aS'5more'
p2653
ag4
aS'small'
p2654
aS'low'
p2655
aS'unacc'
p2656
aa(lp2657
S'vhigh'
p2658
aS'low'
p2659
aS'5more'
p2660
ag4
aS'small'
p2661
aS'med'
p2662
aS'unacc'
p2663
aa(lp2664
S'vhigh'
p2665
aS'low'
p2666
aS'5more'
p2667
ag4
aS'small'
p2668
aS'high'
p2669
aS'unacc'
p2670
aa(lp2671
S'vhigh'
p2672
aS'low'
p2673
aS'5more'
p2674
ag4
aS'med'
p2675
aS'low'
p2676
aS'unacc'
p2677
aa(lp2678
S'vhigh'
p2679
aS'low'
p2680
aS'5more'
p2681
ag4
aS'med'
p2682
aS'med'
p2683
aS'unacc'
p2684
aa(lp2685
S'vhigh'
p2686
aS'low'
p2687
aS'5more'
p2688
ag4
aS'med'
p2689
aS'high'
p2690
aS'unacc'
p2691
aa(lp2692
S'vhigh'
p2693
aS'low'
p2694
aS'5more'
p2695
ag4
aS'big'
p2696
aS'low'
p2697
aS'unacc'
p2698
aa(lp2699
S'vhigh'
p2700
aS'low'
p2701
aS'5more'
p2702
ag4
aS'big'
p2703
aS'med'
p2704
aS'unacc'
p2705
aa(lp2706
S'vhigh'
p2707
aS'low'
p2708
aS'5more'
p2709
ag4
aS'big'
p2710
aS'high'
p2711
aS'unacc'
p2712
aa(lp2713
S'vhigh'
p2714
aS'low'
p2715
aS'5more'
p2716
ag59
aS'small'
p2717
aS'low'
p2718
aS'unacc'
p2719
aa(lp2720
S'vhigh'
p2721
aS'low'
p2722
aS'5more'
p2723
ag59
aS'small'
p2724
aS'med'
p2725
aS'unacc'
p2726
aa(lp2727
S'vhigh'
p2728
aS'low'
p2729
aS'5more'
p2730
ag59
aS'small'
p2731
aS'high'
p2732
aS'acc'
p2733
aa(lp2734
S'vhigh'
p2735
aS'low'
p2736
aS'5more'
p2737
ag59
aS'med'
p2738
aS'low'
p2739
aS'unacc'
p2740
aa(lp2741
S'vhigh'
p2742
aS'low'
p2743
aS'5more'
p2744
ag59
aS'med'
p2745
aS'med'
p2746
aS'acc'
p2747
aa(lp2748
S'vhigh'
p2749
aS'low'
p2750
aS'5more'
p2751
ag59
aS'med'
p2752
aS'high'
p2753
aS'acc'
p2754
aa(lp2755
S'vhigh'
p2756
aS'low'
p2757
aS'5more'
p2758
ag59
aS'big'
p2759
aS'low'
p2760
aS'unacc'
p2761
aa(lp2762
S'vhigh'
p2763
aS'low'
p2764
aS'5more'
p2765
ag59
aS'big'
p2766
aS'med'
p2767
aS'acc'
p2768
aa(lp2769
S'vhigh'
p2770
aS'low'
p2771
aS'5more'
p2772
ag59
aS'big'
p2773
aS'high'
p2774
aS'acc'
p2775
aa(lp2776
S'vhigh'
p2777
aS'low'
p2778
aS'5more'
p2779
aS'more'
p2780
aS'small'
p2781
aS'low'
p2782
aS'unacc'
p2783
aa(lp2784
S'vhigh'
p2785
aS'low'
p2786
aS'5more'
p2787
aS'more'
p2788
aS'small'
p2789
aS'med'
p2790
aS'unacc'
p2791
aa(lp2792
S'vhigh'
p2793
aS'low'
p2794
aS'5more'
p2795
aS'more'
p2796
aS'small'
p2797
aS'high'
p2798
aS'acc'
p2799
aa(lp2800
S'vhigh'
p2801
aS'low'
p2802
aS'5more'
p2803
aS'more'
p2804
aS'med'
p2805
aS'low'
p2806
aS'unacc'
p2807
aa(lp2808
S'vhigh'
p2809
aS'low'
p2810
aS'5more'
p2811
aS'more'
p2812
aS'med'
p2813
aS'med'
p2814
aS'acc'
p2815
aa(lp2816
S'vhigh'
p2817
aS'low'
p2818
aS'5more'
p2819
aS'more'
p2820
aS'med'
p2821
aS'high'
p2822
aS'acc'
p2823
aa(lp2824
S'vhigh'
p2825
aS'low'
p2826
aS'5more'
p2827
aS'more'
p2828
aS'big'
p2829
aS'low'
p2830
aS'unacc'
p2831
aa(lp2832
S'vhigh'
p2833
aS'low'
p2834
aS'5more'
p2835
aS'more'
p2836
aS'big'
p2837
aS'med'
p2838
aS'acc'
p2839
aa(lp2840
S'vhigh'
p2841
aS'low'
p2842
aS'5more'
p2843
aS'more'
p2844
aS'big'
p2845
aS'high'
p2846
aS'acc'
p2847
aa(lp2848
S'high'
p2849
aS'vhigh'
p2850
ag4
ag4
aS'small'
p2851
aS'low'
p2852
aS'unacc'
p2853
aa(lp2854
S'high'
p2855
aS'vhigh'
p2856
ag4
ag4
aS'small'
p2857
aS'med'
p2858
aS'unacc'
p2859
aa(lp2860
S'high'
p2861
aS'vhigh'
p2862
ag4
ag4
aS'small'
p2863
aS'high'
p2864
aS'unacc'
p2865
aa(lp2866
S'high'
p2867
aS'high'
p2868
ag4
ag59
aS'small'
p2869
aS'high'
p2870
aS'acc'
p2871
aa(lp2872
S'high'
p2873
aS'high'
p2874
ag4
ag59
aS'med'
p2875
aS'high'
p2876
aS'acc'
p2877
aa(lp2878
S'high'
p2879
aS'high'
p2880
ag4
ag59
aS'big'
p2881
aS'med'
p2882
aS'acc'
p2883
aa(lp2884
S'high'
p2885
aS'high'
p2886
ag4
ag59
aS'big'
p2887
aS'high'
p2888
aS'acc'
p2889
aa(lp2890
S'high'
p2891
aS'high'
p2892
ag4
aS'more'
p2893
aS'small'
p2894
aS'high'
p2895
aS'unacc'
p2896
aa(lp2897
S'high'
p2898
aS'high'
p2899
ag4
aS'more'
p2900
aS'med'
p2901
aS'low'
p2902
aS'unacc'
p2903
aa(lp2904
S'high'
p2905
aS'high'
p2906
ag4
aS'more'
p2907
aS'med'
p2908
aS'med'
p2909
aS'unacc'
p2910
aa(lp2911
S'high'
p2912
aS'high'
p2913
ag4
aS'more'
p2914
aS'med'
p2915
aS'high'
p2916
aS'acc'
p2917
aa(lp2918
S'high'
p2919
aS'high'
p2920
ag4
aS'more'
p2921
aS'big'
p2922
aS'low'
p2923
aS'unacc'
p2924
aa(lp2925
S'high'
p2926
aS'high'
p2927
ag4
aS'more'
p2928
aS'big'
p2929
aS'med'
p2930
aS'acc'
p2931
aa(lp2932
S'high'
p2933
aS'high'
p2934
ag4
aS'more'
p2935
aS'big'
p2936
aS'high'
p2937
aS'acc'
p2938
aa(lp2939
S'high'
p2940
aS'high'
p2941
ag177
ag4
aS'small'
p2942
aS'low'
p2943
aS'unacc'
p2944
aa(lp2945
S'high'
p2946
aS'high'
p2947
ag177
ag4
aS'small'
p2948
aS'med'
p2949
aS'unacc'
p2950
aa(lp2951
S'high'
p2952
aS'high'
p2953
ag177
ag4
aS'small'
p2954
aS'high'
p2955
aS'unacc'
p2956
aa(lp2957
S'high'
p2958
aS'high'
p2959
ag177
ag4
aS'med'
p2960
aS'low'
p2961
aS'unacc'
p2962
aa(lp2963
S'high'
p2964
aS'high'
p2965
ag177
ag4
aS'med'
p2966
aS'med'
p2967
aS'unacc'
p2968
aa(lp2969
S'high'
p2970
aS'high'
p2971
ag177
ag4
aS'med'
p2972
aS'high'
p2973
aS'unacc'
p2974
aa(lp2975
S'high'
p2976
aS'high'
p2977
ag177
ag4
aS'big'
p2978
aS'low'
p2979
aS'unacc'
p2980
aa(lp2981
S'high'
p2982
aS'high'
p2983
ag177
ag4
aS'big'
p2984
aS'med'
p2985
aS'unacc'
p2986
aa(lp2987
S'high'
p2988
aS'high'
p2989
ag177
ag4
aS'big'
p2990
aS'high'
p2991
aS'unacc'
p2992
aa(lp2993
S'high'
p2994
aS'high'
p2995
ag177
ag59
aS'small'
p2996
aS'low'
p2997
aS'unacc'
p2998
aa(lp2999
S'high'
p3000
aS'high'
p3001
ag177
ag59
aS'small'
p3002
aS'med'
p3003
aS'unacc'
p3004
aa(lp3005
S'high'
p3006
aS'high'
p3007
ag177
ag59
aS'small'
p3008
aS'high'
p3009
aS'acc'
p3010
aa(lp3011
S'high'
p3012
aS'high'
p3013
ag177
ag59
aS'med'
p3014
aS'low'
p3015
aS'unacc'
p3016
aa(lp3017
S'high'
p3018
aS'high'
p3019
ag177
ag59
aS'med'
p3020
aS'med'
p3021
aS'unacc'
p3022
aa(lp3023
S'high'
p3024
aS'high'
p3025
ag177
ag59
aS'med'
p3026
aS'high'
p3027
aS'acc'
p3028
aa(lp3029
S'high'
p3030
aS'high'
p3031
ag177
ag59
aS'big'
p3032
aS'low'
p3033
aS'unacc'
p3034
aa(lp3035
S'high'
p3036
aS'high'
p3037
ag177
ag59
aS'big'
p3038
aS'med'
p3039
aS'acc'
p3040
aa(lp3041
S'high'
p3042
aS'high'
p3043
ag177
ag59
aS'big'
p3044
aS'high'
p3045
aS'acc'
p3046
aa(lp3047
S'high'
p3048
aS'high'
p3049
ag177
aS'more'
p3050
aS'small'
p3051
aS'low'
p3052
aS'unacc'
p3053
aa(lp3054
S'high'
p3055
aS'high'
p3056
ag177
aS'more'
p3057
aS'small'
p3058
aS'med'
p3059
aS'unacc'
p3060
aa(lp3061
S'high'
p3062
aS'high'
p3063
ag177
aS'more'
p3064
aS'small'
p3065
aS'high'
p3066
aS'acc'
p3067
aa(lp3068
S'high'
p3069
aS'high'
p3070
ag177
aS'more'
p3071
aS'med'
p3072
aS'low'
p3073
aS'unacc'
p3074
aa(lp3075
S'high'
p3076
aS'high'
p3077
ag177
aS'more'
p3078
aS'med'
p3079
aS'med'
p3080
aS'acc'
p3081
aa(lp3082
S'high'
p3083
aS'high'
p3084
ag177
aS'more'
p3085
aS'med'
p3086
aS'high'
p3087
aS'acc'
p3088
aa(lp3089
S'high'
p3090
aS'high'
p3091
ag177
aS'more'
p3092
aS'big'
p3093
aS'low'
p3094
aS'unacc'
p3095
aa(lp3096
S'high'
p3097
aS'high'
p3098
ag177
aS'more'
p3099
aS'big'
p3100
aS'med'
p3101
aS'acc'
p3102
aa(lp3103
S'high'
p3104
aS'high'
p3105
ag177
aS'more'
p3106
aS'big'
p3107
aS'high'
p3108
aS'acc'
p3109
aa(lp3110
S'high'
p3111
aS'high'
p3112
ag59
ag4
aS'small'
p3113
aS'low'
p3114
aS'unacc'
p3115
aa(lp3116
S'high'
p3117
aS'high'
p3118
ag59
ag4
aS'small'
p3119
aS'med'
p3120
aS'unacc'
p3121
aa(lp3122
S'high'
p3123
aS'high'
p3124
ag59
ag4
aS'small'
p3125
aS'high'
p3126
aS'unacc'
p3127
aa(lp3128
S'high'
p3129
aS'high'
p3130
ag59
ag4
aS'med'
p3131
aS'low'
p3132
aS'unacc'
p3133
aa(lp3134
S'high'
p3135
aS'high'
p3136
ag59
ag4
aS'med'
p3137
aS'med'
p3138
aS'unacc'
p3139
aa(lp3140
S'high'
p3141
aS'high'
p3142
ag59
ag4
aS'med'
p3143
aS'high'
p3144
aS'unacc'
p3145
aa(lp3146
S'high'
p3147
aS'high'
p3148
ag59
ag4
aS'big'
p3149
aS'low'
p3150
aS'unacc'
p3151
aa(lp3152
S'high'
p3153
aS'high'
p3154
ag59
ag4
aS'big'
p3155
aS'med'
p3156
aS'unacc'
p3157
aa(lp3158
S'high'
p3159
aS'high'
p3160
ag59
ag4
aS'big'
p3161
aS'high'
p3162
aS'unacc'
p3163
aa(lp3164
S'high'
p3165
aS'high'
p3166
ag59
ag59
aS'small'
p3167
aS'low'
p3168
aS'unacc'
p3169
aa(lp3170
S'high'
p3171
aS'high'
p3172
ag59
ag59
aS'small'
p3173
aS'med'
p3174
aS'unacc'
p3175
aa(lp3176
S'high'
p3177
aS'high'
p3178
ag59
ag59
aS'small'
p3179
aS'high'
p3180
aS'acc'
p3181
aa(lp3182
S'high'
p3183
aS'high'
p3184
ag59
ag59
aS'med'
p3185
aS'low'
p3186
aS'unacc'
p3187
aa(lp3188
S'high'
p3189
aS'high'
p3190
ag59
ag59
aS'med'
p3191
aS'med'
p3192
aS'acc'
p3193
aa(lp3194
S'high'
p3195
aS'high'
p3196
ag59
ag59
aS'med'
p3197
aS'high'
p3198
aS'acc'
p3199
aa(lp3200
S'high'
p3201
aS'high'
p3202
ag59
ag59
aS'big'
p3203
aS'low'
p3204
aS'unacc'
p3205
aa(lp3206
S'high'
p3207
aS'high'
p3208
ag59
ag59
aS'big'
p3209
aS'med'
p3210
aS'acc'
p3211
aa(lp3212
S'high'
p3213
aS'high'
p3214
ag59
ag59
aS'big'
p3215
aS'high'
p3216
aS'acc'
p3217
aa(lp3218
S'high'
p3219
aS'high'
p3220
ag59
aS'more'
p3221
aS'small'
p3222
aS'low'
p3223
aS'unacc'
p3224
aa(lp3225
S'high'
p3226
aS'high'
p3227
ag59
aS'more'
p3228
aS'small'
p3229
aS'med'
p3230
aS'unacc'
p3231
aa(lp3232
S'high'
p3233
aS'high'
p3234
ag59
aS'more'
p3235
aS'small'
p3236
aS'high'
p3237
aS'acc'
p3238
aa(lp3239
S'high'
p3240
aS'high'
p3241
ag59
aS'more'
p3242
aS'med'
p3243
aS'low'
p3244
aS'unacc'
p3245
aa(lp3246
S'high'
p3247
aS'high'
p3248
ag59
aS'more'
p3249
aS'med'
p3250
aS'med'
p3251
aS'acc'
p3252
aa(lp3253
S'high'
p3254
aS'high'
p3255
ag59
aS'more'
p3256
aS'med'
p3257
aS'high'
p3258
aS'acc'
p3259
aa(lp3260
S'high'
p3261
aS'high'
p3262
ag59
aS'more'
p3263
aS'big'
p3264
aS'low'
p3265
aS'unacc'
p3266
aa(lp3267
S'high'
p3268
aS'high'
p3269
ag59
aS'more'
p3270
aS'big'
p3271
aS'med'
p3272
aS'acc'
p3273
aa(lp3274
S'high'
p3275
aS'high'
p3276
ag59
aS'more'
p3277
aS'big'
p3278
aS'high'
p3279
aS'acc'
p3280
aa(lp3281
S'high'
p3282
aS'high'
p3283
aS'5more'
p3284
ag4
aS'small'
p3285
aS'low'
p3286
aS'unacc'
p3287
aa(lp3288
S'high'
p3289
aS'high'
p3290
aS'5more'
p3291
ag4
aS'small'
p3292
aS'med'
p3293
aS'unacc'
p3294
aa(lp3295
S'high'
p3296
aS'high'
p3297
aS'5more'
p3298
ag4
aS'small'
p3299
aS'high'
p3300
aS'unacc'
p3301
aa(lp3302
S'high'
p3303
aS'high'
p3304
aS'5more'
p3305
ag4
aS'med'
p3306
aS'low'
p3307
aS'unacc'
p3308
aa(lp3309
S'high'
p3310
aS'high'
p3311
aS'5more'
p3312
ag4
aS'med'
p3313
aS'med'
p3314
aS'unacc'
p3315
aa(lp3316
S'high'
p3317
aS'high'
p3318
aS'5more'
p3319
ag4
aS'med'
p3320
aS'high'
p3321
aS'unacc'
p3322
aa(lp3323
S'high'
p3324
aS'high'
p3325
aS'5more'
p3326
ag4
aS'big'
p3327
aS'low'
p3328
aS'unacc'
p3329
aa(lp3330
S'high'
p3331
aS'high'
p3332
aS'5more'
p3333
ag4
aS'big'
p3334
aS'med'
p3335
aS'unacc'
p3336
aa(lp3337
S'high'
p3338
aS'high'
p3339
aS'5more'
p3340
ag4
aS'big'
p3341
aS'high'
p3342
aS'unacc'
p3343
aa(lp3344
S'high'
p3345
aS'high'
p3346
aS'5more'
p3347
ag59
aS'small'
p3348
aS'low'
p3349
aS'unacc'
p3350
aa(lp3351
S'high'
p3352
aS'high'
p3353
aS'5more'
p3354
ag59
aS'small'
p3355
aS'med'
p3356
aS'unacc'
p3357
aa(lp3358
S'high'
p3359
aS'high'
p3360
aS'5more'
p3361
ag59
aS'small'
p3362
aS'high'
p3363
aS'acc'
p3364
aa(lp3365
S'high'
p3366
aS'high'
p3367
aS'5more'
p3368
ag59
aS'med'
p3369
aS'low'
p3370
aS'unacc'
p3371
aa(lp3372
S'high'
p3373
aS'high'
p3374
aS'5more'
p3375
ag59
aS'med'
p3376
aS'med'
p3377
aS'acc'
p3378
aa(lp3379
S'high'
p3380
aS'high'
p3381
aS'5more'
p3382
ag59
aS'med'
p3383
aS'high'
p3384
aS'acc'
p3385
aa(lp3386
S'high'
p3387
aS'high'
p3388
aS'5more'
p3389
ag59
aS'big'
p3390
aS'low'
p3391
aS'unacc'
p3392
aa(lp3393
S'high'
p3394
aS'high'
p3395
aS'5more'
p3396
ag59
aS'big'
p3397
aS'med'
p3398
aS'acc'
p3399
aa(lp3400
S'high'
p3401
aS'high'
p3402
aS'5more'
p3403
ag59
aS'big'
p3404
aS'high'
p3405
aS'acc'
p3406
aa(lp3407
S'high'
p3408
aS'high'
p3409
aS'5more'
p3410
aS'more'
p3411
aS'small'
p3412
aS'low'
p3413
aS'unacc'
p3414
aa(lp3415
S'high'
p3416
aS'high'
p3417
aS'5more'
p3418
aS'more'
p3419
aS'small'
p3420
aS'med'
p3421
aS'unacc'
p3422
aa(lp3423
S'high'
p3424
aS'high'
p3425
aS'5more'
p3426
aS'more'
p3427
aS'small'
p3428
aS'high'
p3429
aS'acc'
p3430
aa(lp3431
S'high'
p3432
aS'high'
p3433
aS'5more'
p3434
aS'more'
p3435
aS'med'
p3436
aS'low'
p3437
aS'unacc'
p3438
aa(lp3439
S'high'
p3440
aS'high'
p3441
aS'5more'
p3442
aS'more'
p3443
aS'med'
p3444
aS'med'
p3445
aS'acc'
p3446
aa(lp3447
S'high'
p3448
aS'high'
p3449
aS'5more'
p3450
aS'more'
p3451
aS'med'
p3452
aS'high'
p3453
aS'acc'
p3454
aa(lp3455
S'high'
p3456
aS'high'
p3457
aS'5more'
p3458
aS'more'
p3459
aS'big'
p3460
aS'low'
p3461
aS'unacc'
p3462
aa(lp3463
S'high'
p3464
aS'high'
p3465
aS'5more'
p3466
aS'more'
p3467
aS'big'
p3468
aS'med'
p3469
aS'acc'
p3470
aa(lp3471
S'high'
p3472
aS'high'
p3473
aS'5more'
p3474
aS'more'
p3475
aS'big'
p3476
aS'high'
p3477
aS'acc'
p3478
aa(lp3479
S'high'
p3480
aS'med'
p3481
ag4
ag4
aS'small'
p3482
aS'low'
p3483
aS'unacc'
p3484
aa(lp3485
S'high'
p3486
aS'med'
p3487
ag4
ag4
aS'small'
p3488
aS'med'
p3489
aS'unacc'
p3490
aa(lp3491
S'high'
p3492
aS'med'
p3493
ag4
ag4
aS'small'
p3494
aS'high'
p3495
aS'unacc'
p3496
aa(lp3497
S'high'
p3498
aS'med'
p3499
ag4
ag4
aS'med'
p3500
aS'low'
p3501
aS'unacc'
p3502
aa(lp3503
S'high'
p3504
aS'med'
p3505
ag4
ag4
aS'med'
p3506
aS'med'
p3507
aS'unacc'
p3508
aa(lp3509
S'high'
p3510
aS'med'
p3511
ag4
ag4
aS'med'
p3512
aS'high'
p3513
aS'unacc'
p3514
aa(lp3515
S'high'
p3516
aS'med'
p3517
ag4
ag4
aS'big'
p3518
aS'low'
p3519
aS'unacc'
p3520
aa(lp3521
S'high'
p3522
aS'med'
p3523
ag4
ag4
aS'big'
p3524
aS'med'
p3525
aS'unacc'
p3526
aa(lp3527
S'high'
p3528
aS'med'
p3529
ag4
ag4
aS'big'
p3530
aS'high'
p3531
aS'unacc'
p3532
aa(lp3533
S'high'
p3534
aS'med'
p3535
ag4
ag59
aS'small'
p3536
aS'low'
p3537
aS'unacc'
p3538
aa(lp3539
S'high'
p3540
aS'med'
p3541
ag4
ag59
aS'small'
p3542
aS'med'
p3543
aS'unacc'
p3544
aa(lp3545
S'high'
p3546
aS'med'
p3547
ag4
ag59
aS'small'
p3548
aS'high'
p3549
aS'acc'
p3550
aa(lp3551
S'high'
p3552
aS'med'
p3553
ag4
ag59
aS'med'
p3554
aS'low'
p3555
aS'unacc'
p3556
aa(lp3557
S'high'
p3558
aS'med'
p3559
ag4
ag59
aS'med'
p3560
aS'med'
p3561
aS'unacc'
p3562
aa(lp3563
S'high'
p3564
aS'med'
p3565
ag4
ag59
aS'med'
p3566
aS'high'
p3567
aS'acc'
p3568
aa(lp3569
S'high'
p3570
aS'med'
p3571
ag4
ag59
aS'big'
p3572
aS'low'
p3573
aS'unacc'
p3574
aa(lp3575
S'high'
p3576
aS'med'
p3577
ag4
ag59
aS'big'
p3578
aS'med'
p3579
aS'acc'
p3580
aa(lp3581
S'high'
p3582
aS'med'
p3583
ag4
ag59
aS'big'
p3584
aS'high'
p3585
aS'acc'
p3586
aa(lp3587
S'high'
p3588
aS'med'
p3589
ag4
aS'more'
p3590
aS'small'
p3591
aS'low'
p3592
aS'unacc'
p3593
aa(lp3594
S'high'
p3595
aS'med'
p3596
ag4
aS'more'
p3597
aS'small'
p3598
aS'med'
p3599
aS'unacc'
p3600
aa(lp3601
S'high'
p3602
aS'med'
p3603
ag4
aS'more'
p3604
aS'small'
p3605
aS'high'
p3606
aS'unacc'
p3607
aa(lp3608
S'high'
p3609
aS'med'
p3610
ag4
aS'more'
p3611
aS'med'
p3612
aS'low'
p3613
aS'unacc'
p3614
aa(lp3615
S'high'
p3616
aS'med'
p3617
ag4
aS'more'
p3618
aS'med'
p3619
aS'med'
p3620
aS'unacc'
p3621
aa(lp3622
S'high'
p3623
aS'med'
p3624
ag4
aS'more'
p3625
aS'med'
p3626
aS'high'
p3627
aS'acc'
p3628
aa(lp3629
S'high'
p3630
aS'med'
p3631
ag4
aS'more'
p3632
aS'big'
p3633
aS'low'
p3634
aS'unacc'
p3635
aa(lp3636
S'high'
p3637
aS'med'
p3638
ag4
aS'more'
p3639
aS'big'
p3640
aS'med'
p3641
aS'acc'
p3642
aa(lp3643
S'high'
p3644
aS'med'
p3645
ag4
aS'more'
p3646
aS'big'
p3647
aS'high'
p3648
aS'acc'
p3649
aa(lp3650
S'high'
p3651
aS'med'
p3652
ag177
ag4
aS'small'
p3653
aS'low'
p3654
aS'unacc'
p3655
aa(lp3656
S'high'
p3657
aS'med'
p3658
ag177
ag4
aS'small'
p3659
aS'med'
p3660
aS'unacc'
p3661
aa(lp3662
S'high'
p3663
aS'med'
p3664
ag177
ag4
aS'small'
p3665
aS'high'
p3666
aS'unacc'
p3667
aa(lp3668
S'high'
p3669
aS'med'
p3670
ag177
ag4
aS'med'
p3671
aS'low'
p3672
aS'unacc'
p3673
aa(lp3674
S'high'
p3675
aS'med'
p3676
ag177
ag4
aS'med'
p3677
aS'med'
p3678
aS'unacc'
p3679
aa(lp3680
S'high'
p3681
aS'med'
p3682
ag177
ag4
aS'med'
p3683
aS'high'
p3684
aS'unacc'
p3685
aa(lp3686
S'high'
p3687
aS'med'
p3688
ag177
ag4
aS'big'
p3689
aS'low'
p3690
aS'unacc'
p3691
aa(lp3692
S'high'
p3693
aS'med'
p3694
ag177
ag4
aS'big'
p3695
aS'med'
p3696
aS'unacc'
p3697
aa(lp3698
S'high'
p3699
aS'med'
p3700
ag177
ag4
aS'big'
p3701
aS'high'
p3702
aS'unacc'
p3703
aa(lp3704
S'high'
p3705
aS'med'
p3706
ag177
ag59
aS'small'
p3707
aS'low'
p3708
aS'unacc'
p3709
aa(lp3710
S'high'
p3711
aS'med'
p3712
ag177
ag59
aS'small'
p3713
aS'med'
p3714
aS'unacc'
p3715
aa(lp3716
S'high'
p3717
aS'med'
p3718
ag177
ag59
aS'small'
p3719
aS'high'
p3720
aS'acc'
p3721
aa(lp3722
S'high'
p3723
aS'med'
p3724
ag177
ag59
aS'med'
p3725
aS'low'
p3726
aS'unacc'
p3727
aa(lp3728
S'high'
p3729
aS'med'
p3730
ag177
ag59
aS'med'
p3731
aS'med'
p3732
aS'unacc'
p3733
aa(lp3734
S'high'
p3735
aS'med'
p3736
ag177
ag59
aS'med'
p3737
aS'high'
p3738
aS'acc'
p3739
aa(lp3740
S'high'
p3741
aS'med'
p3742
ag177
ag59
aS'big'
p3743
aS'low'
p3744
aS'unacc'
p3745
aa(lp3746
S'high'
p3747
aS'med'
p3748
ag177
aS'more'
p3749
aS'small'
p3750
aS'low'
p3751
aS'unacc'
p3752
aa(lp3753
S'high'
p3754
aS'med'
p3755
ag177
aS'more'
p3756
aS'small'
p3757
aS'med'
p3758
aS'unacc'
p3759
aa(lp3760
S'high'
p3761
aS'med'
p3762
ag177
aS'more'
p3763
aS'med'
p3764
aS'low'
p3765
aS'unacc'
p3766
aa(lp3767
S'high'
p3768
aS'med'
p3769
ag177
aS'more'
p3770
aS'big'
p3771
aS'low'
p3772
aS'unacc'
p3773
aa(lp3774
S'high'
p3775
aS'med'
p3776
ag59
ag4
aS'small'
p3777
aS'low'
p3778
aS'unacc'
p3779
aa(lp3780
S'high'
p3781
aS'med'
p3782
ag59
ag4
aS'small'
p3783
aS'med'
p3784
aS'unacc'
p3785
aa(lp3786
S'high'
p3787
aS'med'
p3788
ag59
ag4
aS'small'
p3789
aS'high'
p3790
aS'unacc'
p3791
aa(lp3792
S'high'
p3793
aS'med'
p3794
ag59
ag4
aS'med'
p3795
aS'low'
p3796
aS'unacc'
p3797
aa(lp3798
S'high'
p3799
aS'med'
p3800
ag59
ag4
aS'med'
p3801
aS'med'
p3802
aS'unacc'
p3803
aa(lp3804
S'high'
p3805
aS'med'
p3806
ag59
ag4
aS'med'
p3807
aS'high'
p3808
aS'unacc'
p3809
aa(lp3810
S'high'
p3811
aS'med'
p3812
ag59
ag4
aS'big'
p3813
aS'low'
p3814
aS'unacc'
p3815
aa(lp3816
S'high'
p3817
aS'med'
p3818
ag59
ag4
aS'big'
p3819
aS'med'
p3820
aS'unacc'
p3821
aa(lp3822
S'high'
p3823
aS'med'
p3824
ag59
ag4
aS'big'
p3825
aS'high'
p3826
aS'unacc'
p3827
aa(lp3828
S'high'
p3829
aS'med'
p3830
ag59
ag59
aS'small'
p3831
aS'low'
p3832
aS'unacc'
p3833
aa(lp3834
S'high'
p3835
aS'med'
p3836
ag59
ag59
aS'small'
p3837
aS'med'
p3838
aS'unacc'
p3839
aa(lp3840
S'high'
p3841
aS'med'
p3842
ag59
ag59
aS'med'
p3843
aS'low'
p3844
aS'unacc'
p3845
aa(lp3846
S'high'
p3847
aS'med'
p3848
ag59
ag59
aS'big'
p3849
aS'low'
p3850
aS'unacc'
p3851
aa(lp3852
S'high'
p3853
aS'med'
p3854
ag59
aS'more'
p3855
aS'small'
p3856
aS'low'
p3857
aS'unacc'
p3858
aa(lp3859
S'high'
p3860
aS'med'
p3861
ag59
aS'more'
p3862
aS'small'
p3863
aS'med'
p3864
aS'unacc'
p3865
aa(lp3866
S'high'
p3867
aS'med'
p3868
ag59
aS'more'
p3869
aS'med'
p3870
aS'low'
p3871
aS'unacc'
p3872
aa(lp3873
S'high'
p3874
aS'med'
p3875
ag59
aS'more'
p3876
aS'big'
p3877
aS'low'
p3878
aS'unacc'
p3879
aa(lp3880
S'high'
p3881
aS'med'
p3882
aS'5more'
p3883
ag4
aS'small'
p3884
aS'low'
p3885
aS'unacc'
p3886
aa(lp3887
S'high'
p3888
aS'med'
p3889
aS'5more'
p3890
ag4
aS'small'
p3891
aS'med'
p3892
aS'unacc'
p3893
aa(lp3894
S'high'
p3895
aS'med'
p3896
aS'5more'
p3897
ag4
aS'small'
p3898
aS'high'
p3899
aS'unacc'
p3900
aa(lp3901
S'high'
p3902
aS'med'
p3903
aS'5more'
p3904
ag4
aS'med'
p3905
aS'low'
p3906
aS'unacc'
p3907
aa(lp3908
S'high'
p3909
aS'med'
p3910
aS'5more'
p3911
ag4
aS'med'
p3912
aS'med'
p3913
aS'unacc'
p3914
aa(lp3915
S'high'
p3916
aS'med'
p3917
aS'5more'
p3918
ag4
aS'med'
p3919
aS'high'
p3920
aS'unacc'
p3921
aa(lp3922
S'high'
p3923
aS'med'
p3924
aS'5more'
p3925
ag4
aS'big'
p3926
aS'low'
p3927
aS'unacc'
p3928
aa(lp3929
S'high'
p3930
aS'med'
p3931
aS'5more'
p3932
ag4
aS'big'
p3933
aS'med'
p3934
aS'unacc'
p3935
aa(lp3936
S'high'
p3937
aS'med'
p3938
aS'5more'
p3939
ag4
aS'big'
p3940
aS'high'
p3941
aS'unacc'
p3942
aa(lp3943
S'high'
p3944
aS'med'
p3945
aS'5more'
p3946
ag59
aS'small'
p3947
aS'low'
p3948
aS'unacc'
p3949
aa(lp3950
S'high'
p3951
aS'med'
p3952
aS'5more'
p3953
ag59
aS'small'
p3954
aS'med'
p3955
aS'unacc'
p3956
aa(lp3957
S'high'
p3958
aS'med'
p3959
aS'5more'
p3960
ag59
aS'med'
p3961
aS'low'
p3962
aS'unacc'
p3963
aa(lp3964
S'high'
p3965
aS'med'
p3966
aS'5more'
p3967
ag59
aS'big'
p3968
aS'low'
p3969
aS'unacc'
p3970
aa(lp3971
S'high'
p3972
aS'med'
p3973
aS'5more'
p3974
aS'more'
p3975
aS'small'
p3976
aS'low'
p3977
aS'unacc'
p3978
aa(lp3979
S'high'
p3980
aS'med'
p3981
aS'5more'
p3982
aS'more'
p3983
aS'small'
p3984
aS'med'
p3985
aS'unacc'
p3986
aa(lp3987
S'high'
p3988
aS'med'
p3989
aS'5more'
p3990
aS'more'
p3991
aS'med'
p3992
aS'low'
p3993
aS'unacc'
p3994
aa(lp3995
S'high'
p3996
aS'med'
p3997
aS'5more'
p3998
aS'more'
p3999
aS'big'
p4000
aS'low'
p4001
aS'unacc'
p4002
aa(lp4003
S'high'
p4004
aS'low'
p4005
ag4
ag4
aS'small'
p4006
aS'low'
p4007
aS'unacc'
p4008
aa(lp4009
S'high'
p4010
aS'low'
p4011
ag4
ag4
aS'small'
p4012
aS'med'
p4013
aS'unacc'
p4014
aa(lp4015
S'high'
p4016
aS'low'
p4017
ag4
ag4
aS'small'
p4018
aS'high'
p4019
aS'unacc'
p4020
aa(lp4021
S'high'
p4022
aS'low'
p4023
ag4
ag4
aS'med'
p4024
aS'low'
p4025
aS'unacc'
p4026
aa(lp4027
S'high'
p4028
aS'low'
p4029
ag4
ag4
aS'med'
p4030
aS'med'
p4031
aS'unacc'
p4032
aa(lp4033
S'high'
p4034
aS'low'
p4035
ag4
ag4
aS'med'
p4036
aS'high'
p4037
aS'unacc'
p4038
aa(lp4039
S'high'
p4040
aS'low'
p4041
ag4
ag4
aS'big'
p4042
aS'low'
p4043
aS'unacc'
p4044
aa(lp4045
S'high'
p4046
aS'low'
p4047
ag4
ag4
aS'big'
p4048
aS'med'
p4049
aS'unacc'
p4050
aa(lp4051
S'high'
p4052
aS'low'
p4053
ag4
ag4
aS'big'
p4054
aS'high'
p4055
aS'unacc'
p4056
aa(lp4057
S'high'
p4058
aS'low'
p4059
ag4
ag59
aS'small'
p4060
aS'low'
p4061
aS'unacc'
p4062
aa(lp4063
S'high'
p4064
aS'low'
p4065
ag4
ag59
aS'small'
p4066
aS'med'
p4067
aS'unacc'
p4068
aa(lp4069
S'high'
p4070
aS'low'
p4071
ag4
ag59
aS'med'
p4072
aS'low'
p4073
aS'unacc'
p4074
aa(lp4075
S'high'
p4076
aS'low'
p4077
ag4
ag59
aS'med'
p4078
aS'med'
p4079
aS'unacc'
p4080
aa(lp4081
S'high'
p4082
aS'low'
p4083
ag4
ag59
aS'big'
p4084
aS'low'
p4085
aS'unacc'
p4086
aa(lp4087
S'high'
p4088
aS'low'
p4089
ag4
aS'more'
p4090
aS'small'
p4091
aS'low'
p4092
aS'unacc'
p4093
aa(lp4094
S'high'
p4095
aS'low'
p4096
ag4
aS'more'
p4097
aS'small'
p4098
aS'med'
p4099
aS'unacc'
p4100
aa(lp4101
S'high'
p4102
aS'low'
p4103
ag4
aS'more'
p4104
aS'small'
p4105
aS'high'
p4106
aS'unacc'
p4107
aa(lp4108
S'high'
p4109
aS'low'
p4110
ag4
aS'more'
p4111
aS'med'
p4112
aS'low'
p4113
aS'unacc'
p4114
aa(lp4115
S'high'
p4116
aS'low'
p4117
ag4
aS'more'
p4118
aS'med'
p4119
aS'med'
p4120
aS'unacc'
p4121
aa(lp4122
S'high'
p4123
aS'low'
p4124
ag4
aS'more'
p4125
aS'big'
p4126
aS'low'
p4127
aS'unacc'
p4128
aa(lp4129
S'high'
p4130
aS'low'
p4131
ag177
ag4
aS'small'
p4132
aS'low'
p4133
aS'unacc'
p4134
aa(lp4135
S'high'
p4136
aS'low'
p4137
ag177
ag4
aS'small'
p4138
aS'med'
p4139
aS'unacc'
p4140
aa(lp4141
S'high'
p4142
aS'low'
p4143
ag177
ag4
aS'small'
p4144
aS'high'
p4145
aS'unacc'
p4146
aa(lp4147
S'high'
p4148
aS'low'
p4149
ag177
ag4
aS'med'
p4150
aS'low'
p4151
aS'unacc'
p4152
aa(lp4153
S'high'
p4154
aS'low'
p4155
ag177
ag4
aS'med'
p4156
aS'med'
p4157
aS'unacc'
p4158
aa(lp4159
S'high'
p4160
aS'low'
p4161
ag177
ag4
aS'med'
p4162
aS'high'
p4163
aS'unacc'
p4164
aa(lp4165
S'high'
p4166
aS'low'
p4167
ag177
ag4
aS'big'
p4168
aS'low'
p4169
aS'unacc'
p4170
aa(lp4171
S'high'
p4172
aS'low'
p4173
ag177
ag4
aS'big'
p4174
aS'med'
p4175
aS'unacc'
p4176
aa(lp4177
S'high'
p4178
aS'low'
p4179
ag177
ag4
aS'big'
p4180
aS'high'
p4181
aS'unacc'
p4182
aa(lp4183
S'high'
p4184
aS'low'
p4185
ag177
ag59
aS'small'
p4186
aS'low'
p4187
aS'unacc'
p4188
aa(lp4189
S'high'
p4190
aS'low'
p4191
ag177
ag59
aS'small'
p4192
aS'med'
p4193
aS'unacc'
p4194
aa(lp4195
S'high'
p4196
aS'low'
p4197
ag177
ag59
aS'med'
p4198
aS'low'
p4199
aS'unacc'
p4200
aa(lp4201
S'high'
p4202
aS'low'
p4203
ag177
ag59
aS'med'
p4204
aS'med'
p4205
aS'unacc'
p4206
aa(lp4207
S'high'
p4208
aS'low'
p4209
ag177
ag59
aS'big'
p4210
aS'low'
p4211
aS'unacc'
p4212
aa(lp4213
S'high'
p4214
aS'low'
p4215
ag177
aS'more'
p4216
aS'small'
p4217
aS'low'
p4218
aS'unacc'
p4219
aa(lp4220
S'high'
p4221
aS'low'
p4222
ag177
aS'more'
p4223
aS'small'
p4224
aS'med'
p4225
aS'unacc'
p4226
aa(lp4227
S'high'
p4228
aS'low'
p4229
ag177
aS'more'
p4230
aS'med'
p4231
aS'low'
p4232
aS'unacc'
p4233
aa(lp4234
S'high'
p4235
aS'low'
p4236
ag177
aS'more'
p4237
aS'med'
p4238
aS'med'
p4239
aS'acc'
p4240
aa(lp4241
S'high'
p4242
aS'low'
p4243
ag177
aS'more'
p4244
aS'med'
p4245
aS'high'
p4246
aS'acc'
p4247
aa(lp4248
S'high'
p4249
aS'low'
p4250
ag177
aS'more'
p4251
aS'big'
p4252
aS'low'
p4253
aS'unacc'
p4254
aa(lp4255
S'high'
p4256
aS'low'
p4257
ag177
aS'more'
p4258
aS'big'
p4259
aS'med'
p4260
aS'acc'
p4261
aa(lp4262
S'high'
p4263
aS'low'
p4264
ag177
aS'more'
p4265
aS'big'
p4266
aS'high'
p4267
aS'acc'
p4268
aa(lp4269
S'high'
p4270
aS'low'
p4271
ag59
ag4
aS'small'
p4272
aS'low'
p4273
aS'unacc'
p4274
aa(lp4275
S'high'
p4276
aS'low'
p4277
ag59
ag4
aS'small'
p4278
aS'med'
p4279
aS'unacc'
p4280
aa(lp4281
S'high'
p4282
aS'low'
p4283
ag59
ag4
aS'small'
p4284
aS'high'
p4285
aS'unacc'
p4286
aa(lp4287
S'high'
p4288
aS'low'
p4289
ag59
ag4
aS'med'
p4290
aS'low'
p4291
aS'unacc'
p4292
aa(lp4293
S'high'
p4294
aS'low'
p4295
ag59
ag4
aS'med'
p4296
aS'med'
p4297
aS'unacc'
p4298
aa(lp4299
S'high'
p4300
aS'low'
p4301
ag59
ag4
aS'med'
p4302
aS'high'
p4303
aS'unacc'
p4304
aa(lp4305
S'high'
p4306
aS'low'
p4307
ag59
ag4
aS'big'
p4308
aS'low'
p4309
aS'unacc'
p4310
aa(lp4311
S'high'
p4312
aS'low'
p4313
ag59
ag4
aS'big'
p4314
aS'med'
p4315
aS'unacc'
p4316
aa(lp4317
S'high'
p4318
aS'low'
p4319
ag59
ag4
aS'big'
p4320
aS'high'
p4321
aS'unacc'
p4322
aa(lp4323
S'high'
p4324
aS'low'
p4325
ag59
ag59
aS'small'
p4326
aS'low'
p4327
aS'unacc'
p4328
aa(lp4329
S'high'
p4330
aS'low'
p4331
ag59
ag59
aS'small'
p4332
aS'med'
p4333
aS'unacc'
p4334
aa(lp4335
S'high'
p4336
aS'low'
p4337
ag59
ag59
aS'small'
p4338
aS'high'
p4339
aS'acc'
p4340
aa(lp4341
S'high'
p4342
aS'low'
p4343
ag59
ag59
aS'med'
p4344
aS'low'
p4345
aS'unacc'
p4346
aa(lp4347
S'high'
p4348
aS'low'
p4349
ag59
ag59
aS'med'
p4350
aS'med'
p4351
aS'acc'
p4352
aa(lp4353
S'high'
p4354
aS'low'
p4355
ag59
ag59
aS'med'
p4356
aS'high'
p4357
aS'acc'
p4358
aa(lp4359
S'high'
p4360
aS'low'
p4361
ag59
ag59
aS'big'
p4362
aS'low'
p4363
aS'unacc'
p4364
aa(lp4365
S'high'
p4366
aS'low'
p4367
ag59
ag59
aS'big'
p4368
aS'med'
p4369
aS'acc'
p4370
aa(lp4371
S'high'
p4372
aS'low'
p4373
ag59
ag59
aS'big'
p4374
aS'high'
p4375
aS'acc'
p4376
aa(lp4377
S'high'
p4378
aS'low'
p4379
ag59
aS'more'
p4380
aS'small'
p4381
aS'low'
p4382
aS'unacc'
p4383
aa(lp4384
S'high'
p4385
aS'low'
p4386
ag59
aS'more'
p4387
aS'small'
p4388
aS'med'
p4389
aS'unacc'
p4390
aa(lp4391
S'high'
p4392
aS'low'
p4393
ag59
aS'more'
p4394
aS'small'
p4395
aS'high'
p4396
aS'acc'
p4397
aa(lp4398
S'high'
p4399
aS'low'
p4400
ag59
aS'more'
p4401
aS'med'
p4402
aS'low'
p4403
aS'unacc'
p4404
aa(lp4405
S'high'
p4406
aS'low'
p4407
ag59
aS'more'
p4408
aS'med'
p4409
aS'med'
p4410
aS'acc'
p4411
aa(lp4412
S'high'
p4413
aS'low'
p4414
ag59
aS'more'
p4415
aS'med'
p4416
aS'high'
p4417
aS'acc'
p4418
aa(lp4419
S'high'
p4420
aS'low'
p4421
ag59
aS'more'
p4422
aS'big'
p4423
aS'low'
p4424
aS'unacc'
p4425
aa(lp4426
S'high'
p4427
aS'low'
p4428
ag59
aS'more'
p4429
aS'big'
p4430
aS'med'
p4431
aS'acc'
p4432
aa(lp4433
S'high'
p4434
aS'low'
p4435
ag59
aS'more'
p4436
aS'big'
p4437
aS'high'
p4438
aS'acc'
p4439
aa(lp4440
S'high'
p4441
aS'low'
p4442
aS'5more'
p4443
ag4
aS'small'
p4444
aS'low'
p4445
aS'unacc'
p4446
aa(lp4447
S'high'
p4448
aS'low'
p4449
aS'5more'
p4450
ag4
aS'small'
p4451
aS'med'
p4452
aS'unacc'
p4453
aa(lp4454
S'high'
p4455
aS'low'
p4456
aS'5more'
p4457
ag4
aS'small'
p4458
aS'high'
p4459
aS'unacc'
p4460
aa(lp4461
S'high'
p4462
aS'low'
p4463
aS'5more'
p4464
ag4
aS'med'
p4465
aS'low'
p4466
aS'unacc'
p4467
aa(lp4468
S'high'
p4469
aS'low'
p4470
aS'5more'
p4471
ag4
aS'med'
p4472
aS'med'
p4473
aS'unacc'
p4474
aa(lp4475
S'high'
p4476
aS'low'
p4477
aS'5more'
p4478
ag4
aS'med'
p4479
aS'high'
p4480
aS'unacc'
p4481
aa(lp4482
S'high'
p4483
aS'low'
p4484
aS'5more'
p4485
ag4
aS'big'
p4486
aS'low'
p4487
aS'unacc'
p4488
aa(lp4489
S'high'
p4490
aS'low'
p4491
aS'5more'
p4492
ag4
aS'big'
p4493
aS'med'
p4494
aS'unacc'
p4495
aa(lp4496
S'high'
p4497
aS'low'
p4498
aS'5more'
p4499
ag4
aS'big'
p4500
aS'high'
p4501
aS'unacc'
p4502
aa(lp4503
S'high'
p4504
aS'low'
p4505
aS'5more'
p4506
ag59
aS'small'
p4507
aS'low'
p4508
aS'unacc'
p4509
aa(lp4510
S'high'
p4511
aS'low'
p4512
aS'5more'
p4513
ag59
aS'small'
p4514
aS'med'
p4515
aS'unacc'
p4516
aa(lp4517
S'high'
p4518
aS'low'
p4519
aS'5more'
p4520
ag59
aS'small'
p4521
aS'high'
p4522
aS'acc'
p4523
aa(lp4524
S'high'
p4525
aS'low'
p4526
aS'5more'
p4527
ag59
aS'med'
p4528
aS'low'
p4529
aS'unacc'
p4530
aa(lp4531
S'high'
p4532
aS'low'
p4533
aS'5more'
p4534
ag59
aS'med'
p4535
aS'med'
p4536
aS'acc'
p4537
aa(lp4538
S'high'
p4539
aS'low'
p4540
aS'5more'
p4541
ag59
aS'med'
p4542
aS'high'
p4543
aS'acc'
p4544
aa(lp4545
S'high'
p4546
aS'low'
p4547
aS'5more'
p4548
ag59
aS'big'
p4549
aS'low'
p4550
aS'unacc'
p4551
aa(lp4552
S'high'
p4553
aS'low'
p4554
aS'5more'
p4555
ag59
aS'big'
p4556
aS'med'
p4557
aS'acc'
p4558
aa(lp4559
S'high'
p4560
aS'low'
p4561
aS'5more'
p4562
ag59
aS'big'
p4563
aS'high'
p4564
aS'acc'
p4565
aa(lp4566
S'high'
p4567
aS'low'
p4568
aS'5more'
p4569
aS'more'
p4570
aS'small'
p4571
aS'low'
p4572
aS'unacc'
p4573
aa(lp4574
S'high'
p4575
aS'low'
p4576
aS'5more'
p4577
aS'more'
p4578
aS'small'
p4579
aS'med'
p4580
aS'unacc'
p4581
aa(lp4582
S'high'
p4583
aS'low'
p4584
aS'5more'
p4585
aS'more'
p4586
aS'small'
p4587
aS'high'
p4588
aS'acc'
p4589
aa(lp4590
S'high'
p4591
aS'low'
p4592
aS'5more'
p4593
aS'more'
p4594
aS'med'
p4595
aS'low'
p4596
aS'unacc'
p4597
aa(lp4598
S'high'
p4599
aS'low'
p4600
aS'5more'
p4601
aS'more'
p4602
aS'med'
p4603
aS'med'
p4604
aS'acc'
p4605
aa(lp4606
S'high'
p4607
aS'low'
p4608
aS'5more'
p4609
aS'more'
p4610
aS'med'
p4611
aS'high'
p4612
aS'acc'
p4613
aa(lp4614
S'high'
p4615
aS'low'
p4616
aS'5more'
p4617
aS'more'
p4618
aS'big'
p4619
aS'low'
p4620
aS'unacc'
p4621
aa(lp4622
S'high'
p4623
aS'low'
p4624
aS'5more'
p4625
aS'more'
p4626
aS'big'
p4627
aS'med'
p4628
aS'acc'
p4629
aa(lp4630
S'high'
p4631
aS'low'
p4632
aS'5more'
p4633
aS'more'
p4634
aS'big'
p4635
aS'high'
p4636
aS'acc'
p4637
aa(lp4638
S'med'
p4639
aS'vhigh'
p4640
ag4
ag4
aS'small'
p4641
aS'low'
p4642
aS'unacc'
p4643
aa(lp4644
S'med'
p4645
aS'vhigh'
p4646
ag4
ag4
aS'small'
p4647
aS'med'
p4648
aS'unacc'
p4649
aa(lp4650
S'med'
p4651
aS'vhigh'
p4652
ag4
ag4
aS'small'
p4653
aS'high'
p4654
aS'unacc'
p4655
aa(lp4656
S'med'
p4657
aS'vhigh'
p4658
ag4
ag4
aS'med'
p4659
aS'low'
p4660
aS'unacc'
p4661
aa(lp4662
S'med'
p4663
aS'vhigh'
p4664
ag4
ag4
aS'med'
p4665
aS'med'
p4666
aS'unacc'
p4667
aa(lp4668
S'med'
p4669
aS'vhigh'
p4670
ag4
ag4
aS'med'
p4671
aS'high'
p4672
aS'unacc'
p4673
aa(lp4674
S'med'
p4675
aS'vhigh'
p4676
ag4
ag4
aS'big'
p4677
aS'low'
p4678
aS'unacc'
p4679
aa(lp4680
S'med'
p4681
aS'vhigh'
p4682
ag4
ag4
aS'big'
p4683
aS'med'
p4684
aS'unacc'
p4685
aa(lp4686
S'med'
p4687
aS'vhigh'
p4688
ag4
ag4
aS'big'
p4689
aS'high'
p4690
aS'unacc'
p4691
aa(lp4692
S'med'
p4693
aS'vhigh'
p4694
ag4
ag59
aS'small'
p4695
aS'low'
p4696
aS'unacc'
p4697
aa(lp4698
S'med'
p4699
aS'vhigh'
p4700
ag4
ag59
aS'small'
p4701
aS'med'
p4702
aS'unacc'
p4703
aa(lp4704
S'med'
p4705
aS'vhigh'
p4706
ag4
ag59
aS'small'
p4707
aS'high'
p4708
aS'acc'
p4709
aa(lp4710
S'med'
p4711
aS'vhigh'
p4712
ag4
ag59
aS'med'
p4713
aS'low'
p4714
aS'unacc'
p4715
aa(lp4716
S'med'
p4717
aS'vhigh'
p4718
ag4
ag59
aS'med'
p4719
aS'med'
p4720
aS'unacc'
p4721
aa(lp4722
S'med'
p4723
aS'vhigh'
p4724
ag4
ag59
aS'med'
p4725
aS'high'
p4726
aS'acc'
p4727
aa(lp4728
S'med'
p4729
aS'vhigh'
p4730
ag4
ag59
aS'big'
p4731
aS'low'
p4732
aS'unacc'
p4733
aa(lp4734
S'med'
p4735
aS'vhigh'
p4736
ag4
ag59
aS'big'
p4737
aS'med'
p4738
aS'acc'
p4739
aa(lp4740
S'med'
p4741
aS'vhigh'
p4742
ag4
ag59
aS'big'
p4743
aS'high'
p4744
aS'acc'
p4745
aa(lp4746
S'med'
p4747
aS'vhigh'
p4748
ag4
aS'more'
p4749
aS'small'
p4750
aS'low'
p4751
aS'unacc'
p4752
aa(lp4753
S'med'
p4754
aS'vhigh'
p4755
ag4
aS'more'
p4756
aS'small'
p4757
aS'med'
p4758
aS'unacc'
p4759
aa(lp4760
S'med'
p4761
aS'vhigh'
p4762
ag4
aS'more'
p4763
aS'small'
p4764
aS'high'
p4765
aS'unacc'
p4766
aa(lp4767
S'med'
p4768
aS'vhigh'
p4769
ag4
aS'more'
p4770
aS'med'
p4771
aS'low'
p4772
aS'unacc'
p4773
aa(lp4774
S'med'
p4775
aS'vhigh'
p4776
ag4
aS'more'
p4777
aS'med'
p4778
aS'med'
p4779
aS'unacc'
p4780
aa(lp4781
S'med'
p4782
aS'vhigh'
p4783
ag4
aS'more'
p4784
aS'med'
p4785
aS'high'
p4786
aS'acc'
p4787
aa(lp4788
S'med'
p4789
aS'vhigh'
p4790
ag4
aS'more'
p4791
aS'big'
p4792
aS'low'
p4793
aS'unacc'
p4794
aa(lp4795
S'med'
p4796
aS'vhigh'
p4797
ag4
aS'more'
p4798
aS'big'
p4799
aS'med'
p4800
aS'acc'
p4801
aa(lp4802
S'med'
p4803
aS'vhigh'
p4804
ag4
aS'more'
p4805
aS'big'
p4806
aS'high'
p4807
aS'acc'
p4808
aa(lp4809
S'med'
p4810
aS'vhigh'
p4811
ag177
ag4
aS'small'
p4812
aS'low'
p4813
aS'unacc'
p4814
aa(lp4815
S'med'
p4816
aS'vhigh'
p4817
ag177
ag4
aS'small'
p4818
aS'med'
p4819
aS'unacc'
p4820
aa(lp4821
S'med'
p4822
aS'vhigh'
p4823
ag177
ag4
aS'small'
p4824
aS'high'
p4825
aS'unacc'
p4826
aa(lp4827
S'med'
p4828
aS'vhigh'
p4829
ag177
ag4
aS'med'
p4830
aS'low'
p4831
aS'unacc'
p4832
aa(lp4833
S'med'
p4834
aS'vhigh'
p4835
ag177
ag4
aS'med'
p4836
aS'med'
p4837
aS'unacc'
p4838
aa(lp4839
S'med'
p4840
aS'vhigh'
p4841
ag177
ag4
aS'med'
p4842
aS'high'
p4843
aS'unacc'
p4844
aa(lp4845
S'med'
p4846
aS'vhigh'
p4847
ag177
ag4
aS'big'
p4848
aS'low'
p4849
aS'unacc'
p4850
aa(lp4851
S'med'
p4852
aS'vhigh'
p4853
ag177
ag4
aS'big'
p4854
aS'med'
p4855
aS'unacc'
p4856
aa(lp4857
S'med'
p4858
aS'vhigh'
p4859
ag177
ag4
aS'big'
p4860
aS'high'
p4861
aS'unacc'
p4862
aa(lp4863
S'med'
p4864
aS'vhigh'
p4865
ag177
ag59
aS'small'
p4866
aS'low'
p4867
aS'unacc'
p4868
aa(lp4869
S'med'
p4870
aS'vhigh'
p4871
ag177
ag59
aS'small'
p4872
aS'med'
p4873
aS'unacc'
p4874
aa(lp4875
S'med'
p4876
aS'vhigh'
p4877
ag177
ag59
aS'small'
p4878
aS'high'
p4879
aS'acc'
p4880
aa(lp4881
S'med'
p4882
aS'vhigh'
p4883
ag177
ag59
aS'med'
p4884
aS'low'
p4885
aS'unacc'
p4886
aa(lp4887
S'med'
p4888
aS'vhigh'
p4889
ag177
ag59
aS'med'
p4890
aS'med'
p4891
aS'unacc'
p4892
aa(lp4893
S'med'
p4894
aS'vhigh'
p4895
ag177
ag59
aS'med'
p4896
aS'high'
p4897
aS'acc'
p4898
aa(lp4899
S'med'
p4900
aS'vhigh'
p4901
ag177
ag59
aS'big'
p4902
aS'low'
p4903
aS'unacc'
p4904
aa(lp4905
S'med'
p4906
aS'vhigh'
p4907
ag177
ag59
aS'big'
p4908
aS'med'
p4909
aS'acc'
p4910
aa(lp4911
S'med'
p4912
aS'vhigh'
p4913
ag177
ag59
aS'big'
p4914
aS'high'
p4915
aS'acc'
p4916
aa(lp4917
S'med'
p4918
aS'vhigh'
p4919
ag177
aS'more'
p4920
aS'small'
p4921
aS'low'
p4922
aS'unacc'
p4923
aa(lp4924
S'med'
p4925
aS'vhigh'
p4926
ag177
aS'more'
p4927
aS'small'
p4928
aS'med'
p4929
aS'unacc'
p4930
aa(lp4931
S'med'
p4932
aS'vhigh'
p4933
ag177
aS'more'
p4934
aS'small'
p4935
aS'high'
p4936
aS'acc'
p4937
aa(lp4938
S'med'
p4939
aS'vhigh'
p4940
ag177
aS'more'
p4941
aS'med'
p4942
aS'low'
p4943
aS'unacc'
p4944
aa(lp4945
S'med'
p4946
aS'vhigh'
p4947
ag177
aS'more'
p4948
aS'med'
p4949
aS'med'
p4950
aS'acc'
p4951
aa(lp4952
S'med'
p4953
aS'vhigh'
p4954
ag177
aS'more'
p4955
aS'med'
p4956
aS'high'
p4957
aS'acc'
p4958
aa(lp4959
S'med'
p4960
aS'vhigh'
p4961
ag177
aS'more'
p4962
aS'big'
p4963
aS'low'
p4964
aS'unacc'
p4965
aa(lp4966
S'med'
p4967
aS'vhigh'
p4968
ag177
aS'more'
p4969
aS'big'
p4970
aS'med'
p4971
aS'acc'
p4972
aa(lp4973
S'med'
p4974
aS'vhigh'
p4975
ag177
aS'more'
p4976
aS'big'
p4977
aS'high'
p4978
aS'acc'
p4979
aa(lp4980
S'med'
p4981
aS'vhigh'
p4982
ag59
ag4
aS'small'
p4983
aS'low'
p4984
aS'unacc'
p4985
aa(lp4986
S'med'
p4987
aS'vhigh'
p4988
ag59
ag4
aS'small'
p4989
aS'med'
p4990
aS'unacc'
p4991
aa(lp4992
S'med'
p4993
aS'vhigh'
p4994
ag59
ag4
aS'small'
p4995
aS'high'
p4996
aS'unacc'
p4997
aa(lp4998
S'med'
p4999
aS'vhigh'
p5000
ag59
ag4
aS'med'
p5001
aS'low'
p5002
aS'unacc'
p5003
aa(lp5004
S'med'
p5005
aS'vhigh'
p5006
ag59
ag4
aS'med'
p5007
aS'med'
p5008
aS'unacc'
p5009
aa(lp5010
S'med'
p5011
aS'vhigh'
p5012
ag59
ag4
aS'med'
p5013
aS'high'
p5014
aS'unacc'
p5015
aa(lp5016
S'med'
p5017
aS'vhigh'
p5018
ag59
ag4
aS'big'
p5019
aS'low'
p5020
aS'unacc'
p5021
aa(lp5022
S'med'
p5023
aS'vhigh'
p5024
ag59
ag4
aS'big'
p5025
aS'med'
p5026
aS'unacc'
p5027
aa(lp5028
S'med'
p5029
aS'vhigh'
p5030
ag59
ag4
aS'big'
p5031
aS'high'
p5032
aS'unacc'
p5033
aa(lp5034
S'med'
p5035
aS'vhigh'
p5036
ag59
ag59
aS'small'
p5037
aS'low'
p5038
aS'unacc'
p5039
aa(lp5040
S'med'
p5041
aS'vhigh'
p5042
ag59
ag59
aS'small'
p5043
aS'med'
p5044
aS'unacc'
p5045
aa(lp5046
S'med'
p5047
aS'vhigh'
p5048
ag59
ag59
aS'small'
p5049
aS'high'
p5050
aS'acc'
p5051
aa(lp5052
S'med'
p5053
aS'vhigh'
p5054
ag59
ag59
aS'med'
p5055
aS'low'
p5056
aS'unacc'
p5057
aa(lp5058
S'med'
p5059
aS'vhigh'
p5060
ag59
ag59
aS'med'
p5061
aS'med'
p5062
aS'acc'
p5063
aa(lp5064
S'med'
p5065
aS'vhigh'
p5066
ag59
ag59
aS'med'
p5067
aS'high'
p5068
aS'acc'
p5069
aa(lp5070
S'med'
p5071
aS'vhigh'
p5072
ag59
ag59
aS'big'
p5073
aS'low'
p5074
aS'unacc'
p5075
aa(lp5076
S'med'
p5077
aS'vhigh'
p5078
ag59
ag59
aS'big'
p5079
aS'med'
p5080
aS'acc'
p5081
aa(lp5082
S'med'
p5083
aS'vhigh'
p5084
ag59
ag59
aS'big'
p5085
aS'high'
p5086
aS'acc'
p5087
aa(lp5088
S'med'
p5089
aS'vhigh'
p5090
ag59
aS'more'
p5091
aS'small'
p5092
aS'low'
p5093
aS'unacc'
p5094
aa(lp5095
S'med'
p5096
aS'vhigh'
p5097
ag59
aS'more'
p5098
aS'small'
p5099
aS'med'
p5100
aS'unacc'
p5101
aa(lp5102
S'med'
p5103
aS'vhigh'
p5104
ag59
aS'more'
p5105
aS'small'
p5106
aS'high'
p5107
aS'acc'
p5108
aa(lp5109
S'med'
p5110
aS'vhigh'
p5111
ag59
aS'more'
p5112
aS'med'
p5113
aS'low'
p5114
aS'unacc'
p5115
aa(lp5116
S'med'
p5117
aS'vhigh'
p5118
ag59
aS'more'
p5119
aS'med'
p5120
aS'med'
p5121
aS'acc'
p5122
aa(lp5123
S'med'
p5124
aS'vhigh'
p5125
ag59
aS'more'
p5126
aS'med'
p5127
aS'high'
p5128
aS'acc'
p5129
aa(lp5130
S'med'
p5131
aS'vhigh'
p5132
ag59
aS'more'
p5133
aS'big'
p5134
aS'low'
p5135
aS'unacc'
p5136
aa(lp5137
S'med'
p5138
aS'vhigh'
p5139
ag59
aS'more'
p5140
aS'big'
p5141
aS'med'
p5142
aS'acc'
p5143
aa(lp5144
S'med'
p5145
aS'vhigh'
p5146
ag59
aS'more'
p5147
aS'big'
p5148
aS'high'
p5149
aS'acc'
p5150
aa(lp5151
S'med'
p5152
aS'vhigh'
p5153
aS'5more'
p5154
ag4
aS'small'
p5155
aS'low'
p5156
aS'unacc'
p5157
aa(lp5158
S'med'
p5159
aS'vhigh'
p5160
aS'5more'
p5161
ag4
aS'small'
p5162
aS'med'
p5163
aS'unacc'
p5164
aa(lp5165
S'med'
p5166
aS'vhigh'
p5167
aS'5more'
p5168
ag4
aS'small'
p5169
aS'high'
p5170
aS'unacc'
p5171
aa(lp5172
S'med'
p5173
aS'vhigh'
p5174
aS'5more'
p5175
ag4
aS'med'
p5176
aS'low'
p5177
aS'unacc'
p5178
aa(lp5179
S'med'
p5180
aS'vhigh'
p5181
aS'5more'
p5182
ag4
aS'med'
p5183
aS'med'
p5184
aS'unacc'
p5185
aa(lp5186
S'med'
p5187
aS'vhigh'
p5188
aS'5more'
p5189
ag4
aS'med'
p5190
aS'high'
p5191
aS'unacc'
p5192
aa(lp5193
S'med'
p5194
aS'vhigh'
p5195
aS'5more'
p5196
ag4
aS'big'
p5197
aS'low'
p5198
aS'unacc'
p5199
aa(lp5200
S'med'
p5201
aS'vhigh'
p5202
aS'5more'
p5203
ag4
aS'big'
p5204
aS'med'
p5205
aS'unacc'
p5206
aa(lp5207
S'med'
p5208
aS'vhigh'
p5209
aS'5more'
p5210
ag4
aS'big'
p5211
aS'high'
p5212
aS'unacc'
p5213
aa(lp5214
S'med'
p5215
aS'vhigh'
p5216
aS'5more'
p5217
ag59
aS'small'
p5218
aS'low'
p5219
aS'unacc'
p5220
aa(lp5221
S'med'
p5222
aS'vhigh'
p5223
aS'5more'
p5224
ag59
aS'small'
p5225
aS'med'
p5226
aS'unacc'
p5227
aa(lp5228
S'med'
p5229
aS'vhigh'
p5230
aS'5more'
p5231
ag59
aS'small'
p5232
aS'high'
p5233
aS'acc'
p5234
aa(lp5235
S'med'
p5236
aS'vhigh'
p5237
aS'5more'
p5238
ag59
aS'med'
p5239
aS'low'
p5240
aS'unacc'
p5241
aa(lp5242
S'med'
p5243
aS'vhigh'
p5244
aS'5more'
p5245
ag59
aS'med'
p5246
aS'med'
p5247
aS'acc'
p5248
aa(lp5249
S'med'
p5250
aS'vhigh'
p5251
aS'5more'
p5252
ag59
aS'med'
p5253
aS'high'
p5254
aS'acc'
p5255
aa(lp5256
S'med'
p5257
aS'vhigh'
p5258
aS'5more'
p5259
ag59
aS'big'
p5260
aS'low'
p5261
aS'unacc'
p5262
aa(lp5263
S'med'
p5264
aS'vhigh'
p5265
aS'5more'
p5266
ag59
aS'big'
p5267
aS'med'
p5268
aS'acc'
p5269
aa(lp5270
S'med'
p5271
aS'vhigh'
p5272
aS'5more'
p5273
ag59
aS'big'
p5274
aS'high'
p5275
aS'acc'
p5276
aa(lp5277
S'med'
p5278
aS'vhigh'
p5279
aS'5more'
p5280
aS'more'
p5281
aS'small'
p5282
aS'low'
p5283
aS'unacc'
p5284
aa(lp5285
S'med'
p5286
aS'vhigh'
p5287
aS'5more'
p5288
aS'more'
p5289
aS'small'
p5290
aS'med'
p5291
aS'unacc'
p5292
aa(lp5293
S'med'
p5294
aS'vhigh'
p5295
aS'5more'
p5296
aS'more'
p5297
aS'small'
p5298
aS'high'
p5299
aS'acc'
p5300
aa(lp5301
S'med'
p5302
aS'vhigh'
p5303
aS'5more'
p5304
aS'more'
p5305
aS'med'
p5306
aS'low'
p5307
aS'unacc'
p5308
aa(lp5309
S'med'
p5310
aS'vhigh'
p5311
aS'5more'
p5312
aS'more'
p5313
aS'med'
p5314
aS'med'
p5315
aS'acc'
p5316
aa(lp5317
S'med'
p5318
aS'vhigh'
p5319
aS'5more'
p5320
aS'more'
p5321
aS'med'
p5322
aS'high'
p5323
aS'acc'
p5324
aa(lp5325
S'med'
p5326
aS'vhigh'
p5327
aS'5more'
p5328
aS'more'
p5329
aS'big'
p5330
aS'low'
p5331
aS'unacc'
p5332
aa(lp5333
S'med'
p5334
aS'vhigh'
p5335
aS'5more'
p5336
aS'more'
p5337
aS'big'
p5338
aS'med'
p5339
aS'acc'
p5340
aa(lp5341
S'med'
p5342
aS'vhigh'
p5343
aS'5more'
p5344
aS'more'
p5345
aS'big'
p5346
aS'high'
p5347
aS'acc'
p5348
aa(lp5349
S'med'
p5350
aS'high'
p5351
ag4
ag4
aS'small'
p5352
aS'low'
p5353
aS'unacc'
p5354
aa(lp5355
S'med'
p5356
aS'high'
p5357
ag4
ag4
aS'small'
p5358
aS'med'
p5359
aS'unacc'
p5360
aa(lp5361
S'med'
p5362
aS'high'
p5363
ag4
ag4
aS'small'
p5364
aS'high'
p5365
aS'unacc'
p5366
aa(lp5367
S'med'
p5368
aS'high'
p5369
ag4
ag4
aS'med'
p5370
aS'low'
p5371
aS'unacc'
p5372
aa(lp5373
S'med'
p5374
aS'high'
p5375
ag4
ag4
aS'med'
p5376
aS'med'
p5377
aS'unacc'
p5378
aa(lp5379
S'med'
p5380
aS'high'
p5381
ag4
ag4
aS'med'
p5382
aS'high'
p5383
aS'unacc'
p5384
aa(lp5385
S'med'
p5386
aS'high'
p5387
ag4
ag4
aS'big'
p5388
aS'low'
p5389
aS'unacc'
p5390
aa(lp5391
S'med'
p5392
aS'high'
p5393
ag4
ag4
aS'big'
p5394
aS'med'
p5395
aS'unacc'
p5396
aa(lp5397
S'med'
p5398
aS'high'
p5399
ag4
ag4
aS'big'
p5400
aS'high'
p5401
aS'unacc'
p5402
aa(lp5403
S'med'
p5404
aS'high'
p5405
ag4
ag59
aS'small'
p5406
aS'low'
p5407
aS'unacc'
p5408
aa(lp5409
S'med'
p5410
aS'high'
p5411
ag4
ag59
aS'small'
p5412
aS'med'
p5413
aS'unacc'
p5414
aa(lp5415
S'med'
p5416
aS'high'
p5417
ag4
ag59
aS'small'
p5418
aS'high'
p5419
aS'acc'
p5420
aa(lp5421
S'med'
p5422
aS'high'
p5423
ag4
ag59
aS'med'
p5424
aS'low'
p5425
aS'unacc'
p5426
aa(lp5427
S'med'
p5428
aS'high'
p5429
ag4
ag59
aS'med'
p5430
aS'med'
p5431
aS'unacc'
p5432
aa(lp5433
S'med'
p5434
aS'high'
p5435
ag4
ag59
aS'med'
p5436
aS'high'
p5437
aS'acc'
p5438
aa(lp5439
S'med'
p5440
aS'high'
p5441
ag4
ag59
aS'big'
p5442
aS'low'
p5443
aS'unacc'
p5444
aa(lp5445
S'med'
p5446
aS'high'
p5447
ag4
ag59
aS'big'
p5448
aS'med'
p5449
aS'acc'
p5450
aa(lp5451
S'med'
p5452
aS'high'
p5453
ag4
ag59
aS'big'
p5454
aS'high'
p5455
aS'acc'
p5456
aa(lp5457
S'med'
p5458
aS'high'
p5459
ag4
aS'more'
p5460
aS'small'
p5461
aS'low'
p5462
aS'unacc'
p5463
aa(lp5464
S'med'
p5465
aS'high'
p5466
ag4
aS'more'
p5467
aS'small'
p5468
aS'med'
p5469
aS'unacc'
p5470
aa(lp5471
S'med'
p5472
aS'high'
p5473
ag4
aS'more'
p5474
aS'small'
p5475
aS'high'
p5476
aS'unacc'
p5477
aa(lp5478
S'med'
p5479
aS'high'
p5480
ag4
aS'more'
p5481
aS'med'
p5482
aS'low'
p5483
aS'unacc'
p5484
aa(lp5485
S'med'
p5486
aS'high'
p5487
ag4
aS'more'
p5488
aS'med'
p5489
aS'med'
p5490
aS'unacc'
p5491
aa(lp5492
S'med'
p5493
aS'high'
p5494
ag4
aS'more'
p5495
aS'med'
p5496
aS'high'
p5497
aS'acc'
p5498
aa(lp5499
S'med'
p5500
aS'high'
p5501
ag4
aS'more'
p5502
aS'big'
p5503
aS'low'
p5504
aS'unacc'
p5505
aa(lp5506
S'med'
p5507
aS'high'
p5508
ag4
aS'more'
p5509
aS'big'
p5510
aS'med'
p5511
aS'acc'
p5512
aa(lp5513
S'med'
p5514
aS'high'
p5515
ag4
aS'more'
p5516
aS'big'
p5517
aS'high'
p5518
aS'acc'
p5519
aa(lp5520
S'med'
p5521
aS'high'
p5522
ag177
ag4
aS'small'
p5523
aS'low'
p5524
aS'unacc'
p5525
aa(lp5526
S'med'
p5527
aS'high'
p5528
ag177
ag4
aS'small'
p5529
aS'med'
p5530
aS'unacc'
p5531
aa(lp5532
S'med'
p5533
aS'high'
p5534
ag177
ag4
aS'small'
p5535
aS'high'
p5536
aS'unacc'
p5537
aa(lp5538
S'med'
p5539
aS'high'
p5540
ag177
ag4
aS'med'
p5541
aS'low'
p5542
aS'unacc'
p5543
aa(lp5544
S'med'
p5545
aS'high'
p5546
ag177
ag4
aS'med'
p5547
aS'med'
p5548
aS'unacc'
p5549
aa(lp5550
S'med'
p5551
aS'high'
p5552
ag177
ag4
aS'med'
p5553
aS'high'
p5554
aS'unacc'
p5555
aa(lp5556
S'med'
p5557
aS'high'
p5558
ag177
ag4
aS'big'
p5559
aS'low'
p5560
aS'unacc'
p5561
aa(lp5562
S'med'
p5563
aS'high'
p5564
ag177
ag4
aS'big'
p5565
aS'med'
p5566
aS'unacc'
p5567
aa(lp5568
S'med'
p5569
aS'high'
p5570
ag177
ag4
aS'big'
p5571
aS'high'
p5572
aS'unacc'
p5573
aa(lp5574
S'med'
p5575
aS'high'
p5576
ag177
ag59
aS'small'
p5577
aS'low'
p5578
aS'unacc'
p5579
aa(lp5580
S'med'
p5581
aS'high'
p5582
ag177
ag59
aS'small'
p5583
aS'med'
p5584
aS'unacc'
p5585
aa(lp5586
S'med'
p5587
aS'high'
p5588
ag177
ag59
aS'small'
p5589
aS'high'
p5590
aS'acc'
p5591
aa(lp5592
S'med'
p5593
aS'high'
p5594
ag177
ag59
aS'med'
p5595
aS'low'
p5596
aS'unacc'
p5597
aa(lp5598
S'med'
p5599
aS'high'
p5600
ag177
ag59
aS'med'
p5601
aS'med'
p5602
aS'unacc'
p5603
aa(lp5604
S'med'
p5605
aS'high'
p5606
ag177
ag59
aS'med'
p5607
aS'high'
p5608
aS'acc'
p5609
aa(lp5610
S'med'
p5611
aS'high'
p5612
ag177
ag59
aS'big'
p5613
aS'low'
p5614
aS'unacc'
p5615
aa(lp5616
S'med'
p5617
aS'high'
p5618
ag177
ag59
aS'big'
p5619
aS'med'
p5620
aS'acc'
p5621
aa(lp5622
S'med'
p5623
aS'high'
p5624
ag177
ag59
aS'big'
p5625
aS'high'
p5626
aS'acc'
p5627
aa(lp5628
S'med'
p5629
aS'high'
p5630
ag177
aS'more'
p5631
aS'small'
p5632
aS'low'
p5633
aS'unacc'
p5634
aa(lp5635
S'med'
p5636
aS'high'
p5637
ag177
aS'more'
p5638
aS'small'
p5639
aS'med'
p5640
aS'unacc'
p5641
aa(lp5642
S'med'
p5643
aS'high'
p5644
ag177
aS'more'
p5645
aS'small'
p5646
aS'high'
p5647
aS'acc'
p5648
aa(lp5649
S'med'
p5650
aS'high'
p5651
ag177
aS'more'
p5652
aS'med'
p5653
aS'low'
p5654
aS'unacc'
p5655
aa(lp5656
S'med'
p5657
aS'high'
p5658
ag177
aS'more'
p5659
aS'med'
p5660
aS'med'
p5661
aS'acc'
p5662
aa(lp5663
S'med'
p5664
aS'high'
p5665
ag177
aS'more'
p5666
aS'med'
p5667
aS'high'
p5668
aS'acc'
p5669
aa(lp5670
S'med'
p5671
aS'high'
p5672
ag177
aS'more'
p5673
aS'big'
p5674
aS'low'
p5675
aS'unacc'
p5676
aa(lp5677
S'med'
p5678
aS'high'
p5679
ag177
aS'more'
p5680
aS'big'
p5681
aS'med'
p5682
aS'acc'
p5683
aa(lp5684
S'med'
p5685
aS'high'
p5686
ag177
aS'more'
p5687
aS'big'
p5688
aS'high'
p5689
aS'acc'
p5690
aa(lp5691
S'med'
p5692
aS'high'
p5693
ag59
ag4
aS'small'
p5694
aS'low'
p5695
aS'unacc'
p5696
aa(lp5697
S'med'
p5698
aS'high'
p5699
ag59
ag4
aS'small'
p5700
aS'med'
p5701
aS'unacc'
p5702
aa(lp5703
S'med'
p5704
aS'high'
p5705
ag59
ag4
aS'small'
p5706
aS'high'
p5707
aS'unacc'
p5708
aa(lp5709
S'med'
p5710
aS'high'
p5711
ag59
ag4
aS'med'
p5712
aS'low'
p5713
aS'unacc'
p5714
aa(lp5715
S'med'
p5716
aS'high'
p5717
ag59
ag4
aS'med'
p5718
aS'med'
p5719
aS'unacc'
p5720
aa(lp5721
S'med'
p5722
aS'high'
p5723
ag59
ag4
aS'med'
p5724
aS'high'
p5725
aS'unacc'
p5726
aa(lp5727
S'med'
p5728
aS'high'
p5729
ag59
ag4
aS'big'
p5730
aS'low'
p5731
aS'unacc'
p5732
aa(lp5733
S'med'
p5734
aS'high'
p5735
ag59
ag4
aS'big'
p5736
aS'med'
p5737
aS'unacc'
p5738
aa(lp5739
S'med'
p5740
aS'high'
p5741
ag59
ag4
aS'big'
p5742
aS'high'
p5743
aS'unacc'
p5744
aa(lp5745
S'med'
p5746
aS'high'
p5747
ag59
ag59
aS'small'
p5748
aS'low'
p5749
aS'unacc'
p5750
aa(lp5751
S'med'
p5752
aS'high'
p5753
ag59
ag59
aS'small'
p5754
aS'med'
p5755
aS'unacc'
p5756
aa(lp5757
S'med'
p5758
aS'high'
p5759
ag59
ag59
aS'small'
p5760
aS'high'
p5761
aS'acc'
p5762
aa(lp5763
S'med'
p5764
aS'high'
p5765
ag59
ag59
aS'med'
p5766
aS'low'
p5767
aS'unacc'
p5768
aa(lp5769
S'med'
p5770
aS'high'
p5771
ag59
ag59
aS'med'
p5772
aS'med'
p5773
aS'acc'
p5774
aa(lp5775
S'med'
p5776
aS'high'
p5777
ag59
ag59
aS'med'
p5778
aS'high'
p5779
aS'acc'
p5780
aa(lp5781
S'med'
p5782
aS'high'
p5783
ag59
ag59
aS'big'
p5784
aS'low'
p5785
aS'unacc'
p5786
aa(lp5787
S'med'
p5788
aS'high'
p5789
ag59
ag59
aS'big'
p5790
aS'med'
p5791
aS'acc'
p5792
aa(lp5793
S'med'
p5794
aS'high'
p5795
ag59
ag59
aS'big'
p5796
aS'high'
p5797
aS'acc'
p5798
aa(lp5799
S'med'
p5800
aS'high'
p5801
ag59
aS'more'
p5802
aS'small'
p5803
aS'low'
p5804
aS'unacc'
p5805
aa(lp5806
S'med'
p5807
aS'high'
p5808
ag59
aS'more'
p5809
aS'small'
p5810
aS'med'
p5811
aS'unacc'
p5812
aa(lp5813
S'med'
p5814
aS'high'
p5815
ag59
aS'more'
p5816
aS'small'
p5817
aS'high'
p5818
aS'acc'
p5819
aa(lp5820
S'med'
p5821
aS'high'
p5822
ag59
aS'more'
p5823
aS'med'
p5824
aS'low'
p5825
aS'unacc'
p5826
aa(lp5827
S'med'
p5828
aS'high'
p5829
ag59
aS'more'
p5830
aS'med'
p5831
aS'med'
p5832
aS'acc'
p5833
aa(lp5834
S'med'
p5835
aS'high'
p5836
ag59
aS'more'
p5837
aS'med'
p5838
aS'high'
p5839
aS'acc'
p5840
aa(lp5841
S'med'
p5842
aS'high'
p5843
ag59
aS'more'
p5844
aS'big'
p5845
aS'low'
p5846
aS'unacc'
p5847
aa(lp5848
S'med'
p5849
aS'high'
p5850
ag59
aS'more'
p5851
aS'big'
p5852
aS'med'
p5853
aS'acc'
p5854
aa(lp5855
S'med'
p5856
aS'high'
p5857
ag59
aS'more'
p5858
aS'big'
p5859
aS'high'
p5860
aS'acc'
p5861
aa(lp5862
S'med'
p5863
aS'high'
p5864
aS'5more'
p5865
ag4
aS'small'
p5866
aS'low'
p5867
aS'unacc'
p5868
aa(lp5869
S'med'
p5870
aS'high'
p5871
aS'5more'
p5872
ag4
aS'small'
p5873
aS'med'
p5874
aS'unacc'
p5875
aa(lp5876
S'med'
p5877
aS'high'
p5878
aS'5more'
p5879
ag4
aS'small'
p5880
aS'high'
p5881
aS'unacc'
p5882
aa(lp5883
S'med'
p5884
aS'high'
p5885
aS'5more'
p5886
ag4
aS'med'
p5887
aS'low'
p5888
aS'unacc'
p5889
aa(lp5890
S'med'
p5891
aS'high'
p5892
aS'5more'
p5893
ag4
aS'med'
p5894
aS'med'
p5895
aS'unacc'
p5896
aa(lp5897
S'med'
p5898
aS'high'
p5899
aS'5more'
p5900
ag4
aS'med'
p5901
aS'high'
p5902
aS'unacc'
p5903
aa(lp5904
S'med'
p5905
aS'high'
p5906
aS'5more'
p5907
ag4
aS'big'
p5908
aS'low'
p5909
aS'unacc'
p5910
aa(lp5911
S'med'
p5912
aS'high'
p5913
aS'5more'
p5914
ag4
aS'big'
p5915
aS'med'
p5916
aS'unacc'
p5917
aa(lp5918
S'med'
p5919
aS'high'
p5920
aS'5more'
p5921
ag4
aS'big'
p5922
aS'high'
p5923
aS'unacc'
p5924
aa(lp5925
S'med'
p5926
aS'high'
p5927
aS'5more'
p5928
ag59
aS'small'
p5929
aS'low'
p5930
aS'unacc'
p5931
aa(lp5932
S'med'
p5933
aS'high'
p5934
aS'5more'
p5935
ag59
aS'small'
p5936
aS'med'
p5937
aS'unacc'
p5938
aa(lp5939
S'med'
p5940
aS'high'
p5941
aS'5more'
p5942
ag59
aS'small'
p5943
aS'high'
p5944
aS'acc'
p5945
aa(lp5946
S'med'
p5947
aS'high'
p5948
aS'5more'
p5949
ag59
aS'med'
p5950
aS'low'
p5951
aS'unacc'
p5952
aa(lp5953
S'med'
p5954
aS'high'
p5955
aS'5more'
p5956
ag59
aS'med'
p5957
aS'med'
p5958
aS'acc'
p5959
aa(lp5960
S'med'
p5961
aS'high'
p5962
aS'5more'
p5963
ag59
aS'med'
p5964
aS'high'
p5965
aS'acc'
p5966
aa(lp5967
S'med'
p5968
aS'high'
p5969
aS'5more'
p5970
ag59
aS'big'
p5971
aS'low'
p5972
aS'unacc'
p5973
aa(lp5974
S'med'
p5975
aS'high'
p5976
aS'5more'
p5977
ag59
aS'big'
p5978
aS'med'
p5979
aS'acc'
p5980
aa(lp5981
S'med'
p5982
aS'high'
p5983
aS'5more'
p5984
ag59
aS'big'
p5985
aS'high'
p5986
aS'acc'
p5987
aa(lp5988
S'med'
p5989
aS'high'
p5990
aS'5more'
p5991
aS'more'
p5992
aS'small'
p5993
aS'low'
p5994
aS'unacc'
p5995
aa(lp5996
S'med'
p5997
aS'high'
p5998
aS'5more'
p5999
aS'more'
p6000
aS'small'
p6001
aS'med'
p6002
aS'unacc'
p6003
aa(lp6004
S'med'
p6005
aS'high'
p6006
aS'5more'
p6007
aS'more'
p6008
aS'small'
p6009
aS'high'
p6010
aS'acc'
p6011
aa(lp6012
S'med'
p6013
aS'high'
p6014
aS'5more'
p6015
aS'more'
p6016
aS'med'
p6017
aS'low'
p6018
aS'unacc'
p6019
aa(lp6020
S'med'
p6021
aS'high'
p6022
aS'5more'
p6023
aS'more'
p6024
aS'med'
p6025
aS'med'
p6026
aS'acc'
p6027
aa(lp6028
S'med'
p6029
aS'high'
p6030
aS'5more'
p6031
aS'more'
p6032
aS'med'
p6033
aS'high'
p6034
aS'acc'
p6035
aa(lp6036
S'med'
p6037
aS'high'
p6038
aS'5more'
p6039
aS'more'
p6040
aS'big'
p6041
aS'low'
p6042
aS'unacc'
p6043
aa(lp6044
S'med'
p6045
aS'high'
p6046
aS'5more'
p6047
aS'more'
p6048
aS'big'
p6049
aS'med'
p6050
aS'acc'
p6051
aa(lp6052
S'med'
p6053
aS'high'
p6054
aS'5more'
p6055
aS'more'
p6056
aS'big'
p6057
aS'high'
p6058
aS'acc'
p6059
aa(lp6060
S'med'
p6061
aS'med'
p6062
ag4
ag4
aS'small'
p6063
aS'low'
p6064
aS'unacc'
p6065
aa(lp6066
S'med'
p6067
aS'med'
p6068
ag4
ag4
aS'small'
p6069
aS'med'
p6070
aS'unacc'
p6071
aa(lp6072
S'med'
p6073
aS'med'
p6074
ag4
ag4
aS'small'
p6075
aS'high'
p6076
aS'unacc'
p6077
aa(lp6078
S'med'
p6079
aS'med'
p6080
ag4
ag4
aS'med'
p6081
aS'low'
p6082
aS'unacc'
p6083
aa(lp6084
S'med'
p6085
aS'med'
p6086
ag4
ag4
aS'med'
p6087
aS'med'
p6088
aS'unacc'
p6089
aa(lp6090
S'med'
p6091
aS'med'
p6092
ag4
ag4
aS'med'
p6093
aS'high'
p6094
aS'unacc'
p6095
aa(lp6096
S'med'
p6097
aS'med'
p6098
ag4
ag4
aS'big'
p6099
aS'low'
p6100
aS'unacc'
p6101
aa(lp6102
S'med'
p6103
aS'med'
p6104
ag4
ag4
aS'big'
p6105
aS'med'
p6106
aS'unacc'
p6107
aa(lp6108
S'med'
p6109
aS'med'
p6110
ag4
ag4
aS'big'
p6111
aS'high'
p6112
aS'unacc'
p6113
aa(lp6114
S'med'
p6115
aS'med'
p6116
ag4
ag59
aS'small'
p6117
aS'low'
p6118
aS'unacc'
p6119
aa(lp6120
S'med'
p6121
aS'med'
p6122
ag4
ag59
aS'small'
p6123
aS'med'
p6124
aS'acc'
p6125
aa(lp6126
S'med'
p6127
aS'med'
p6128
ag4
ag59
aS'small'
p6129
aS'high'
p6130
aS'acc'
p6131
aa(lp6132
S'med'
p6133
aS'med'
p6134
ag4
ag59
aS'med'
p6135
aS'low'
p6136
aS'unacc'
p6137
aa(lp6138
S'med'
p6139
aS'med'
p6140
ag4
ag59
aS'med'
p6141
aS'med'
p6142
aS'acc'
p6143
aa(lp6144
S'med'
p6145
aS'med'
p6146
ag4
ag59
aS'med'
p6147
aS'high'
p6148
aS'acc'
p6149
aa(lp6150
S'med'
p6151
aS'med'
p6152
ag4
ag59
aS'big'
p6153
aS'low'
p6154
aS'unacc'
p6155
aa(lp6156
S'med'
p6157
aS'med'
p6158
ag4
ag59
aS'big'
p6159
aS'med'
p6160
aS'acc'
p6161
aa(lp6162
S'med'
p6163
aS'med'
p6164
ag4
ag59
aS'big'
p6165
aS'high'
p6166
aS'vgood'
p6167
aa(lp6168
S'med'
p6169
aS'med'
p6170
ag4
aS'more'
p6171
aS'small'
p6172
aS'low'
p6173
aS'unacc'
p6174
aa(lp6175
S'med'
p6176
aS'med'
p6177
ag4
aS'more'
p6178
aS'small'
p6179
aS'med'
p6180
aS'unacc'
p6181
aa(lp6182
S'med'
p6183
aS'med'
p6184
ag4
aS'more'
p6185
aS'small'
p6186
aS'high'
p6187
aS'unacc'
p6188
aa(lp6189
S'med'
p6190
aS'med'
p6191
ag4
aS'more'
p6192
aS'med'
p6193
aS'low'
p6194
aS'unacc'
p6195
aa(lp6196
S'med'
p6197
aS'med'
p6198
ag4
aS'more'
p6199
aS'med'
p6200
aS'med'
p6201
aS'acc'
p6202
aa(lp6203
S'med'
p6204
aS'med'
p6205
ag4
aS'more'
p6206
aS'med'
p6207
aS'high'
p6208
aS'acc'
p6209
aa(lp6210
S'med'
p6211
aS'med'
p6212
ag4
aS'more'
p6213
aS'big'
p6214
aS'low'
p6215
aS'unacc'
p6216
aa(lp6217
S'med'
p6218
aS'med'
p6219
ag4
aS'more'
p6220
aS'big'
p6221
aS'med'
p6222
aS'acc'
p6223
aa(lp6224
S'med'
p6225
aS'med'
p6226
ag4
aS'more'
p6227
aS'big'
p6228
aS'high'
p6229
aS'vgood'
p6230
aa(lp6231
S'med'
p6232
aS'med'
p6233
ag177
ag4
aS'small'
p6234
aS'low'
p6235
aS'unacc'
p6236
aa(lp6237
S'med'
p6238
aS'med'
p6239
ag177
ag4
aS'small'
p6240
aS'med'
p6241
aS'unacc'
p6242
aa(lp6243
S'med'
p6244
aS'med'
p6245
ag177
ag4
aS'small'
p6246
aS'high'
p6247
aS'unacc'
p6248
aa(lp6249
S'med'
p6250
aS'med'
p6251
ag177
ag4
aS'med'
p6252
aS'low'
p6253
aS'unacc'
p6254
aa(lp6255
S'med'
p6256
aS'med'
p6257
ag177
ag4
aS'med'
p6258
aS'med'
p6259
aS'unacc'
p6260
aa(lp6261
S'med'
p6262
aS'med'
p6263
ag177
ag4
aS'med'
p6264
aS'high'
p6265
aS'unacc'
p6266
aa(lp6267
S'med'
p6268
aS'med'
p6269
ag177
ag4
aS'big'
p6270
aS'low'
p6271
aS'unacc'
p6272
aa(lp6273
S'med'
p6274
aS'med'
p6275
ag177
ag4
aS'big'
p6276
aS'med'
p6277
aS'unacc'
p6278
aa(lp6279
S'med'
p6280
aS'med'
p6281
ag177
ag4
aS'big'
p6282
aS'high'
p6283
aS'unacc'
p6284
aa(lp6285
S'med'
p6286
aS'med'
p6287
ag177
ag59
aS'small'
p6288
aS'low'
p6289
aS'unacc'
p6290
aa(lp6291
S'med'
p6292
aS'med'
p6293
ag177
ag59
aS'small'
p6294
aS'med'
p6295
aS'acc'
p6296
aa(lp6297
S'med'
p6298
aS'med'
p6299
ag177
ag59
aS'small'
p6300
aS'high'
p6301
aS'acc'
p6302
aa(lp6303
S'med'
p6304
aS'med'
p6305
ag177
ag59
aS'med'
p6306
aS'low'
p6307
aS'unacc'
p6308
aa(lp6309
S'med'
p6310
aS'med'
p6311
ag177
ag59
aS'med'
p6312
aS'med'
p6313
aS'acc'
p6314
aa(lp6315
S'med'
p6316
aS'med'
p6317
ag177
ag59
aS'med'
p6318
aS'high'
p6319
aS'acc'
p6320
aa(lp6321
S'med'
p6322
aS'med'
p6323
ag177
ag59
aS'big'
p6324
aS'low'
p6325
aS'unacc'
p6326
aa(lp6327
S'med'
p6328
aS'med'
p6329
ag177
ag59
aS'big'
p6330
aS'med'
p6331
aS'acc'
p6332
aa(lp6333
S'med'
p6334
aS'med'
p6335
ag177
ag59
aS'big'
p6336
aS'high'
p6337
aS'vgood'
p6338
aa(lp6339
S'med'
p6340
aS'med'
p6341
ag177
aS'more'
p6342
aS'small'
p6343
aS'low'
p6344
aS'unacc'
p6345
aa(lp6346
S'med'
p6347
aS'med'
p6348
ag177
aS'more'
p6349
aS'small'
p6350
aS'med'
p6351
aS'acc'
p6352
aa(lp6353
S'med'
p6354
aS'med'
p6355
ag177
aS'more'
p6356
aS'small'
p6357
aS'high'
p6358
aS'acc'
p6359
aa(lp6360
S'med'
p6361
aS'med'
p6362
ag177
aS'more'
p6363
aS'med'
p6364
aS'low'
p6365
aS'unacc'
p6366
aa(lp6367
S'med'
p6368
aS'med'
p6369
ag177
aS'more'
p6370
aS'med'
p6371
aS'med'
p6372
aS'acc'
p6373
aa(lp6374
S'med'
p6375
aS'med'
p6376
ag177
aS'more'
p6377
aS'med'
p6378
aS'high'
p6379
aS'vgood'
p6380
aa(lp6381
S'med'
p6382
aS'med'
p6383
ag177
aS'more'
p6384
aS'big'
p6385
aS'low'
p6386
aS'unacc'
p6387
aa(lp6388
S'med'
p6389
aS'med'
p6390
ag177
aS'more'
p6391
aS'big'
p6392
aS'med'
p6393
aS'acc'
p6394
aa(lp6395
S'med'
p6396
aS'med'
p6397
ag177
aS'more'
p6398
aS'big'
p6399
aS'high'
p6400
aS'vgood'
p6401
aa(lp6402
S'med'
p6403
aS'med'
p6404
ag59
ag4
aS'small'
p6405
aS'low'
p6406
aS'unacc'
p6407
aa(lp6408
S'med'
p6409
aS'med'
p6410
ag59
ag4
aS'small'
p6411
aS'med'
p6412
aS'unacc'
p6413
aa(lp6414
S'med'
p6415
aS'med'
p6416
ag59
ag4
aS'small'
p6417
aS'high'
p6418
aS'unacc'
p6419
aa(lp6420
S'med'
p6421
aS'med'
p6422
ag59
ag4
aS'med'
p6423
aS'low'
p6424
aS'unacc'
p6425
aa(lp6426
S'med'
p6427
aS'med'
p6428
ag59
ag4
aS'med'
p6429
aS'med'
p6430
aS'unacc'
p6431
aa(lp6432
S'med'
p6433
aS'med'
p6434
ag59
ag4
aS'med'
p6435
aS'high'
p6436
aS'unacc'
p6437
aa(lp6438
S'med'
p6439
aS'med'
p6440
ag59
ag4
aS'big'
p6441
aS'low'
p6442
aS'unacc'
p6443
aa(lp6444
S'med'
p6445
aS'med'
p6446
ag59
ag4
aS'big'
p6447
aS'med'
p6448
aS'unacc'
p6449
aa(lp6450
S'med'
p6451
aS'med'
p6452
ag59
ag4
aS'big'
p6453
aS'high'
p6454
aS'unacc'
p6455
aa(lp6456
S'med'
p6457
aS'med'
p6458
ag59
ag59
aS'small'
p6459
aS'low'
p6460
aS'unacc'
p6461
aa(lp6462
S'med'
p6463
aS'med'
p6464
ag59
ag59
aS'small'
p6465
aS'med'
p6466
aS'acc'
p6467
aa(lp6468
S'med'
p6469
aS'med'
p6470
ag59
ag59
aS'small'
p6471
aS'high'
p6472
aS'acc'
p6473
aa(lp6474
S'med'
p6475
aS'med'
p6476
ag59
ag59
aS'med'
p6477
aS'low'
p6478
aS'unacc'
p6479
aa(lp6480
S'med'
p6481
aS'med'
p6482
ag59
ag59
aS'med'
p6483
aS'med'
p6484
aS'acc'
p6485
aa(lp6486
S'med'
p6487
aS'med'
p6488
ag59
ag59
aS'med'
p6489
aS'high'
p6490
aS'vgood'
p6491
aa(lp6492
S'med'
p6493
aS'med'
p6494
ag59
ag59
aS'big'
p6495
aS'low'
p6496
aS'unacc'
p6497
aa(lp6498
S'med'
p6499
aS'med'
p6500
ag59
ag59
aS'big'
p6501
aS'med'
p6502
aS'acc'
p6503
aa(lp6504
S'med'
p6505
aS'med'
p6506
ag59
ag59
aS'big'
p6507
aS'high'
p6508
aS'vgood'
p6509
aa(lp6510
S'med'
p6511
aS'med'
p6512
ag59
aS'more'
p6513
aS'small'
p6514
aS'low'
p6515
aS'unacc'
p6516
aa(lp6517
S'med'
p6518
aS'med'
p6519
ag59
aS'more'
p6520
aS'small'
p6521
aS'med'
p6522
aS'acc'
p6523
aa(lp6524
S'med'
p6525
aS'med'
p6526
ag59
aS'more'
p6527
aS'small'
p6528
aS'high'
p6529
aS'acc'
p6530
aa(lp6531
S'med'
p6532
aS'med'
p6533
ag59
aS'more'
p6534
aS'med'
p6535
aS'low'
p6536
aS'unacc'
p6537
aa(lp6538
S'med'
p6539
aS'med'
p6540
ag59
aS'more'
p6541
aS'med'
p6542
aS'med'
p6543
aS'acc'
p6544
aa(lp6545
S'med'
p6546
aS'med'
p6547
ag59
aS'more'
p6548
aS'med'
p6549
aS'high'
p6550
aS'vgood'
p6551
aa(lp6552
S'med'
p6553
aS'med'
p6554
ag59
aS'more'
p6555
aS'big'
p6556
aS'low'
p6557
aS'unacc'
p6558
aa(lp6559
S'med'
p6560
aS'med'
p6561
ag59
aS'more'
p6562
aS'big'
p6563
aS'med'
p6564
aS'acc'
p6565
aa(lp6566
S'med'
p6567
aS'med'
p6568
ag59
aS'more'
p6569
aS'big'
p6570
aS'high'
p6571
aS'vgood'
p6572
aa(lp6573
S'med'
p6574
aS'med'
p6575
aS'5more'
p6576
ag4
aS'small'
p6577
aS'low'
p6578
aS'unacc'
p6579
aa(lp6580
S'med'
p6581
aS'med'
p6582
aS'5more'
p6583
ag4
aS'small'
p6584
aS'med'
p6585
aS'unacc'
p6586
aa(lp6587
S'med'
p6588
aS'med'
p6589
aS'5more'
p6590
ag4
aS'small'
p6591
aS'high'
p6592
aS'unacc'
p6593
aa(lp6594
S'med'
p6595
aS'med'
p6596
aS'5more'
p6597
ag4
aS'med'
p6598
aS'low'
p6599
aS'unacc'
p6600
aa(lp6601
S'med'
p6602
aS'med'
p6603
aS'5more'
p6604
ag4
aS'med'
p6605
aS'med'
p6606
aS'unacc'
p6607
aa(lp6608
S'med'
p6609
aS'med'
p6610
aS'5more'
p6611
ag4
aS'med'
p6612
aS'high'
p6613
aS'unacc'
p6614
aa(lp6615
S'med'
p6616
aS'med'
p6617
aS'5more'
p6618
ag4
aS'big'
p6619
aS'low'
p6620
aS'unacc'
p6621
aa(lp6622
S'med'
p6623
aS'med'
p6624
aS'5more'
p6625
ag4
aS'big'
p6626
aS'med'
p6627
aS'unacc'
p6628
aa(lp6629
S'med'
p6630
aS'med'
p6631
aS'5more'
p6632
ag4
aS'big'
p6633
aS'high'
p6634
aS'unacc'
p6635
aa(lp6636
S'med'
p6637
aS'med'
p6638
aS'5more'
p6639
ag59
aS'small'
p6640
aS'low'
p6641
aS'unacc'
p6642
aa(lp6643
S'med'
p6644
aS'med'
p6645
aS'5more'
p6646
ag59
aS'small'
p6647
aS'med'
p6648
aS'acc'
p6649
aa(lp6650
S'med'
p6651
aS'med'
p6652
aS'5more'
p6653
ag59
aS'small'
p6654
aS'high'
p6655
aS'acc'
p6656
aa(lp6657
S'med'
p6658
aS'med'
p6659
aS'5more'
p6660
ag59
aS'med'
p6661
aS'low'
p6662
aS'unacc'
p6663
aa(lp6664
S'med'
p6665
aS'med'
p6666
aS'5more'
p6667
ag59
aS'med'
p6668
aS'med'
p6669
aS'acc'
p6670
aa(lp6671
S'med'
p6672
aS'med'
p6673
aS'5more'
p6674
ag59
aS'med'
p6675
aS'high'
p6676
aS'vgood'
p6677
aa(lp6678
S'med'
p6679
aS'med'
p6680
aS'5more'
p6681
ag59
aS'big'
p6682
aS'low'
p6683
aS'unacc'
p6684
aa(lp6685
S'med'
p6686
aS'med'
p6687
aS'5more'
p6688
ag59
aS'big'
p6689
aS'med'
p6690
aS'acc'
p6691
aa(lp6692
S'med'
p6693
aS'med'
p6694
aS'5more'
p6695
ag59
aS'big'
p6696
aS'high'
p6697
aS'vgood'
p6698
aa(lp6699
S'med'
p6700
aS'med'
p6701
aS'5more'
p6702
aS'more'
p6703
aS'small'
p6704
aS'low'
p6705
aS'unacc'
p6706
aa(lp6707
S'med'
p6708
aS'med'
p6709
aS'5more'
p6710
aS'more'
p6711
aS'small'
p6712
aS'med'
p6713
aS'acc'
p6714
aa(lp6715
S'med'
p6716
aS'med'
p6717
aS'5more'
p6718
aS'more'
p6719
aS'small'
p6720
aS'high'
p6721
aS'acc'
p6722
aa(lp6723
S'med'
p6724
aS'med'
p6725
aS'5more'
p6726
aS'more'
p6727
aS'med'
p6728
aS'low'
p6729
aS'unacc'
p6730
aa(lp6731
S'med'
p6732
aS'med'
p6733
aS'5more'
p6734
aS'more'
p6735
aS'med'
p6736
aS'med'
p6737
aS'acc'
p6738
aa(lp6739
S'med'
p6740
aS'med'
p6741
aS'5more'
p6742
aS'more'
p6743
aS'med'
p6744
aS'high'
p6745
aS'vgood'
p6746
aa(lp6747
S'med'
p6748
aS'med'
p6749
aS'5more'
p6750
aS'more'
p6751
aS'big'
p6752
aS'low'
p6753
aS'unacc'
p6754
aa(lp6755
S'med'
p6756
aS'med'
p6757
aS'5more'
p6758
aS'more'
p6759
aS'big'
p6760
aS'med'
p6761
aS'acc'
p6762
aa(lp6763
S'med'
p6764
aS'med'
p6765
aS'5more'
p6766
aS'more'
p6767
aS'big'
p6768
aS'high'
p6769
aS'vgood'
p6770
aa(lp6771
S'med'
p6772
aS'low'
p6773
ag4
ag4
aS'small'
p6774
aS'low'
p6775
aS'unacc'
p6776
aa(lp6777
S'med'
p6778
aS'low'
p6779
ag4
ag4
aS'small'
p6780
aS'med'
p6781
aS'unacc'
p6782
aa(lp6783
S'med'
p6784
aS'low'
p6785
ag4
ag4
aS'small'
p6786
aS'high'
p6787
aS'unacc'
p6788
aa(lp6789
S'med'
p6790
aS'low'
p6791
ag4
ag4
aS'med'
p6792
aS'low'
p6793
aS'unacc'
p6794
aa(lp6795
S'med'
p6796
aS'low'
p6797
ag4
ag4
aS'med'
p6798
aS'med'
p6799
aS'unacc'
p6800
aa(lp6801
S'med'
p6802
aS'low'
p6803
ag4
ag4
aS'med'
p6804
aS'high'
p6805
aS'unacc'
p6806
aa(lp6807
S'med'
p6808
aS'low'
p6809
ag4
ag4
aS'big'
p6810
aS'low'
p6811
aS'unacc'
p6812
aa(lp6813
S'med'
p6814
aS'low'
p6815
ag4
ag4
aS'big'
p6816
aS'med'
p6817
aS'unacc'
p6818
aa(lp6819
S'med'
p6820
aS'low'
p6821
ag4
ag4
aS'big'
p6822
aS'high'
p6823
aS'unacc'
p6824
aa(lp6825
S'med'
p6826
aS'low'
p6827
ag4
ag59
aS'small'
p6828
aS'low'
p6829
aS'unacc'
p6830
aa(lp6831
S'med'
p6832
aS'low'
p6833
ag4
ag59
aS'small'
p6834
aS'med'
p6835
aS'acc'
p6836
aa(lp6837
S'med'
p6838
aS'low'
p6839
ag4
ag59
aS'small'
p6840
aS'high'
p6841
aS'good'
p6842
aa(lp6843
S'med'
p6844
aS'low'
p6845
ag4
ag59
aS'med'
p6846
aS'low'
p6847
aS'unacc'
p6848
aa(lp6849
S'med'
p6850
aS'low'
p6851
ag4
ag59
aS'med'
p6852
aS'med'
p6853
aS'acc'
p6854
aa(lp6855
S'med'
p6856
aS'low'
p6857
ag4
ag59
aS'med'
p6858
aS'high'
p6859
aS'good'
p6860
aa(lp6861
S'med'
p6862
aS'low'
p6863
ag4
ag59
aS'big'
p6864
aS'low'
p6865
aS'unacc'
p6866
aa(lp6867
S'med'
p6868
aS'low'
p6869
ag4
ag59
aS'big'
p6870
aS'med'
p6871
aS'good'
p6872
aa(lp6873
S'med'
p6874
aS'low'
p6875
ag4
ag59
aS'big'
p6876
aS'high'
p6877
aS'vgood'
p6878
aa(lp6879
S'med'
p6880
aS'low'
p6881
ag4
aS'more'
p6882
aS'small'
p6883
aS'low'
p6884
aS'unacc'
p6885
aa(lp6886
S'med'
p6887
aS'low'
p6888
ag4
aS'more'
p6889
aS'small'
p6890
aS'med'
p6891
aS'unacc'
p6892
aa(lp6893
S'med'
p6894
aS'low'
p6895
ag4
aS'more'
p6896
aS'small'
p6897
aS'high'
p6898
aS'unacc'
p6899
aa(lp6900
S'med'
p6901
aS'low'
p6902
ag4
aS'more'
p6903
aS'med'
p6904
aS'low'
p6905
aS'unacc'
p6906
aa(lp6907
S'med'
p6908
aS'low'
p6909
ag4
aS'more'
p6910
aS'med'
p6911
aS'med'
p6912
aS'acc'
p6913
aa(lp6914
S'med'
p6915
aS'low'
p6916
ag4
aS'more'
p6917
aS'med'
p6918
aS'high'
p6919
aS'good'
p6920
aa(lp6921
S'med'
p6922
aS'low'
p6923
ag4
aS'more'
p6924
aS'big'
p6925
aS'low'
p6926
aS'unacc'
p6927
aa(lp6928
S'med'
p6929
aS'low'
p6930
ag4
aS'more'
p6931
aS'big'
p6932
aS'med'
p6933
aS'good'
p6934
aa(lp6935
S'med'
p6936
aS'low'
p6937
ag4
aS'more'
p6938
aS'big'
p6939
aS'high'
p6940
aS'vgood'
p6941
aa(lp6942
S'med'
p6943
aS'low'
p6944
ag177
ag4
aS'small'
p6945
aS'low'
p6946
aS'unacc'
p6947
aa(lp6948
S'med'
p6949
aS'low'
p6950
ag177
ag4
aS'small'
p6951
aS'med'
p6952
aS'unacc'
p6953
aa(lp6954
S'med'
p6955
aS'low'
p6956
ag177
ag4
aS'small'
p6957
aS'high'
p6958
aS'unacc'
p6959
aa(lp6960
S'med'
p6961
aS'low'
p6962
ag177
ag4
aS'med'
p6963
aS'low'
p6964
aS'unacc'
p6965
aa(lp6966
S'med'
p6967
aS'low'
p6968
ag177
ag4
aS'med'
p6969
aS'med'
p6970
aS'unacc'
p6971
aa(lp6972
S'med'
p6973
aS'low'
p6974
ag177
ag4
aS'med'
p6975
aS'high'
p6976
aS'unacc'
p6977
aa(lp6978
S'med'
p6979
aS'low'
p6980
ag177
ag4
aS'big'
p6981
aS'low'
p6982
aS'unacc'
p6983
aa(lp6984
S'med'
p6985
aS'low'
p6986
ag177
ag4
aS'big'
p6987
aS'med'
p6988
aS'unacc'
p6989
aa(lp6990
S'med'
p6991
aS'low'
p6992
ag177
ag4
aS'big'
p6993
aS'high'
p6994
aS'unacc'
p6995
aa(lp6996
S'med'
p6997
aS'low'
p6998
ag177
ag59
aS'small'
p6999
aS'low'
p7000
aS'unacc'
p7001
aa(lp7002
S'med'
p7003
aS'low'
p7004
ag177
ag59
aS'small'
p7005
aS'med'
p7006
aS'acc'
p7007
aa(lp7008
S'med'
p7009
aS'low'
p7010
ag177
ag59
aS'small'
p7011
aS'high'
p7012
aS'good'
p7013
aa(lp7014
S'med'
p7015
aS'low'
p7016
ag177
ag59
aS'med'
p7017
aS'low'
p7018
aS'unacc'
p7019
aa(lp7020
S'med'
p7021
aS'low'
p7022
ag177
ag59
aS'med'
p7023
aS'med'
p7024
aS'acc'
p7025
aa(lp7026
S'med'
p7027
aS'low'
p7028
ag177
ag59
aS'med'
p7029
aS'high'
p7030
aS'good'
p7031
aa(lp7032
S'med'
p7033
aS'low'
p7034
ag177
ag59
aS'big'
p7035
aS'low'
p7036
aS'unacc'
p7037
aa(lp7038
S'med'
p7039
aS'low'
p7040
ag177
ag59
aS'big'
p7041
aS'med'
p7042
aS'good'
p7043
aa(lp7044
S'med'
p7045
aS'low'
p7046
ag177
ag59
aS'big'
p7047
aS'high'
p7048
aS'vgood'
p7049
aa(lp7050
S'med'
p7051
aS'low'
p7052
ag177
aS'more'
p7053
aS'small'
p7054
aS'low'
p7055
aS'unacc'
p7056
aa(lp7057
S'med'
p7058
aS'low'
p7059
ag177
aS'more'
p7060
aS'small'
p7061
aS'med'
p7062
aS'acc'
p7063
aa(lp7064
S'med'
p7065
aS'low'
p7066
ag177
aS'more'
p7067
aS'small'
p7068
aS'high'
p7069
aS'good'
p7070
aa(lp7071
S'med'
p7072
aS'low'
p7073
ag177
aS'more'
p7074
aS'med'
p7075
aS'low'
p7076
aS'unacc'
p7077
aa(lp7078
S'med'
p7079
aS'low'
p7080
ag177
aS'more'
p7081
aS'med'
p7082
aS'med'
p7083
aS'good'
p7084
aa(lp7085
S'med'
p7086
aS'low'
p7087
ag177
aS'more'
p7088
aS'med'
p7089
aS'high'
p7090
aS'vgood'
p7091
aa(lp7092
S'med'
p7093
aS'low'
p7094
ag177
aS'more'
p7095
aS'big'
p7096
aS'low'
p7097
aS'unacc'
p7098
aa(lp7099
S'med'
p7100
aS'low'
p7101
ag177
aS'more'
p7102
aS'big'
p7103
aS'med'
p7104
aS'good'
p7105
aa(lp7106
S'med'
p7107
aS'low'
p7108
ag177
aS'more'
p7109
aS'big'
p7110
aS'high'
p7111
aS'vgood'
p7112
aa(lp7113
S'med'
p7114
aS'low'
p7115
ag59
ag4
aS'small'
p7116
aS'low'
p7117
aS'unacc'
p7118
aa(lp7119
S'med'
p7120
aS'low'
p7121
ag59
ag4
aS'small'
p7122
aS'med'
p7123
aS'unacc'
p7124
aa(lp7125
S'med'
p7126
aS'low'
p7127
ag59
ag4
aS'small'
p7128
aS'high'
p7129
aS'unacc'
p7130
aa(lp7131
S'med'
p7132
aS'low'
p7133
ag59
ag4
aS'med'
p7134
aS'low'
p7135
aS'unacc'
p7136
aa(lp7137
S'med'
p7138
aS'low'
p7139
ag59
ag4
aS'med'
p7140
aS'med'
p7141
aS'unacc'
p7142
aa(lp7143
S'med'
p7144
aS'low'
p7145
ag59
ag4
aS'med'
p7146
aS'high'
p7147
aS'unacc'
p7148
aa(lp7149
S'med'
p7150
aS'low'
p7151
ag59
ag4
aS'big'
p7152
aS'low'
p7153
aS'unacc'
p7154
aa(lp7155
S'med'
p7156
aS'low'
p7157
ag59
ag4
aS'big'
p7158
aS'med'
p7159
aS'unacc'
p7160
aa(lp7161
S'med'
p7162
aS'low'
p7163
ag59
ag4
aS'big'
p7164
aS'high'
p7165
aS'unacc'
p7166
aa(lp7167
S'med'
p7168
aS'low'
p7169
ag59
ag59
aS'small'
p7170
aS'low'
p7171
aS'unacc'
p7172
aa(lp7173
S'med'
p7174
aS'low'
p7175
ag59
ag59
aS'small'
p7176
aS'med'
p7177
aS'acc'
p7178
aa(lp7179
S'med'
p7180
aS'low'
p7181
ag59
ag59
aS'small'
p7182
aS'high'
p7183
aS'good'
p7184
aa(lp7185
S'med'
p7186
aS'low'
p7187
ag59
ag59
aS'med'
p7188
aS'low'
p7189
aS'unacc'
p7190
aa(lp7191
S'med'
p7192
aS'low'
p7193
ag59
ag59
aS'med'
p7194
aS'med'
p7195
aS'good'
p7196
aa(lp7197
S'med'
p7198
aS'low'
p7199
ag59
ag59
aS'med'
p7200
aS'high'
p7201
aS'vgood'
p7202
aa(lp7203
S'med'
p7204
aS'low'
p7205
ag59
ag59
aS'big'
p7206
aS'low'
p7207
aS'unacc'
p7208
aa(lp7209
S'med'
p7210
aS'low'
p7211
ag59
ag59
aS'big'
p7212
aS'med'
p7213
aS'good'
p7214
aa(lp7215
S'med'
p7216
aS'low'
p7217
ag59
ag59
aS'big'
p7218
aS'high'
p7219
aS'vgood'
p7220
aa(lp7221
S'med'
p7222
aS'low'
p7223
ag59
aS'more'
p7224
aS'small'
p7225
aS'low'
p7226
aS'unacc'
p7227
aa(lp7228
S'med'
p7229
aS'low'
p7230
ag59
aS'more'
p7231
aS'small'
p7232
aS'med'
p7233
aS'acc'
p7234
aa(lp7235
S'med'
p7236
aS'low'
p7237
ag59
aS'more'
p7238
aS'small'
p7239
aS'high'
p7240
aS'good'
p7241
aa(lp7242
S'med'
p7243
aS'low'
p7244
ag59
aS'more'
p7245
aS'med'
p7246
aS'low'
p7247
aS'unacc'
p7248
aa(lp7249
S'med'
p7250
aS'low'
p7251
ag59
aS'more'
p7252
aS'med'
p7253
aS'med'
p7254
aS'good'
p7255
aa(lp7256
S'med'
p7257
aS'low'
p7258
ag59
aS'more'
p7259
aS'med'
p7260
aS'high'
p7261
aS'vgood'
p7262
aa(lp7263
S'med'
p7264
aS'low'
p7265
ag59
aS'more'
p7266
aS'big'
p7267
aS'low'
p7268
aS'unacc'
p7269
aa(lp7270
S'med'
p7271
aS'low'
p7272
ag59
aS'more'
p7273
aS'big'
p7274
aS'med'
p7275
aS'good'
p7276
aa(lp7277
S'med'
p7278
aS'low'
p7279
aS'5more'
p7280
ag4
aS'small'
p7281
aS'low'
p7282
aS'unacc'
p7283
aa(lp7284
S'med'
p7285
aS'low'
p7286
aS'5more'
p7287
ag4
aS'small'
p7288
aS'med'
p7289
aS'unacc'
p7290
aa(lp7291
S'med'
p7292
aS'low'
p7293
aS'5more'
p7294
ag4
aS'small'
p7295
aS'high'
p7296
aS'unacc'
p7297
aa(lp7298
S'med'
p7299
aS'low'
p7300
aS'5more'
p7301
ag4
aS'med'
p7302
aS'low'
p7303
aS'unacc'
p7304
aa(lp7305
S'med'
p7306
aS'low'
p7307
aS'5more'
p7308
ag4
aS'med'
p7309
aS'med'
p7310
aS'unacc'
p7311
aa(lp7312
S'med'
p7313
aS'low'
p7314
aS'5more'
p7315
ag4
aS'med'
p7316
aS'high'
p7317
aS'unacc'
p7318
aa(lp7319
S'med'
p7320
aS'low'
p7321
aS'5more'
p7322
ag4
aS'big'
p7323
aS'low'
p7324
aS'unacc'
p7325
aa(lp7326
S'med'
p7327
aS'low'
p7328
aS'5more'
p7329
ag4
aS'big'
p7330
aS'med'
p7331
aS'unacc'
p7332
aa(lp7333
S'med'
p7334
aS'low'
p7335
aS'5more'
p7336
ag4
aS'big'
p7337
aS'high'
p7338
aS'unacc'
p7339
aa(lp7340
S'med'
p7341
aS'low'
p7342
aS'5more'
p7343
ag59
aS'small'
p7344
aS'low'
p7345
aS'unacc'
p7346
aa(lp7347
S'med'
p7348
aS'low'
p7349
aS'5more'
p7350
ag59
aS'small'
p7351
aS'med'
p7352
aS'acc'
p7353
aa(lp7354
S'med'
p7355
aS'low'
p7356
aS'5more'
p7357
ag59
aS'small'
p7358
aS'high'
p7359
aS'good'
p7360
aa(lp7361
S'med'
p7362
aS'low'
p7363
aS'5more'
p7364
ag59
aS'med'
p7365
aS'low'
p7366
aS'unacc'
p7367
aa(lp7368
S'med'
p7369
aS'low'
p7370
aS'5more'
p7371
ag59
aS'med'
p7372
aS'med'
p7373
aS'good'
p7374
aa(lp7375
S'med'
p7376
aS'low'
p7377
aS'5more'
p7378
ag59
aS'big'
p7379
aS'low'
p7380
aS'unacc'
p7381
aa(lp7382
S'med'
p7383
aS'low'
p7384
aS'5more'
p7385
ag59
aS'big'
p7386
aS'med'
p7387
aS'good'
p7388
aa(lp7389
S'med'
p7390
aS'low'
p7391
aS'5more'
p7392
aS'more'
p7393
aS'small'
p7394
aS'low'
p7395
aS'unacc'
p7396
aa(lp7397
S'med'
p7398
aS'low'
p7399
aS'5more'
p7400
aS'more'
p7401
aS'small'
p7402
aS'med'
p7403
aS'acc'
p7404
aa(lp7405
S'med'
p7406
aS'low'
p7407
aS'5more'
p7408
aS'more'
p7409
aS'small'
p7410
aS'high'
p7411
aS'good'
p7412
aa(lp7413
S'med'
p7414
aS'low'
p7415
aS'5more'
p7416
aS'more'
p7417
aS'med'
p7418
aS'low'
p7419
aS'unacc'
p7420
aa(lp7421
S'med'
p7422
aS'low'
p7423
aS'5more'
p7424
aS'more'
p7425
aS'big'
p7426
aS'low'
p7427
aS'unacc'
p7428
aa(lp7429
S'low'
p7430
aS'vhigh'
p7431
ag4
ag4
aS'small'
p7432
aS'low'
p7433
aS'unacc'
p7434
aa(lp7435
S'low'
p7436
aS'vhigh'
p7437
ag4
ag4
aS'small'
p7438
aS'med'
p7439
aS'unacc'
p7440
aa(lp7441
S'low'
p7442
aS'vhigh'
p7443
ag4
ag4
aS'small'
p7444
aS'high'
p7445
aS'unacc'
p7446
aa(lp7447
S'low'
p7448
aS'vhigh'
p7449
ag4
ag4
aS'med'
p7450
aS'low'
p7451
aS'unacc'
p7452
aa(lp7453
S'low'
p7454
aS'vhigh'
p7455
ag4
ag4
aS'med'
p7456
aS'med'
p7457
aS'unacc'
p7458
aa(lp7459
S'low'
p7460
aS'vhigh'
p7461
ag4
ag4
aS'med'
p7462
aS'high'
p7463
aS'unacc'
p7464
aa(lp7465
S'low'
p7466
aS'vhigh'
p7467
ag4
ag4
aS'big'
p7468
aS'low'
p7469
aS'unacc'
p7470
aa(lp7471
S'low'
p7472
aS'vhigh'
p7473
ag4
ag4
aS'big'
p7474
aS'med'
p7475
aS'unacc'
p7476
aa(lp7477
S'low'
p7478
aS'vhigh'
p7479
ag4
ag4
aS'big'
p7480
aS'high'
p7481
aS'unacc'
p7482
aa(lp7483
S'low'
p7484
aS'vhigh'
p7485
ag4
ag59
aS'small'
p7486
aS'low'
p7487
aS'unacc'
p7488
aa(lp7489
S'low'
p7490
aS'vhigh'
p7491
ag4
ag59
aS'small'
p7492
aS'med'
p7493
aS'unacc'
p7494
aa(lp7495
S'low'
p7496
aS'vhigh'
p7497
ag4
ag59
aS'small'
p7498
aS'high'
p7499
aS'acc'
p7500
aa(lp7501
S'low'
p7502
aS'vhigh'
p7503
ag4
ag59
aS'med'
p7504
aS'low'
p7505
aS'unacc'
p7506
aa(lp7507
S'low'
p7508
aS'vhigh'
p7509
ag4
ag59
aS'med'
p7510
aS'med'
p7511
aS'unacc'
p7512
aa(lp7513
S'low'
p7514
aS'vhigh'
p7515
ag4
ag59
aS'med'
p7516
aS'high'
p7517
aS'acc'
p7518
aa(lp7519
S'low'
p7520
aS'vhigh'
p7521
ag4
ag59
aS'big'
p7522
aS'low'
p7523
aS'unacc'
p7524
aa(lp7525
S'low'
p7526
aS'vhigh'
p7527
ag4
ag59
aS'big'
p7528
aS'med'
p7529
aS'acc'
p7530
aa(lp7531
S'low'
p7532
aS'vhigh'
p7533
ag4
ag59
aS'big'
p7534
aS'high'
p7535
aS'acc'
p7536
aa(lp7537
S'low'
p7538
aS'vhigh'
p7539
ag4
aS'more'
p7540
aS'small'
p7541
aS'low'
p7542
aS'unacc'
p7543
aa(lp7544
S'low'
p7545
aS'vhigh'
p7546
ag4
aS'more'
p7547
aS'small'
p7548
aS'med'
p7549
aS'unacc'
p7550
aa(lp7551
S'low'
p7552
aS'vhigh'
p7553
ag4
aS'more'
p7554
aS'small'
p7555
aS'high'
p7556
aS'unacc'
p7557
aa(lp7558
S'low'
p7559
aS'vhigh'
p7560
ag4
aS'more'
p7561
aS'med'
p7562
aS'low'
p7563
aS'unacc'
p7564
aa(lp7565
S'low'
p7566
aS'vhigh'
p7567
ag4
aS'more'
p7568
aS'med'
p7569
aS'med'
p7570
aS'unacc'
p7571
aa(lp7572
S'low'
p7573
aS'vhigh'
p7574
ag4
aS'more'
p7575
aS'med'
p7576
aS'high'
p7577
aS'acc'
p7578
aa(lp7579
S'low'
p7580
aS'vhigh'
p7581
ag4
aS'more'
p7582
aS'big'
p7583
aS'low'
p7584
aS'unacc'
p7585
aa(lp7586
S'low'
p7587
aS'vhigh'
p7588
ag4
aS'more'
p7589
aS'big'
p7590
aS'med'
p7591
aS'acc'
p7592
aa(lp7593
S'low'
p7594
aS'vhigh'
p7595
ag4
aS'more'
p7596
aS'big'
p7597
aS'high'
p7598
aS'acc'
p7599
aa(lp7600
S'low'
p7601
aS'vhigh'
p7602
ag177
ag4
aS'small'
p7603
aS'low'
p7604
aS'unacc'
p7605
aa(lp7606
S'low'
p7607
aS'vhigh'
p7608
ag177
ag4
aS'small'
p7609
aS'med'
p7610
aS'unacc'
p7611
aa(lp7612
S'low'
p7613
aS'vhigh'
p7614
ag177
ag4
aS'small'
p7615
aS'high'
p7616
aS'unacc'
p7617
aa(lp7618
S'low'
p7619
aS'vhigh'
p7620
ag177
ag4
aS'med'
p7621
aS'low'
p7622
aS'unacc'
p7623
aa(lp7624
S'low'
p7625
aS'vhigh'
p7626
ag177
ag4
aS'med'
p7627
aS'med'
p7628
aS'unacc'
p7629
aa(lp7630
S'low'
p7631
aS'vhigh'
p7632
ag177
ag4
aS'med'
p7633
aS'high'
p7634
aS'unacc'
p7635
aa(lp7636
S'low'
p7637
aS'vhigh'
p7638
ag177
ag4
aS'big'
p7639
aS'low'
p7640
aS'unacc'
p7641
aa(lp7642
S'low'
p7643
aS'vhigh'
p7644
ag177
ag4
aS'big'
p7645
aS'med'
p7646
aS'unacc'
p7647
aa(lp7648
S'low'
p7649
aS'vhigh'
p7650
ag177
ag4
aS'big'
p7651
aS'high'
p7652
aS'unacc'
p7653
aa(lp7654
S'low'
p7655
aS'vhigh'
p7656
ag177
ag59
aS'small'
p7657
aS'low'
p7658
aS'unacc'
p7659
aa(lp7660
S'low'
p7661
aS'vhigh'
p7662
ag177
ag59
aS'small'
p7663
aS'med'
p7664
aS'unacc'
p7665
aa(lp7666
S'low'
p7667
aS'vhigh'
p7668
ag177
ag59
aS'small'
p7669
aS'high'
p7670
aS'acc'
p7671
aa(lp7672
S'low'
p7673
aS'vhigh'
p7674
ag177
ag59
aS'med'
p7675
aS'low'
p7676
aS'unacc'
p7677
aa(lp7678
S'low'
p7679
aS'vhigh'
p7680
ag177
ag59
aS'med'
p7681
aS'med'
p7682
aS'unacc'
p7683
aa(lp7684
S'low'
p7685
aS'vhigh'
p7686
ag177
ag59
aS'med'
p7687
aS'high'
p7688
aS'acc'
p7689
aa(lp7690
S'low'
p7691
aS'vhigh'
p7692
ag177
ag59
aS'big'
p7693
aS'low'
p7694
aS'unacc'
p7695
aa(lp7696
S'low'
p7697
aS'vhigh'
p7698
ag177
ag59
aS'big'
p7699
aS'med'
p7700
aS'acc'
p7701
aa(lp7702
S'low'
p7703
aS'vhigh'
p7704
ag177
ag59
aS'big'
p7705
aS'high'
p7706
aS'acc'
p7707
aa(lp7708
S'low'
p7709
aS'vhigh'
p7710
ag177
aS'more'
p7711
aS'small'
p7712
aS'low'
p7713
aS'unacc'
p7714
aa(lp7715
S'low'
p7716
aS'vhigh'
p7717
ag177
aS'more'
p7718
aS'small'
p7719
aS'med'
p7720
aS'unacc'
p7721
aa(lp7722
S'low'
p7723
aS'vhigh'
p7724
ag177
aS'more'
p7725
aS'small'
p7726
aS'high'
p7727
aS'acc'
p7728
aa(lp7729
S'low'
p7730
aS'vhigh'
p7731
ag177
aS'more'
p7732
aS'med'
p7733
aS'low'
p7734
aS'unacc'
p7735
aa(lp7736
S'low'
p7737
aS'vhigh'
p7738
ag177
aS'more'
p7739
aS'med'
p7740
aS'med'
p7741
aS'acc'
p7742
aa(lp7743
S'low'
p7744
aS'vhigh'
p7745
ag177
aS'more'
p7746
aS'med'
p7747
aS'high'
p7748
aS'acc'
p7749
aa(lp7750
S'low'
p7751
aS'vhigh'
p7752
ag177
aS'more'
p7753
aS'big'
p7754
aS'low'
p7755
aS'unacc'
p7756
aa(lp7757
S'low'
p7758
aS'vhigh'
p7759
ag177
aS'more'
p7760
aS'big'
p7761
aS'med'
p7762
aS'acc'
p7763
aa(lp7764
S'low'
p7765
aS'vhigh'
p7766
ag177
aS'more'
p7767
aS'big'
p7768
aS'high'
p7769
aS'acc'
p7770
aa(lp7771
S'low'
p7772
aS'vhigh'
p7773
ag59
ag4
aS'small'
p7774
aS'low'
p7775
aS'unacc'
p7776
aa(lp7777
S'low'
p7778
aS'vhigh'
p7779
ag59
ag4
aS'small'
p7780
aS'med'
p7781
aS'unacc'
p7782
aa(lp7783
S'low'
p7784
aS'vhigh'
p7785
ag59
ag4
aS'small'
p7786
aS'high'
p7787
aS'unacc'
p7788
aa(lp7789
S'low'
p7790
aS'vhigh'
p7791
ag59
ag4
aS'med'
p7792
aS'low'
p7793
aS'unacc'
p7794
aa(lp7795
S'low'
p7796
aS'vhigh'
p7797
ag59
ag4
aS'med'
p7798
aS'med'
p7799
aS'unacc'
p7800
aa(lp7801
S'low'
p7802
aS'vhigh'
p7803
ag59
ag4
aS'med'
p7804
aS'high'
p7805
aS'unacc'
p7806
aa(lp7807
S'low'
p7808
aS'vhigh'
p7809
ag59
ag4
aS'big'
p7810
aS'low'
p7811
aS'unacc'
p7812
aa(lp7813
S'low'
p7814
aS'vhigh'
p7815
ag59
ag4
aS'big'
p7816
aS'med'
p7817
aS'unacc'
p7818
aa(lp7819
S'low'
p7820
aS'vhigh'
p7821
ag59
ag4
aS'big'
p7822
aS'high'
p7823
aS'unacc'
p7824
aa(lp7825
S'low'
p7826
aS'vhigh'
p7827
ag59
ag59
aS'small'
p7828
aS'low'
p7829
aS'unacc'
p7830
aa(lp7831
S'low'
p7832
aS'vhigh'
p7833
ag59
ag59
aS'small'
p7834
aS'med'
p7835
aS'unacc'
p7836
aa(lp7837
S'low'
p7838
aS'vhigh'
p7839
ag59
ag59
aS'small'
p7840
aS'high'
p7841
aS'acc'
p7842
aa(lp7843
S'low'
p7844
aS'vhigh'
p7845
ag59
ag59
aS'med'
p7846
aS'low'
p7847
aS'unacc'
p7848
aa(lp7849
S'low'
p7850
aS'vhigh'
p7851
ag59
ag59
aS'med'
p7852
aS'med'
p7853
aS'acc'
p7854
aa(lp7855
S'low'
p7856
aS'vhigh'
p7857
ag59
ag59
aS'med'
p7858
aS'high'
p7859
aS'acc'
p7860
aa(lp7861
S'low'
p7862
aS'vhigh'
p7863
ag59
ag59
aS'big'
p7864
aS'low'
p7865
aS'unacc'
p7866
aa(lp7867
S'low'
p7868
aS'vhigh'
p7869
ag59
ag59
aS'big'
p7870
aS'med'
p7871
aS'acc'
p7872
aa(lp7873
S'low'
p7874
aS'vhigh'
p7875
ag59
ag59
aS'big'
p7876
aS'high'
p7877
aS'acc'
p7878
aa(lp7879
S'low'
p7880
aS'vhigh'
p7881
ag59
aS'more'
p7882
aS'small'
p7883
aS'low'
p7884
aS'unacc'
p7885
aa(lp7886
S'low'
p7887
aS'vhigh'
p7888
ag59
aS'more'
p7889
aS'small'
p7890
aS'med'
p7891
aS'unacc'
p7892
aa(lp7893
S'low'
p7894
aS'vhigh'
p7895
ag59
aS'more'
p7896
aS'small'
p7897
aS'high'
p7898
aS'acc'
p7899
aa(lp7900
S'low'
p7901
aS'vhigh'
p7902
ag59
aS'more'
p7903
aS'med'
p7904
aS'low'
p7905
aS'unacc'
p7906
aa(lp7907
S'low'
p7908
aS'vhigh'
p7909
ag59
aS'more'
p7910
aS'med'
p7911
aS'med'
p7912
aS'acc'
p7913
aa(lp7914
S'low'
p7915
aS'vhigh'
p7916
ag59
aS'more'
p7917
aS'med'
p7918
aS'high'
p7919
aS'acc'
p7920
aa(lp7921
S'low'
p7922
aS'vhigh'
p7923
ag59
aS'more'
p7924
aS'big'
p7925
aS'low'
p7926
aS'unacc'
p7927
aa(lp7928
S'low'
p7929
aS'vhigh'
p7930
ag59
aS'more'
p7931
aS'big'
p7932
aS'med'
p7933
aS'acc'
p7934
aa(lp7935
S'low'
p7936
aS'vhigh'
p7937
ag59
aS'more'
p7938
aS'big'
p7939
aS'high'
p7940
aS'acc'
p7941
aa(lp7942
S'low'
p7943
aS'vhigh'
p7944
aS'5more'
p7945
ag4
aS'small'
p7946
aS'low'
p7947
aS'unacc'
p7948
aa(lp7949
S'low'
p7950
aS'vhigh'
p7951
aS'5more'
p7952
ag4
aS'small'
p7953
aS'med'
p7954
aS'unacc'
p7955
aa(lp7956
S'low'
p7957
aS'vhigh'
p7958
aS'5more'
p7959
ag4
aS'small'
p7960
aS'high'
p7961
aS'unacc'
p7962
aa(lp7963
S'low'
p7964
aS'vhigh'
p7965
aS'5more'
p7966
ag4
aS'med'
p7967
aS'low'
p7968
aS'unacc'
p7969
aa(lp7970
S'low'
p7971
aS'vhigh'
p7972
aS'5more'
p7973
ag4
aS'med'
p7974
aS'med'
p7975
aS'unacc'
p7976
aa(lp7977
S'low'
p7978
aS'vhigh'
p7979
aS'5more'
p7980
ag4
aS'med'
p7981
aS'high'
p7982
aS'unacc'
p7983
aa(lp7984
S'low'
p7985
aS'vhigh'
p7986
aS'5more'
p7987
ag4
aS'big'
p7988
aS'low'
p7989
aS'unacc'
p7990
aa(lp7991
S'low'
p7992
aS'vhigh'
p7993
aS'5more'
p7994
ag4
aS'big'
p7995
aS'med'
p7996
aS'unacc'
p7997
aa(lp7998
S'low'
p7999
aS'vhigh'
p8000
aS'5more'
p8001
ag4
aS'big'
p8002
aS'high'
p8003
aS'unacc'
p8004
aa(lp8005
S'low'
p8006
aS'vhigh'
p8007
aS'5more'
p8008
ag59
aS'small'
p8009
aS'low'
p8010
aS'unacc'
p8011
aa(lp8012
S'low'
p8013
aS'vhigh'
p8014
aS'5more'
p8015
ag59
aS'small'
p8016
aS'med'
p8017
aS'unacc'
p8018
aa(lp8019
S'low'
p8020
aS'vhigh'
p8021
aS'5more'
p8022
ag59
aS'small'
p8023
aS'high'
p8024
aS'acc'
p8025
aa(lp8026
S'low'
p8027
aS'vhigh'
p8028
aS'5more'
p8029
ag59
aS'med'
p8030
aS'low'
p8031
aS'unacc'
p8032
aa(lp8033
S'low'
p8034
aS'vhigh'
p8035
aS'5more'
p8036
ag59
aS'med'
p8037
aS'med'
p8038
aS'acc'
p8039
aa(lp8040
S'low'
p8041
aS'vhigh'
p8042
aS'5more'
p8043
ag59
aS'med'
p8044
aS'high'
p8045
aS'acc'
p8046
aa(lp8047
S'low'
p8048
aS'vhigh'
p8049
aS'5more'
p8050
ag59
aS'big'
p8051
aS'low'
p8052
aS'unacc'
p8053
aa(lp8054
S'low'
p8055
aS'vhigh'
p8056
aS'5more'
p8057
ag59
aS'big'
p8058
aS'med'
p8059
aS'acc'
p8060
aa(lp8061
S'low'
p8062
aS'vhigh'
p8063
aS'5more'
p8064
ag59
aS'big'
p8065
aS'high'
p8066
aS'acc'
p8067
aa(lp8068
S'low'
p8069
aS'vhigh'
p8070
aS'5more'
p8071
aS'more'
p8072
aS'small'
p8073
aS'low'
p8074
aS'unacc'
p8075
aa(lp8076
S'low'
p8077
aS'vhigh'
p8078
aS'5more'
p8079
aS'more'
p8080
aS'small'
p8081
aS'med'
p8082
aS'unacc'
p8083
aa(lp8084
S'low'
p8085
aS'vhigh'
p8086
aS'5more'
p8087
aS'more'
p8088
aS'small'
p8089
aS'high'
p8090
aS'acc'
p8091
aa(lp8092
S'low'
p8093
aS'vhigh'
p8094
aS'5more'
p8095
aS'more'
p8096
aS'med'
p8097
aS'low'
p8098
aS'unacc'
p8099
aa(lp8100
S'low'
p8101
aS'vhigh'
p8102
aS'5more'
p8103
aS'more'
p8104
aS'med'
p8105
aS'med'
p8106
aS'acc'
p8107
aa(lp8108
S'low'
p8109
aS'vhigh'
p8110
aS'5more'
p8111
aS'more'
p8112
aS'med'
p8113
aS'high'
p8114
aS'acc'
p8115
aa(lp8116
S'low'
p8117
aS'vhigh'
p8118
aS'5more'
p8119
aS'more'
p8120
aS'big'
p8121
aS'low'
p8122
aS'unacc'
p8123
aa(lp8124
S'low'
p8125
aS'vhigh'
p8126
aS'5more'
p8127
aS'more'
p8128
aS'big'
p8129
aS'med'
p8130
aS'acc'
p8131
aa(lp8132
S'low'
p8133
aS'vhigh'
p8134
aS'5more'
p8135
aS'more'
p8136
aS'big'
p8137
aS'high'
p8138
aS'acc'
p8139
aa(lp8140
S'low'
p8141
aS'high'
p8142
ag4
ag4
aS'small'
p8143
aS'low'
p8144
aS'unacc'
p8145
aa(lp8146
S'low'
p8147
aS'high'
p8148
ag4
ag4
aS'small'
p8149
aS'med'
p8150
aS'unacc'
p8151
aa(lp8152
S'low'
p8153
aS'high'
p8154
ag4
ag4
aS'small'
p8155
aS'high'
p8156
aS'unacc'
p8157
aa(lp8158
S'low'
p8159
aS'high'
p8160
ag4
ag4
aS'med'
p8161
aS'low'
p8162
aS'unacc'
p8163
aa(lp8164
S'low'
p8165
aS'high'
p8166
ag4
ag4
aS'med'
p8167
aS'med'
p8168
aS'unacc'
p8169
aa(lp8170
S'low'
p8171
aS'high'
p8172
ag4
ag4
aS'med'
p8173
aS'high'
p8174
aS'unacc'
p8175
aa(lp8176
S'low'
p8177
aS'high'
p8178
ag4
ag4
aS'big'
p8179
aS'low'
p8180
aS'unacc'
p8181
aa(lp8182
S'low'
p8183
aS'high'
p8184
ag4
ag4
aS'big'
p8185
aS'med'
p8186
aS'unacc'
p8187
aa(lp8188
S'low'
p8189
aS'high'
p8190
ag4
ag4
aS'big'
p8191
aS'high'
p8192
aS'unacc'
p8193
aa(lp8194
S'low'
p8195
aS'high'
p8196
ag4
ag59
aS'small'
p8197
aS'low'
p8198
aS'unacc'
p8199
aa(lp8200
S'low'
p8201
aS'high'
p8202
ag4
ag59
aS'small'
p8203
aS'med'
p8204
aS'acc'
p8205
aa(lp8206
S'low'
p8207
aS'high'
p8208
ag4
ag59
aS'small'
p8209
aS'high'
p8210
aS'acc'
p8211
aa(lp8212
S'low'
p8213
aS'high'
p8214
ag4
ag59
aS'med'
p8215
aS'low'
p8216
aS'unacc'
p8217
aa(lp8218
S'low'
p8219
aS'high'
p8220
ag4
ag59
aS'med'
p8221
aS'med'
p8222
aS'acc'
p8223
aa(lp8224
S'low'
p8225
aS'high'
p8226
ag4
ag59
aS'med'
p8227
aS'high'
p8228
aS'acc'
p8229
aa(lp8230
S'low'
p8231
aS'high'
p8232
ag4
ag59
aS'big'
p8233
aS'low'
p8234
aS'unacc'
p8235
aa(lp8236
S'low'
p8237
aS'high'
p8238
ag4
ag59
aS'big'
p8239
aS'med'
p8240
aS'acc'
p8241
aa(lp8242
S'low'
p8243
aS'high'
p8244
ag4
aS'more'
p8245
aS'small'
p8246
aS'low'
p8247
aS'unacc'
p8248
aa(lp8249
S'low'
p8250
aS'high'
p8251
ag4
aS'more'
p8252
aS'small'
p8253
aS'med'
p8254
aS'unacc'
p8255
aa(lp8256
S'low'
p8257
aS'high'
p8258
ag4
aS'more'
p8259
aS'small'
p8260
aS'high'
p8261
aS'unacc'
p8262
aa(lp8263
S'low'
p8264
aS'high'
p8265
ag4
aS'more'
p8266
aS'med'
p8267
aS'low'
p8268
aS'unacc'
p8269
aa(lp8270
S'low'
p8271
aS'high'
p8272
ag4
aS'more'
p8273
aS'med'
p8274
aS'med'
p8275
aS'acc'
p8276
aa(lp8277
S'low'
p8278
aS'high'
p8279
ag4
aS'more'
p8280
aS'med'
p8281
aS'high'
p8282
aS'acc'
p8283
aa(lp8284
S'low'
p8285
aS'high'
p8286
ag4
aS'more'
p8287
aS'big'
p8288
aS'low'
p8289
aS'unacc'
p8290
aa(lp8291
S'low'
p8292
aS'high'
p8293
ag4
aS'more'
p8294
aS'big'
p8295
aS'med'
p8296
aS'acc'
p8297
aa(lp8298
S'low'
p8299
aS'high'
p8300
ag177
ag4
aS'small'
p8301
aS'low'
p8302
aS'unacc'
p8303
aa(lp8304
S'low'
p8305
aS'high'
p8306
ag177
ag4
aS'small'
p8307
aS'med'
p8308
aS'unacc'
p8309
aa(lp8310
S'low'
p8311
aS'high'
p8312
ag177
ag4
aS'small'
p8313
aS'high'
p8314
aS'unacc'
p8315
aa(lp8316
S'low'
p8317
aS'high'
p8318
ag177
ag4
aS'med'
p8319
aS'low'
p8320
aS'unacc'
p8321
aa(lp8322
S'low'
p8323
aS'high'
p8324
ag177
ag4
aS'med'
p8325
aS'med'
p8326
aS'unacc'
p8327
aa(lp8328
S'low'
p8329
aS'high'
p8330
ag177
ag4
aS'med'
p8331
aS'high'
p8332
aS'unacc'
p8333
aa(lp8334
S'low'
p8335
aS'high'
p8336
ag177
ag4
aS'big'
p8337
aS'low'
p8338
aS'unacc'
p8339
aa(lp8340
S'low'
p8341
aS'high'
p8342
ag177
ag4
aS'big'
p8343
aS'med'
p8344
aS'unacc'
p8345
aa(lp8346
S'low'
p8347
aS'high'
p8348
ag177
ag4
aS'big'
p8349
aS'high'
p8350
aS'unacc'
p8351
aa(lp8352
S'low'
p8353
aS'high'
p8354
ag177
ag59
aS'small'
p8355
aS'low'
p8356
aS'unacc'
p8357
aa(lp8358
S'low'
p8359
aS'high'
p8360
ag177
ag59
aS'small'
p8361
aS'med'
p8362
aS'acc'
p8363
aa(lp8364
S'low'
p8365
aS'high'
p8366
ag177
ag59
aS'small'
p8367
aS'high'
p8368
aS'acc'
p8369
aa(lp8370
S'low'
p8371
aS'high'
p8372
ag177
ag59
aS'med'
p8373
aS'low'
p8374
aS'unacc'
p8375
aa(lp8376
S'low'
p8377
aS'high'
p8378
ag177
ag59
aS'med'
p8379
aS'med'
p8380
aS'acc'
p8381
aa(lp8382
S'low'
p8383
aS'high'
p8384
ag177
ag59
aS'med'
p8385
aS'high'
p8386
aS'acc'
p8387
aa(lp8388
S'low'
p8389
aS'high'
p8390
ag177
ag59
aS'big'
p8391
aS'low'
p8392
aS'unacc'
p8393
aa(lp8394
S'low'
p8395
aS'high'
p8396
ag177
ag59
aS'big'
p8397
aS'med'
p8398
aS'acc'
p8399
aa(lp8400
S'low'
p8401
aS'high'
p8402
ag177
ag59
aS'big'
p8403
aS'high'
p8404
aS'vgood'
p8405
aa(lp8406
S'low'
p8407
aS'high'
p8408
ag177
aS'more'
p8409
aS'small'
p8410
aS'low'
p8411
aS'unacc'
p8412
aa(lp8413
S'low'
p8414
aS'high'
p8415
ag177
aS'more'
p8416
aS'small'
p8417
aS'med'
p8418
aS'acc'
p8419
aa(lp8420
S'low'
p8421
aS'high'
p8422
ag177
aS'more'
p8423
aS'small'
p8424
aS'high'
p8425
aS'acc'
p8426
aa(lp8427
S'low'
p8428
aS'high'
p8429
ag177
aS'more'
p8430
aS'med'
p8431
aS'low'
p8432
aS'unacc'
p8433
aa(lp8434
S'low'
p8435
aS'high'
p8436
ag177
aS'more'
p8437
aS'med'
p8438
aS'med'
p8439
aS'acc'
p8440
aa(lp8441
S'low'
p8442
aS'high'
p8443
ag177
aS'more'
p8444
aS'med'
p8445
aS'high'
p8446
aS'vgood'
p8447
aa(lp8448
S'low'
p8449
aS'high'
p8450
ag177
aS'more'
p8451
aS'big'
p8452
aS'low'
p8453
aS'unacc'
p8454
aa(lp8455
S'low'
p8456
aS'high'
p8457
ag177
aS'more'
p8458
aS'big'
p8459
aS'med'
p8460
aS'acc'
p8461
aa(lp8462
S'low'
p8463
aS'high'
p8464
ag177
aS'more'
p8465
aS'big'
p8466
aS'high'
p8467
aS'vgood'
p8468
aa(lp8469
S'low'
p8470
aS'high'
p8471
ag59
ag4
aS'small'
p8472
aS'low'
p8473
aS'unacc'
p8474
aa(lp8475
S'low'
p8476
aS'high'
p8477
ag59
ag4
aS'small'
p8478
aS'med'
p8479
aS'unacc'
p8480
aa(lp8481
S'low'
p8482
aS'high'
p8483
ag59
ag4
aS'small'
p8484
aS'high'
p8485
aS'unacc'
p8486
aa(lp8487
S'low'
p8488
aS'high'
p8489
ag59
ag4
aS'med'
p8490
aS'low'
p8491
aS'unacc'
p8492
aa(lp8493
S'low'
p8494
aS'high'
p8495
ag59
ag4
aS'med'
p8496
aS'med'
p8497
aS'unacc'
p8498
aa(lp8499
S'low'
p8500
aS'high'
p8501
ag59
ag4
aS'med'
p8502
aS'high'
p8503
aS'unacc'
p8504
aa(lp8505
S'low'
p8506
aS'high'
p8507
ag59
ag4
aS'big'
p8508
aS'low'
p8509
aS'unacc'
p8510
aa(lp8511
S'low'
p8512
aS'high'
p8513
ag59
ag4
aS'big'
p8514
aS'med'
p8515
aS'unacc'
p8516
aa(lp8517
S'low'
p8518
aS'high'
p8519
ag59
ag4
aS'big'
p8520
aS'high'
p8521
aS'unacc'
p8522
aa(lp8523
S'low'
p8524
aS'high'
p8525
ag59
ag59
aS'small'
p8526
aS'low'
p8527
aS'unacc'
p8528
aa(lp8529
S'low'
p8530
aS'high'
p8531
ag59
ag59
aS'small'
p8532
aS'med'
p8533
aS'acc'
p8534
aa(lp8535
S'low'
p8536
aS'high'
p8537
ag59
ag59
aS'small'
p8538
aS'high'
p8539
aS'acc'
p8540
aa(lp8541
S'low'
p8542
aS'high'
p8543
ag59
ag59
aS'med'
p8544
aS'low'
p8545
aS'unacc'
p8546
aa(lp8547
S'low'
p8548
aS'high'
p8549
ag59
ag59
aS'med'
p8550
aS'med'
p8551
aS'acc'
p8552
aa(lp8553
S'low'
p8554
aS'high'
p8555
ag59
ag59
aS'med'
p8556
aS'high'
p8557
aS'vgood'
p8558
aa(lp8559
S'low'
p8560
aS'high'
p8561
ag59
ag59
aS'big'
p8562
aS'low'
p8563
aS'unacc'
p8564
aa(lp8565
S'low'
p8566
aS'high'
p8567
ag59
ag59
aS'big'
p8568
aS'med'
p8569
aS'acc'
p8570
aa(lp8571
S'low'
p8572
aS'high'
p8573
ag59
ag59
aS'big'
p8574
aS'high'
p8575
aS'vgood'
p8576
aa(lp8577
S'low'
p8578
aS'high'
p8579
ag59
aS'more'
p8580
aS'small'
p8581
aS'low'
p8582
aS'unacc'
p8583
aa(lp8584
S'low'
p8585
aS'high'
p8586
ag59
aS'more'
p8587
aS'small'
p8588
aS'med'
p8589
aS'acc'
p8590
aa(lp8591
S'low'
p8592
aS'high'
p8593
ag59
aS'more'
p8594
aS'small'
p8595
aS'high'
p8596
aS'acc'
p8597
aa(lp8598
S'low'
p8599
aS'high'
p8600
ag59
aS'more'
p8601
aS'med'
p8602
aS'low'
p8603
aS'unacc'
p8604
aa(lp8605
S'low'
p8606
aS'high'
p8607
ag59
aS'more'
p8608
aS'med'
p8609
aS'med'
p8610
aS'acc'
p8611
aa(lp8612
S'low'
p8613
aS'high'
p8614
ag59
aS'more'
p8615
aS'med'
p8616
aS'high'
p8617
aS'vgood'
p8618
aa(lp8619
S'low'
p8620
aS'high'
p8621
ag59
aS'more'
p8622
aS'big'
p8623
aS'low'
p8624
aS'unacc'
p8625
aa(lp8626
S'low'
p8627
aS'high'
p8628
ag59
aS'more'
p8629
aS'big'
p8630
aS'med'
p8631
aS'acc'
p8632
aa(lp8633
S'low'
p8634
aS'high'
p8635
ag59
aS'more'
p8636
aS'big'
p8637
aS'high'
p8638
aS'vgood'
p8639
aa(lp8640
S'low'
p8641
aS'high'
p8642
aS'5more'
p8643
ag4
aS'small'
p8644
aS'low'
p8645
aS'unacc'
p8646
aa(lp8647
S'low'
p8648
aS'high'
p8649
aS'5more'
p8650
ag4
aS'small'
p8651
aS'med'
p8652
aS'unacc'
p8653
aa(lp8654
S'low'
p8655
aS'high'
p8656
aS'5more'
p8657
ag4
aS'small'
p8658
aS'high'
p8659
aS'unacc'
p8660
aa(lp8661
S'low'
p8662
aS'high'
p8663
aS'5more'
p8664
ag4
aS'med'
p8665
aS'low'
p8666
aS'unacc'
p8667
aa(lp8668
S'low'
p8669
aS'high'
p8670
aS'5more'
p8671
ag4
aS'med'
p8672
aS'med'
p8673
aS'unacc'
p8674
aa(lp8675
S'low'
p8676
aS'high'
p8677
aS'5more'
p8678
ag4
aS'med'
p8679
aS'high'
p8680
aS'unacc'
p8681
aa(lp8682
S'low'
p8683
aS'high'
p8684
aS'5more'
p8685
ag4
aS'big'
p8686
aS'low'
p8687
aS'unacc'
p8688
aa(lp8689
S'low'
p8690
aS'high'
p8691
aS'5more'
p8692
ag4
aS'big'
p8693
aS'med'
p8694
aS'unacc'
p8695
aa(lp8696
S'low'
p8697
aS'high'
p8698
aS'5more'
p8699
ag4
aS'big'
p8700
aS'high'
p8701
aS'unacc'
p8702
aa(lp8703
S'low'
p8704
aS'high'
p8705
aS'5more'
p8706
ag59
aS'small'
p8707
aS'low'
p8708
aS'unacc'
p8709
aa(lp8710
S'low'
p8711
aS'high'
p8712
aS'5more'
p8713
ag59
aS'small'
p8714
aS'med'
p8715
aS'acc'
p8716
aa(lp8717
S'low'
p8718
aS'high'
p8719
aS'5more'
p8720
ag59
aS'small'
p8721
aS'high'
p8722
aS'acc'
p8723
aa(lp8724
S'low'
p8725
aS'high'
p8726
aS'5more'
p8727
ag59
aS'med'
p8728
aS'low'
p8729
aS'unacc'
p8730
aa(lp8731
S'low'
p8732
aS'high'
p8733
aS'5more'
p8734
ag59
aS'med'
p8735
aS'med'
p8736
aS'acc'
p8737
aa(lp8738
S'low'
p8739
aS'high'
p8740
aS'5more'
p8741
ag59
aS'med'
p8742
aS'high'
p8743
aS'vgood'
p8744
aa(lp8745
S'low'
p8746
aS'high'
p8747
aS'5more'
p8748
ag59
aS'big'
p8749
aS'low'
p8750
aS'unacc'
p8751
aa(lp8752
S'low'
p8753
aS'high'
p8754
aS'5more'
p8755
ag59
aS'big'
p8756
aS'med'
p8757
aS'acc'
p8758
aa(lp8759
S'low'
p8760
aS'high'
p8761
aS'5more'
p8762
ag59
aS'big'
p8763
aS'high'
p8764
aS'vgood'
p8765
aa(lp8766
S'low'
p8767
aS'high'
p8768
aS'5more'
p8769
aS'more'
p8770
aS'small'
p8771
aS'low'
p8772
aS'unacc'
p8773
aa(lp8774
S'low'
p8775
aS'high'
p8776
aS'5more'
p8777
aS'more'
p8778
aS'small'
p8779
aS'med'
p8780
aS'acc'
p8781
aa(lp8782
S'low'
p8783
aS'high'
p8784
aS'5more'
p8785
aS'more'
p8786
aS'small'
p8787
aS'high'
p8788
aS'acc'
p8789
aa(lp8790
S'low'
p8791
aS'high'
p8792
aS'5more'
p8793
aS'more'
p8794
aS'med'
p8795
aS'low'
p8796
aS'unacc'
p8797
aa(lp8798
S'low'
p8799
aS'high'
p8800
aS'5more'
p8801
aS'more'
p8802
aS'med'
p8803
aS'med'
p8804
aS'acc'
p8805
aa(lp8806
S'low'
p8807
aS'high'
p8808
aS'5more'
p8809
aS'more'
p8810
aS'med'
p8811
aS'high'
p8812
aS'vgood'
p8813
aa(lp8814
S'low'
p8815
aS'high'
p8816
aS'5more'
p8817
aS'more'
p8818
aS'big'
p8819
aS'low'
p8820
aS'unacc'
p8821
aa(lp8822
S'low'
p8823
aS'high'
p8824
aS'5more'
p8825
aS'more'
p8826
aS'big'
p8827
aS'med'
p8828
aS'acc'
p8829
aa(lp8830
S'low'
p8831
aS'high'
p8832
aS'5more'
p8833
aS'more'
p8834
aS'big'
p8835
aS'high'
p8836
aS'vgood'
p8837
aa(lp8838
S'low'
p8839
aS'med'
p8840
ag4
ag4
aS'small'
p8841
aS'low'
p8842
aS'unacc'
p8843
aa(lp8844
S'low'
p8845
aS'med'
p8846
ag4
ag4
aS'small'
p8847
aS'med'
p8848
aS'unacc'
p8849
aa(lp8850
S'low'
p8851
aS'med'
p8852
ag4
ag4
aS'small'
p8853
aS'high'
p8854
aS'unacc'
p8855
aa(lp8856
S'low'
p8857
aS'med'
p8858
ag4
ag4
aS'med'
p8859
aS'low'
p8860
aS'unacc'
p8861
aa(lp8862
S'low'
p8863
aS'med'
p8864
ag4
ag4
aS'med'
p8865
aS'med'
p8866
aS'unacc'
p8867
aa(lp8868
S'low'
p8869
aS'med'
p8870
ag4
ag4
aS'med'
p8871
aS'high'
p8872
aS'unacc'
p8873
aa(lp8874
S'low'
p8875
aS'med'
p8876
ag4
ag4
aS'big'
p8877
aS'low'
p8878
aS'unacc'
p8879
aa(lp8880
S'low'
p8881
aS'med'
p8882
ag4
ag4
aS'big'
p8883
aS'med'
p8884
aS'unacc'
p8885
aa(lp8886
S'low'
p8887
aS'med'
p8888
ag4
ag4
aS'big'
p8889
aS'high'
p8890
aS'unacc'
p8891
aa(lp8892
S'low'
p8893
aS'med'
p8894
ag4
ag59
aS'small'
p8895
aS'low'
p8896
aS'unacc'
p8897
aa(lp8898
S'low'
p8899
aS'med'
p8900
ag4
ag59
aS'small'
p8901
aS'med'
p8902
aS'acc'
p8903
aa(lp8904
S'low'
p8905
aS'med'
p8906
ag4
ag59
aS'med'
p8907
aS'low'
p8908
aS'unacc'
p8909
aa(lp8910
S'low'
p8911
aS'med'
p8912
ag4
ag59
aS'med'
p8913
aS'med'
p8914
aS'acc'
p8915
aa(lp8916
S'low'
p8917
aS'med'
p8918
ag4
ag59
aS'big'
p8919
aS'low'
p8920
aS'unacc'
p8921
aa(lp8922
S'low'
p8923
aS'med'
p8924
ag4
ag59
aS'big'
p8925
aS'high'
p8926
aS'vgood'
p8927
aa(lp8928
S'low'
p8929
aS'med'
p8930
ag4
aS'more'
p8931
aS'small'
p8932
aS'low'
p8933
aS'unacc'
p8934
aa(lp8935
S'low'
p8936
aS'med'
p8937
ag4
aS'more'
p8938
aS'small'
p8939
aS'med'
p8940
aS'unacc'
p8941
aa(lp8942
S'low'
p8943
aS'med'
p8944
ag4
aS'more'
p8945
aS'small'
p8946
aS'high'
p8947
aS'unacc'
p8948
aa(lp8949
S'low'
p8950
aS'med'
p8951
ag4
aS'more'
p8952
aS'med'
p8953
aS'low'
p8954
aS'unacc'
p8955
aa(lp8956
S'low'
p8957
aS'med'
p8958
ag4
aS'more'
p8959
aS'med'
p8960
aS'med'
p8961
aS'acc'
p8962
aa(lp8963
S'low'
p8964
aS'med'
p8965
ag4
aS'more'
p8966
aS'big'
p8967
aS'low'
p8968
aS'unacc'
p8969
aa(lp8970
S'low'
p8971
aS'med'
p8972
ag4
aS'more'
p8973
aS'big'
p8974
aS'high'
p8975
aS'vgood'
p8976
aa(lp8977
S'low'
p8978
aS'med'
p8979
ag177
ag4
aS'small'
p8980
aS'low'
p8981
aS'unacc'
p8982
aa(lp8983
S'low'
p8984
aS'med'
p8985
ag177
ag4
aS'small'
p8986
aS'med'
p8987
aS'unacc'
p8988
aa(lp8989
S'low'
p8990
aS'med'
p8991
ag177
ag4
aS'small'
p8992
aS'high'
p8993
aS'unacc'
p8994
aa(lp8995
S'low'
p8996
aS'med'
p8997
ag177
ag4
aS'med'
p8998
aS'low'
p8999
aS'unacc'
p9000
aa(lp9001
S'low'
p9002
aS'med'
p9003
ag177
ag4
aS'med'
p9004
aS'med'
p9005
aS'unacc'
p9006
aa(lp9007
S'low'
p9008
aS'med'
p9009
ag177
ag4
aS'med'
p9010
aS'high'
p9011
aS'unacc'
p9012
aa(lp9013
S'low'
p9014
aS'med'
p9015
ag177
ag4
aS'big'
p9016
aS'low'
p9017
aS'unacc'
p9018
aa(lp9019
S'low'
p9020
aS'med'
p9021
ag177
ag4
aS'big'
p9022
aS'med'
p9023
aS'unacc'
p9024
aa(lp9025
S'low'
p9026
aS'med'
p9027
ag177
ag4
aS'big'
p9028
aS'high'
p9029
aS'unacc'
p9030
aa(lp9031
S'low'
p9032
aS'med'
p9033
ag177
ag59
aS'small'
p9034
aS'low'
p9035
aS'unacc'
p9036
aa(lp9037
S'low'
p9038
aS'med'
p9039
ag177
ag59
aS'small'
p9040
aS'med'
p9041
aS'acc'
p9042
aa(lp9043
S'low'
p9044
aS'med'
p9045
ag177
ag59
aS'small'
p9046
aS'high'
p9047
aS'good'
p9048
aa(lp9049
S'low'
p9050
aS'med'
p9051
ag177
ag59
aS'med'
p9052
aS'low'
p9053
aS'unacc'
p9054
aa(lp9055
S'low'
p9056
aS'med'
p9057
ag177
ag59
aS'med'
p9058
aS'med'
p9059
aS'acc'
p9060
aa(lp9061
S'low'
p9062
aS'med'
p9063
ag177
ag59
aS'med'
p9064
aS'high'
p9065
aS'good'
p9066
aa(lp9067
S'low'
p9068
aS'med'
p9069
ag177
ag59
aS'big'
p9070
aS'low'
p9071
aS'unacc'
p9072
aa(lp9073
S'low'
p9074
aS'med'
p9075
ag177
ag59
aS'big'
p9076
aS'med'
p9077
aS'good'
p9078
aa(lp9079
S'low'
p9080
aS'med'
p9081
ag177
ag59
aS'big'
p9082
aS'high'
p9083
aS'vgood'
p9084
aa(lp9085
S'low'
p9086
aS'med'
p9087
ag177
aS'more'
p9088
aS'small'
p9089
aS'low'
p9090
aS'unacc'
p9091
aa(lp9092
S'low'
p9093
aS'med'
p9094
ag177
aS'more'
p9095
aS'small'
p9096
aS'med'
p9097
aS'acc'
p9098
aa(lp9099
S'low'
p9100
aS'med'
p9101
ag177
aS'more'
p9102
aS'small'
p9103
aS'high'
p9104
aS'good'
p9105
aa(lp9106
S'low'
p9107
aS'med'
p9108
ag177
aS'more'
p9109
aS'med'
p9110
aS'low'
p9111
aS'unacc'
p9112
aa(lp9113
S'low'
p9114
aS'med'
p9115
ag177
aS'more'
p9116
aS'med'
p9117
aS'med'
p9118
aS'good'
p9119
aa(lp9120
S'low'
p9121
aS'med'
p9122
ag177
aS'more'
p9123
aS'med'
p9124
aS'high'
p9125
aS'vgood'
p9126
aa(lp9127
S'low'
p9128
aS'med'
p9129
ag177
aS'more'
p9130
aS'big'
p9131
aS'low'
p9132
aS'unacc'
p9133
aa(lp9134
S'low'
p9135
aS'med'
p9136
ag177
aS'more'
p9137
aS'big'
p9138
aS'med'
p9139
aS'good'
p9140
aa(lp9141
S'low'
p9142
aS'med'
p9143
ag177
aS'more'
p9144
aS'big'
p9145
aS'high'
p9146
aS'vgood'
p9147
aa(lp9148
S'low'
p9149
aS'med'
p9150
ag59
ag4
aS'small'
p9151
aS'low'
p9152
aS'unacc'
p9153
aa(lp9154
S'low'
p9155
aS'med'
p9156
ag59
ag4
aS'small'
p9157
aS'med'
p9158
aS'unacc'
p9159
aa(lp9160
S'low'
p9161
aS'med'
p9162
ag59
ag4
aS'small'
p9163
aS'high'
p9164
aS'unacc'
p9165
aa(lp9166
S'low'
p9167
aS'med'
p9168
ag59
ag4
aS'med'
p9169
aS'low'
p9170
aS'unacc'
p9171
aa(lp9172
S'low'
p9173
aS'med'
p9174
ag59
ag4
aS'med'
p9175
aS'med'
p9176
aS'unacc'
p9177
aa(lp9178
S'low'
p9179
aS'med'
p9180
ag59
ag4
aS'med'
p9181
aS'high'
p9182
aS'unacc'
p9183
aa(lp9184
S'low'
p9185
aS'med'
p9186
ag59
ag4
aS'big'
p9187
aS'low'
p9188
aS'unacc'
p9189
aa(lp9190
S'low'
p9191
aS'med'
p9192
ag59
ag4
aS'big'
p9193
aS'med'
p9194
aS'unacc'
p9195
aa(lp9196
S'low'
p9197
aS'med'
p9198
ag59
ag4
aS'big'
p9199
aS'high'
p9200
aS'unacc'
p9201
aa(lp9202
S'low'
p9203
aS'med'
p9204
ag59
ag59
aS'small'
p9205
aS'low'
p9206
aS'unacc'
p9207
aa(lp9208
S'low'
p9209
aS'med'
p9210
ag59
ag59
aS'small'
p9211
aS'med'
p9212
aS'acc'
p9213
aa(lp9214
S'low'
p9215
aS'med'
p9216
ag59
ag59
aS'small'
p9217
aS'high'
p9218
aS'good'
p9219
aa(lp9220
S'low'
p9221
aS'med'
p9222
ag59
ag59
aS'med'
p9223
aS'low'
p9224
aS'unacc'
p9225
aa(lp9226
S'low'
p9227
aS'med'
p9228
ag59
ag59
aS'med'
p9229
aS'med'
p9230
aS'good'
p9231
aa(lp9232
S'low'
p9233
aS'med'
p9234
ag59
ag59
aS'med'
p9235
aS'high'
p9236
aS'vgood'
p9237
aa(lp9238
S'low'
p9239
aS'med'
p9240
ag59
ag59
aS'big'
p9241
aS'low'
p9242
aS'unacc'
p9243
aa(lp9244
S'low'
p9245
aS'med'
p9246
ag59
ag59
aS'big'
p9247
aS'med'
p9248
aS'good'
p9249
aa(lp9250
S'low'
p9251
aS'med'
p9252
ag59
ag59
aS'big'
p9253
aS'high'
p9254
aS'vgood'
p9255
aa(lp9256
S'low'
p9257
aS'med'
p9258
ag59
aS'more'
p9259
aS'small'
p9260
aS'low'
p9261
aS'unacc'
p9262
aa(lp9263
S'low'
p9264
aS'med'
p9265
ag59
aS'more'
p9266
aS'small'
p9267
aS'med'
p9268
aS'acc'
p9269
aa(lp9270
S'low'
p9271
aS'med'
p9272
ag59
aS'more'
p9273
aS'small'
p9274
aS'high'
p9275
aS'good'
p9276
aa(lp9277
S'low'
p9278
aS'med'
p9279
ag59
aS'more'
p9280
aS'med'
p9281
aS'low'
p9282
aS'unacc'
p9283
aa(lp9284
S'low'
p9285
aS'med'
p9286
ag59
aS'more'
p9287
aS'med'
p9288
aS'med'
p9289
aS'good'
p9290
aa(lp9291
S'low'
p9292
aS'med'
p9293
ag59
aS'more'
p9294
aS'med'
p9295
aS'high'
p9296
aS'vgood'
p9297
aa(lp9298
S'low'
p9299
aS'med'
p9300
ag59
aS'more'
p9301
aS'big'
p9302
aS'low'
p9303
aS'unacc'
p9304
aa(lp9305
S'low'
p9306
aS'med'
p9307
ag59
aS'more'
p9308
aS'big'
p9309
aS'med'
p9310
aS'good'
p9311
aa(lp9312
S'low'
p9313
aS'med'
p9314
ag59
aS'more'
p9315
aS'big'
p9316
aS'high'
p9317
aS'vgood'
p9318
aa(lp9319
S'low'
p9320
aS'med'
p9321
aS'5more'
p9322
ag4
aS'small'
p9323
aS'low'
p9324
aS'unacc'
p9325
aa(lp9326
S'low'
p9327
aS'med'
p9328
aS'5more'
p9329
ag4
aS'small'
p9330
aS'med'
p9331
aS'unacc'
p9332
aa(lp9333
S'low'
p9334
aS'med'
p9335
aS'5more'
p9336
ag4
aS'small'
p9337
aS'high'
p9338
aS'unacc'
p9339
aa(lp9340
S'low'
p9341
aS'med'
p9342
aS'5more'
p9343
ag4
aS'med'
p9344
aS'low'
p9345
aS'unacc'
p9346
aa(lp9347
S'low'
p9348
aS'med'
p9349
aS'5more'
p9350
ag4
aS'med'
p9351
aS'med'
p9352
aS'unacc'
p9353
aa(lp9354
S'low'
p9355
aS'med'
p9356
aS'5more'
p9357
ag4
aS'med'
p9358
aS'high'
p9359
aS'unacc'
p9360
aa(lp9361
S'low'
p9362
aS'med'
p9363
aS'5more'
p9364
ag4
aS'big'
p9365
aS'low'
p9366
aS'unacc'
p9367
aa(lp9368
S'low'
p9369
aS'med'
p9370
aS'5more'
p9371
ag4
aS'big'
p9372
aS'med'
p9373
aS'unacc'
p9374
aa(lp9375
S'low'
p9376
aS'med'
p9377
aS'5more'
p9378
ag4
aS'big'
p9379
aS'high'
p9380
aS'unacc'
p9381
aa(lp9382
S'low'
p9383
aS'med'
p9384
aS'5more'
p9385
ag59
aS'small'
p9386
aS'low'
p9387
aS'unacc'
p9388
aa(lp9389
S'low'
p9390
aS'med'
p9391
aS'5more'
p9392
ag59
aS'small'
p9393
aS'med'
p9394
aS'acc'
p9395
aa(lp9396
S'low'
p9397
aS'med'
p9398
aS'5more'
p9399
ag59
aS'small'
p9400
aS'high'
p9401
aS'good'
p9402
aa(lp9403
S'low'
p9404
aS'med'
p9405
aS'5more'
p9406
ag59
aS'med'
p9407
aS'low'
p9408
aS'unacc'
p9409
aa(lp9410
S'low'
p9411
aS'med'
p9412
aS'5more'
p9413
ag59
aS'med'
p9414
aS'med'
p9415
aS'good'
p9416
aa(lp9417
S'low'
p9418
aS'med'
p9419
aS'5more'
p9420
ag59
aS'med'
p9421
aS'high'
p9422
aS'vgood'
p9423
aa(lp9424
S'low'
p9425
aS'med'
p9426
aS'5more'
p9427
ag59
aS'big'
p9428
aS'low'
p9429
aS'unacc'
p9430
aa(lp9431
S'low'
p9432
aS'med'
p9433
aS'5more'
p9434
ag59
aS'big'
p9435
aS'med'
p9436
aS'good'
p9437
aa(lp9438
S'low'
p9439
aS'med'
p9440
aS'5more'
p9441
ag59
aS'big'
p9442
aS'high'
p9443
aS'vgood'
p9444
aa(lp9445
S'low'
p9446
aS'med'
p9447
aS'5more'
p9448
aS'more'
p9449
aS'small'
p9450
aS'low'
p9451
aS'unacc'
p9452
aa(lp9453
S'low'
p9454
aS'med'
p9455
aS'5more'
p9456
aS'more'
p9457
aS'small'
p9458
aS'med'
p9459
aS'acc'
p9460
aa(lp9461
S'low'
p9462
aS'med'
p9463
aS'5more'
p9464
aS'more'
p9465
aS'small'
p9466
aS'high'
p9467
aS'good'
p9468
aa(lp9469
S'low'
p9470
aS'med'
p9471
aS'5more'
p9472
aS'more'
p9473
aS'med'
p9474
aS'low'
p9475
aS'unacc'
p9476
aa(lp9477
S'low'
p9478
aS'med'
p9479
aS'5more'
p9480
aS'more'
p9481
aS'med'
p9482
aS'med'
p9483
aS'good'
p9484
aa(lp9485
S'low'
p9486
aS'med'
p9487
aS'5more'
p9488
aS'more'
p9489
aS'med'
p9490
aS'high'
p9491
aS'vgood'
p9492
aa(lp9493
S'low'
p9494
aS'med'
p9495
aS'5more'
p9496
aS'more'
p9497
aS'big'
p9498
aS'low'
p9499
aS'unacc'
p9500
aa(lp9501
S'low'
p9502
aS'med'
p9503
aS'5more'
p9504
aS'more'
p9505
aS'big'
p9506
aS'med'
p9507
aS'good'
p9508
aa(lp9509
S'low'
p9510
aS'med'
p9511
aS'5more'
p9512
aS'more'
p9513
aS'big'
p9514
aS'high'
p9515
aS'vgood'
p9516
aa(lp9517
S'low'
p9518
aS'low'
p9519
ag4
ag4
aS'small'
p9520
aS'low'
p9521
aS'unacc'
p9522
aa(lp9523
S'low'
p9524
aS'low'
p9525
ag4
ag4
aS'small'
p9526
aS'med'
p9527
aS'unacc'
p9528
aa(lp9529
S'low'
p9530
aS'low'
p9531
ag4
ag4
aS'small'
p9532
aS'high'
p9533
aS'unacc'
p9534
aa(lp9535
S'low'
p9536
aS'low'
p9537
ag4
ag4
aS'med'
p9538
aS'low'
p9539
aS'unacc'
p9540
aa(lp9541
S'low'
p9542
aS'low'
p9543
ag4
ag4
aS'med'
p9544
aS'med'
p9545
aS'unacc'
p9546
aa(lp9547
S'low'
p9548
aS'low'
p9549
ag4
ag4
aS'med'
p9550
aS'high'
p9551
aS'unacc'
p9552
aa(lp9553
S'low'
p9554
aS'low'
p9555
ag4
ag4
aS'big'
p9556
aS'low'
p9557
aS'unacc'
p9558
aa(lp9559
S'low'
p9560
aS'low'
p9561
ag4
ag4
aS'big'
p9562
aS'med'
p9563
aS'unacc'
p9564
aa(lp9565
S'low'
p9566
aS'low'
p9567
ag4
ag4
aS'big'
p9568
aS'high'
p9569
aS'unacc'
p9570
aa(lp9571
S'low'
p9572
aS'low'
p9573
ag4
ag59
aS'small'
p9574
aS'low'
p9575
aS'unacc'
p9576
aa(lp9577
S'low'
p9578
aS'low'
p9579
ag4
ag59
aS'small'
p9580
aS'med'
p9581
aS'acc'
p9582
aa(lp9583
S'low'
p9584
aS'low'
p9585
ag4
ag59
aS'small'
p9586
aS'high'
p9587
aS'good'
p9588
aa(lp9589
S'low'
p9590
aS'low'
p9591
ag4
ag59
aS'med'
p9592
aS'low'
p9593
aS'unacc'
p9594
aa(lp9595
S'low'
p9596
aS'low'
p9597
ag4
ag59
aS'med'
p9598
aS'med'
p9599
aS'acc'
p9600
aa(lp9601
S'low'
p9602
aS'low'
p9603
ag4
ag59
aS'med'
p9604
aS'high'
p9605
aS'good'
p9606
aa(lp9607
S'low'
p9608
aS'low'
p9609
ag4
ag59
aS'big'
p9610
aS'low'
p9611
aS'unacc'
p9612
aa(lp9613
S'low'
p9614
aS'low'
p9615
ag4
ag59
aS'big'
p9616
aS'med'
p9617
aS'good'
p9618
aa(lp9619
S'low'
p9620
aS'low'
p9621
ag4
ag59
aS'big'
p9622
aS'high'
p9623
aS'vgood'
p9624
aa(lp9625
S'low'
p9626
aS'low'
p9627
ag4
aS'more'
p9628
aS'small'
p9629
aS'low'
p9630
aS'unacc'
p9631
aa(lp9632
S'low'
p9633
aS'low'
p9634
ag4
aS'more'
p9635
aS'small'
p9636
aS'med'
p9637
aS'unacc'
p9638
aa(lp9639
S'low'
p9640
aS'low'
p9641
ag4
aS'more'
p9642
aS'small'
p9643
aS'high'
p9644
aS'unacc'
p9645
aa(lp9646
S'low'
p9647
aS'low'
p9648
ag4
aS'more'
p9649
aS'med'
p9650
aS'low'
p9651
aS'unacc'
p9652
aa(lp9653
S'low'
p9654
aS'low'
p9655
ag4
aS'more'
p9656
aS'med'
p9657
aS'med'
p9658
aS'acc'
p9659
aa(lp9660
S'low'
p9661
aS'low'
p9662
ag4
aS'more'
p9663
aS'med'
p9664
aS'high'
p9665
aS'good'
p9666
aa(lp9667
S'low'
p9668
aS'low'
p9669
ag4
aS'more'
p9670
aS'big'
p9671
aS'low'
p9672
aS'unacc'
p9673
aa(lp9674
S'low'
p9675
aS'low'
p9676
ag4
aS'more'
p9677
aS'big'
p9678
aS'med'
p9679
aS'good'
p9680
aa(lp9681
S'low'
p9682
aS'low'
p9683
ag4
aS'more'
p9684
aS'big'
p9685
aS'high'
p9686
aS'vgood'
p9687
aa(lp9688
S'low'
p9689
aS'low'
p9690
ag177
ag4
aS'small'
p9691
aS'low'
p9692
aS'unacc'
p9693
aa(lp9694
S'low'
p9695
aS'low'
p9696
ag177
ag4
aS'small'
p9697
aS'med'
p9698
aS'unacc'
p9699
aa(lp9700
S'low'
p9701
aS'low'
p9702
ag177
ag4
aS'small'
p9703
aS'high'
p9704
aS'unacc'
p9705
aa(lp9706
S'low'
p9707
aS'low'
p9708
ag177
ag4
aS'med'
p9709
aS'low'
p9710
aS'unacc'
p9711
aa(lp9712
S'low'
p9713
aS'low'
p9714
ag177
ag4
aS'med'
p9715
aS'med'
p9716
aS'unacc'
p9717
aa(lp9718
S'low'
p9719
aS'low'
p9720
ag177
ag4
aS'med'
p9721
aS'high'
p9722
aS'unacc'
p9723
aa(lp9724
S'low'
p9725
aS'low'
p9726
ag177
ag4
aS'big'
p9727
aS'low'
p9728
aS'unacc'
p9729
aa(lp9730
S'low'
p9731
aS'low'
p9732
ag177
ag4
aS'big'
p9733
aS'med'
p9734
aS'unacc'
p9735
aa(lp9736
S'low'
p9737
aS'low'
p9738
ag177
ag4
aS'big'
p9739
aS'high'
p9740
aS'unacc'
p9741
aa(lp9742
S'low'
p9743
aS'low'
p9744
ag177
ag59
aS'small'
p9745
aS'low'
p9746
aS'unacc'
p9747
aa(lp9748
S'low'
p9749
aS'low'
p9750
ag177
ag59
aS'small'
p9751
aS'med'
p9752
aS'acc'
p9753
aa(lp9754
S'low'
p9755
aS'low'
p9756
ag177
ag59
aS'small'
p9757
aS'high'
p9758
aS'good'
p9759
aa(lp9760
S'low'
p9761
aS'low'
p9762
ag177
ag59
aS'med'
p9763
aS'low'
p9764
aS'unacc'
p9765
aa(lp9766
S'low'
p9767
aS'low'
p9768
ag177
ag59
aS'med'
p9769
aS'med'
p9770
aS'acc'
p9771
aa(lp9772
S'low'
p9773
aS'low'
p9774
ag177
ag59
aS'med'
p9775
aS'high'
p9776
aS'good'
p9777
aa(lp9778
S'low'
p9779
aS'low'
p9780
ag177
ag59
aS'big'
p9781
aS'low'
p9782
aS'unacc'
p9783
aa(lp9784
S'low'
p9785
aS'low'
p9786
ag177
ag59
aS'big'
p9787
aS'med'
p9788
aS'good'
p9789
aa(lp9790
S'low'
p9791
aS'low'
p9792
ag177
ag59
aS'big'
p9793
aS'high'
p9794
aS'vgood'
p9795
aa(lp9796
S'low'
p9797
aS'low'
p9798
ag177
aS'more'
p9799
aS'small'
p9800
aS'low'
p9801
aS'unacc'
p9802
aa(lp9803
S'low'
p9804
aS'low'
p9805
ag177
aS'more'
p9806
aS'small'
p9807
aS'med'
p9808
aS'acc'
p9809
aa(lp9810
S'low'
p9811
aS'low'
p9812
ag177
aS'more'
p9813
aS'small'
p9814
aS'high'
p9815
aS'good'
p9816
aa(lp9817
S'low'
p9818
aS'low'
p9819
ag177
aS'more'
p9820
aS'med'
p9821
aS'low'
p9822
aS'unacc'
p9823
aa(lp9824
S'low'
p9825
aS'low'
p9826
ag177
aS'more'
p9827
aS'med'
p9828
aS'med'
p9829
aS'good'
p9830
aa(lp9831
S'low'
p9832
aS'low'
p9833
ag177
aS'more'
p9834
aS'med'
p9835
aS'high'
p9836
aS'vgood'
p9837
aa(lp9838
S'low'
p9839
aS'low'
p9840
ag177
aS'more'
p9841
aS'big'
p9842
aS'low'
p9843
aS'unacc'
p9844
aa(lp9845
S'low'
p9846
aS'low'
p9847
ag177
aS'more'
p9848
aS'big'
p9849
aS'med'
p9850
aS'good'
p9851
aa(lp9852
S'low'
p9853
aS'low'
p9854
ag177
aS'more'
p9855
aS'big'
p9856
aS'high'
p9857
aS'vgood'
p9858
aa(lp9859
S'low'
p9860
aS'low'
p9861
ag59
ag4
aS'small'
p9862
aS'low'
p9863
aS'unacc'
p9864
aa(lp9865
S'low'
p9866
aS'low'
p9867
ag59
ag4
aS'small'
p9868
aS'med'
p9869
aS'unacc'
p9870
aa(lp9871
S'low'
p9872
aS'low'
p9873
ag59
ag4
aS'small'
p9874
aS'high'
p9875
aS'unacc'
p9876
aa(lp9877
S'low'
p9878
aS'low'
p9879
ag59
ag4
aS'med'
p9880
aS'low'
p9881
aS'unacc'
p9882
aa(lp9883
S'low'
p9884
aS'low'
p9885
ag59
ag4
aS'med'
p9886
aS'med'
p9887
aS'unacc'
p9888
aa(lp9889
S'low'
p9890
aS'low'
p9891
ag59
ag4
aS'med'
p9892
aS'high'
p9893
aS'unacc'
p9894
aa(lp9895
S'low'
p9896
aS'low'
p9897
ag59
ag4
aS'big'
p9898
aS'low'
p9899
aS'unacc'
p9900
aa(lp9901
S'low'
p9902
aS'low'
p9903
ag59
ag4
aS'big'
p9904
aS'med'
p9905
aS'unacc'
p9906
aa(lp9907
S'low'
p9908
aS'low'
p9909
ag59
ag4
aS'big'
p9910
aS'high'
p9911
aS'unacc'
p9912
aa(lp9913
S'low'
p9914
aS'low'
p9915
ag59
ag59
aS'small'
p9916
aS'low'
p9917
aS'unacc'
p9918
aa(lp9919
S'low'
p9920
aS'low'
p9921
ag59
ag59
aS'small'
p9922
aS'med'
p9923
aS'acc'
p9924
aa(lp9925
S'low'
p9926
aS'low'
p9927
ag59
ag59
aS'small'
p9928
aS'high'
p9929
aS'good'
p9930
aa(lp9931
S'low'
p9932
aS'low'
p9933
ag59
ag59
aS'med'
p9934
aS'low'
p9935
aS'unacc'
p9936
aa(lp9937
S'low'
p9938
aS'low'
p9939
ag59
ag59
aS'med'
p9940
aS'med'
p9941
aS'good'
p9942
aa(lp9943
S'low'
p9944
aS'low'
p9945
ag59
ag59
aS'med'
p9946
aS'high'
p9947
aS'vgood'
p9948
aa(lp9949
S'low'
p9950
aS'low'
p9951
ag59
ag59
aS'big'
p9952
aS'low'
p9953
aS'unacc'
p9954
aa(lp9955
S'low'
p9956
aS'low'
p9957
ag59
ag59
aS'big'
p9958
aS'med'
p9959
aS'good'
p9960
aa(lp9961
S'low'
p9962
aS'low'
p9963
ag59
ag59
aS'big'
p9964
aS'high'
p9965
aS'vgood'
p9966
aa(lp9967
S'low'
p9968
aS'low'
p9969
ag59
aS'more'
p9970
aS'small'
p9971
aS'low'
p9972
aS'unacc'
p9973
aa(lp9974
S'low'
p9975
aS'low'
p9976
ag59
aS'more'
p9977
aS'small'
p9978
aS'med'
p9979
aS'acc'
p9980
aa(lp9981
S'low'
p9982
aS'low'
p9983
ag59
aS'more'
p9984
aS'small'
p9985
aS'high'
p9986
aS'good'
p9987
aa(lp9988
S'low'
p9989
aS'low'
p9990
ag59
aS'more'
p9991
aS'med'
p9992
aS'low'
p9993
aS'unacc'
p9994
aa(lp9995
S'low'
p9996
aS'low'
p9997
ag59
aS'more'
p9998
aS'med'
p9999
aS'med'
p10000
aS'good'
p10001
aa(lp10002
S'low'
p10003
aS'low'
p10004
ag59
aS'more'
p10005
aS'med'
p10006
aS'high'
p10007
aS'vgood'
p10008
aa(lp10009
S'low'
p10010
aS'low'
p10011
ag59
aS'more'
p10012
aS'big'
p10013
aS'low'
p10014
aS'unacc'
p10015
aa(lp10016
S'low'
p10017
aS'low'
p10018
ag59
aS'more'
p10019
aS'big'
p10020
aS'med'
p10021
aS'good'
p10022
aa(lp10023
S'low'
p10024
aS'low'
p10025
ag59
aS'more'
p10026
aS'big'
p10027
aS'high'
p10028
aS'vgood'
p10029
aa(lp10030
S'low'
p10031
aS'low'
p10032
aS'5more'
p10033
ag4
aS'small'
p10034
aS'low'
p10035
aS'unacc'
p10036
aa(lp10037
S'low'
p10038
aS'low'
p10039
aS'5more'
p10040
ag4
aS'small'
p10041
aS'med'
p10042
aS'unacc'
p10043
aa(lp10044
S'low'
p10045
aS'low'
p10046
aS'5more'
p10047
ag4
aS'small'
p10048
aS'high'
p10049
aS'unacc'
p10050
aa(lp10051
S'low'
p10052
aS'low'
p10053
aS'5more'
p10054
ag4
aS'med'
p10055
aS'low'
p10056
aS'unacc'
p10057
aa(lp10058
S'low'
p10059
aS'low'
p10060
aS'5more'
p10061
ag4
aS'med'
p10062
aS'med'
p10063
aS'unacc'
p10064
aa(lp10065
S'low'
p10066
aS'low'
p10067
aS'5more'
p10068
ag4
aS'med'
p10069
aS'high'
p10070
aS'unacc'
p10071
aa(lp10072
S'low'
p10073
aS'low'
p10074
aS'5more'
p10075
ag4
aS'big'
p10076
aS'low'
p10077
aS'unacc'
p10078
aa(lp10079
S'low'
p10080
aS'low'
p10081
aS'5more'
p10082
ag4
aS'big'
p10083
aS'med'
p10084
aS'unacc'
p10085
aa(lp10086
S'low'
p10087
aS'low'
p10088
aS'5more'
p10089
ag4
aS'big'
p10090
aS'high'
p10091
aS'unacc'
p10092
aa(lp10093
S'low'
p10094
aS'low'
p10095
aS'5more'
p10096
ag59
aS'small'
p10097
aS'low'
p10098
aS'unacc'
p10099
aa(lp10100
S'low'
p10101
aS'low'
p10102
aS'5more'
p10103
ag59
aS'small'
p10104
aS'med'
p10105
aS'acc'
p10106
aa(lp10107
S'low'
p10108
aS'low'
p10109
aS'5more'
p10110
ag59
aS'small'
p10111
aS'high'
p10112
aS'good'
p10113
aa(lp10114
S'low'
p10115
aS'low'
p10116
aS'5more'
p10117
ag59
aS'med'
p10118
aS'low'
p10119
aS'unacc'
p10120
aa(lp10121
S'low'
p10122
aS'low'
p10123
aS'5more'
p10124
ag59
aS'med'
p10125
aS'med'
p10126
aS'good'
p10127
aa(lp10128
S'low'
p10129
aS'low'
p10130
aS'5more'
p10131
ag59
aS'med'
p10132
aS'high'
p10133
aS'vgood'
p10134
aa(lp10135
S'low'
p10136
aS'low'
p10137
aS'5more'
p10138
ag59
aS'big'
p10139
aS'low'
p10140
aS'unacc'
p10141
aa(lp10142
S'low'
p10143
aS'low'
p10144
aS'5more'
p10145
ag59
aS'big'
p10146
aS'med'
p10147
aS'good'
p10148
aa(lp10149
S'low'
p10150
aS'low'
p10151
aS'5more'
p10152
ag59
aS'big'
p10153
aS'high'
p10154
aS'vgood'
p10155
aa(lp10156
S'low'
p10157
aS'low'
p10158
aS'5more'
p10159
aS'more'
p10160
aS'small'
p10161
aS'low'
p10162
aS'unacc'
p10163
aa(lp10164
S'low'
p10165
aS'low'
p10166
aS'5more'
p10167
aS'more'
p10168
aS'small'
p10169
aS'med'
p10170
aS'acc'
p10171
aa(lp10172
S'low'
p10173
aS'low'
p10174
aS'5more'
p10175
aS'more'
p10176
aS'small'
p10177
aS'high'
p10178
aS'good'
p10179
aa(lp10180
S'low'
p10181
aS'low'
p10182
aS'5more'
p10183
aS'more'
p10184
aS'med'
p10185
aS'low'
p10186
aS'unacc'
p10187
aa(lp10188
S'low'
p10189
aS'low'
p10190
aS'5more'
p10191
aS'more'
p10192
aS'med'
p10193
aS'med'
p10194
aS'good'
p10195
aa(lp10196
S'low'
p10197
aS'low'
p10198
aS'5more'
p10199
aS'more'
p10200
aS'med'
p10201
aS'high'
p10202
aS'vgood'
p10203
aa(lp10204
S'low'
p10205
aS'low'
p10206
aS'5more'
p10207
aS'more'
p10208
aS'big'
p10209
aS'low'
p10210
aS'unacc'
p10211
aa(lp10212
S'low'
p10213
aS'low'
p10214
aS'5more'
p10215
aS'more'
p10216
aS'big'
p10217
aS'med'
p10218
aS'good'
p10219
aa(lp10220
S'low'
p10221
aS'low'
p10222
aS'5more'
p10223
aS'more'
p10224
aS'big'
p10225
aS'high'
p10226
aS'vgood'
p10227
aa.