(lp0
(lp1
S'vhigh'
p2
aS'vhigh'
p3
aS'2'
p4
ag4
aS'small'
p5
aS'low'
p6
aS'unacc'
p7
aa(lp8
S'vhigh'
p9
aS'vhigh'
p10
ag4
ag4
aS'small'
p11
aS'med'
p12
aS'unacc'
p13
aa(lp14
S'vhigh'
p15
aS'vhigh'
p16
ag4
ag4
aS'small'
p17
aS'high'
p18
aS'unacc'
p19
aa(lp20
S'vhigh'
p21
aS'vhigh'
p22
ag4
ag4
aS'med'
p23
aS'low'
p24
aS'unacc'
p25
aa(lp26
S'vhigh'
p27
aS'vhigh'
p28
ag4
ag4
aS'med'
p29
aS'med'
p30
aS'unacc'
p31
aa(lp32
S'vhigh'
p33
aS'vhigh'
p34
ag4
ag4
aS'med'
p35
aS'high'
p36
aS'unacc'
p37
aa(lp38
S'vhigh'
p39
aS'vhigh'
p40
ag4
ag4
aS'big'
p41
aS'low'
p42
aS'unacc'
p43
aa(lp44
S'vhigh'
p45
aS'vhigh'
p46
ag4
ag4
aS'big'
p47
aS'med'
p48
aS'unacc'
p49
aa(lp50
S'vhigh'
p51
aS'vhigh'
p52
ag4
ag4
aS'big'
p53
aS'high'
p54
aS'unacc'
p55
aa(lp56
S'vhigh'
p57
aS'vhigh'
p58
ag4
aS'4'
p59
aS'small'
p60
aS'low'
p61
aS'unacc'
p62
aa(lp63
S'vhigh'
p64
aS'vhigh'
p65
ag4
ag59
aS'small'
p66
aS'med'
p67
aS'unacc'
p68
aa(lp69
S'vhigh'
p70
aS'vhigh'
p71
ag4
ag59
aS'small'
p72
aS'high'
p73
aS'unacc'
p74
aa(lp75
S'vhigh'
p76
aS'vhigh'
p77
ag4
ag59
aS'med'
p78
aS'low'
p79
aS'unacc'
p80
aa(lp81
S'vhigh'
p82
aS'vhigh'
p83
ag4
ag59
aS'med'
p84
aS'med'
p85
aS'unacc'
p86
aa(lp87
S'vhigh'
p88
aS'vhigh'
p89
ag4
ag59
aS'med'
p90
aS'high'
p91
aS'unacc'
p92
aa(lp93
S'vhigh'
p94
aS'vhigh'
p95
ag4
ag59
aS'big'
p96
aS'low'
p97
aS'unacc'
p98
aa(lp99
S'vhigh'
p100
aS'vhigh'
p101
ag4
ag59
aS'big'
p102
aS'med'
p103
aS'unacc'
p104
aa(lp105
S'vhigh'
p106
aS'vhigh'
p107
ag4
ag59
aS'big'
p108
aS'high'
p109
aS'unacc'
p110
aa(lp111
S'vhigh'
p112
aS'vhigh'
p113
ag4
aS'more'
p114
aS'small'
p115
aS'low'
p116
aS'unacc'
p117
aa(lp118
S'vhigh'
p119
aS'vhigh'
p120
ag4
aS'more'
p121
aS'small'
p122
aS'med'
p123
aS'unacc'
p124
aa(lp125
S'vhigh'
p126
aS'vhigh'
p127
ag4
aS'more'
p128
aS'small'
p129
aS'high'
p130
aS'unacc'
p131
aa(lp132
S'vhigh'
p133
aS'vhigh'
p134
ag4
aS'more'
p135
aS'med'
p136
aS'low'
p137
aS'unacc'
p138
aa(lp139
S'vhigh'
p140
aS'vhigh'
p141
ag4
aS'more'
p142
aS'med'
p143
aS'med'
p144
aS'unacc'
p145
aa(lp146
S'vhigh'
p147
aS'vhigh'
p148
ag4
aS'more'
p149
aS'med'
p150
aS'high'
p151
aS'unacc'
p152
aa(lp153
S'vhigh'
p154
aS'vhigh'
p155
ag4
aS'more'
p156
aS'big'
p157
aS'low'
p158
aS'unacc'
p159
aa(lp160
S'vhigh'
p161
aS'vhigh'
p162
ag4
aS'more'
p163
aS'big'
p164
aS'med'
p165
aS'unacc'
p166
aa(lp167
S'vhigh'
p168
aS'vhigh'
p169
ag4
aS'more'
p170
aS'big'
p171
aS'high'
p172
aS'unacc'
p173
aa(lp174
S'vhigh'
p175
aS'vhigh'
p176
aS'3'
p177
ag4
aS'small'
p178
aS'low'
p179
aS'unacc'
p180
aa(lp181
S'vhigh'
p182
aS'vhigh'
p183
ag177
ag4
aS'small'
p184
aS'med'
p185
aS'unacc'
p186
aa(lp187
S'vhigh'
p188
aS'vhigh'
p189
ag177
ag4
aS'small'
p190
aS'high'
p191
aS'unacc'
p192
aa(lp193
S'vhigh'
p194
aS'vhigh'
p195
ag177
ag4
aS'med'
p196
aS'low'
p197
aS'unacc'
p198
aa(lp199
S'vhigh'
p200
aS'vhigh'
p201
ag177
ag4
aS'med'
p202
aS'med'
p203
aS'unacc'
p204
aa(lp205
S'vhigh'
p206
aS'vhigh'
p207
ag177
ag4
aS'med'
p208
aS'high'
p209
aS'unacc'
p210
aa(lp211
S'vhigh'
p212
aS'vhigh'
p213
ag177
ag4
aS'big'
p214
aS'low'
p215
aS'unacc'
p216
aa(lp217
S'vhigh'
p218
aS'vhigh'
p219
ag177
ag4
aS'big'
p220
aS'med'
p221
aS'unacc'
p222
aa(lp223
S'vhigh'
p224
aS'vhigh'
p225
ag177
ag4
aS'big'
p226
aS'high'
p227
aS'unacc'
p228
aa(lp229
S'vhigh'
p230
aS'vhigh'
p231
ag177
ag59
aS'small'
p232
aS'low'
p233
aS'unacc'
p234
aa(lp235
S'vhigh'
p236
aS'vhigh'
p237
ag177
ag59
aS'small'
p238
aS'med'
p239
aS'unacc'
p240
aa(lp241
S'vhigh'
p242
aS'vhigh'
p243
ag177
ag59
aS'small'
p244
aS'high'
p245
aS'unacc'
p246
aa(lp247
S'vhigh'
p248
aS'vhigh'
p249
ag177
ag59
aS'med'
p250
aS'low'
p251
aS'unacc'
p252
aa(lp253
S'vhigh'
p254
aS'vhigh'
p255
ag177
ag59
aS'med'
p256
aS'med'
p257
aS'unacc'
p258
aa(lp259
S'vhigh'
p260
aS'vhigh'
p261
ag177
ag59
aS'med'
p262
aS'high'
p263
aS'unacc'
p264
aa(lp265
S'vhigh'
p266
aS'vhigh'
p267
ag177
ag59
aS'big'
p268
aS'low'
p269
aS'unacc'
p270
aa(lp271
S'vhigh'
p272
aS'vhigh'
p273
ag177
ag59
aS'big'
p274
aS'med'
p275
aS'unacc'
p276
aa(lp277
S'vhigh'
p278
aS'vhigh'
p279
ag177
ag59
aS'big'
p280
aS'high'
p281
aS'unacc'
p282
aa(lp283
S'vhigh'
p284
aS'vhigh'
p285
ag177
aS'more'
p286
aS'small'
p287
aS'low'
p288
aS'unacc'
p289
aa(lp290
S'vhigh'
p291
aS'vhigh'
p292
ag177
aS'more'
p293
aS'small'
p294
aS'med'
p295
aS'unacc'
p296
aa(lp297
S'vhigh'
p298
aS'vhigh'
p299
ag177
aS'more'
p300
aS'small'
p301
aS'high'
p302
aS'unacc'
p303
aa(lp304
S'vhigh'
p305
aS'vhigh'
p306
ag177
aS'more'
p307
aS'med'
p308
aS'low'
p309
aS'unacc'
p310
aa(lp311
S'vhigh'
p312
aS'vhigh'
p313
ag177
aS'more'
p314
aS'med'
p315
aS'med'
p316
aS'unacc'
p317
aa(lp318
S'vhigh'
p319
aS'vhigh'
p320
ag177
aS'more'
p321
aS'med'
p322
aS'high'
p323
aS'unacc'
p324
aa(lp325
S'vhigh'
p326
aS'vhigh'
p327
ag177
aS'more'
p328
aS'big'
p329
aS'low'
p330
aS'unacc'
p331
aa(lp332
S'vhigh'
p333
aS'vhigh'
p334
ag177
aS'more'
p335
aS'big'
p336
aS'med'
p337
aS'unacc'
p338
aa(lp339
S'vhigh'
p340
aS'vhigh'
p341
ag177
aS'more'
p342
aS'big'
p343
aS'high'
p344
aS'unacc'
p345
aa(lp346
S'vhigh'
p347
aS'vhigh'
p348
ag59
ag4
aS'small'
p349
aS'low'
p350
aS'unacc'
p351
aa(lp352
S'vhigh'
p353
aS'vhigh'
p354
ag59
ag4
aS'small'
p355
aS'med'
p356
aS'unacc'
p357
aa(lp358
S'vhigh'
p359
aS'vhigh'
p360
ag59
ag4
aS'small'
p361
aS'high'
p362
aS'unacc'
p363
aa(lp364
S'vhigh'
p365
aS'vhigh'
p366
ag59
ag4
aS'med'
p367
aS'low'
p368
aS'unacc'
p369
aa(lp370
S'vhigh'
p371
aS'vhigh'
p372
ag59
ag4
aS'med'
p373
aS'med'
p374
aS'unacc'
p375
aa(lp376
S'vhigh'
p377
aS'vhigh'
p378
ag59
ag4
aS'med'
p379
aS'high'
p380
aS'unacc'
p381
aa(lp382
S'vhigh'
p383
aS'vhigh'
p384
ag59
ag4
aS'big'
p385
aS'low'
p386
aS'unacc'
p387
aa(lp388
S'vhigh'
p389
aS'vhigh'
p390
ag59
ag4
aS'big'
p391
aS'med'
p392
aS'unacc'
p393
aa(lp394
S'vhigh'
p395
aS'vhigh'
p396
ag59
ag4
aS'big'
p397
aS'high'
p398
aS'unacc'
p399
aa(lp400
S'vhigh'
p401
aS'vhigh'
p402
ag59
ag59
aS'small'
p403
aS'low'
p404
aS'unacc'
p405
aa(lp406
S'vhigh'
p407
aS'vhigh'
p408
ag59
ag59
aS'small'
p409
aS'med'
p410
aS'unacc'
p411
aa(lp412
S'vhigh'
p413
aS'vhigh'
p414
ag59
ag59
aS'small'
p415
aS'high'
p416
aS'unacc'
p417
aa(lp418
S'vhigh'
p419
aS'vhigh'
p420
ag59
ag59
aS'med'
p421
aS'low'
p422
aS'unacc'
p423
aa(lp424
S'vhigh'
p425
aS'vhigh'
p426
ag59
ag59
aS'med'
p427
aS'med'
p428
aS'unacc'
p429
aa(lp430
S'vhigh'
p431
aS'vhigh'
p432
ag59
ag59
aS'med'
p433
aS'high'
p434
aS'unacc'
p435
aa(lp436
S'vhigh'
p437
aS'vhigh'
p438
ag59
ag59
aS'big'
p439
aS'low'
p440
aS'unacc'
p441
aa(lp442
S'vhigh'
p443
aS'vhigh'
p444
ag59
ag59
aS'big'
p445
aS'med'
p446
aS'unacc'
p447
aa(lp448
S'vhigh'
p449
aS'vhigh'
p450
ag59
ag59
aS'big'
p451
aS'high'
p452
aS'unacc'
p453
aa(lp454
S'vhigh'
p455
aS'vhigh'
p456
ag59
aS'more'
p457
aS'small'
p458
aS'low'
p459
aS'unacc'
p460
aa(lp461
S'vhigh'
p462
aS'vhigh'
p463
ag59
aS'more'
p464
aS'small'
p465
aS'med'
p466
aS'unacc'
p467
aa(lp468
S'vhigh'
p469
aS'vhigh'
p470
ag59
aS'more'
p471
aS'small'
p472
aS'high'
p473
aS'unacc'
p474
aa(lp475
S'vhigh'
p476
aS'vhigh'
p477
ag59
aS'more'
p478
aS'med'
p479
aS'low'
p480
aS'unacc'
p481
aa(lp482
S'vhigh'
p483
aS'vhigh'
p484
ag59
aS'more'
p485
aS'med'
p486
aS'med'
p487
aS'unacc'
p488
aa(lp489
S'vhigh'
p490
aS'vhigh'
p491
ag59
aS'more'
p492
aS'med'
p493
aS'high'
p494
aS'unacc'
p495
aa(lp496
S'vhigh'
p497
aS'vhigh'
p498
ag59
aS'more'
p499
aS'big'
p500
aS'low'
p501
aS'unacc'
p502
aa(lp503
S'vhigh'
p504
aS'vhigh'
p505
ag59
aS'more'
p506
aS'big'
p507
aS'med'
p508
aS'unacc'
p509
aa(lp510
S'vhigh'
p511
aS'vhigh'
p512
ag59
aS'more'
p513
aS'big'
p514
aS'high'
p515
aS'unacc'
p516
aa(lp517
S'vhigh'
p518
aS'vhigh'
p519
aS'5more'
p520
ag4
aS'small'
p521
aS'low'
p522
aS'unacc'
p523
aa(lp524
S'vhigh'
p525
aS'vhigh'
p526
aS'5more'
p527
ag4
aS'small'
p528
aS'med'
p529
aS'unacc'
p530
aa(lp531
S'vhigh'
p532
aS'vhigh'
p533
aS'5more'
p534
ag4
aS'small'
p535
aS'high'
p536
aS'unacc'
p537
aa(lp538
S'vhigh'
p539
aS'vhigh'
p540
aS'5more'
p541
ag4
aS'med'
p542
aS'low'
p543
aS'unacc'
p544
aa(lp545
S'vhigh'
p546
aS'vhigh'
p547
aS'5more'
p548
ag4
aS'med'
p549
aS'med'
p550
aS'unacc'
p551
aa(lp552
S'vhigh'
p553
aS'vhigh'
p554
aS'5more'
p555
ag4
aS'med'
p556
aS'high'
p557
aS'unacc'
p558
aa(lp559
S'vhigh'
p560
aS'vhigh'
p561
aS'5more'
p562
ag4
aS'big'
p563
aS'low'
p564
aS'unacc'
p565
aa(lp566
S'vhigh'
p567
aS'vhigh'
p568
aS'5more'
p569
ag4
aS'big'
p570
aS'med'
p571
aS'unacc'
p572
aa(lp573
S'vhigh'
p574
aS'vhigh'
p575
aS'5more'
p576
ag4
aS'big'
p577
aS'high'
p578
aS'unacc'
p579
aa(lp580
S'vhigh'
p581
aS'vhigh'
p582
aS'5more'
p583
ag59
aS'small'
p584
aS'low'
p585
aS'unacc'
p586
aa(lp587
S'vhigh'
p588
aS'vhigh'
p589
aS'5more'
p590
ag59
aS'small'
p591
aS'med'
p592
aS'unacc'
p593
aa(lp594
S'vhigh'
p595
aS'vhigh'
p596
aS'5more'
p597
ag59
aS'small'
p598
aS'high'
p599
aS'unacc'
p600
aa(lp601
S'vhigh'
p602
aS'vhigh'
p603
aS'5more'
p604
ag59
aS'med'
p605
aS'low'
p606
aS'unacc'
p607
aa(lp608
S'vhigh'
p609
aS'vhigh'
p610
aS'5more'
p611
ag59
aS'med'
p612
aS'med'
p613
aS'unacc'
p614
aa(lp615
S'vhigh'
p616
aS'vhigh'
p617
aS'5more'
p618
ag59
aS'med'
p619
aS'high'
p620
aS'unacc'
p621
aa(lp622
S'vhigh'
p623
aS'vhigh'
p624
aS'5more'
p625
ag59
aS'big'
p626
aS'low'
p627
aS'unacc'
p628
aa(lp629
S'vhigh'
p630
aS'vhigh'
p631
aS'5more'
p632
ag59
aS'big'
p633
aS'med'
p634
aS'unacc'
p635
aa(lp636
S'vhigh'
p637
aS'vhigh'
p638
aS'5more'
p639
ag59
aS'big'
p640
aS'high'
p641
aS'unacc'
p642
aa(lp643
S'vhigh'
p644
aS'vhigh'
p645
aS'5more'
p646
aS'more'
p647
aS'small'
p648
aS'low'
p649
aS'unacc'
p650
aa(lp651
S'vhigh'
p652
aS'vhigh'
p653
aS'5more'
p654
aS'more'
p655
aS'small'
p656
aS'med'
p657
aS'unacc'
p658
aa(lp659
S'vhigh'
p660
aS'vhigh'
p661
aS'5more'
p662
aS'more'
p663
aS'small'
p664
aS'high'
p665
aS'unacc'
p666
aa(lp667
S'vhigh'
p668
aS'vhigh'
p669
aS'5more'
p670
aS'more'
p671
aS'med'
p672
aS'low'
p673
aS'unacc'
p674
aa(lp675
S'vhigh'
p676
aS'vhigh'
p677
aS'5more'
p678
aS'more'
p679
aS'med'
p680
aS'med'
p681
aS'unacc'
p682
aa(lp683
S'vhigh'
p684
aS'vhigh'
p685
aS'5more'
p686
aS'more'
p687
aS'med'
p688
aS'high'
p689
aS'unacc'
p690
aa(lp691
S'vhigh'
p692
aS'vhigh'
p693
aS'5more'
p694
aS'more'
p695
aS'big'
p696
aS'low'
p697
aS'unacc'
p698
aa(lp699
S'vhigh'
p700
aS'vhigh'
p701
aS'5more'
p702
aS'more'
p703
aS'big'
p704
aS'med'
p705
aS'unacc'
p706
aa(lp707
S'vhigh'
p708
aS'vhigh'
p709
aS'5more'
p710
aS'more'
p711
aS'big'
p712
aS'high'
p713
aS'unacc'
p714
aa(lp715
S'vhigh'
p716
aS'high'
p717
ag4
ag4
aS'small'
p718
aS'low'
p719
aS'unacc'
p720
aa(lp721
S'vhigh'
p722
aS'high'
p723
ag4
ag4
aS'small'
p724
aS'med'
p725
aS'unacc'
p726
aa(lp727
S'vhigh'
p728
aS'high'
p729
ag4
ag4
aS'small'
p730
aS'high'
p731
aS'unacc'
p732
aa(lp733
S'vhigh'
p734
aS'high'
p735
ag4
ag4
aS'med'
p736
aS'low'
p737
aS'unacc'
p738
aa(lp739
S'vhigh'
p740
aS'high'
p741
ag4
ag4
aS'med'
p742
aS'med'
p743
aS'unacc'
p744
aa(lp745
S'vhigh'
p746
aS'high'
p747
ag4
ag4
aS'med'
p748
aS'high'
p749
aS'unacc'
p750
aa(lp751
S'vhigh'
p752
aS'high'
p753
ag4
ag4
aS'big'
p754
aS'low'
p755
aS'unacc'
p756
aa(lp757
S'vhigh'
p758
aS'high'
p759
ag4
ag4
aS'big'
p760
aS'med'
p761
aS'unacc'
p762
aa(lp763
S'vhigh'
p764
aS'high'
p765
ag4
ag4
aS'big'
p766
aS'high'
p767
aS'unacc'
p768
aa(lp769
S'vhigh'
p770
aS'high'
p771
ag4
ag59
aS'small'
p772
aS'low'
p773
aS'unacc'
p774
aa(lp775
S'vhigh'
p776
aS'high'
p777
ag4
ag59
aS'small'
p778
aS'med'
p779
aS'unacc'
p780
aa(lp781
S'vhigh'
p782
aS'high'
p783
ag4
ag59
aS'small'
p784
aS'high'
p785
aS'unacc'
p786
aa(lp787
S'vhigh'
p788
aS'high'
p789
ag4
ag59
aS'med'
p790
aS'low'
p791
aS'unacc'
p792
aa(lp793
S'vhigh'
p794
aS'high'
p795
ag4
ag59
aS'med'
p796
aS'med'
p797
aS'unacc'
p798
aa(lp799
S'vhigh'
p800
aS'high'
p801
ag4
ag59
aS'med'
p802
aS'high'
p803
aS'unacc'
p804
aa(lp805
S'vhigh'
p806
aS'high'
p807
ag4
ag59
aS'big'
p808
aS'low'
p809
aS'unacc'
p810
aa(lp811
S'vhigh'
p812
aS'high'
p813
ag4
ag59
aS'big'
p814
aS'med'
p815
aS'unacc'
p816
aa(lp817
S'vhigh'
p818
aS'high'
p819
ag4
ag59
aS'big'
p820
aS'high'
p821
aS'unacc'
p822
aa(lp823
S'vhigh'
p824
aS'high'
p825
ag4
aS'more'
p826
aS'small'
p827
aS'low'
p828
aS'unacc'
p829
aa(lp830
S'vhigh'
p831
aS'high'
p832
ag4
aS'more'
p833
aS'small'
p834
aS'med'
p835
aS'unacc'
p836
aa(lp837
S'vhigh'
p838
aS'high'
p839
ag4
aS'more'
p840
aS'small'
p841
aS'high'
p842
aS'unacc'
p843
aa(lp844
S'vhigh'
p845
aS'high'
p846
ag4
aS'more'
p847
aS'med'
p848
aS'low'
p849
aS'unacc'
p850
aa(lp851
S'vhigh'
p852
aS'high'
p853
ag4
aS'more'
p854
aS'med'
p855
aS'med'
p856
aS'unacc'
p857
aa(lp858
S'vhigh'
p859
aS'high'
p860
ag4
aS'more'
p861
aS'med'
p862
aS'high'
p863
aS'unacc'
p864
aa(lp865
S'vhigh'
p866
aS'high'
p867
ag4
aS'more'
p868
aS'big'
p869
aS'low'
p870
aS'unacc'
p871
aa(lp872
S'vhigh'
p873
aS'high'
p874
ag4
aS'more'
p875
aS'big'
p876
aS'med'
p877
aS'unacc'
p878
aa(lp879
S'vhigh'
p880
aS'high'
p881
ag4
aS'more'
p882
aS'big'
p883
aS'high'
p884
aS'unacc'
p885
aa(lp886
S'vhigh'
p887
aS'high'
p888
ag177
ag4
aS'small'
p889
aS'low'
p890
aS'unacc'
p891
aa(lp892
S'vhigh'
p893
aS'high'
p894
ag177
ag4
aS'small'
p895
aS'med'
p896
aS'unacc'
p897
aa(lp898
S'vhigh'
p899
aS'high'
p900
ag177
ag4
aS'small'
p901
aS'high'
p902
aS'unacc'
p903
aa(lp904
S'vhigh'
p905
aS'high'
p906
ag177
ag4
aS'med'
p907
aS'low'
p908
aS'unacc'
p909
aa(lp910
S'vhigh'
p911
aS'high'
p912
ag177
ag4
aS'med'
p913
aS'med'
p914
aS'unacc'
p915
aa(lp916
S'vhigh'
p917
aS'high'
p918
ag177
ag4
aS'med'
p919
aS'high'
p920
aS'unacc'
p921
aa(lp922
S'vhigh'
p923
aS'high'
p924
ag177
ag4
aS'big'
p925
aS'low'
p926
aS'unacc'
p927
aa(lp928
S'vhigh'
p929
aS'high'
p930
ag177
ag4
aS'big'
p931
aS'med'
p932
aS'unacc'
p933
aa(lp934
S'vhigh'
p935
aS'high'
p936
ag177
ag4
aS'big'
p937
aS'high'
p938
aS'unacc'
p939
aa(lp940
S'vhigh'
p941
aS'high'
p942
ag177
ag59
aS'small'
p943
aS'low'
p944
aS'unacc'
p945
aa(lp946
S'vhigh'
p947
aS'high'
p948
ag177
ag59
aS'small'
p949
aS'med'
p950
aS'unacc'
p951
aa(lp952
S'vhigh'
p953
aS'high'
p954
ag177
ag59
aS'small'
p955
aS'high'
p956
aS'unacc'
p957
aa(lp958
S'vhigh'
p959
aS'high'
p960
ag177
ag59
aS'med'
p961
aS'low'
p962
aS'unacc'
p963
aa(lp964
S'vhigh'
p965
aS'high'
p966
ag177
ag59
aS'med'
p967
aS'med'
p968
aS'unacc'
p969
aa(lp970
S'vhigh'
p971
aS'high'
p972
ag177
ag59
aS'med'
p973
aS'high'
p974
aS'unacc'
p975
aa(lp976
S'vhigh'
p977
aS'high'
p978
ag177
ag59
aS'big'
p979
aS'low'
p980
aS'unacc'
p981
aa(lp982
S'vhigh'
p983
aS'high'
p984
ag177
ag59
aS'big'
p985
aS'med'
p986
aS'unacc'
p987
aa(lp988
S'vhigh'
p989
aS'high'
p990
ag177
ag59
aS'big'
p991
aS'high'
p992
aS'unacc'
p993
aa(lp994
S'vhigh'
p995
aS'high'
p996
ag177
aS'more'
p997
aS'small'
p998
aS'low'
p999
aS'unacc'
p1000
aa(lp1001
S'vhigh'
p1002
aS'high'
p1003
ag177
aS'more'
p1004
aS'small'
p1005
aS'med'
p1006
aS'unacc'
p1007
aa(lp1008
S'vhigh'
p1009
aS'high'
p1010
ag177
aS'more'
p1011
aS'small'
p1012
aS'high'
p1013
aS'unacc'
p1014
aa(lp1015
S'vhigh'
p1016
aS'high'
p1017
ag177
aS'more'
p1018
aS'med'
p1019
aS'low'
p1020
aS'unacc'
p1021
aa(lp1022
S'vhigh'
p1023
aS'high'
p1024
ag177
aS'more'
p1025
aS'med'
p1026
aS'med'
p1027
aS'unacc'
p1028
aa(lp1029
S'vhigh'
p1030
aS'high'
p1031
ag177
aS'more'
p1032
aS'med'
p1033
aS'high'
p1034
aS'unacc'
p1035
aa(lp1036
S'vhigh'
p1037
aS'high'
p1038
ag177
aS'more'
p1039
aS'big'
p1040
aS'low'
p1041
aS'unacc'
p1042
aa(lp1043
S'vhigh'
p1044
aS'high'
p1045
ag177
aS'more'
p1046
aS'big'
p1047
aS'med'
p1048
aS'unacc'
p1049
aa(lp1050
S'vhigh'
p1051
aS'high'
p1052
ag177
aS'more'
p1053
aS'big'
p1054
aS'high'
p1055
aS'unacc'
p1056
aa(lp1057
S'vhigh'
p1058
aS'high'
p1059
ag59
ag4
aS'small'
p1060
aS'low'
p1061
aS'unacc'
p1062
aa(lp1063
S'vhigh'
p1064
aS'high'
p1065
ag59
ag4
aS'small'
p1066
aS'med'
p1067
aS'unacc'
p1068
aa(lp1069
S'vhigh'
p1070
aS'high'
p1071
ag59
ag4
aS'small'
p1072
aS'high'
p1073
aS'unacc'
p1074
aa(lp1075
S'vhigh'
p1076
aS'high'
p1077
ag59
ag4
aS'med'
p1078
aS'low'
p1079
aS'unacc'
p1080
aa(lp1081
S'vhigh'
p1082
aS'high'
p1083
ag59
ag4
aS'med'
p1084
aS'med'
p1085
aS'unacc'
p1086
aa(lp1087
S'vhigh'
p1088
aS'high'
p1089
ag59
ag4
aS'med'
p1090
aS'high'
p1091
aS'unacc'
p1092
aa(lp1093
S'vhigh'
p1094
aS'high'
p1095
ag59
ag4
aS'big'
p1096
aS'low'
p1097
aS'unacc'
p1098
aa(lp1099
S'vhigh'
p1100
aS'high'
p1101
ag59
ag4
aS'big'
p1102
aS'med'
p1103
aS'unacc'
p1104
aa(lp1105
S'vhigh'
p1106
aS'high'
p1107
ag59
ag4
aS'big'
p1108
aS'high'
p1109
aS'unacc'
p1110
aa(lp1111
S'vhigh'
p1112
aS'high'
p1113
ag59
ag59
aS'small'
p1114
aS'low'
p1115
aS'unacc'
p1116
aa(lp1117
S'vhigh'
p1118
aS'high'
p1119
ag59
ag59
aS'small'
p1120
aS'med'
p1121
aS'unacc'
p1122
aa(lp1123
S'vhigh'
p1124
aS'high'
p1125
ag59
ag59
aS'small'
p1126
aS'high'
p1127
aS'unacc'
p1128
aa(lp1129
S'vhigh'
p1130
aS'high'
p1131
ag59
ag59
aS'med'
p1132
aS'low'
p1133
aS'unacc'
p1134
aa(lp1135
S'vhigh'
p1136
aS'high'
p1137
ag59
ag59
aS'med'
p1138
aS'med'
p1139
aS'unacc'
p1140
aa(lp1141
S'vhigh'
p1142
aS'high'
p1143
ag59
ag59
aS'med'
p1144
aS'high'
p1145
aS'unacc'
p1146
aa(lp1147
S'vhigh'
p1148
aS'high'
p1149
ag59
ag59
aS'big'
p1150
aS'low'
p1151
aS'unacc'
p1152
aa(lp1153
S'vhigh'
p1154
aS'high'
p1155
ag59
ag59
aS'big'
p1156
aS'med'
p1157
aS'unacc'
p1158
aa(lp1159
S'vhigh'
p1160
aS'high'
p1161
ag59
ag59
aS'big'
p1162
aS'high'
p1163
aS'unacc'
p1164
aa(lp1165
S'vhigh'
p1166
aS'high'
p1167
ag59
aS'more'
p1168
aS'small'
p1169
aS'low'
p1170
aS'unacc'
p1171
aa(lp1172
S'vhigh'
p1173
aS'high'
p1174
ag59
aS'more'
p1175
aS'small'
p1176
aS'med'
p1177
aS'unacc'
p1178
aa(lp1179
S'vhigh'
p1180
aS'high'
p1181
ag59
aS'more'
p1182
aS'small'
p1183
aS'high'
p1184
aS'unacc'
p1185
aa(lp1186
S'vhigh'
p1187
aS'high'
p1188
ag59
aS'more'
p1189
aS'med'
p1190
aS'low'
p1191
aS'unacc'
p1192
aa(lp1193
S'vhigh'
p1194
aS'high'
p1195
ag59
aS'more'
p1196
aS'med'
p1197
aS'med'
p1198
aS'unacc'
p1199
aa(lp1200
S'vhigh'
p1201
aS'high'
p1202
ag59
aS'more'
p1203
aS'med'
p1204
aS'high'
p1205
aS'unacc'
p1206
aa(lp1207
S'vhigh'
p1208
aS'high'
p1209
ag59
aS'more'
p1210
aS'big'
p1211
aS'low'
p1212
aS'unacc'
p1213
aa(lp1214
S'vhigh'
p1215
aS'high'
p1216
ag59
aS'more'
p1217
aS'big'
p1218
aS'med'
p1219
aS'unacc'
p1220
aa(lp1221
S'vhigh'
p1222
aS'high'
p1223
ag59
aS'more'
p1224
aS'big'
p1225
aS'high'
p1226
aS'unacc'
p1227
aa(lp1228
S'vhigh'
p1229
aS'high'
p1230
aS'5more'
p1231
ag4
aS'small'
p1232
aS'low'
p1233
aS'unacc'
p1234
aa(lp1235
S'vhigh'
p1236
aS'high'
p1237
aS'5more'
p1238
ag4
aS'small'
p1239
aS'med'
p1240
aS'unacc'
p1241
aa(lp1242
S'vhigh'
p1243
aS'high'
p1244
aS'5more'
p1245
ag4
aS'small'
p1246
aS'high'
p1247
aS'unacc'
p1248
aa(lp1249
S'vhigh'
p1250
aS'high'
p1251
aS'5more'
p1252
ag4
aS'med'
p1253
aS'low'
p1254
aS'unacc'
p1255
aa(lp1256
S'vhigh'
p1257
aS'high'
p1258
aS'5more'
p1259
ag4
aS'med'
p1260
aS'med'
p1261
aS'unacc'
p1262
aa(lp1263
S'vhigh'
p1264
aS'high'
p1265
aS'5more'
p1266
ag4
aS'med'
p1267
aS'high'
p1268
aS'unacc'
p1269
aa(lp1270
S'vhigh'
p1271
aS'high'
p1272
aS'5more'
p1273
ag4
aS'big'
p1274
aS'low'
p1275
aS'unacc'
p1276
aa(lp1277
S'vhigh'
p1278
aS'high'
p1279
aS'5more'
p1280
ag4
aS'big'
p1281
aS'med'
p1282
aS'unacc'
p1283
aa(lp1284
S'vhigh'
p1285
aS'high'
p1286
aS'5more'
p1287
ag4
aS'big'
p1288
aS'high'
p1289
aS'unacc'
p1290
aa(lp1291
S'vhigh'
p1292
aS'high'
p1293
aS'5more'
p1294
ag59
aS'small'
p1295
aS'low'
p1296
aS'unacc'
p1297
aa(lp1298
S'vhigh'
p1299
aS'high'
p1300
aS'5more'
p1301
ag59
aS'small'
p1302
aS'med'
p1303
aS'unacc'
p1304
aa(lp1305
S'vhigh'
p1306
aS'high'
p1307
aS'5more'
p1308
ag59
aS'small'
p1309
aS'high'
p1310
aS'unacc'
p1311
aa(lp1312
S'vhigh'
p1313
aS'high'
p1314
aS'5more'
p1315
ag59
aS'med'
p1316
aS'low'
p1317
aS'unacc'
p1318
aa(lp1319
S'vhigh'
p1320
aS'high'
p1321
aS'5more'
p1322
ag59
aS'med'
p1323
aS'med'
p1324
aS'unacc'
p1325
aa(lp1326
S'vhigh'
p1327
aS'high'
p1328
aS'5more'
p1329
ag59
aS'med'
p1330
aS'high'
p1331
aS'unacc'
p1332
aa(lp1333
S'vhigh'
p1334
aS'high'
p1335
aS'5more'
p1336
ag59
aS'big'
p1337
aS'low'
p1338
aS'unacc'
p1339
aa(lp1340
S'vhigh'
p1341
aS'high'
p1342
aS'5more'
p1343
ag59
aS'big'
p1344
aS'med'
p1345
aS'unacc'
p1346
aa(lp1347
S'vhigh'
p1348
aS'high'
p1349
aS'5more'
p1350
ag59
aS'big'
p1351
aS'high'
p1352
aS'unacc'
p1353
aa(lp1354
S'vhigh'
p1355
aS'high'
p1356
aS'5more'
p1357
aS'more'
p1358
aS'small'
p1359
aS'low'
p1360
aS'unacc'
p1361
aa(lp1362
S'vhigh'
p1363
aS'high'
p1364
aS'5more'
p1365
aS'more'
p1366
aS'small'
p1367
aS'med'
p1368
aS'unacc'
p1369
aa(lp1370
S'vhigh'
p1371
aS'high'
p1372
aS'5more'
p1373
aS'more'
p1374
aS'small'
p1375
aS'high'
p1376
aS'unacc'
p1377
aa(lp1378
S'vhigh'
p1379
aS'high'
p1380
aS'5more'
p1381
aS'more'
p1382
aS'med'
p1383
aS'low'
p1384
aS'unacc'
p1385
aa(lp1386
S'vhigh'
p1387
aS'high'
p1388
aS'5more'
p1389
aS'more'
p1390
aS'med'
p1391
aS'med'
p1392
aS'unacc'
p1393
aa(lp1394
S'vhigh'
p1395
aS'high'
p1396
aS'5more'
p1397
aS'more'
p1398
aS'med'
p1399
aS'high'
p1400
aS'unacc'
p1401
aa(lp1402
S'vhigh'
p1403
aS'high'
p1404
aS'5more'
p1405
aS'more'
p1406
aS'big'
p1407
aS'low'
p1408
aS'unacc'
p1409
aa(lp1410
S'vhigh'
p1411
aS'high'
p1412
aS'5more'
p1413
aS'more'
p1414
aS'big'
p1415
aS'med'
p1416
aS'unacc'
p1417
aa(lp1418
S'vhigh'
p1419
aS'high'
p1420
aS'5more'
p1421
aS'more'
p1422
aS'big'
p1423
aS'high'
p1424
aS'unacc'
p1425
aa(lp1426
S'vhigh'
p1427
aS'med'
p1428
ag4
ag4
aS'small'
p1429
aS'low'
p1430
aS'unacc'
p1431
aa(lp1432
S'vhigh'
p1433
aS'med'
p1434
ag4
ag4
aS'small'
p1435
aS'med'
p1436
aS'unacc'
p1437
aa(lp1438
S'vhigh'
p1439
aS'med'
p1440
ag4
ag4
aS'small'
p1441
aS'high'
p1442
aS'unacc'
p1443
aa(lp1444
S'vhigh'
p1445
aS'med'
p1446
ag4
ag4
aS'med'
p1447
aS'low'
p1448
aS'unacc'
p1449
aa(lp1450
S'vhigh'
p1451
aS'med'
p1452
ag4
ag4
aS'med'
p1453
aS'med'
p1454
aS'unacc'
p1455
aa(lp1456
S'vhigh'
p1457
aS'med'
p1458
ag4
ag4
aS'med'
p1459
aS'high'
p1460
aS'unacc'
p1461
aa(lp1462
S'vhigh'
p1463
aS'med'
p1464
ag4
ag4
aS'big'
p1465
aS'low'
p1466
aS'unacc'
p1467
aa(lp1468
S'vhigh'
p1469
aS'med'
p1470
ag4
ag4
aS'big'
p1471
aS'med'
p1472
aS'unacc'
p1473
aa(lp1474
S'vhigh'
p1475
aS'med'
p1476
ag4
ag4
aS'big'
p1477
aS'high'
p1478
aS'unacc'
p1479
aa(lp1480
S'vhigh'
p1481
aS'med'
p1482
ag4
ag59
aS'small'
p1483
aS'low'
p1484
aS'unacc'
p1485
aa(lp1486
S'vhigh'
p1487
aS'med'
p1488
ag4
ag59
aS'small'
p1489
aS'med'
p1490
aS'unacc'
p1491
aa(lp1492
S'vhigh'
p1493
aS'med'
p1494
ag4
ag59
aS'small'
p1495
aS'high'
p1496
aS'acc'
p1497
aa(lp1498
S'vhigh'
p1499
aS'med'
p1500
ag4
ag59
aS'med'
p1501
aS'low'
p1502
aS'unacc'
p1503
aa(lp1504
S'vhigh'
p1505
aS'med'
p1506
ag4
ag59
aS'med'
p1507
aS'med'
p1508
aS'unacc'
p1509
aa(lp1510
S'vhigh'
p1511
aS'med'
p1512
ag4
ag59
aS'med'
p1513
aS'high'
p1514
aS'acc'
p1515
aa(lp1516
S'vhigh'
p1517
aS'med'
p1518
ag4
ag59
aS'big'
p1519
aS'low'
p1520
aS'unacc'
p1521
aa(lp1522
S'vhigh'
p1523
aS'med'
p1524
ag4
ag59
aS'big'
p1525
aS'med'
p1526
aS'acc'
p1527
aa(lp1528
S'vhigh'
p1529
aS'med'
p1530
ag4
ag59
aS'big'
p1531
aS'high'
p1532
aS'acc'
p1533
aa(lp1534
S'vhigh'
p1535
aS'med'
p1536
ag4
aS'more'
p1537
aS'small'
p1538
aS'low'
p1539
aS'unacc'
p1540
aa(lp1541
S'vhigh'
p1542
aS'med'
p1543
ag4
aS'more'
p1544
aS'small'
p1545
aS'med'
p1546
aS'unacc'
p1547
aa(lp1548
S'vhigh'
p1549
aS'med'
p1550
ag4
aS'more'
p1551
aS'small'
p1552
aS'high'
p1553
aS'unacc'
p1554
aa(lp1555
S'vhigh'
p1556
aS'med'
p1557
ag4
aS'more'
p1558
aS'med'
p1559
aS'low'
p1560
aS'unacc'
p1561
aa(lp1562
S'vhigh'
p1563
aS'med'
p1564
ag4
aS'more'
p1565
aS'med'
p1566
aS'med'
p1567
aS'unacc'
p1568
aa(lp1569
S'vhigh'
p1570
aS'med'
p1571
ag4
aS'more'
p1572
aS'med'
p1573
aS'high'
p1574
aS'acc'
p1575
aa(lp1576
S'vhigh'
p1577
aS'med'
p1578
ag4
aS'more'
p1579
aS'big'
p1580
aS'low'
p1581
aS'unacc'
p1582
aa(lp1583
S'vhigh'
p1584
aS'med'
p1585
ag4
aS'more'
p1586
aS'big'
p1587
aS'med'
p1588
aS'acc'
p1589
aa(lp1590
S'vhigh'
p1591
aS'med'
p1592
ag4
aS'more'
p1593
aS'big'
p1594
aS'high'
p1595
aS'acc'
p1596
aa(lp1597
S'vhigh'
p1598
aS'med'
p1599
ag177
ag4
aS'small'
p1600
aS'low'
p1601
aS'unacc'
p1602
aa(lp1603
S'vhigh'
p1604
aS'med'
p1605
ag177
ag4
aS'small'
p1606
aS'med'
p1607
aS'unacc'
p1608
aa(lp1609
S'vhigh'
p1610
aS'med'
p1611
ag177
ag4
aS'small'
p1612
aS'high'
p1613
aS'unacc'
p1614
aa(lp1615
S'vhigh'
p1616
aS'med'
p1617
ag177
ag4
aS'med'
p1618
aS'low'
p1619
aS'unacc'
p1620
aa(lp1621
S'vhigh'
p1622
aS'med'
p1623
ag177
ag4
aS'med'
p1624
aS'med'
p1625
aS'unacc'
p1626
aa(lp1627
S'vhigh'
p1628
aS'med'
p1629
ag177
ag4
aS'med'
p1630
aS'high'
p1631
aS'unacc'
p1632
aa(lp1633
S'vhigh'
p1634
aS'med'
p1635
ag177
ag4
aS'big'
p1636
aS'low'
p1637
aS'unacc'
p1638
aa(lp1639
S'vhigh'
p1640
aS'med'
p1641
ag177
ag4
aS'big'
p1642
aS'med'
p1643
aS'unacc'
p1644
aa(lp1645
S'vhigh'
p1646
aS'med'
p1647
ag177
ag4
aS'big'
p1648
aS'high'
p1649
aS'unacc'
p1650
aa(lp1651
S'vhigh'
p1652
aS'med'
p1653
ag177
ag59
aS'small'
p1654
aS'low'
p1655
aS'unacc'
p1656
aa(lp1657
S'vhigh'
p1658
aS'med'
p1659
ag177
ag59
aS'small'
p1660
aS'med'
p1661
aS'unacc'
p1662
aa(lp1663
S'vhigh'
p1664
aS'med'
p1665
ag177
ag59
aS'small'
p1666
aS'high'
p1667
aS'acc'
p1668
aa(lp1669
S'vhigh'
p1670
aS'med'
p1671
ag177
ag59
aS'med'
p1672
aS'low'
p1673
aS'unacc'
p1674
aa(lp1675
S'vhigh'
p1676
aS'med'
p1677
ag177
ag59
aS'med'
p1678
aS'med'
p1679
aS'unacc'
p1680
aa(lp1681
S'vhigh'
p1682
aS'med'
p1683
ag177
ag59
aS'med'
p1684
aS'high'
p1685
aS'acc'
p1686
aa(lp1687
S'vhigh'
p1688
aS'med'
p1689
ag177
ag59
aS'big'
p1690
aS'low'
p1691
aS'unacc'
p1692
aa(lp1693
S'vhigh'
p1694
aS'med'
p1695
ag177
ag59
aS'big'
p1696
aS'med'
p1697
aS'acc'
p1698
aa(lp1699
S'vhigh'
p1700
aS'med'
p1701
ag177
ag59
aS'big'
p1702
aS'high'
p1703
aS'acc'
p1704
aa(lp1705
S'vhigh'
p1706
aS'med'
p1707
ag177
aS'more'
p1708
aS'small'
p1709
aS'low'
p1710
aS'unacc'
p1711
aa(lp1712
S'vhigh'
p1713
aS'med'
p1714
ag177
aS'more'
p1715
aS'small'
p1716
aS'med'
p1717
aS'unacc'
p1718
aa(lp1719
S'vhigh'
p1720
aS'med'
p1721
ag177
aS'more'
p1722
aS'small'
p1723
aS'high'
p1724
aS'acc'
p1725
aa(lp1726
S'vhigh'
p1727
aS'med'
p1728
ag177
aS'more'
p1729
aS'med'
p1730
aS'low'
p1731
aS'unacc'
p1732
aa(lp1733
S'vhigh'
p1734
aS'med'
p1735
ag177
aS'more'
p1736
aS'med'
p1737
aS'med'
p1738
aS'acc'
p1739
aa(lp1740
S'vhigh'
p1741
aS'med'
p1742
ag177
aS'more'
p1743
aS'med'
p1744
aS'high'
p1745
aS'acc'
p1746
aa(lp1747
S'vhigh'
p1748
aS'med'
p1749
ag177
aS'more'
p1750
aS'big'
p1751
aS'low'
p1752
aS'unacc'
p1753
aa(lp1754
S'vhigh'
p1755
aS'med'
p1756
ag177
aS'more'
p1757
aS'big'
p1758
aS'med'
p1759
aS'acc'
p1760
aa(lp1761
S'vhigh'
p1762
aS'med'
p1763
ag177
aS'more'
p1764
aS'big'
p1765
aS'high'
p1766
aS'acc'
p1767
aa(lp1768
S'vhigh'
p1769
aS'med'
p1770
ag59
ag4
aS'small'
p1771
aS'low'
p1772
aS'unacc'
p1773
aa(lp1774
S'vhigh'
p1775
aS'med'
p1776
ag59
ag4
aS'small'
p1777
aS'med'
p1778
aS'unacc'
p1779
aa(lp1780
S'vhigh'
p1781
aS'med'
p1782
ag59
ag4
aS'small'
p1783
aS'high'
p1784
aS'unacc'
p1785
aa(lp1786
S'vhigh'
p1787
aS'med'
p1788
ag59
ag4
aS'med'
p1789
aS'low'
p1790
aS'unacc'
p1791
aa(lp1792
S'vhigh'
p1793
aS'med'
p1794
ag59
ag4
aS'med'
p1795
aS'med'
p1796
aS'unacc'
p1797
aa(lp1798
S'vhigh'
p1799
aS'med'
p1800
ag59
ag4
aS'med'
p1801
aS'high'
p1802
aS'unacc'
p1803
aa(lp1804
S'vhigh'
p1805
aS'med'
p1806
ag59
ag4
aS'big'
p1807
aS'low'
p1808
aS'unacc'
p1809
aa(lp1810
S'vhigh'
p1811
aS'med'
p1812
ag59
ag4
aS'big'
p1813
aS'med'
p1814
aS'unacc'
p1815
aa(lp1816
S'vhigh'
p1817
aS'med'
p1818
ag59
ag4
aS'big'
p1819
aS'high'
p1820
aS'unacc'
p1821
aa(lp1822
S'vhigh'
p1823
aS'med'
p1824
ag59
ag59
aS'small'
p1825
aS'low'
p1826
aS'unacc'
p1827
aa(lp1828
S'vhigh'
p1829
aS'med'
p1830
ag59
ag59
aS'small'
p1831
aS'med'
p1832
aS'unacc'
p1833
aa(lp1834
S'vhigh'
p1835
aS'med'
p1836
ag59
ag59
aS'small'
p1837
aS'high'
p1838
aS'acc'
p1839
aa(lp1840
S'vhigh'
p1841
aS'med'
p1842
ag59
ag59
aS'med'
p1843
aS'low'
p1844
aS'unacc'
p1845
aa(lp1846
S'vhigh'
p1847
aS'med'
p1848
ag59
ag59
aS'med'
p1849
aS'med'
p1850
aS'acc'
p1851
aa(lp1852
S'vhigh'
p1853
aS'med'
p1854
ag59
ag59
aS'med'
p1855
aS'high'
p1856
aS'acc'
p1857
aa(lp1858
S'vhigh'
p1859
aS'med'
p1860
ag59
ag59
aS'big'
p1861
aS'low'
p1862
aS'unacc'
p1863
aa(lp1864
S'vhigh'
p1865
aS'med'
p1866
ag59
ag59
aS'big'
p1867
aS'med'
p1868
aS'acc'
p1869
aa(lp1870
S'vhigh'
p1871
aS'med'
p1872
ag59
ag59
aS'big'
p1873
aS'high'
p1874
aS'acc'
p1875
aa(lp1876
S'vhigh'
p1877
aS'med'
p1878
ag59
aS'more'
p1879
aS'small'
p1880
aS'low'
p1881
aS'unacc'
p1882
aa(lp1883
S'vhigh'
p1884
aS'med'
p1885
ag59
aS'more'
p1886
aS'small'
p1887
aS'med'
p1888
aS'unacc'
p1889
aa(lp1890
S'vhigh'
p1891
aS'med'
p1892
ag59
aS'more'
p1893
aS'small'
p1894
aS'high'
p1895
aS'acc'
p1896
aa(lp1897
S'vhigh'
p1898
aS'med'
p1899
ag59
aS'more'
p1900
aS'med'
p1901
aS'low'
p1902
aS'unacc'
p1903
aa(lp1904
S'vhigh'
p1905
aS'med'
p1906
ag59
aS'more'
p1907
aS'med'
p1908
aS'med'
p1909
aS'acc'
p1910
aa(lp1911
S'vhigh'
p1912
aS'med'
p1913
ag59
aS'more'
p1914
aS'med'
p1915
aS'high'
p1916
aS'acc'
p1917
aa(lp1918
S'vhigh'
p1919
aS'med'
p1920
ag59
aS'more'
p1921
aS'big'
p1922
aS'low'
p1923
aS'unacc'
p1924
aa(lp1925
S'vhigh'
p1926
aS'med'
p1927
ag59
aS'more'
p1928
aS'big'
p1929
aS'med'
p1930
aS'acc'
p1931
aa(lp1932
S'vhigh'
p1933
aS'med'
p1934
ag59
aS'more'
p1935
aS'big'
p1936
aS'high'
p1937
aS'acc'
p1938
aa(lp1939
S'vhigh'
p1940
aS'med'
p1941
aS'5more'
p1942
ag4
aS'small'
p1943
aS'low'
p1944
aS'unacc'
p1945
aa(lp1946
S'vhigh'
p1947
aS'med'
p1948
aS'5more'
p1949
ag4
aS'small'
p1950
aS'med'
p1951
aS'unacc'
p1952
aa(lp1953
S'vhigh'
p1954
aS'med'
p1955
aS'5more'
p1956
ag4
aS'small'
p1957
aS'high'
p1958
aS'unacc'
p1959
aa(lp1960
S'vhigh'
p1961
aS'med'
p1962
aS'5more'
p1963
ag4
aS'med'
p1964
aS'low'
p1965
aS'unacc'
p1966
aa(lp1967
S'vhigh'
p1968
aS'med'
p1969
aS'5more'
p1970
ag4
aS'med'
p1971
aS'med'
p1972
aS'unacc'
p1973
aa(lp1974
S'vhigh'
p1975
aS'med'
p1976
aS'5more'
p1977
ag4
aS'med'
p1978
aS'high'
p1979
aS'unacc'
p1980
aa(lp1981
S'vhigh'
p1982
aS'med'
p1983
aS'5more'
p1984
ag4
aS'big'
p1985
aS'low'
p1986
aS'unacc'
p1987
aa(lp1988
S'vhigh'
p1989
aS'med'
p1990
aS'5more'
p1991
ag4
aS'big'
p1992
aS'med'
p1993
aS'unacc'
p1994
aa(lp1995
S'vhigh'
p1996
aS'med'
p1997
aS'5more'
p1998
ag4
aS'big'
p1999
aS'high'
p2000
aS'unacc'
p2001
aa(lp2002
S'vhigh'
p2003
aS'med'
p2004
aS'5more'
p2005
ag59
aS'small'
p2006
aS'low'
p2007
aS'unacc'
p2008
aa(lp2009
S'vhigh'
p2010
aS'med'
p2011
aS'5more'
p2012
ag59
aS'small'
p2013
aS'med'
p2014
aS'unacc'
p2015
aa(lp2016
S'vhigh'
p2017
aS'med'
p2018
aS'5more'
p2019
ag59
aS'small'
p2020
aS'high'
p2021
aS'acc'
p2022
aa(lp2023
S'vhigh'
p2024
aS'med'
p2025
aS'5more'
p2026
ag59
aS'med'
p2027
aS'low'
p2028
aS'unacc'
p2029
aa(lp2030
S'vhigh'
p2031
aS'med'
p2032
aS'5more'
p2033
ag59
aS'med'
p2034
aS'med'
p2035
aS'acc'
p2036
aa(lp2037
S'vhigh'
p2038
aS'med'
p2039
aS'5more'
p2040
ag59
aS'med'
p2041
aS'high'
p2042
aS'acc'
p2043
aa(lp2044
S'vhigh'
p2045
aS'med'
p2046
aS'5more'
p2047
ag59
aS'big'
p2048
aS'low'
p2049
aS'unacc'
p2050
aa(lp2051
S'vhigh'
p2052
aS'med'
p2053
aS'5more'
p2054
ag59
aS'big'
p2055
aS'med'
p2056
aS'acc'
p2057
aa(lp2058
S'vhigh'
p2059
aS'med'
p2060
aS'5more'
p2061
ag59
aS'big'
p2062
aS'high'
p2063
aS'acc'
p2064
aa(lp2065
S'vhigh'
p2066
aS'med'
p2067
aS'5more'
p2068
aS'more'
p2069
aS'small'
p2070
aS'low'
p2071
aS'unacc'
p2072
aa(lp2073
S'vhigh'
p2074
aS'med'
p2075
aS'5more'
p2076
aS'more'
p2077
aS'small'
p2078
aS'med'
p2079
aS'unacc'
p2080
aa(lp2081
S'vhigh'
p2082
aS'med'
p2083
aS'5more'
p2084
aS'more'
p2085
aS'small'
p2086
aS'high'
p2087
aS'acc'
p2088
aa(lp2089
S'vhigh'
p2090
aS'med'
p2091
aS'5more'
p2092
aS'more'
p2093
aS'med'
p2094
aS'low'
p2095
aS'unacc'
p2096
aa(lp2097
S'vhigh'
p2098
aS'med'
p2099
aS'5more'
p2100
aS'more'
p2101
aS'med'
p2102
aS'med'
p2103
aS'acc'
p2104
aa(lp2105
S'vhigh'
p2106
aS'med'
p2107
aS'5more'
p2108
aS'more'
p2109
aS'med'
p2110
aS'high'
p2111
aS'acc'
p2112
aa(lp2113
S'vhigh'
p2114
aS'med'
p2115
aS'5more'
p2116
aS'more'
p2117
aS'big'
p2118
aS'low'
p2119
aS'unacc'
p2120
aa(lp2121
S'vhigh'
p2122
aS'med'
p2123
aS'5more'
p2124
aS'more'
p2125
aS'big'
p2126
aS'med'
p2127
aS'acc'
p2128
aa(lp2129
S'vhigh'
p2130
aS'med'
p2131
aS'5more'
p2132
aS'more'
p2133
aS'big'
p2134
aS'high'
p2135
aS'acc'
p2136
aa(lp2137
S'vhigh'
p2138
aS'low'
p2139
ag4
ag4
aS'small'
p2140
aS'low'
p2141
aS'unacc'
p2142
aa(lp2143
S'vhigh'
p2144
aS'low'
p2145
ag4
ag4
aS'small'
p2146
aS'med'
p2147
aS'unacc'
p2148
aa(lp2149
S'vhigh'
p2150
aS'low'
p2151
ag4
ag4
aS'small'
p2152
aS'high'
p2153
aS'unacc'
p2154
aa(lp2155
S'vhigh'
p2156
aS'low'
p2157
ag4
ag4
aS'med'
p2158
aS'low'
p2159
aS'unacc'
p2160
aa(lp2161
S'vhigh'
p2162
aS'low'
p2163
ag4
ag4
aS'med'
p2164
aS'med'
p2165
aS'unacc'
p2166
aa(lp2167
S'vhigh'
p2168
aS'low'
p2169
ag4
ag4
aS'med'
p2170
aS'high'
p2171
aS'unacc'
p2172
aa(lp2173
S'vhigh'
p2174
aS'low'
p2175
ag4
ag4
aS'big'
p2176
aS'low'
p2177
aS'unacc'
p2178
aa(lp2179
S'vhigh'
p2180
aS'low'
p2181
ag4
ag4
aS'big'
p2182
aS'med'
p2183
aS'unacc'
p2184
aa(lp2185
S'vhigh'
p2186
aS'low'
p2187
ag4
ag4
aS'big'
p2188
aS'high'
p2189
aS'unacc'
p2190
aa(lp2191
S'vhigh'
p2192
aS'low'
p2193
ag4
ag59
aS'small'
p2194
aS'low'
p2195
aS'unacc'
p2196
aa(lp2197
S'vhigh'
p2198
aS'low'
p2199
ag4
ag59
aS'small'
p2200
aS'med'
p2201
aS'unacc'
p2202
aa(lp2203
S'vhigh'
p2204
aS'low'
p2205
ag4
ag59
aS'small'
p2206
aS'high'
p2207
aS'acc'
p2208
aa(lp2209
S'vhigh'
p2210
aS'low'
p2211
ag4
ag59
aS'med'
p2212
aS'low'
p2213
aS'unacc'
p2214
aa(lp2215
S'vhigh'
p2216
aS'low'
p2217
ag4
ag59
aS'med'
p2218
aS'med'
p2219
aS'unacc'
p2220
aa(lp2221
S'vhigh'
p2222
aS'low'
p2223
ag4
ag59
aS'med'
p2224
aS'high'
p2225
aS'acc'
p2226
aa(lp2227
S'vhigh'
p2228
aS'low'
p2229
ag4
ag59
aS'big'
p2230
aS'low'
p2231
aS'unacc'
p2232
aa(lp2233
S'vhigh'
p2234
aS'low'
p2235
ag4
ag59
aS'big'
p2236
aS'med'
p2237
aS'acc'
p2238
aa(lp2239
S'vhigh'
p2240
aS'low'
p2241
ag4
ag59
aS'big'
p2242
aS'high'
p2243
aS'acc'
p2244
aa(lp2245
S'vhigh'
p2246
aS'low'
p2247
ag4
aS'more'
p2248
aS'small'
p2249
aS'low'
p2250
aS'unacc'
p2251
aa(lp2252
S'vhigh'
p2253
aS'low'
p2254
ag4
aS'more'
p2255
aS'small'
p2256
aS'med'
p2257
aS'unacc'
p2258
aa(lp2259
S'vhigh'
p2260
aS'low'
p2261
ag4
aS'more'
p2262
aS'small'
p2263
aS'high'
p2264
aS'unacc'
p2265
aa(lp2266
S'vhigh'
p2267
aS'low'
p2268
ag4
aS'more'
p2269
aS'med'
p2270
aS'low'
p2271
aS'unacc'
p2272
aa(lp2273
S'vhigh'
p2274
aS'low'
p2275
ag4
aS'more'
p2276
aS'med'
p2277
aS'med'
p2278
aS'unacc'
p2279
aa(lp2280
S'vhigh'
p2281
aS'low'
p2282
ag4
aS'more'
p2283
aS'med'
p2284
aS'high'
p2285
aS'acc'
p2286
aa(lp2287
S'vhigh'
p2288
aS'low'
p2289
ag4
aS'more'
p2290
aS'big'
p2291
aS'low'
p2292
aS'unacc'
p2293
aa(lp2294
S'vhigh'
p2295
aS'low'
p2296
ag4
aS'more'
p2297
aS'big'
p2298
aS'med'
p2299
aS'acc'
p2300
aa(lp2301
S'vhigh'
p2302
aS'low'
p2303
ag4
aS'more'
p2304
aS'big'
p2305
aS'high'
p2306
aS'acc'
p2307
aa(lp2308
S'vhigh'
p2309
aS'low'
p2310
ag177
ag4
aS'small'
p2311
aS'low'
p2312
aS'unacc'
p2313
aa(lp2314
S'vhigh'
p2315
aS'low'
p2316
ag177
ag4
aS'small'
p2317
aS'med'
p2318
aS'unacc'
p2319
aa(lp2320
S'vhigh'
p2321
aS'low'
p2322
ag177
ag4
aS'small'
p2323
aS'high'
p2324
aS'unacc'
p2325
aa(lp2326
S'vhigh'
p2327
aS'low'
p2328
ag177
ag4
aS'med'
p2329
aS'low'
p2330
aS'unacc'
p2331
aa(lp2332
S'vhigh'
p2333
aS'low'
p2334
ag177
ag4
aS'med'
p2335
aS'med'
p2336
aS'unacc'
p2337
aa(lp2338
S'vhigh'
p2339
aS'low'
p2340
ag177
ag4
aS'med'
p2341
aS'high'
p2342
aS'unacc'
p2343
aa(lp2344
S'vhigh'
p2345
aS'low'
p2346
ag177
ag4
aS'big'
p2347
aS'low'
p2348
aS'unacc'
p2349
aa(lp2350
S'vhigh'
p2351
aS'low'
p2352
ag177
ag4
aS'big'
p2353
aS'med'
p2354
aS'unacc'
p2355
aa(lp2356
S'vhigh'
p2357
aS'low'
p2358
ag177
ag4
aS'big'
p2359
aS'high'
p2360
aS'unacc'
p2361
aa(lp2362
S'vhigh'
p2363
aS'low'
p2364
ag177
ag59
aS'small'
p2365
aS'low'
p2366
aS'unacc'
p2367
aa(lp2368
S'vhigh'
p2369
aS'low'
p2370
ag177
ag59
aS'small'
p2371
aS'med'
p2372
aS'unacc'
p2373
aa(lp2374
S'vhigh'
p2375
aS'low'
p2376
ag177
ag59
aS'small'
p2377
aS'high'
p2378
aS'acc'
p2379
aa(lp2380
S'vhigh'
p2381
aS'low'
p2382
ag177
ag59
aS'med'
p2383
aS'low'
p2384
aS'unacc'
p2385
aa(lp2386
S'vhigh'
p2387
aS'low'
p2388
ag177
ag59
aS'med'
p2389
aS'med'
p2390
aS'unacc'
p2391
aa(lp2392
S'vhigh'
p2393
aS'low'
p2394
ag177
ag59
aS'med'
p2395
aS'high'
p2396
aS'acc'
p2397
aa(lp2398
S'vhigh'
p2399
aS'low'
p2400
ag177
ag59
aS'big'
p2401
aS'low'
p2402
aS'unacc'
p2403
aa(lp2404
S'vhigh'
p2405
aS'low'
p2406
ag177
ag59
aS'big'
p2407
aS'med'
p2408
aS'acc'
p2409
aa(lp2410
S'vhigh'
p2411
aS'low'
p2412
ag177
ag59
aS'big'
p2413
aS'high'
p2414
aS'acc'
p2415
aa(lp2416
S'vhigh'
p2417
aS'low'
p2418
ag177
aS'more'
p2419
aS'small'
p2420
aS'low'
p2421
aS'unacc'
p2422
aa(lp2423
S'vhigh'
p2424
aS'low'
p2425
ag177
aS'more'
p2426
aS'small'
p2427
aS'med'
p2428
aS'unacc'
p2429
aa(lp2430
S'vhigh'
p2431
aS'low'
p2432
ag177
aS'more'
p2433
aS'small'
p2434
aS'high'
p2435
aS'acc'
p2436
aa(lp2437
S'vhigh'
p2438
aS'low'
p2439
ag177
aS'more'
p2440
aS'med'
p2441
aS'low'
p2442
aS'unacc'
p2443
aa(lp2444
S'vhigh'
p2445
aS'low'
p2446
ag177
aS'more'
p2447
aS'med'
p2448
aS'med'
p2449
aS'acc'
p2450
aa(lp2451
S'vhigh'
p2452
aS'low'
p2453
ag177
aS'more'
p2454
aS'med'
p2455
aS'high'
p2456
aS'acc'
p2457
aa(lp2458
S'vhigh'
p2459
aS'low'
p2460
ag177
aS'more'
p2461
aS'big'
p2462
aS'low'
p2463
aS'unacc'
p2464
aa(lp2465
S'vhigh'
p2466
aS'low'
p2467
ag177
aS'more'
p2468
aS'big'
p2469
aS'med'
p2470
aS'acc'
p2471
aa(lp2472
S'vhigh'
p2473
aS'low'
p2474
ag177
aS'more'
p2475
aS'big'
p2476
aS'high'
p2477
aS'acc'
p2478
aa(lp2479
S'vhigh'
p2480
aS'low'
p2481
ag59
ag4
aS'small'
p2482
aS'low'
p2483
aS'unacc'
p2484
aa(lp2485
S'vhigh'
p2486
aS'low'
p2487
ag59
ag4
aS'small'
p2488
aS'med'
p2489
aS'unacc'
p2490
aa(lp2491
S'vhigh'
p2492
aS'low'
p2493
ag59
ag4
aS'small'
p2494
aS'high'
p2495
aS'unacc'
p2496
aa(lp2497
S'vhigh'
p2498
aS'low'
p2499
ag59
ag4
aS'med'
p2500
aS'low'
p2501
aS'unacc'
p2502
aa(lp2503
S'vhigh'
p2504
aS'low'
p2505
ag59
ag4
aS'med'
p2506
aS'med'
p2507
aS'unacc'
p2508
aa(lp2509
S'vhigh'
p2510
aS'low'
p2511
ag59
ag4
aS'med'
p2512
aS'high'
p2513
aS'unacc'
p2514
aa(lp2515
S'vhigh'
p2516
aS'low'
p2517
ag59
ag4
aS'big'
p2518
aS'low'
p2519
aS'unacc'
p2520
aa(lp2521
S'vhigh'
p2522
aS'low'
p2523
ag59
ag4
aS'big'
p2524
aS'med'
p2525
aS'unacc'
p2526
aa(lp2527
S'vhigh'
p2528
aS'low'
p2529
ag59
ag4
aS'big'
p2530
aS'high'
p2531
aS'unacc'
p2532
aa(lp2533
S'vhigh'
p2534
aS'low'
p2535
ag59
ag59
aS'small'
p2536
aS'low'
p2537
aS'unacc'
p2538
aa(lp2539
S'vhigh'
p2540
aS'low'
p2541
ag59
ag59
aS'small'
p2542
aS'med'
p2543
aS'unacc'
p2544
aa(lp2545
S'vhigh'
p2546
aS'low'
p2547
ag59
ag59
aS'small'
p2548
aS'high'
p2549
aS'acc'
p2550
aa(lp2551
S'vhigh'
p2552
aS'low'
p2553
ag59
ag59
aS'med'
p2554
aS'low'
p2555
aS'unacc'
p2556
aa(lp2557
S'vhigh'
p2558
aS'low'
p2559
ag59
ag59
aS'med'
p2560
aS'med'
p2561
aS'acc'
p2562
aa(lp2563
S'vhigh'
p2564
aS'low'
p2565
ag59
ag59
aS'med'
p2566
aS'high'
p2567
aS'acc'
p2568
aa(lp2569
S'vhigh'
p2570
aS'low'
p2571
ag59
ag59
aS'big'
p2572
aS'low'
p2573
aS'unacc'
p2574
aa(lp2575
S'vhigh'
p2576
aS'low'
p2577
ag59
ag59
aS'big'
p2578
aS'med'
p2579
aS'acc'
p2580
aa(lp2581
S'vhigh'
p2582
aS'low'
p2583
ag59
ag59
aS'big'
p2584
aS'high'
p2585
aS'acc'
p2586
aa(lp2587
S'vhigh'
p2588
aS'low'
p2589
ag59
aS'more'
p2590
aS'small'
p2591
aS'low'
p2592
aS'unacc'
p2593
aa(lp2594
S'vhigh'
p2595
aS'low'
p2596
ag59
aS'more'
p2597
aS'small'
p2598
aS'med'
p2599
aS'unacc'
p2600
aa(lp2601
S'vhigh'
p2602
aS'low'
p2603
ag59
aS'more'
p2604
aS'small'
p2605
aS'high'
p2606
aS'acc'
p2607
aa(lp2608
S'vhigh'
p2609
aS'low'
p2610
ag59
aS'more'
p2611
aS'med'
p2612
aS'low'
p2613
aS'unacc'
p2614
aa(lp2615
S'vhigh'
p2616
aS'low'
p2617
ag59
aS'more'
p2618
aS'med'
p2619
aS'med'
p2620
aS'acc'
p2621
aa(lp2622
S'vhigh'
p2623
aS'low'
p2624
ag59
aS'more'
p2625
aS'med'
p2626
aS'high'
p2627
aS'acc'
p2628
aa(lp2629
S'vhigh'
p2630
aS'low'
p2631
ag59
aS'more'
p2632
aS'big'
p2633
aS'low'
p2634
aS'unacc'
p2635
aa(lp2636
S'vhigh'
p2637
aS'low'
p2638
ag59
aS'more'
p2639
aS'big'
p2640
aS'med'
p2641
aS'acc'
p2642
aa(lp2643
S'vhigh'
p2644
aS'low'
p2645
ag59
aS'more'
p2646
aS'big'
p2647
aS'high'
p2648
aS'acc'
p2649
aa(lp2650
S'vhigh'
p2651
aS'low'
p2652
aS'5more'
p2653
ag4
aS'small'
p2654
aS'low'
p2655
aS'unacc'
p2656
aa(lp2657
S'vhigh'
p2658
aS'low'
p2659
aS'5more'
p2660
ag4
aS'small'
p2661
aS'med'
p2662
aS'unacc'
p2663
aa(lp2664
S'vhigh'
p2665
aS'low'
p2666
aS'5more'
p2667
ag4
aS'small'
p2668
aS'high'
p2669
aS'unacc'
p2670
aa(lp2671
S'vhigh'
p2672
aS'low'
p2673
aS'5more'
p2674
ag4
aS'med'
p2675
aS'low'
p2676
aS'unacc'
p2677
aa(lp2678
S'vhigh'
p2679
aS'low'
p2680
aS'5more'
p2681
ag4
aS'med'
p2682
aS'med'
p2683
aS'unacc'
p2684
aa(lp2685
S'vhigh'
p2686
aS'low'
p2687
aS'5more'
p2688
ag4
aS'med'
p2689
aS'high'
p2690
aS'unacc'
p2691
aa(lp2692
S'vhigh'
p2693
aS'low'
p2694
aS'5more'
p2695
ag4
aS'big'
p2696
aS'low'
p2697
aS'unacc'
p2698
aa(lp2699
S'vhigh'
p2700
aS'low'
p2701
aS'5more'
p2702
ag4
aS'big'
p2703
aS'med'
p2704
aS'unacc'
p2705
aa(lp2706
S'vhigh'
p2707
aS'low'
p2708
aS'5more'
p2709
ag4
aS'big'
p2710
aS'high'
p2711
aS'unacc'
p2712
aa(lp2713
S'vhigh'
p2714
aS'low'
p2715
aS'5more'
p2716
ag59
aS'small'
p2717
aS'low'
p2718
aS'unacc'
p2719
aa(lp2720
S'vhigh'
p2721
aS'low'
p2722
aS'5more'
p2723
ag59
aS'small'
p2724
aS'med'
p2725
aS'unacc'
p2726
aa(lp2727
S'vhigh'
p2728
aS'low'
p2729
aS'5more'
p2730
ag59
aS'small'
p2731
aS'high'
p2732
aS'acc'
p2733
aa(lp2734
S'vhigh'
p2735
aS'low'
p2736
aS'5more'
p2737
ag59
aS'med'
p2738
aS'low'
p2739
aS'unacc'
p2740
aa(lp2741
S'vhigh'
p2742
aS'low'
p2743
aS'5more'
p2744
ag59
aS'med'
p2745
aS'med'
p2746
aS'acc'
p2747
aa(lp2748
S'vhigh'
p2749
aS'low'
p2750
aS'5more'
p2751
ag59
aS'med'
p2752
aS'high'
p2753
aS'acc'
p2754
aa(lp2755
S'vhigh'
p2756
aS'low'
p2757
aS'5more'
p2758
ag59
aS'big'
p2759
aS'low'
p2760
aS'unacc'
p2761
aa(lp2762
S'vhigh'
p2763
aS'low'
p2764
aS'5more'
p2765
ag59
aS'big'
p2766
aS'med'
p2767
aS'acc'
p2768
aa(lp2769
S'vhigh'
p2770
aS'low'
p2771
aS'5more'
p2772
ag59
aS'big'
p2773
aS'high'
p2774
aS'acc'
p2775
aa(lp2776
S'vhigh'
p2777
aS'low'
p2778
aS'5more'
p2779
aS'more'
p2780
aS'small'
p2781
aS'low'
p2782
aS'unacc'
p2783
aa(lp2784
S'vhigh'
p2785
aS'low'
p2786
aS'5more'
p2787
aS'more'
p2788
aS'small'
p2789
aS'med'
p2790
aS'unacc'
p2791
aa(lp2792
S'vhigh'
p2793
aS'low'
p2794
aS'5more'
p2795
aS'more'
p2796
aS'small'
p2797
aS'high'
p2798
aS'acc'
p2799
aa(lp2800
S'vhigh'
p2801
aS'low'
p2802
aS'5more'
p2803
aS'more'
p2804
aS'med'
p2805
aS'low'
p2806
aS'unacc'
p2807
aa(lp2808
S'vhigh'
p2809
aS'low'
p2810
aS'5more'
p2811
aS'more'
p2812
aS'med'
p2813
aS'med'
p2814
aS'acc'
p2815
aa(lp2816
S'vhigh'
p2817
aS'low'
p2818
aS'5more'
p2819
aS'more'
p2820
aS'med'
p2821
aS'high'
p2822
aS'acc'
p2823
aa(lp2824
S'vhigh'
p2825
aS'low'
p2826
aS'5more'
p2827
aS'more'
p2828
aS'big'
p2829
aS'low'
p2830
aS'unacc'
p2831
aa(lp2832
S'vhigh'
p2833
aS'low'
p2834
aS'5more'
p2835
aS'more'
p2836
aS'big'
p2837
aS'med'
p2838
aS'acc'
p2839
aa(lp2840
S'vhigh'
p2841
aS'low'
p2842
aS'5more'
p2843
aS'more'
p2844
aS'big'
p2845
aS'high'
p2846
aS'acc'
p2847
aa(lp2848
S'high'
p2849
aS'vhigh'
p2850
ag4
ag4
aS'small'
p2851
aS'low'
p2852
aS'unacc'
p2853
aa(lp2854
S'high'
p2855
aS'vhigh'
p2856
ag4
ag4
aS'small'
p2857
aS'med'
p2858
aS'unacc'
p2859
aa(lp2860
S'high'
p2861
aS'vhigh'
p2862
ag4
ag4
aS'small'
p2863
aS'high'
p2864
aS'unacc'
p2865
aa(lp2866
S'high'
p2867
aS'vhigh'
p2868
ag4
ag4
aS'med'
p2869
aS'low'
p2870
aS'unacc'
p2871
aa(lp2872
S'high'
p2873
aS'vhigh'
p2874
ag4
ag4
aS'med'
p2875
aS'med'
p2876
aS'unacc'
p2877
aa(lp2878
S'high'
p2879
aS'vhigh'
p2880
ag4
ag4
aS'med'
p2881
aS'high'
p2882
aS'unacc'
p2883
aa(lp2884
S'high'
p2885
aS'vhigh'
p2886
ag4
ag4
aS'big'
p2887
aS'low'
p2888
aS'unacc'
p2889
aa(lp2890
S'high'
p2891
aS'vhigh'
p2892
ag4
ag4
aS'big'
p2893
aS'med'
p2894
aS'unacc'
p2895
aa(lp2896
S'high'
p2897
aS'vhigh'
p2898
ag4
ag4
aS'big'
p2899
aS'high'
p2900
aS'unacc'
p2901
aa(lp2902
S'high'
p2903
aS'vhigh'
p2904
ag4
ag59
aS'small'
p2905
aS'low'
p2906
aS'unacc'
p2907
aa(lp2908
S'high'
p2909
aS'vhigh'
p2910
ag4
ag59
aS'small'
p2911
aS'med'
p2912
aS'unacc'
p2913
aa(lp2914
S'high'
p2915
aS'vhigh'
p2916
ag4
ag59
aS'small'
p2917
aS'high'
p2918
aS'unacc'
p2919
aa(lp2920
S'high'
p2921
aS'vhigh'
p2922
ag4
ag59
aS'med'
p2923
aS'low'
p2924
aS'unacc'
p2925
aa(lp2926
S'high'
p2927
aS'vhigh'
p2928
ag4
ag59
aS'med'
p2929
aS'med'
p2930
aS'unacc'
p2931
aa(lp2932
S'high'
p2933
aS'vhigh'
p2934
ag4
ag59
aS'med'
p2935
aS'high'
p2936
aS'unacc'
p2937
aa(lp2938
S'high'
p2939
aS'vhigh'
p2940
ag4
ag59
aS'big'
p2941
aS'low'
p2942
aS'unacc'
p2943
aa(lp2944
S'high'
p2945
aS'vhigh'
p2946
ag4
ag59
aS'big'
p2947
aS'med'
p2948
aS'unacc'
p2949
aa(lp2950
S'high'
p2951
aS'vhigh'
p2952
ag4
ag59
aS'big'
p2953
aS'high'
p2954
aS'unacc'
p2955
aa(lp2956
S'high'
p2957
aS'vhigh'
p2958
ag4
aS'more'
p2959
aS'small'
p2960
aS'low'
p2961
aS'unacc'
p2962
aa(lp2963
S'high'
p2964
aS'vhigh'
p2965
ag4
aS'more'
p2966
aS'small'
p2967
aS'med'
p2968
aS'unacc'
p2969
aa(lp2970
S'high'
p2971
aS'vhigh'
p2972
ag4
aS'more'
p2973
aS'small'
p2974
aS'high'
p2975
aS'unacc'
p2976
aa(lp2977
S'high'
p2978
aS'vhigh'
p2979
ag4
aS'more'
p2980
aS'med'
p2981
aS'low'
p2982
aS'unacc'
p2983
aa(lp2984
S'high'
p2985
aS'vhigh'
p2986
ag4
aS'more'
p2987
aS'med'
p2988
aS'med'
p2989
aS'unacc'
p2990
aa(lp2991
S'high'
p2992
aS'vhigh'
p2993
ag4
aS'more'
p2994
aS'med'
p2995
aS'high'
p2996
aS'unacc'
p2997
aa(lp2998
S'high'
p2999
aS'vhigh'
p3000
ag4
aS'more'
p3001
aS'big'
p3002
aS'low'
p3003
aS'unacc'
p3004
aa(lp3005
S'high'
p3006
aS'vhigh'
p3007
ag4
aS'more'
p3008
aS'big'
p3009
aS'med'
p3010
aS'unacc'
p3011
aa(lp3012
S'high'
p3013
aS'vhigh'
p3014
ag4
aS'more'
p3015
aS'big'
p3016
aS'high'
p3017
aS'unacc'
p3018
aa(lp3019
S'high'
p3020
aS'vhigh'
p3021
ag177
ag4
aS'small'
p3022
aS'low'
p3023
aS'unacc'
p3024
aa(lp3025
S'high'
p3026
aS'vhigh'
p3027
ag177
ag4
aS'small'
p3028
aS'med'
p3029
aS'unacc'
p3030
aa(lp3031
S'high'
p3032
aS'vhigh'
p3033
ag177
ag4
aS'small'
p3034
aS'high'
p3035
aS'unacc'
p3036
aa(lp3037
S'high'
p3038
aS'vhigh'
p3039
ag177
ag4
aS'med'
p3040
aS'low'
p3041
aS'unacc'
p3042
aa(lp3043
S'high'
p3044
aS'vhigh'
p3045
ag177
ag4
aS'med'
p3046
aS'med'
p3047
aS'unacc'
p3048
aa(lp3049
S'high'
p3050
aS'vhigh'
p3051
ag177
ag4
aS'med'
p3052
aS'high'
p3053
aS'unacc'
p3054
aa(lp3055
S'high'
p3056
aS'vhigh'
p3057
ag177
ag4
aS'big'
p3058
aS'low'
p3059
aS'unacc'
p3060
aa(lp3061
S'high'
p3062
aS'vhigh'
p3063
ag177
ag4
aS'big'
p3064
aS'med'
p3065
aS'unacc'
p3066
aa(lp3067
S'high'
p3068
aS'vhigh'
p3069
ag177
ag4
aS'big'
p3070
aS'high'
p3071
aS'unacc'
p3072
aa(lp3073
S'high'
p3074
aS'vhigh'
p3075
ag177
ag59
aS'small'
p3076
aS'low'
p3077
aS'unacc'
p3078
aa(lp3079
S'high'
p3080
aS'vhigh'
p3081
ag177
ag59
aS'small'
p3082
aS'med'
p3083
aS'unacc'
p3084
aa(lp3085
S'high'
p3086
aS'vhigh'
p3087
ag177
ag59
aS'small'
p3088
aS'high'
p3089
aS'unacc'
p3090
aa(lp3091
S'high'
p3092
aS'vhigh'
p3093
ag177
ag59
aS'med'
p3094
aS'low'
p3095
aS'unacc'
p3096
aa(lp3097
S'high'
p3098
aS'vhigh'
p3099
ag177
ag59
aS'med'
p3100
aS'med'
p3101
aS'unacc'
p3102
aa(lp3103
S'high'
p3104
aS'vhigh'
p3105
ag177
ag59
aS'med'
p3106
aS'high'
p3107
aS'unacc'
p3108
aa(lp3109
S'high'
p3110
aS'vhigh'
p3111
ag177
ag59
aS'big'
p3112
aS'low'
p3113
aS'unacc'
p3114
aa(lp3115
S'high'
p3116
aS'vhigh'
p3117
ag177
ag59
aS'big'
p3118
aS'med'
p3119
aS'unacc'
p3120
aa(lp3121
S'high'
p3122
aS'vhigh'
p3123
ag177
ag59
aS'big'
p3124
aS'high'
p3125
aS'unacc'
p3126
aa(lp3127
S'high'
p3128
aS'vhigh'
p3129
ag177
aS'more'
p3130
aS'small'
p3131
aS'low'
p3132
aS'unacc'
p3133
aa(lp3134
S'high'
p3135
aS'vhigh'
p3136
ag177
aS'more'
p3137
aS'small'
p3138
aS'med'
p3139
aS'unacc'
p3140
aa(lp3141
S'high'
p3142
aS'vhigh'
p3143
ag177
aS'more'
p3144
aS'small'
p3145
aS'high'
p3146
aS'unacc'
p3147
aa(lp3148
S'high'
p3149
aS'vhigh'
p3150
ag177
aS'more'
p3151
aS'med'
p3152
aS'low'
p3153
aS'unacc'
p3154
aa(lp3155
S'high'
p3156
aS'vhigh'
p3157
ag177
aS'more'
p3158
aS'med'
p3159
aS'med'
p3160
aS'unacc'
p3161
aa(lp3162
S'high'
p3163
aS'vhigh'
p3164
ag177
aS'more'
p3165
aS'med'
p3166
aS'high'
p3167
aS'unacc'
p3168
aa(lp3169
S'high'
p3170
aS'vhigh'
p3171
ag177
aS'more'
p3172
aS'big'
p3173
aS'low'
p3174
aS'unacc'
p3175
aa(lp3176
S'high'
p3177
aS'vhigh'
p3178
ag177
aS'more'
p3179
aS'big'
p3180
aS'med'
p3181
aS'unacc'
p3182
aa(lp3183
S'high'
p3184
aS'vhigh'
p3185
ag177
aS'more'
p3186
aS'big'
p3187
aS'high'
p3188
aS'unacc'
p3189
aa(lp3190
S'high'
p3191
aS'vhigh'
p3192
ag59
ag4
aS'small'
p3193
aS'low'
p3194
aS'unacc'
p3195
aa(lp3196
S'high'
p3197
aS'vhigh'
p3198
ag59
ag4
aS'small'
p3199
aS'med'
p3200
aS'unacc'
p3201
aa(lp3202
S'high'
p3203
aS'vhigh'
p3204
ag59
ag4
aS'small'
p3205
aS'high'
p3206
aS'unacc'
p3207
aa(lp3208
S'high'
p3209
aS'vhigh'
p3210
ag59
ag4
aS'med'
p3211
aS'low'
p3212
aS'unacc'
p3213
aa(lp3214
S'high'
p3215
aS'vhigh'
p3216
ag59
ag4
aS'med'
p3217
aS'med'
p3218
aS'unacc'
p3219
aa(lp3220
S'high'
p3221
aS'vhigh'
p3222
ag59
ag4
aS'med'
p3223
aS'high'
p3224
aS'unacc'
p3225
aa(lp3226
S'high'
p3227
aS'vhigh'
p3228
ag59
ag4
aS'big'
p3229
aS'low'
p3230
aS'unacc'
p3231
aa(lp3232
S'high'
p3233
aS'vhigh'
p3234
ag59
ag4
aS'big'
p3235
aS'med'
p3236
aS'unacc'
p3237
aa(lp3238
S'high'
p3239
aS'vhigh'
p3240
ag59
ag4
aS'big'
p3241
aS'high'
p3242
aS'unacc'
p3243
aa(lp3244
S'high'
p3245
aS'vhigh'
p3246
ag59
ag59
aS'small'
p3247
aS'low'
p3248
aS'unacc'
p3249
aa(lp3250
S'high'
p3251
aS'vhigh'
p3252
ag59
ag59
aS'small'
p3253
aS'med'
p3254
aS'unacc'
p3255
aa(lp3256
S'high'
p3257
aS'vhigh'
p3258
ag59
ag59
aS'small'
p3259
aS'high'
p3260
aS'unacc'
p3261
aa(lp3262
S'high'
p3263
aS'vhigh'
p3264
ag59
ag59
aS'med'
p3265
aS'low'
p3266
aS'unacc'
p3267
aa(lp3268
S'high'
p3269
aS'vhigh'
p3270
ag59
ag59
aS'med'
p3271
aS'med'
p3272
aS'unacc'
p3273
aa(lp3274
S'high'
p3275
aS'vhigh'
p3276
ag59
ag59
aS'med'
p3277
aS'high'
p3278
aS'unacc'
p3279
aa(lp3280
S'high'
p3281
aS'vhigh'
p3282
ag59
ag59
aS'big'
p3283
aS'low'
p3284
aS'unacc'
p3285
aa(lp3286
S'high'
p3287
aS'vhigh'
p3288
ag59
ag59
aS'big'
p3289
aS'med'
p3290
aS'unacc'
p3291
aa(lp3292
S'high'
p3293
aS'vhigh'
p3294
ag59
ag59
aS'big'
p3295
aS'high'
p3296
aS'unacc'
p3297
aa(lp3298
S'high'
p3299
aS'vhigh'
p3300
ag59
aS'more'
p3301
aS'small'
p3302
aS'low'
p3303
aS'unacc'
p3304
aa(lp3305
S'high'
p3306
aS'vhigh'
p3307
ag59
aS'more'
p3308
aS'small'
p3309
aS'med'
p3310
aS'unacc'
p3311
aa(lp3312
S'high'
p3313
aS'vhigh'
p3314
ag59
aS'more'
p3315
aS'small'
p3316
aS'high'
p3317
aS'unacc'
p3318
aa(lp3319
S'high'
p3320
aS'vhigh'
p3321
ag59
aS'more'
p3322
aS'med'
p3323
aS'low'
p3324
aS'unacc'
p3325
aa(lp3326
S'high'
p3327
aS'vhigh'
p3328
ag59
aS'more'
p3329
aS'med'
p3330
aS'med'
p3331
aS'unacc'
p3332
aa(lp3333
S'high'
p3334
aS'vhigh'
p3335
ag59
aS'more'
p3336
aS'med'
p3337
aS'high'
p3338
aS'unacc'
p3339
aa(lp3340
S'high'
p3341
aS'vhigh'
p3342
ag59
aS'more'
p3343
aS'big'
p3344
aS'low'
p3345
aS'unacc'
p3346
aa(lp3347
S'high'
p3348
aS'vhigh'
p3349
ag59
aS'more'
p3350
aS'big'
p3351
aS'med'
p3352
aS'unacc'
p3353
aa(lp3354
S'high'
p3355
aS'vhigh'
p3356
ag59
aS'more'
p3357
aS'big'
p3358
aS'high'
p3359
aS'unacc'
p3360
aa(lp3361
S'high'
p3362
aS'vhigh'
p3363
aS'5more'
p3364
ag4
aS'small'
p3365
aS'low'
p3366
aS'unacc'
p3367
aa(lp3368
S'high'
p3369
aS'vhigh'
p3370
aS'5more'
p3371
ag4
aS'small'
p3372
aS'med'
p3373
aS'unacc'
p3374
aa(lp3375
S'high'
p3376
aS'vhigh'
p3377
aS'5more'
p3378
ag4
aS'small'
p3379
aS'high'
p3380
aS'unacc'
p3381
aa(lp3382
S'high'
p3383
aS'vhigh'
p3384
aS'5more'
p3385
ag4
aS'med'
p3386
aS'low'
p3387
aS'unacc'
p3388
aa(lp3389
S'high'
p3390
aS'vhigh'
p3391
aS'5more'
p3392
ag4
aS'med'
p3393
aS'med'
p3394
aS'unacc'
p3395
aa(lp3396
S'high'
p3397
aS'vhigh'
p3398
aS'5more'
p3399
ag4
aS'med'
p3400
aS'high'
p3401
aS'unacc'
p3402
aa(lp3403
S'high'
p3404
aS'vhigh'
p3405
aS'5more'
p3406
ag4
aS'big'
p3407
aS'low'
p3408
aS'unacc'
p3409
aa(lp3410
S'high'
p3411
aS'vhigh'
p3412
aS'5more'
p3413
ag4
aS'big'
p3414
aS'med'
p3415
aS'unacc'
p3416
aa(lp3417
S'high'
p3418
aS'vhigh'
p3419
aS'5more'
p3420
ag4
aS'big'
p3421
aS'high'
p3422
aS'unacc'
p3423
aa(lp3424
S'high'
p3425
aS'vhigh'
p3426
aS'5more'
p3427
ag59
aS'small'
p3428
aS'low'
p3429
aS'unacc'
p3430
aa(lp3431
S'high'
p3432
aS'vhigh'
p3433
aS'5more'
p3434
ag59
aS'small'
p3435
aS'med'
p3436
aS'unacc'
p3437
aa(lp3438
S'high'
p3439
aS'vhigh'
p3440
aS'5more'
p3441
ag59
aS'small'
p3442
aS'high'
p3443
aS'unacc'
p3444
aa(lp3445
S'high'
p3446
aS'vhigh'
p3447
aS'5more'
p3448
ag59
aS'med'
p3449
aS'low'
p3450
aS'unacc'
p3451
aa(lp3452
S'high'
p3453
aS'vhigh'
p3454
aS'5more'
p3455
ag59
aS'med'
p3456
aS'med'
p3457
aS'unacc'
p3458
aa(lp3459
S'high'
p3460
aS'vhigh'
p3461
aS'5more'
p3462
ag59
aS'med'
p3463
aS'high'
p3464
aS'unacc'
p3465
aa(lp3466
S'high'
p3467
aS'vhigh'
p3468
aS'5more'
p3469
ag59
aS'big'
p3470
aS'low'
p3471
aS'unacc'
p3472
aa(lp3473
S'high'
p3474
aS'vhigh'
p3475
aS'5more'
p3476
ag59
aS'big'
p3477
aS'med'
p3478
aS'unacc'
p3479
aa(lp3480
S'high'
p3481
aS'vhigh'
p3482
aS'5more'
p3483
ag59
aS'big'
p3484
aS'high'
p3485
aS'unacc'
p3486
aa(lp3487
S'high'
p3488
aS'vhigh'
p3489
aS'5more'
p3490
aS'more'
p3491
aS'small'
p3492
aS'low'
p3493
aS'unacc'
p3494
aa(lp3495
S'high'
p3496
aS'vhigh'
p3497
aS'5more'
p3498
aS'more'
p3499
aS'small'
p3500
aS'med'
p3501
aS'unacc'
p3502
aa(lp3503
S'high'
p3504
aS'vhigh'
p3505
aS'5more'
p3506
aS'more'
p3507
aS'small'
p3508
aS'high'
p3509
aS'unacc'
p3510
aa(lp3511
S'high'
p3512
aS'vhigh'
p3513
aS'5more'
p3514
aS'more'
p3515
aS'med'
p3516
aS'low'
p3517
aS'unacc'
p3518
aa(lp3519
S'high'
p3520
aS'vhigh'
p3521
aS'5more'
p3522
aS'more'
p3523
aS'med'
p3524
aS'med'
p3525
aS'unacc'
p3526
aa(lp3527
S'high'
p3528
aS'vhigh'
p3529
aS'5more'
p3530
aS'more'
p3531
aS'med'
p3532
aS'high'
p3533
aS'unacc'
p3534
aa(lp3535
S'high'
p3536
aS'vhigh'
p3537
aS'5more'
p3538
aS'more'
p3539
aS'big'
p3540
aS'low'
p3541
aS'unacc'
p3542
aa(lp3543
S'high'
p3544
aS'vhigh'
p3545
aS'5more'
p3546
aS'more'
p3547
aS'big'
p3548
aS'med'
p3549
aS'unacc'
p3550
aa(lp3551
S'high'
p3552
aS'vhigh'
p3553
aS'5more'
p3554
aS'more'
p3555
aS'big'
p3556
aS'high'
p3557
aS'unacc'
p3558
aa(lp3559
S'high'
p3560
aS'high'
p3561
ag4
ag4
aS'small'
p3562
aS'low'
p3563
aS'unacc'
p3564
aa(lp3565
S'high'
p3566
aS'high'
p3567
ag4
ag4
aS'small'
p3568
aS'med'
p3569
aS'unacc'
p3570
aa(lp3571
S'high'
p3572
aS'high'
p3573
ag4
ag4
aS'small'
p3574
aS'high'
p3575
aS'unacc'
p3576
aa(lp3577
S'high'
p3578
aS'high'
p3579
ag4
ag4
aS'med'
p3580
aS'low'
p3581
aS'unacc'
p3582
aa(lp3583
S'high'
p3584
aS'high'
p3585
ag4
ag4
aS'med'
p3586
aS'med'
p3587
aS'unacc'
p3588
aa(lp3589
S'high'
p3590
aS'high'
p3591
ag4
ag4
aS'med'
p3592
aS'high'
p3593
aS'unacc'
p3594
aa(lp3595
S'high'
p3596
aS'high'
p3597
ag4
ag4
aS'big'
p3598
aS'low'
p3599
aS'unacc'
p3600
aa(lp3601
S'high'
p3602
aS'high'
p3603
ag4
ag4
aS'big'
p3604
aS'med'
p3605
aS'unacc'
p3606
aa(lp3607
S'high'
p3608
aS'high'
p3609
ag4
ag4
aS'big'
p3610
aS'high'
p3611
aS'unacc'
p3612
aa(lp3613
S'high'
p3614
aS'high'
p3615
ag4
ag59
aS'small'
p3616
aS'low'
p3617
aS'unacc'
p3618
aa(lp3619
S'high'
p3620
aS'high'
p3621
ag4
ag59
aS'small'
p3622
aS'med'
p3623
aS'unacc'
p3624
aa(lp3625
S'high'
p3626
aS'high'
p3627
ag4
ag59
aS'small'
p3628
aS'high'
p3629
aS'acc'
p3630
aa(lp3631
S'high'
p3632
aS'high'
p3633
ag4
ag59
aS'med'
p3634
aS'low'
p3635
aS'unacc'
p3636
aa(lp3637
S'high'
p3638
aS'high'
p3639
ag4
ag59
aS'med'
p3640
aS'med'
p3641
aS'unacc'
p3642
aa(lp3643
S'high'
p3644
aS'high'
p3645
ag4
ag59
aS'med'
p3646
aS'high'
p3647
aS'acc'
p3648
aa(lp3649
S'high'
p3650
aS'high'
p3651
ag4
ag59
aS'big'
p3652
aS'low'
p3653
aS'unacc'
p3654
aa(lp3655
S'high'
p3656
aS'high'
p3657
ag4
ag59
aS'big'
p3658
aS'med'
p3659
aS'acc'
p3660
aa(lp3661
S'high'
p3662
aS'high'
p3663
ag4
ag59
aS'big'
p3664
aS'high'
p3665
aS'acc'
p3666
aa(lp3667
S'high'
p3668
aS'high'
p3669
ag4
aS'more'
p3670
aS'small'
p3671
aS'low'
p3672
aS'unacc'
p3673
aa(lp3674
S'high'
p3675
aS'high'
p3676
ag4
aS'more'
p3677
aS'small'
p3678
aS'med'
p3679
aS'unacc'
p3680
aa(lp3681
S'high'
p3682
aS'high'
p3683
ag4
aS'more'
p3684
aS'small'
p3685
aS'high'
p3686
aS'unacc'
p3687
aa(lp3688
S'high'
p3689
aS'high'
p3690
ag4
aS'more'
p3691
aS'med'
p3692
aS'low'
p3693
aS'unacc'
p3694
aa(lp3695
S'high'
p3696
aS'high'
p3697
ag4
aS'more'
p3698
aS'med'
p3699
aS'med'
p3700
aS'unacc'
p3701
aa(lp3702
S'high'
p3703
aS'high'
p3704
ag4
aS'more'
p3705
aS'med'
p3706
aS'high'
p3707
aS'acc'
p3708
aa(lp3709
S'high'
p3710
aS'high'
p3711
ag4
aS'more'
p3712
aS'big'
p3713
aS'low'
p3714
aS'unacc'
p3715
aa(lp3716
S'high'
p3717
aS'high'
p3718
ag4
aS'more'
p3719
aS'big'
p3720
aS'med'
p3721
aS'acc'
p3722
aa(lp3723
S'high'
p3724
aS'high'
p3725
ag4
aS'more'
p3726
aS'big'
p3727
aS'high'
p3728
aS'acc'
p3729
aa(lp3730
S'high'
p3731
aS'high'
p3732
ag177
ag4
aS'small'
p3733
aS'low'
p3734
aS'unacc'
p3735
aa(lp3736
S'high'
p3737
aS'high'
p3738
ag177
ag4
aS'small'
p3739
aS'med'
p3740
aS'unacc'
p3741
aa(lp3742
S'high'
p3743
aS'high'
p3744
ag177
ag4
aS'small'
p3745
aS'high'
p3746
aS'unacc'
p3747
aa(lp3748
S'high'
p3749
aS'high'
p3750
ag177
ag4
aS'med'
p3751
aS'low'
p3752
aS'unacc'
p3753
aa(lp3754
S'high'
p3755
aS'high'
p3756
ag177
ag4
aS'med'
p3757
aS'med'
p3758
aS'unacc'
p3759
aa(lp3760
S'high'
p3761
aS'high'
p3762
ag177
ag4
aS'med'
p3763
aS'high'
p3764
aS'unacc'
p3765
aa(lp3766
S'high'
p3767
aS'high'
p3768
ag177
ag4
aS'big'
p3769
aS'low'
p3770
aS'unacc'
p3771
aa(lp3772
S'high'
p3773
aS'high'
p3774
ag177
ag4
aS'big'
p3775
aS'med'
p3776
aS'unacc'
p3777
aa(lp3778
S'high'
p3779
aS'high'
p3780
ag177
ag4
aS'big'
p3781
aS'high'
p3782
aS'unacc'
p3783
aa(lp3784
S'high'
p3785
aS'high'
p3786
ag177
ag59
aS'small'
p3787
aS'low'
p3788
aS'unacc'
p3789
aa(lp3790
S'high'
p3791
aS'high'
p3792
ag177
ag59
aS'small'
p3793
aS'med'
p3794
aS'unacc'
p3795
aa(lp3796
S'high'
p3797
aS'high'
p3798
ag177
ag59
aS'small'
p3799
aS'high'
p3800
aS'acc'
p3801
aa(lp3802
S'high'
p3803
aS'high'
p3804
ag177
ag59
aS'med'
p3805
aS'low'
p3806
aS'unacc'
p3807
aa(lp3808
S'high'
p3809
aS'high'
p3810
ag177
ag59
aS'med'
p3811
aS'med'
p3812
aS'unacc'
p3813
aa(lp3814
S'high'
p3815
aS'high'
p3816
ag177
ag59
aS'med'
p3817
aS'high'
p3818
aS'acc'
p3819
aa(lp3820
S'high'
p3821
aS'high'
p3822
ag177
ag59
aS'big'
p3823
aS'low'
p3824
aS'unacc'
p3825
aa(lp3826
S'high'
p3827
aS'high'
p3828
ag177
ag59
aS'big'
p3829
aS'med'
p3830
aS'acc'
p3831
aa(lp3832
S'high'
p3833
aS'high'
p3834
ag177
ag59
aS'big'
p3835
aS'high'
p3836
aS'acc'
p3837
aa(lp3838
S'high'
p3839
aS'high'
p3840
ag177
aS'more'
p3841
aS'small'
p3842
aS'low'
p3843
aS'unacc'
p3844
aa(lp3845
S'high'
p3846
aS'high'
p3847
ag177
aS'more'
p3848
aS'small'
p3849
aS'med'
p3850
aS'unacc'
p3851
aa(lp3852
S'high'
p3853
aS'high'
p3854
ag177
aS'more'
p3855
aS'small'
p3856
aS'high'
p3857
aS'acc'
p3858
aa(lp3859
S'high'
p3860
aS'high'
p3861
ag177
aS'more'
p3862
aS'med'
p3863
aS'low'
p3864
aS'unacc'
p3865
aa(lp3866
S'high'
p3867
aS'high'
p3868
ag177
aS'more'
p3869
aS'med'
p3870
aS'med'
p3871
aS'acc'
p3872
aa(lp3873
S'high'
p3874
aS'high'
p3875
ag177
aS'more'
p3876
aS'med'
p3877
aS'high'
p3878
aS'acc'
p3879
aa(lp3880
S'high'
p3881
aS'high'
p3882
ag177
aS'more'
p3883
aS'big'
p3884
aS'low'
p3885
aS'unacc'
p3886
aa(lp3887
S'high'
p3888
aS'high'
p3889
ag177
aS'more'
p3890
aS'big'
p3891
aS'med'
p3892
aS'acc'
p3893
aa(lp3894
S'high'
p3895
aS'high'
p3896
ag177
aS'more'
p3897
aS'big'
p3898
aS'high'
p3899
aS'acc'
p3900
aa(lp3901
S'high'
p3902
aS'high'
p3903
ag59
ag4
aS'small'
p3904
aS'low'
p3905
aS'unacc'
p3906
aa(lp3907
S'high'
p3908
aS'high'
p3909
ag59
ag4
aS'small'
p3910
aS'med'
p3911
aS'unacc'
p3912
aa(lp3913
S'high'
p3914
aS'high'
p3915
ag59
ag4
aS'small'
p3916
aS'high'
p3917
aS'unacc'
p3918
aa(lp3919
S'high'
p3920
aS'high'
p3921
ag59
ag4
aS'med'
p3922
aS'low'
p3923
aS'unacc'
p3924
aa(lp3925
S'high'
p3926
aS'high'
p3927
ag59
ag4
aS'med'
p3928
aS'med'
p3929
aS'unacc'
p3930
aa(lp3931
S'high'
p3932
aS'high'
p3933
ag59
ag4
aS'med'
p3934
aS'high'
p3935
aS'unacc'
p3936
aa(lp3937
S'high'
p3938
aS'high'
p3939
ag59
ag4
aS'big'
p3940
aS'low'
p3941
aS'unacc'
p3942
aa(lp3943
S'high'
p3944
aS'high'
p3945
ag59
ag4
aS'big'
p3946
aS'med'
p3947
aS'unacc'
p3948
aa(lp3949
S'high'
p3950
aS'high'
p3951
ag59
ag4
aS'big'
p3952
aS'high'
p3953
aS'unacc'
p3954
aa(lp3955
S'high'
p3956
aS'high'
p3957
ag59
ag59
aS'small'
p3958
aS'low'
p3959
aS'unacc'
p3960
aa(lp3961
S'high'
p3962
aS'high'
p3963
ag59
ag59
aS'small'
p3964
aS'med'
p3965
aS'unacc'
p3966
aa(lp3967
S'high'
p3968
aS'high'
p3969
ag59
ag59
aS'small'
p3970
aS'high'
p3971
aS'acc'
p3972
aa(lp3973
S'high'
p3974
aS'high'
p3975
ag59
ag59
aS'med'
p3976
aS'low'
p3977
aS'unacc'
p3978
aa(lp3979
S'high'
p3980
aS'high'
p3981
ag59
ag59
aS'med'
p3982
aS'med'
p3983
aS'acc'
p3984
aa(lp3985
S'high'
p3986
aS'high'
p3987
ag59
ag59
aS'med'
p3988
aS'high'
p3989
aS'acc'
p3990
aa(lp3991
S'high'
p3992
aS'high'
p3993
ag59
ag59
aS'big'
p3994
aS'low'
p3995
aS'unacc'
p3996
aa(lp3997
S'high'
p3998
aS'high'
p3999
ag59
ag59
aS'big'
p4000
aS'med'
p4001
aS'acc'
p4002
aa(lp4003
S'high'
p4004
aS'high'
p4005
ag59
ag59
aS'big'
p4006
aS'high'
p4007
aS'acc'
p4008
aa(lp4009
S'high'
p4010
aS'high'
p4011
ag59
aS'more'
p4012
aS'small'
p4013
aS'low'
p4014
aS'unacc'
p4015
aa(lp4016
S'high'
p4017
aS'high'
p4018
ag59
aS'more'
p4019
aS'small'
p4020
aS'med'
p4021
aS'unacc'
p4022
aa(lp4023
S'high'
p4024
aS'high'
p4025
ag59
aS'more'
p4026
aS'small'
p4027
aS'high'
p4028
aS'acc'
p4029
aa(lp4030
S'high'
p4031
aS'high'
p4032
ag59
aS'more'
p4033
aS'med'
p4034
aS'low'
p4035
aS'unacc'
p4036
aa(lp4037
S'high'
p4038
aS'high'
p4039
ag59
aS'more'
p4040
aS'med'
p4041
aS'med'
p4042
aS'acc'
p4043
aa(lp4044
S'high'
p4045
aS'high'
p4046
ag59
aS'more'
p4047
aS'med'
p4048
aS'high'
p4049
aS'acc'
p4050
aa(lp4051
S'high'
p4052
aS'high'
p4053
ag59
aS'more'
p4054
aS'big'
p4055
aS'low'
p4056
aS'unacc'
p4057
aa(lp4058
S'high'
p4059
aS'high'
p4060
ag59
aS'more'
p4061
aS'big'
p4062
aS'med'
p4063
aS'acc'
p4064
aa(lp4065
S'high'
p4066
aS'high'
p4067
ag59
aS'more'
p4068
aS'big'
p4069
aS'high'
p4070
aS'acc'
p4071
aa(lp4072
S'high'
p4073
aS'high'
p4074
aS'5more'
p4075
ag4
aS'small'
p4076
aS'low'
p4077
aS'unacc'
p4078
aa(lp4079
S'high'
p4080
aS'high'
p4081
aS'5more'
p4082
ag4
aS'small'
p4083
aS'med'
p4084
aS'unacc'
p4085
aa(lp4086
S'high'
p4087
aS'high'
p4088
aS'5more'
p4089
ag4
aS'small'
p4090
aS'high'
p4091
aS'unacc'
p4092
aa(lp4093
S'high'
p4094
aS'high'
p4095
aS'5more'
p4096
ag4
aS'med'
p4097
aS'low'
p4098
aS'unacc'
p4099
aa(lp4100
S'high'
p4101
aS'high'
p4102
aS'5more'
p4103
ag4
aS'med'
p4104
aS'med'
p4105
aS'unacc'
p4106
aa(lp4107
S'high'
p4108
aS'high'
p4109
aS'5more'
p4110
ag4
aS'med'
p4111
aS'high'
p4112
aS'unacc'
p4113
aa(lp4114
S'high'
p4115
aS'high'
p4116
aS'5more'
p4117
ag4
aS'big'
p4118
aS'low'
p4119
aS'unacc'
p4120
aa(lp4121
S'high'
p4122
aS'high'
p4123
aS'5more'
p4124
ag4
aS'big'
p4125
aS'med'
p4126
aS'unacc'
p4127
aa(lp4128
S'high'
p4129
aS'high'
p4130
aS'5more'
p4131
ag4
aS'big'
p4132
aS'high'
p4133
aS'unacc'
p4134
aa(lp4135
S'high'
p4136
aS'high'
p4137
aS'5more'
p4138
ag59
aS'small'
p4139
aS'low'
p4140
aS'unacc'
p4141
aa(lp4142
S'high'
p4143
aS'high'
p4144
aS'5more'
p4145
ag59
aS'small'
p4146
aS'med'
p4147
aS'unacc'
p4148
aa(lp4149
S'high'
p4150
aS'high'
p4151
aS'5more'
p4152
ag59
aS'small'
p4153
aS'high'
p4154
aS'acc'
p4155
aa(lp4156
S'high'
p4157
aS'high'
p4158
aS'5more'
p4159
ag59
aS'med'
p4160
aS'low'
p4161
aS'unacc'
p4162
aa(lp4163
S'high'
p4164
aS'high'
p4165
aS'5more'
p4166
ag59
aS'med'
p4167
aS'med'
p4168
aS'acc'
p4169
aa(lp4170
S'high'
p4171
aS'high'
p4172
aS'5more'
p4173
ag59
aS'med'
p4174
aS'high'
p4175
aS'acc'
p4176
aa(lp4177
S'high'
p4178
aS'high'
p4179
aS'5more'
p4180
ag59
aS'big'
p4181
aS'low'
p4182
aS'unacc'
p4183
aa(lp4184
S'high'
p4185
aS'high'
p4186
aS'5more'
p4187
ag59
aS'big'
p4188
aS'med'
p4189
aS'acc'
p4190
aa(lp4191
S'high'
p4192
aS'high'
p4193
aS'5more'
p4194
ag59
aS'big'
p4195
aS'high'
p4196
aS'acc'
p4197
aa(lp4198
S'high'
p4199
aS'high'
p4200
aS'5more'
p4201
aS'more'
p4202
aS'small'
p4203
aS'low'
p4204
aS'unacc'
p4205
aa(lp4206
S'high'
p4207
aS'high'
p4208
aS'5more'
p4209
aS'more'
p4210
aS'small'
p4211
aS'med'
p4212
aS'unacc'
p4213
aa(lp4214
S'high'
p4215
aS'high'
p4216
aS'5more'
p4217
aS'more'
p4218
aS'small'
p4219
aS'high'
p4220
aS'acc'
p4221
aa(lp4222
S'high'
p4223
aS'high'
p4224
aS'5more'
p4225
aS'more'
p4226
aS'med'
p4227
aS'low'
p4228
aS'unacc'
p4229
aa(lp4230
S'high'
p4231
aS'high'
p4232
aS'5more'
p4233
aS'more'
p4234
aS'med'
p4235
aS'med'
p4236
aS'acc'
p4237
aa(lp4238
S'high'
p4239
aS'high'
p4240
aS'5more'
p4241
aS'more'
p4242
aS'med'
p4243
aS'high'
p4244
aS'acc'
p4245
aa(lp4246
S'high'
p4247
aS'high'
p4248
aS'5more'
p4249
aS'more'
p4250
aS'big'
p4251
aS'low'
p4252
aS'unacc'
p4253
aa(lp4254
S'high'
p4255
aS'high'
p4256
aS'5more'
p4257
aS'more'
p4258
aS'big'
p4259
aS'med'
p4260
aS'acc'
p4261
aa(lp4262
S'high'
p4263
aS'high'
p4264
aS'5more'
p4265
aS'more'
p4266
aS'big'
p4267
aS'high'
p4268
aS'acc'
p4269
aa(lp4270
S'high'
p4271
aS'med'
p4272
ag4
ag4
aS'small'
p4273
aS'low'
p4274
aS'unacc'
p4275
aa(lp4276
S'high'
p4277
aS'med'
p4278
ag4
ag4
aS'small'
p4279
aS'med'
p4280
aS'unacc'
p4281
aa(lp4282
S'high'
p4283
aS'med'
p4284
ag4
ag4
aS'small'
p4285
aS'high'
p4286
aS'unacc'
p4287
aa(lp4288
S'high'
p4289
aS'med'
p4290
ag4
ag4
aS'med'
p4291
aS'low'
p4292
aS'unacc'
p4293
aa(lp4294
S'high'
p4295
aS'med'
p4296
ag4
ag4
aS'med'
p4297
aS'med'
p4298
aS'unacc'
p4299
aa(lp4300
S'high'
p4301
aS'med'
p4302
ag4
ag4
aS'med'
p4303
aS'high'
p4304
aS'unacc'
p4305
aa(lp4306
S'high'
p4307
aS'med'
p4308
ag4
ag4
aS'big'
p4309
aS'low'
p4310
aS'unacc'
p4311
aa(lp4312
S'high'
p4313
aS'med'
p4314
ag4
ag4
aS'big'
p4315
aS'med'
p4316
aS'unacc'
p4317
aa(lp4318
S'high'
p4319
aS'med'
p4320
ag4
ag4
aS'big'
p4321
aS'high'
p4322
aS'unacc'
p4323
aa(lp4324
S'high'
p4325
aS'med'
p4326
ag4
ag59
aS'small'
p4327
aS'low'
p4328
aS'unacc'
p4329
aa(lp4330
S'high'
p4331
aS'med'
p4332
ag4
ag59
aS'small'
p4333
aS'med'
p4334
aS'unacc'
p4335
aa(lp4336
S'high'
p4337
aS'med'
p4338
ag4
ag59
aS'small'
p4339
aS'high'
p4340
aS'acc'
p4341
aa(lp4342
S'high'
p4343
aS'med'
p4344
ag4
ag59
aS'med'
p4345
aS'low'
p4346
aS'unacc'
p4347
aa(lp4348
S'high'
p4349
aS'med'
p4350
ag4
ag59
aS'med'
p4351
aS'med'
p4352
aS'unacc'
p4353
aa(lp4354
S'high'
p4355
aS'med'
p4356
ag4
ag59
aS'med'
p4357
aS'high'
p4358
aS'acc'
p4359
aa(lp4360
S'high'
p4361
aS'med'
p4362
ag4
ag59
aS'big'
p4363
aS'low'
p4364
aS'unacc'
p4365
aa(lp4366
S'high'
p4367
aS'med'
p4368
ag4
ag59
aS'big'
p4369
aS'med'
p4370
aS'acc'
p4371
aa(lp4372
S'high'
p4373
aS'med'
p4374
ag4
ag59
aS'big'
p4375
aS'high'
p4376
aS'acc'
p4377
aa(lp4378
S'high'
p4379
aS'med'
p4380
ag4
aS'more'
p4381
aS'small'
p4382
aS'low'
p4383
aS'unacc'
p4384
aa(lp4385
S'high'
p4386
aS'med'
p4387
ag4
aS'more'
p4388
aS'small'
p4389
aS'med'
p4390
aS'unacc'
p4391
aa(lp4392
S'high'
p4393
aS'med'
p4394
ag4
aS'more'
p4395
aS'small'
p4396
aS'high'
p4397
aS'unacc'
p4398
aa(lp4399
S'high'
p4400
aS'med'
p4401
ag4
aS'more'
p4402
aS'med'
p4403
aS'low'
p4404
aS'unacc'
p4405
aa(lp4406
S'high'
p4407
aS'med'
p4408
ag4
aS'more'
p4409
aS'med'
p4410
aS'med'
p4411
aS'unacc'
p4412
aa(lp4413
S'high'
p4414
aS'med'
p4415
ag4
aS'more'
p4416
aS'med'
p4417
aS'high'
p4418
aS'acc'
p4419
aa(lp4420
S'high'
p4421
aS'med'
p4422
ag4
aS'more'
p4423
aS'big'
p4424
aS'low'
p4425
aS'unacc'
p4426
aa(lp4427
S'high'
p4428
aS'med'
p4429
ag4
aS'more'
p4430
aS'big'
p4431
aS'med'
p4432
aS'acc'
p4433
aa(lp4434
S'high'
p4435
aS'med'
p4436
ag4
aS'more'
p4437
aS'big'
p4438
aS'high'
p4439
aS'acc'
p4440
aa(lp4441
S'high'
p4442
aS'med'
p4443
ag177
ag4
aS'small'
p4444
aS'low'
p4445
aS'unacc'
p4446
aa(lp4447
S'high'
p4448
aS'med'
p4449
ag177
ag4
aS'small'
p4450
aS'med'
p4451
aS'unacc'
p4452
aa(lp4453
S'high'
p4454
aS'med'
p4455
ag177
ag4
aS'small'
p4456
aS'high'
p4457
aS'unacc'
p4458
aa(lp4459
S'high'
p4460
aS'med'
p4461
ag177
ag4
aS'med'
p4462
aS'low'
p4463
aS'unacc'
p4464
aa(lp4465
S'high'
p4466
aS'med'
p4467
ag177
ag4
aS'med'
p4468
aS'med'
p4469
aS'unacc'
p4470
aa(lp4471
S'high'
p4472
aS'med'
p4473
ag177
ag4
aS'med'
p4474
aS'high'
p4475
aS'unacc'
p4476
aa(lp4477
S'high'
p4478
aS'med'
p4479
ag177
ag4
aS'big'
p4480
aS'low'
p4481
aS'unacc'
p4482
aa(lp4483
S'high'
p4484
aS'med'
p4485
ag177
ag4
aS'big'
p4486
aS'med'
p4487
aS'unacc'
p4488
aa(lp4489
S'high'
p4490
aS'med'
p4491
ag177
ag4
aS'big'
p4492
aS'high'
p4493
aS'unacc'
p4494
aa(lp4495
S'high'
p4496
aS'med'
p4497
ag177
ag59
aS'small'
p4498
aS'low'
p4499
aS'unacc'
p4500
aa(lp4501
S'high'
p4502
aS'med'
p4503
ag177
ag59
aS'small'
p4504
aS'med'
p4505
aS'unacc'
p4506
aa(lp4507
S'high'
p4508
aS'med'
p4509
ag177
ag59
aS'small'
p4510
aS'high'
p4511
aS'acc'
p4512
aa(lp4513
S'high'
p4514
aS'med'
p4515
ag177
ag59
aS'med'
p4516
aS'low'
p4517
aS'unacc'
p4518
aa(lp4519
S'high'
p4520
aS'med'
p4521
ag177
ag59
aS'med'
p4522
aS'med'
p4523
aS'unacc'
p4524
aa(lp4525
S'high'
p4526
aS'med'
p4527
ag177
ag59
aS'med'
p4528
aS'high'
p4529
aS'acc'
p4530
aa(lp4531
S'high'
p4532
aS'med'
p4533
ag177
ag59
aS'big'
p4534
aS'low'
p4535
aS'unacc'
p4536
aa(lp4537
S'high'
p4538
aS'med'
p4539
ag177
ag59
aS'big'
p4540
aS'med'
p4541
aS'acc'
p4542
aa(lp4543
S'high'
p4544
aS'med'
p4545
ag177
ag59
aS'big'
p4546
aS'high'
p4547
aS'acc'
p4548
aa(lp4549
S'high'
p4550
aS'med'
p4551
ag177
aS'more'
p4552
aS'small'
p4553
aS'low'
p4554
aS'unacc'
p4555
aa(lp4556
S'high'
p4557
aS'med'
p4558
ag177
aS'more'
p4559
aS'small'
p4560
aS'med'
p4561
aS'unacc'
p4562
aa(lp4563
S'high'
p4564
aS'med'
p4565
ag177
aS'more'
p4566
aS'small'
p4567
aS'high'
p4568
aS'acc'
p4569
aa(lp4570
S'high'
p4571
aS'med'
p4572
ag177
aS'more'
p4573
aS'med'
p4574
aS'low'
p4575
aS'unacc'
p4576
aa(lp4577
S'high'
p4578
aS'med'
p4579
ag177
aS'more'
p4580
aS'med'
p4581
aS'med'
p4582
aS'acc'
p4583
aa(lp4584
S'high'
p4585
aS'med'
p4586
ag177
aS'more'
p4587
aS'med'
p4588
aS'high'
p4589
aS'acc'
p4590
aa(lp4591
S'high'
p4592
aS'med'
p4593
ag177
aS'more'
p4594
aS'big'
p4595
aS'low'
p4596
aS'unacc'
p4597
aa(lp4598
S'high'
p4599
aS'med'
p4600
ag177
aS'more'
p4601
aS'big'
p4602
aS'med'
p4603
aS'acc'
p4604
aa(lp4605
S'high'
p4606
aS'med'
p4607
ag177
aS'more'
p4608
aS'big'
p4609
aS'high'
p4610
aS'acc'
p4611
aa(lp4612
S'high'
p4613
aS'med'
p4614
ag59
ag4
aS'small'
p4615
aS'low'
p4616
aS'unacc'
p4617
aa(lp4618
S'high'
p4619
aS'med'
p4620
ag59
ag4
aS'small'
p4621
aS'med'
p4622
aS'unacc'
p4623
aa(lp4624
S'high'
p4625
aS'med'
p4626
ag59
ag4
aS'small'
p4627
aS'high'
p4628
aS'unacc'
p4629
aa(lp4630
S'high'
p4631
aS'med'
p4632
ag59
ag4
aS'med'
p4633
aS'low'
p4634
aS'unacc'
p4635
aa(lp4636
S'high'
p4637
aS'med'
p4638
ag59
ag4
aS'med'
p4639
aS'med'
p4640
aS'unacc'
p4641
aa(lp4642
S'high'
p4643
aS'med'
p4644
ag59
ag4
aS'med'
p4645
aS'high'
p4646
aS'unacc'
p4647
aa(lp4648
S'high'
p4649
aS'med'
p4650
ag59
ag4
aS'big'
p4651
aS'low'
p4652
aS'unacc'
p4653
aa(lp4654
S'high'
p4655
aS'med'
p4656
ag59
ag4
aS'big'
p4657
aS'med'
p4658
aS'unacc'
p4659
aa(lp4660
S'high'
p4661
aS'med'
p4662
ag59
ag4
aS'big'
p4663
aS'high'
p4664
aS'unacc'
p4665
aa(lp4666
S'high'
p4667
aS'med'
p4668
ag59
ag59
aS'small'
p4669
aS'low'
p4670
aS'unacc'
p4671
aa(lp4672
S'high'
p4673
aS'med'
p4674
ag59
ag59
aS'small'
p4675
aS'med'
p4676
aS'unacc'
p4677
aa(lp4678
S'high'
p4679
aS'med'
p4680
ag59
ag59
aS'small'
p4681
aS'high'
p4682
aS'acc'
p4683
aa(lp4684
S'high'
p4685
aS'med'
p4686
ag59
ag59
aS'med'
p4687
aS'low'
p4688
aS'unacc'
p4689
aa(lp4690
S'high'
p4691
aS'med'
p4692
ag59
ag59
aS'med'
p4693
aS'med'
p4694
aS'acc'
p4695
aa(lp4696
S'high'
p4697
aS'med'
p4698
ag59
ag59
aS'med'
p4699
aS'high'
p4700
aS'acc'
p4701
aa(lp4702
S'high'
p4703
aS'med'
p4704
ag59
ag59
aS'big'
p4705
aS'low'
p4706
aS'unacc'
p4707
aa(lp4708
S'high'
p4709
aS'med'
p4710
ag59
ag59
aS'big'
p4711
aS'med'
p4712
aS'acc'
p4713
aa(lp4714
S'high'
p4715
aS'med'
p4716
ag59
ag59
aS'big'
p4717
aS'high'
p4718
aS'acc'
p4719
aa(lp4720
S'high'
p4721
aS'med'
p4722
ag59
aS'more'
p4723
aS'small'
p4724
aS'low'
p4725
aS'unacc'
p4726
aa(lp4727
S'high'
p4728
aS'med'
p4729
ag59
aS'more'
p4730
aS'small'
p4731
aS'med'
p4732
aS'unacc'
p4733
aa(lp4734
S'high'
p4735
aS'med'
p4736
ag59
aS'more'
p4737
aS'small'
p4738
aS'high'
p4739
aS'acc'
p4740
aa(lp4741
S'high'
p4742
aS'med'
p4743
ag59
aS'more'
p4744
aS'med'
p4745
aS'low'
p4746
aS'unacc'
p4747
aa(lp4748
S'high'
p4749
aS'med'
p4750
ag59
aS'more'
p4751
aS'med'
p4752
aS'med'
p4753
aS'acc'
p4754
aa(lp4755
S'high'
p4756
aS'med'
p4757
ag59
aS'more'
p4758
aS'med'
p4759
aS'high'
p4760
aS'acc'
p4761
aa(lp4762
S'high'
p4763
aS'med'
p4764
ag59
aS'more'
p4765
aS'big'
p4766
aS'low'
p4767
aS'unacc'
p4768
aa(lp4769
S'high'
p4770
aS'med'
p4771
ag59
aS'more'
p4772
aS'big'
p4773
aS'med'
p4774
aS'acc'
p4775
aa(lp4776
S'high'
p4777
aS'med'
p4778
ag59
aS'more'
p4779
aS'big'
p4780
aS'high'
p4781
aS'acc'
p4782
aa(lp4783
S'high'
p4784
aS'med'
p4785
aS'5more'
p4786
ag4
aS'small'
p4787
aS'low'
p4788
aS'unacc'
p4789
aa(lp4790
S'high'
p4791
aS'med'
p4792
aS'5more'
p4793
ag4
aS'small'
p4794
aS'med'
p4795
aS'unacc'
p4796
aa(lp4797
S'high'
p4798
aS'med'
p4799
aS'5more'
p4800
ag4
aS'small'
p4801
aS'high'
p4802
aS'unacc'
p4803
aa(lp4804
S'high'
p4805
aS'med'
p4806
aS'5more'
p4807
ag4
aS'med'
p4808
aS'low'
p4809
aS'unacc'
p4810
aa(lp4811
S'high'
p4812
aS'med'
p4813
aS'5more'
p4814
ag4
aS'med'
p4815
aS'med'
p4816
aS'unacc'
p4817
aa(lp4818
S'high'
p4819
aS'med'
p4820
aS'5more'
p4821
ag4
aS'med'
p4822
aS'high'
p4823
aS'unacc'
p4824
aa(lp4825
S'high'
p4826
aS'med'
p4827
aS'5more'
p4828
ag4
aS'big'
p4829
aS'low'
p4830
aS'unacc'
p4831
aa(lp4832
S'high'
p4833
aS'med'
p4834
aS'5more'
p4835
ag4
aS'big'
p4836
aS'med'
p4837
aS'unacc'
p4838
aa(lp4839
S'high'
p4840
aS'med'
p4841
aS'5more'
p4842
ag4
aS'big'
p4843
aS'high'
p4844
aS'unacc'
p4845
aa(lp4846
S'high'
p4847
aS'med'
p4848
aS'5more'
p4849
ag59
aS'small'
p4850
aS'low'
p4851
aS'unacc'
p4852
aa(lp4853
S'high'
p4854
aS'med'
p4855
aS'5more'
p4856
ag59
aS'small'
p4857
aS'high'
p4858
aS'acc'
p4859
aa(lp4860
S'high'
p4861
aS'med'
p4862
aS'5more'
p4863
ag59
aS'med'
p4864
aS'med'
p4865
aS'acc'
p4866
aa(lp4867
S'high'
p4868
aS'med'
p4869
aS'5more'
p4870
ag59
aS'med'
p4871
aS'high'
p4872
aS'acc'
p4873
aa(lp4874
S'high'
p4875
aS'med'
p4876
aS'5more'
p4877
ag59
aS'big'
p4878
aS'med'
p4879
aS'acc'
p4880
aa(lp4881
S'high'
p4882
aS'med'
p4883
aS'5more'
p4884
ag59
aS'big'
p4885
aS'high'
p4886
aS'acc'
p4887
aa(lp4888
S'high'
p4889
aS'med'
p4890
aS'5more'
p4891
aS'more'
p4892
aS'small'
p4893
aS'high'
p4894
aS'acc'
p4895
aa(lp4896
S'high'
p4897
aS'med'
p4898
aS'5more'
p4899
aS'more'
p4900
aS'med'
p4901
aS'med'
p4902
aS'acc'
p4903
aa(lp4904
S'high'
p4905
aS'med'
p4906
aS'5more'
p4907
aS'more'
p4908
aS'med'
p4909
aS'high'
p4910
aS'acc'
p4911
aa(lp4912
S'high'
p4913
aS'med'
p4914
aS'5more'
p4915
aS'more'
p4916
aS'big'
p4917
aS'med'
p4918
aS'acc'
p4919
aa(lp4920
S'high'
p4921
aS'med'
p4922
aS'5more'
p4923
aS'more'
p4924
aS'big'
p4925
aS'high'
p4926
aS'acc'
p4927
aa(lp4928
S'high'
p4929
aS'low'
p4930
ag4
ag59
aS'small'
p4931
aS'high'
p4932
aS'acc'
p4933
aa(lp4934
S'high'
p4935
aS'low'
p4936
ag4
ag59
aS'med'
p4937
aS'high'
p4938
aS'acc'
p4939
aa(lp4940
S'high'
p4941
aS'low'
p4942
ag4
ag59
aS'big'
p4943
aS'med'
p4944
aS'acc'
p4945
aa(lp4946
S'high'
p4947
aS'low'
p4948
ag4
ag59
aS'big'
p4949
aS'high'
p4950
aS'acc'
p4951
aa(lp4952
S'high'
p4953
aS'low'
p4954
ag4
aS'more'
p4955
aS'med'
p4956
aS'high'
p4957
aS'acc'
p4958
aa(lp4959
S'high'
p4960
aS'low'
p4961
ag4
aS'more'
p4962
aS'big'
p4963
aS'med'
p4964
aS'acc'
p4965
aa(lp4966
S'high'
p4967
aS'low'
p4968
ag4
aS'more'
p4969
aS'big'
p4970
aS'high'
p4971
aS'acc'
p4972
aa(lp4973
S'high'
p4974
aS'low'
p4975
ag177
ag59
aS'small'
p4976
aS'high'
p4977
aS'acc'
p4978
aa(lp4979
S'high'
p4980
aS'low'
p4981
ag177
ag59
aS'med'
p4982
aS'high'
p4983
aS'acc'
p4984
aa(lp4985
S'high'
p4986
aS'low'
p4987
ag177
ag59
aS'big'
p4988
aS'med'
p4989
aS'acc'
p4990
aa(lp4991
S'high'
p4992
aS'low'
p4993
ag177
ag59
aS'big'
p4994
aS'high'
p4995
aS'acc'
p4996
aa(lp4997
S'high'
p4998
aS'low'
p4999
ag177
aS'more'
p5000
aS'small'
p5001
aS'high'
p5002
aS'acc'
p5003
aa(lp5004
S'high'
p5005
aS'low'
p5006
ag177
aS'more'
p5007
aS'med'
p5008
aS'med'
p5009
aS'acc'
p5010
aa(lp5011
S'high'
p5012
aS'low'
p5013
ag177
aS'more'
p5014
aS'med'
p5015
aS'high'
p5016
aS'acc'
p5017
aa(lp5018
S'high'
p5019
aS'low'
p5020
ag177
aS'more'
p5021
aS'big'
p5022
aS'med'
p5023
aS'acc'
p5024
aa(lp5025
S'high'
p5026
aS'low'
p5027
ag177
aS'more'
p5028
aS'big'
p5029
aS'high'
p5030
aS'acc'
p5031
aa(lp5032
S'high'
p5033
aS'low'
p5034
ag59
ag59
aS'small'
p5035
aS'high'
p5036
aS'acc'
p5037
aa(lp5038
S'high'
p5039
aS'low'
p5040
ag59
ag59
aS'med'
p5041
aS'med'
p5042
aS'acc'
p5043
aa(lp5044
S'high'
p5045
aS'low'
p5046
ag59
ag59
aS'med'
p5047
aS'high'
p5048
aS'acc'
p5049
aa(lp5050
S'high'
p5051
aS'low'
p5052
ag59
ag59
aS'big'
p5053
aS'med'
p5054
aS'acc'
p5055
aa(lp5056
S'high'
p5057
aS'low'
p5058
ag59
ag59
aS'big'
p5059
aS'high'
p5060
aS'acc'
p5061
aa(lp5062
S'high'
p5063
aS'low'
p5064
ag59
aS'more'
p5065
aS'small'
p5066
aS'high'
p5067
aS'acc'
p5068
aa(lp5069
S'high'
p5070
aS'low'
p5071
ag59
aS'more'
p5072
aS'med'
p5073
aS'med'
p5074
aS'acc'
p5075
aa(lp5076
S'high'
p5077
aS'low'
p5078
ag59
aS'more'
p5079
aS'med'
p5080
aS'high'
p5081
aS'acc'
p5082
aa(lp5083
S'high'
p5084
aS'low'
p5085
ag59
aS'more'
p5086
aS'big'
p5087
aS'med'
p5088
aS'acc'
p5089
aa(lp5090
S'high'
p5091
aS'low'
p5092
ag59
aS'more'
p5093
aS'big'
p5094
aS'high'
p5095
aS'acc'
p5096
aa(lp5097
S'high'
p5098
aS'low'
p5099
aS'5more'
p5100
ag59
aS'small'
p5101
aS'high'
p5102
aS'acc'
p5103
aa(lp5104
S'high'
p5105
aS'low'
p5106
aS'5more'
p5107
ag59
aS'med'
p5108
aS'med'
p5109
aS'acc'
p5110
aa(lp5111
S'high'
p5112
aS'low'
p5113
aS'5more'
p5114
ag59
aS'med'
p5115
aS'high'
p5116
aS'acc'
p5117
aa(lp5118
S'high'
p5119
aS'low'
p5120
aS'5more'
p5121
ag59
aS'big'
p5122
aS'med'
p5123
aS'acc'
p5124
aa(lp5125
S'high'
p5126
aS'low'
p5127
aS'5more'
p5128
ag59
aS'big'
p5129
aS'high'
p5130
aS'acc'
p5131
aa(lp5132
S'high'
p5133
aS'low'
p5134
aS'5more'
p5135
aS'more'
p5136
aS'small'
p5137
aS'high'
p5138
aS'acc'
p5139
aa(lp5140
S'high'
p5141
aS'low'
p5142
aS'5more'
p5143
aS'more'
p5144
aS'med'
p5145
aS'med'
p5146
aS'acc'
p5147
aa(lp5148
S'high'
p5149
aS'low'
p5150
aS'5more'
p5151
aS'more'
p5152
aS'med'
p5153
aS'high'
p5154
aS'acc'
p5155
aa(lp5156
S'high'
p5157
aS'low'
p5158
aS'5more'
p5159
aS'more'
p5160
aS'big'
p5161
aS'med'
p5162
aS'acc'
p5163
aa(lp5164
S'high'
p5165
aS'low'
p5166
aS'5more'
p5167
aS'more'
p5168
aS'big'
p5169
aS'high'
p5170
aS'acc'
p5171
aa(lp5172
S'med'
p5173
aS'vhigh'
p5174
ag4
ag59
aS'small'
p5175
aS'high'
p5176
aS'acc'
p5177
aa(lp5178
S'med'
p5179
aS'vhigh'
p5180
ag4
ag59
aS'med'
p5181
aS'high'
p5182
aS'acc'
p5183
aa(lp5184
S'med'
p5185
aS'vhigh'
p5186
ag4
ag59
aS'big'
p5187
aS'med'
p5188
aS'acc'
p5189
aa(lp5190
S'med'
p5191
aS'vhigh'
p5192
ag4
ag59
aS'big'
p5193
aS'high'
p5194
aS'acc'
p5195
aa(lp5196
S'med'
p5197
aS'vhigh'
p5198
ag4
aS'more'
p5199
aS'med'
p5200
aS'high'
p5201
aS'acc'
p5202
aa(lp5203
S'med'
p5204
aS'vhigh'
p5205
ag4
aS'more'
p5206
aS'big'
p5207
aS'med'
p5208
aS'acc'
p5209
aa(lp5210
S'med'
p5211
aS'vhigh'
p5212
ag4
aS'more'
p5213
aS'big'
p5214
aS'high'
p5215
aS'acc'
p5216
aa(lp5217
S'med'
p5218
aS'vhigh'
p5219
ag177
ag59
aS'small'
p5220
aS'high'
p5221
aS'acc'
p5222
aa(lp5223
S'med'
p5224
aS'vhigh'
p5225
ag177
ag59
aS'med'
p5226
aS'high'
p5227
aS'acc'
p5228
aa(lp5229
S'med'
p5230
aS'vhigh'
p5231
ag177
ag59
aS'big'
p5232
aS'med'
p5233
aS'acc'
p5234
aa(lp5235
S'med'
p5236
aS'vhigh'
p5237
ag177
ag59
aS'big'
p5238
aS'high'
p5239
aS'acc'
p5240
aa(lp5241
S'med'
p5242
aS'vhigh'
p5243
ag177
aS'more'
p5244
aS'small'
p5245
aS'high'
p5246
aS'acc'
p5247
aa(lp5248
S'med'
p5249
aS'vhigh'
p5250
ag177
aS'more'
p5251
aS'med'
p5252
aS'med'
p5253
aS'acc'
p5254
aa(lp5255
S'med'
p5256
aS'vhigh'
p5257
ag177
aS'more'
p5258
aS'med'
p5259
aS'high'
p5260
aS'acc'
p5261
aa(lp5262
S'med'
p5263
aS'vhigh'
p5264
ag59
ag4
aS'med'
p5265
aS'med'
p5266
aS'unacc'
p5267
aa(lp5268
S'med'
p5269
aS'vhigh'
p5270
ag59
ag4
aS'med'
p5271
aS'high'
p5272
aS'unacc'
p5273
aa(lp5274
S'med'
p5275
aS'vhigh'
p5276
ag59
ag4
aS'big'
p5277
aS'low'
p5278
aS'unacc'
p5279
aa(lp5280
S'med'
p5281
aS'vhigh'
p5282
ag59
ag4
aS'big'
p5283
aS'med'
p5284
aS'unacc'
p5285
aa(lp5286
S'med'
p5287
aS'vhigh'
p5288
ag59
ag4
aS'big'
p5289
aS'high'
p5290
aS'unacc'
p5291
aa(lp5292
S'med'
p5293
aS'vhigh'
p5294
ag59
ag59
aS'small'
p5295
aS'low'
p5296
aS'unacc'
p5297
aa(lp5298
S'med'
p5299
aS'vhigh'
p5300
ag59
ag59
aS'small'
p5301
aS'med'
p5302
aS'unacc'
p5303
aa(lp5304
S'med'
p5305
aS'vhigh'
p5306
ag59
ag59
aS'med'
p5307
aS'low'
p5308
aS'unacc'
p5309
aa(lp5310
S'med'
p5311
aS'vhigh'
p5312
ag59
ag59
aS'big'
p5313
aS'low'
p5314
aS'unacc'
p5315
aa(lp5316
S'med'
p5317
aS'vhigh'
p5318
ag59
aS'more'
p5319
aS'small'
p5320
aS'low'
p5321
aS'unacc'
p5322
aa(lp5323
S'med'
p5324
aS'vhigh'
p5325
ag59
aS'more'
p5326
aS'small'
p5327
aS'med'
p5328
aS'unacc'
p5329
aa(lp5330
S'med'
p5331
aS'vhigh'
p5332
ag59
aS'more'
p5333
aS'med'
p5334
aS'low'
p5335
aS'unacc'
p5336
aa(lp5337
S'med'
p5338
aS'vhigh'
p5339
ag59
aS'more'
p5340
aS'big'
p5341
aS'low'
p5342
aS'unacc'
p5343
aa(lp5344
S'med'
p5345
aS'vhigh'
p5346
aS'5more'
p5347
ag4
aS'small'
p5348
aS'low'
p5349
aS'unacc'
p5350
aa(lp5351
S'med'
p5352
aS'vhigh'
p5353
aS'5more'
p5354
ag4
aS'small'
p5355
aS'med'
p5356
aS'unacc'
p5357
aa(lp5358
S'med'
p5359
aS'vhigh'
p5360
aS'5more'
p5361
ag4
aS'small'
p5362
aS'high'
p5363
aS'unacc'
p5364
aa(lp5365
S'med'
p5366
aS'vhigh'
p5367
aS'5more'
p5368
ag4
aS'med'
p5369
aS'low'
p5370
aS'unacc'
p5371
aa(lp5372
S'med'
p5373
aS'vhigh'
p5374
aS'5more'
p5375
ag4
aS'med'
p5376
aS'med'
p5377
aS'unacc'
p5378
aa(lp5379
S'med'
p5380
aS'vhigh'
p5381
aS'5more'
p5382
ag4
aS'med'
p5383
aS'high'
p5384
aS'unacc'
p5385
aa(lp5386
S'med'
p5387
aS'vhigh'
p5388
aS'5more'
p5389
ag4
aS'big'
p5390
aS'low'
p5391
aS'unacc'
p5392
aa(lp5393
S'med'
p5394
aS'vhigh'
p5395
aS'5more'
p5396
ag4
aS'big'
p5397
aS'med'
p5398
aS'unacc'
p5399
aa(lp5400
S'med'
p5401
aS'vhigh'
p5402
aS'5more'
p5403
ag4
aS'big'
p5404
aS'high'
p5405
aS'unacc'
p5406
aa(lp5407
S'med'
p5408
aS'vhigh'
p5409
aS'5more'
p5410
ag59
aS'small'
p5411
aS'low'
p5412
aS'unacc'
p5413
aa(lp5414
S'med'
p5415
aS'vhigh'
p5416
aS'5more'
p5417
ag59
aS'small'
p5418
aS'med'
p5419
aS'unacc'
p5420
aa(lp5421
S'med'
p5422
aS'vhigh'
p5423
aS'5more'
p5424
ag59
aS'med'
p5425
aS'low'
p5426
aS'unacc'
p5427
aa(lp5428
S'med'
p5429
aS'vhigh'
p5430
aS'5more'
p5431
ag59
aS'big'
p5432
aS'low'
p5433
aS'unacc'
p5434
aa(lp5435
S'med'
p5436
aS'vhigh'
p5437
aS'5more'
p5438
aS'more'
p5439
aS'small'
p5440
aS'low'
p5441
aS'unacc'
p5442
aa(lp5443
S'med'
p5444
aS'vhigh'
p5445
aS'5more'
p5446
aS'more'
p5447
aS'small'
p5448
aS'med'
p5449
aS'unacc'
p5450
aa(lp5451
S'med'
p5452
aS'vhigh'
p5453
aS'5more'
p5454
aS'more'
p5455
aS'med'
p5456
aS'low'
p5457
aS'unacc'
p5458
aa(lp5459
S'med'
p5460
aS'vhigh'
p5461
aS'5more'
p5462
aS'more'
p5463
aS'big'
p5464
aS'low'
p5465
aS'unacc'
p5466
aa(lp5467
S'med'
p5468
aS'high'
p5469
ag4
ag4
aS'small'
p5470
aS'low'
p5471
aS'unacc'
p5472
aa(lp5473
S'med'
p5474
aS'high'
p5475
ag4
ag4
aS'small'
p5476
aS'med'
p5477
aS'unacc'
p5478
aa(lp5479
S'med'
p5480
aS'high'
p5481
ag4
ag4
aS'small'
p5482
aS'high'
p5483
aS'unacc'
p5484
aa(lp5485
S'med'
p5486
aS'high'
p5487
ag4
ag4
aS'med'
p5488
aS'low'
p5489
aS'unacc'
p5490
aa(lp5491
S'med'
p5492
aS'high'
p5493
ag4
ag4
aS'med'
p5494
aS'med'
p5495
aS'unacc'
p5496
aa(lp5497
S'med'
p5498
aS'high'
p5499
ag4
ag4
aS'med'
p5500
aS'high'
p5501
aS'unacc'
p5502
aa(lp5503
S'med'
p5504
aS'high'
p5505
ag4
ag4
aS'big'
p5506
aS'low'
p5507
aS'unacc'
p5508
aa(lp5509
S'med'
p5510
aS'high'
p5511
ag4
ag4
aS'big'
p5512
aS'med'
p5513
aS'unacc'
p5514
aa(lp5515
S'med'
p5516
aS'high'
p5517
ag4
ag4
aS'big'
p5518
aS'high'
p5519
aS'unacc'
p5520
aa(lp5521
S'med'
p5522
aS'high'
p5523
ag4
ag59
aS'small'
p5524
aS'low'
p5525
aS'unacc'
p5526
aa(lp5527
S'med'
p5528
aS'high'
p5529
ag4
ag59
aS'small'
p5530
aS'med'
p5531
aS'unacc'
p5532
aa(lp5533
S'med'
p5534
aS'high'
p5535
ag4
ag59
aS'med'
p5536
aS'low'
p5537
aS'unacc'
p5538
aa(lp5539
S'med'
p5540
aS'high'
p5541
ag4
ag59
aS'med'
p5542
aS'med'
p5543
aS'unacc'
p5544
aa(lp5545
S'med'
p5546
aS'high'
p5547
ag4
ag59
aS'big'
p5548
aS'low'
p5549
aS'unacc'
p5550
aa(lp5551
S'med'
p5552
aS'high'
p5553
ag4
aS'more'
p5554
aS'small'
p5555
aS'low'
p5556
aS'unacc'
p5557
aa(lp5558
S'med'
p5559
aS'high'
p5560
ag4
aS'more'
p5561
aS'small'
p5562
aS'med'
p5563
aS'unacc'
p5564
aa(lp5565
S'med'
p5566
aS'high'
p5567
ag4
aS'more'
p5568
aS'small'
p5569
aS'high'
p5570
aS'unacc'
p5571
aa(lp5572
S'med'
p5573
aS'high'
p5574
ag4
aS'more'
p5575
aS'med'
p5576
aS'low'
p5577
aS'unacc'
p5578
aa(lp5579
S'med'
p5580
aS'high'
p5581
ag4
aS'more'
p5582
aS'med'
p5583
aS'med'
p5584
aS'unacc'
p5585
aa(lp5586
S'med'
p5587
aS'high'
p5588
ag4
aS'more'
p5589
aS'big'
p5590
aS'low'
p5591
aS'unacc'
p5592
aa(lp5593
S'med'
p5594
aS'high'
p5595
ag177
ag4
aS'small'
p5596
aS'low'
p5597
aS'unacc'
p5598
aa(lp5599
S'med'
p5600
aS'high'
p5601
ag177
ag4
aS'small'
p5602
aS'med'
p5603
aS'unacc'
p5604
aa(lp5605
S'med'
p5606
aS'high'
p5607
ag177
ag4
aS'small'
p5608
aS'high'
p5609
aS'unacc'
p5610
aa(lp5611
S'med'
p5612
aS'high'
p5613
ag177
ag4
aS'med'
p5614
aS'low'
p5615
aS'unacc'
p5616
aa(lp5617
S'med'
p5618
aS'high'
p5619
ag177
ag4
aS'med'
p5620
aS'med'
p5621
aS'unacc'
p5622
aa(lp5623
S'med'
p5624
aS'high'
p5625
ag177
ag4
aS'med'
p5626
aS'high'
p5627
aS'unacc'
p5628
aa(lp5629
S'med'
p5630
aS'high'
p5631
ag177
ag4
aS'big'
p5632
aS'low'
p5633
aS'unacc'
p5634
aa(lp5635
S'med'
p5636
aS'high'
p5637
ag177
ag4
aS'big'
p5638
aS'med'
p5639
aS'unacc'
p5640
aa(lp5641
S'med'
p5642
aS'high'
p5643
ag177
ag4
aS'big'
p5644
aS'high'
p5645
aS'unacc'
p5646
aa(lp5647
S'med'
p5648
aS'high'
p5649
ag177
ag59
aS'small'
p5650
aS'low'
p5651
aS'unacc'
p5652
aa(lp5653
S'med'
p5654
aS'high'
p5655
ag177
ag59
aS'small'
p5656
aS'med'
p5657
aS'unacc'
p5658
aa(lp5659
S'med'
p5660
aS'high'
p5661
ag177
ag59
aS'med'
p5662
aS'low'
p5663
aS'unacc'
p5664
aa(lp5665
S'med'
p5666
aS'high'
p5667
ag177
ag59
aS'med'
p5668
aS'med'
p5669
aS'unacc'
p5670
aa(lp5671
S'med'
p5672
aS'high'
p5673
ag177
ag59
aS'big'
p5674
aS'low'
p5675
aS'unacc'
p5676
aa(lp5677
S'med'
p5678
aS'high'
p5679
ag177
aS'more'
p5680
aS'small'
p5681
aS'low'
p5682
aS'unacc'
p5683
aa(lp5684
S'med'
p5685
aS'high'
p5686
ag177
aS'more'
p5687
aS'small'
p5688
aS'med'
p5689
aS'unacc'
p5690
aa(lp5691
S'med'
p5692
aS'high'
p5693
ag177
aS'more'
p5694
aS'med'
p5695
aS'low'
p5696
aS'unacc'
p5697
aa(lp5698
S'med'
p5699
aS'high'
p5700
ag177
aS'more'
p5701
aS'big'
p5702
aS'low'
p5703
aS'unacc'
p5704
aa(lp5705
S'med'
p5706
aS'high'
p5707
ag59
ag4
aS'small'
p5708
aS'low'
p5709
aS'unacc'
p5710
aa(lp5711
S'med'
p5712
aS'high'
p5713
ag59
ag4
aS'small'
p5714
aS'med'
p5715
aS'unacc'
p5716
aa(lp5717
S'med'
p5718
aS'high'
p5719
ag59
ag4
aS'small'
p5720
aS'high'
p5721
aS'unacc'
p5722
aa(lp5723
S'med'
p5724
aS'high'
p5725
ag59
ag4
aS'med'
p5726
aS'low'
p5727
aS'unacc'
p5728
aa(lp5729
S'med'
p5730
aS'high'
p5731
ag59
ag4
aS'med'
p5732
aS'med'
p5733
aS'unacc'
p5734
aa(lp5735
S'med'
p5736
aS'high'
p5737
ag59
ag4
aS'med'
p5738
aS'high'
p5739
aS'unacc'
p5740
aa(lp5741
S'med'
p5742
aS'high'
p5743
ag59
ag4
aS'big'
p5744
aS'low'
p5745
aS'unacc'
p5746
aa(lp5747
S'med'
p5748
aS'high'
p5749
ag59
ag4
aS'big'
p5750
aS'med'
p5751
aS'unacc'
p5752
aa(lp5753
S'med'
p5754
aS'high'
p5755
ag59
ag4
aS'big'
p5756
aS'high'
p5757
aS'unacc'
p5758
aa(lp5759
S'med'
p5760
aS'high'
p5761
ag59
ag59
aS'small'
p5762
aS'low'
p5763
aS'unacc'
p5764
aa(lp5765
S'med'
p5766
aS'high'
p5767
ag59
ag59
aS'small'
p5768
aS'med'
p5769
aS'unacc'
p5770
aa(lp5771
S'med'
p5772
aS'high'
p5773
ag59
ag59
aS'small'
p5774
aS'high'
p5775
aS'acc'
p5776
aa(lp5777
S'med'
p5778
aS'high'
p5779
ag59
ag59
aS'med'
p5780
aS'low'
p5781
aS'unacc'
p5782
aa(lp5783
S'med'
p5784
aS'high'
p5785
ag59
ag59
aS'med'
p5786
aS'med'
p5787
aS'acc'
p5788
aa(lp5789
S'med'
p5790
aS'high'
p5791
ag59
ag59
aS'med'
p5792
aS'high'
p5793
aS'acc'
p5794
aa(lp5795
S'med'
p5796
aS'high'
p5797
ag59
ag59
aS'big'
p5798
aS'low'
p5799
aS'unacc'
p5800
aa(lp5801
S'med'
p5802
aS'high'
p5803
ag59
ag59
aS'big'
p5804
aS'med'
p5805
aS'acc'
p5806
aa(lp5807
S'med'
p5808
aS'high'
p5809
ag59
ag59
aS'big'
p5810
aS'high'
p5811
aS'acc'
p5812
aa(lp5813
S'med'
p5814
aS'high'
p5815
ag59
aS'more'
p5816
aS'small'
p5817
aS'low'
p5818
aS'unacc'
p5819
aa(lp5820
S'med'
p5821
aS'high'
p5822
ag59
aS'more'
p5823
aS'small'
p5824
aS'med'
p5825
aS'unacc'
p5826
aa(lp5827
S'med'
p5828
aS'high'
p5829
ag59
aS'more'
p5830
aS'small'
p5831
aS'high'
p5832
aS'acc'
p5833
aa(lp5834
S'med'
p5835
aS'high'
p5836
ag59
aS'more'
p5837
aS'med'
p5838
aS'low'
p5839
aS'unacc'
p5840
aa(lp5841
S'med'
p5842
aS'high'
p5843
ag59
aS'more'
p5844
aS'med'
p5845
aS'med'
p5846
aS'acc'
p5847
aa(lp5848
S'med'
p5849
aS'high'
p5850
ag59
aS'more'
p5851
aS'med'
p5852
aS'high'
p5853
aS'acc'
p5854
aa(lp5855
S'med'
p5856
aS'high'
p5857
ag59
aS'more'
p5858
aS'big'
p5859
aS'low'
p5860
aS'unacc'
p5861
aa(lp5862
S'med'
p5863
aS'high'
p5864
ag59
aS'more'
p5865
aS'big'
p5866
aS'med'
p5867
aS'acc'
p5868
aa(lp5869
S'med'
p5870
aS'high'
p5871
ag59
aS'more'
p5872
aS'big'
p5873
aS'high'
p5874
aS'acc'
p5875
aa(lp5876
S'med'
p5877
aS'high'
p5878
aS'5more'
p5879
ag4
aS'small'
p5880
aS'low'
p5881
aS'unacc'
p5882
aa(lp5883
S'med'
p5884
aS'high'
p5885
aS'5more'
p5886
ag4
aS'small'
p5887
aS'med'
p5888
aS'unacc'
p5889
aa(lp5890
S'med'
p5891
aS'high'
p5892
aS'5more'
p5893
ag4
aS'small'
p5894
aS'high'
p5895
aS'unacc'
p5896
aa(lp5897
S'med'
p5898
aS'high'
p5899
aS'5more'
p5900
ag4
aS'med'
p5901
aS'low'
p5902
aS'unacc'
p5903
aa(lp5904
S'med'
p5905
aS'high'
p5906
aS'5more'
p5907
ag4
aS'med'
p5908
aS'med'
p5909
aS'unacc'
p5910
aa(lp5911
S'med'
p5912
aS'high'
p5913
aS'5more'
p5914
ag4
aS'med'
p5915
aS'high'
p5916
aS'unacc'
p5917
aa(lp5918
S'med'
p5919
aS'high'
p5920
aS'5more'
p5921
ag4
aS'big'
p5922
aS'low'
p5923
aS'unacc'
p5924
aa(lp5925
S'med'
p5926
aS'high'
p5927
aS'5more'
p5928
ag4
aS'big'
p5929
aS'med'
p5930
aS'unacc'
p5931
aa(lp5932
S'med'
p5933
aS'high'
p5934
aS'5more'
p5935
ag4
aS'big'
p5936
aS'high'
p5937
aS'unacc'
p5938
aa(lp5939
S'med'
p5940
aS'high'
p5941
aS'5more'
p5942
ag59
aS'small'
p5943
aS'low'
p5944
aS'unacc'
p5945
aa(lp5946
S'med'
p5947
aS'high'
p5948
aS'5more'
p5949
ag59
aS'small'
p5950
aS'med'
p5951
aS'unacc'
p5952
aa(lp5953
S'med'
p5954
aS'high'
p5955
aS'5more'
p5956
ag59
aS'small'
p5957
aS'high'
p5958
aS'acc'
p5959
aa(lp5960
S'med'
p5961
aS'high'
p5962
aS'5more'
p5963
ag59
aS'med'
p5964
aS'low'
p5965
aS'unacc'
p5966
aa(lp5967
S'med'
p5968
aS'high'
p5969
aS'5more'
p5970
ag59
aS'med'
p5971
aS'med'
p5972
aS'acc'
p5973
aa(lp5974
S'med'
p5975
aS'high'
p5976
aS'5more'
p5977
ag59
aS'med'
p5978
aS'high'
p5979
aS'acc'
p5980
aa(lp5981
S'med'
p5982
aS'high'
p5983
aS'5more'
p5984
ag59
aS'big'
p5985
aS'low'
p5986
aS'unacc'
p5987
aa(lp5988
S'med'
p5989
aS'high'
p5990
aS'5more'
p5991
ag59
aS'big'
p5992
aS'med'
p5993
aS'acc'
p5994
aa(lp5995
S'med'
p5996
aS'high'
p5997
aS'5more'
p5998
ag59
aS'big'
p5999
aS'high'
p6000
aS'acc'
p6001
aa(lp6002
S'med'
p6003
aS'high'
p6004
aS'5more'
p6005
aS'more'
p6006
aS'small'
p6007
aS'low'
p6008
aS'unacc'
p6009
aa(lp6010
S'med'
p6011
aS'high'
p6012
aS'5more'
p6013
aS'more'
p6014
aS'small'
p6015
aS'med'
p6016
aS'unacc'
p6017
aa(lp6018
S'med'
p6019
aS'high'
p6020
aS'5more'
p6021
aS'more'
p6022
aS'small'
p6023
aS'high'
p6024
aS'acc'
p6025
aa(lp6026
S'med'
p6027
aS'high'
p6028
aS'5more'
p6029
aS'more'
p6030
aS'med'
p6031
aS'low'
p6032
aS'unacc'
p6033
aa(lp6034
S'med'
p6035
aS'high'
p6036
aS'5more'
p6037
aS'more'
p6038
aS'med'
p6039
aS'med'
p6040
aS'acc'
p6041
aa(lp6042
S'med'
p6043
aS'high'
p6044
aS'5more'
p6045
aS'more'
p6046
aS'med'
p6047
aS'high'
p6048
aS'acc'
p6049
aa(lp6050
S'med'
p6051
aS'high'
p6052
aS'5more'
p6053
aS'more'
p6054
aS'big'
p6055
aS'low'
p6056
aS'unacc'
p6057
aa(lp6058
S'med'
p6059
aS'high'
p6060
aS'5more'
p6061
aS'more'
p6062
aS'big'
p6063
aS'med'
p6064
aS'acc'
p6065
aa(lp6066
S'med'
p6067
aS'high'
p6068
aS'5more'
p6069
aS'more'
p6070
aS'big'
p6071
aS'high'
p6072
aS'acc'
p6073
aa(lp6074
S'med'
p6075
aS'med'
p6076
ag4
ag4
aS'small'
p6077
aS'low'
p6078
aS'unacc'
p6079
aa(lp6080
S'med'
p6081
aS'med'
p6082
ag4
ag4
aS'small'
p6083
aS'med'
p6084
aS'unacc'
p6085
aa(lp6086
S'med'
p6087
aS'med'
p6088
ag4
ag4
aS'small'
p6089
aS'high'
p6090
aS'unacc'
p6091
aa(lp6092
S'med'
p6093
aS'med'
p6094
ag4
ag4
aS'med'
p6095
aS'low'
p6096
aS'unacc'
p6097
aa(lp6098
S'med'
p6099
aS'med'
p6100
ag4
ag4
aS'med'
p6101
aS'med'
p6102
aS'unacc'
p6103
aa(lp6104
S'med'
p6105
aS'med'
p6106
ag4
ag4
aS'med'
p6107
aS'high'
p6108
aS'unacc'
p6109
aa(lp6110
S'med'
p6111
aS'med'
p6112
ag4
ag4
aS'big'
p6113
aS'low'
p6114
aS'unacc'
p6115
aa(lp6116
S'med'
p6117
aS'med'
p6118
ag4
ag4
aS'big'
p6119
aS'med'
p6120
aS'unacc'
p6121
aa(lp6122
S'med'
p6123
aS'med'
p6124
ag4
ag4
aS'big'
p6125
aS'high'
p6126
aS'unacc'
p6127
aa(lp6128
S'med'
p6129
aS'med'
p6130
ag4
ag59
aS'small'
p6131
aS'low'
p6132
aS'unacc'
p6133
aa(lp6134
S'med'
p6135
aS'med'
p6136
ag4
ag59
aS'small'
p6137
aS'med'
p6138
aS'acc'
p6139
aa(lp6140
S'med'
p6141
aS'med'
p6142
ag4
ag59
aS'small'
p6143
aS'high'
p6144
aS'acc'
p6145
aa(lp6146
S'med'
p6147
aS'med'
p6148
ag4
ag59
aS'med'
p6149
aS'low'
p6150
aS'unacc'
p6151
aa(lp6152
S'med'
p6153
aS'med'
p6154
ag4
ag59
aS'med'
p6155
aS'med'
p6156
aS'acc'
p6157
aa(lp6158
S'med'
p6159
aS'med'
p6160
ag4
ag59
aS'med'
p6161
aS'high'
p6162
aS'acc'
p6163
aa(lp6164
S'med'
p6165
aS'med'
p6166
ag4
ag59
aS'big'
p6167
aS'low'
p6168
aS'unacc'
p6169
aa(lp6170
S'med'
p6171
aS'med'
p6172
ag4
ag59
aS'big'
p6173
aS'med'
p6174
aS'acc'
p6175
aa(lp6176
S'med'
p6177
aS'med'
p6178
ag4
ag59
aS'big'
p6179
aS'high'
p6180
aS'vgood'
p6181
aa(lp6182
S'med'
p6183
aS'med'
p6184
ag4
aS'more'
p6185
aS'small'
p6186
aS'low'
p6187
aS'unacc'
p6188
aa(lp6189
S'med'
p6190
aS'med'
p6191
ag4
aS'more'
p6192
aS'small'
p6193
aS'med'
p6194
aS'unacc'
p6195
aa(lp6196
S'med'
p6197
aS'med'
p6198
ag4
aS'more'
p6199
aS'small'
p6200
aS'high'
p6201
aS'unacc'
p6202
aa(lp6203
S'med'
p6204
aS'med'
p6205
ag4
aS'more'
p6206
aS'med'
p6207
aS'low'
p6208
aS'unacc'
p6209
aa(lp6210
S'med'
p6211
aS'med'
p6212
ag4
aS'more'
p6213
aS'med'
p6214
aS'med'
p6215
aS'acc'
p6216
aa(lp6217
S'med'
p6218
aS'med'
p6219
ag4
aS'more'
p6220
aS'med'
p6221
aS'high'
p6222
aS'acc'
p6223
aa(lp6224
S'med'
p6225
aS'med'
p6226
ag4
aS'more'
p6227
aS'big'
p6228
aS'low'
p6229
aS'unacc'
p6230
aa(lp6231
S'med'
p6232
aS'med'
p6233
ag4
aS'more'
p6234
aS'big'
p6235
aS'med'
p6236
aS'acc'
p6237
aa(lp6238
S'med'
p6239
aS'med'
p6240
ag4
aS'more'
p6241
aS'big'
p6242
aS'high'
p6243
aS'vgood'
p6244
aa(lp6245
S'med'
p6246
aS'med'
p6247
ag177
ag4
aS'small'
p6248
aS'low'
p6249
aS'unacc'
p6250
aa(lp6251
S'med'
p6252
aS'med'
p6253
ag177
ag4
aS'small'
p6254
aS'med'
p6255
aS'unacc'
p6256
aa(lp6257
S'med'
p6258
aS'med'
p6259
ag177
ag4
aS'small'
p6260
aS'high'
p6261
aS'unacc'
p6262
aa(lp6263
S'med'
p6264
aS'med'
p6265
ag177
ag4
aS'med'
p6266
aS'low'
p6267
aS'unacc'
p6268
aa(lp6269
S'med'
p6270
aS'med'
p6271
ag177
ag4
aS'med'
p6272
aS'med'
p6273
aS'unacc'
p6274
aa(lp6275
S'med'
p6276
aS'med'
p6277
ag177
ag4
aS'med'
p6278
aS'high'
p6279
aS'unacc'
p6280
aa(lp6281
S'med'
p6282
aS'med'
p6283
ag177
ag4
aS'big'
p6284
aS'low'
p6285
aS'unacc'
p6286
aa(lp6287
S'med'
p6288
aS'med'
p6289
ag177
ag4
aS'big'
p6290
aS'med'
p6291
aS'unacc'
p6292
aa(lp6293
S'med'
p6294
aS'med'
p6295
ag177
ag4
aS'big'
p6296
aS'high'
p6297
aS'unacc'
p6298
aa(lp6299
S'med'
p6300
aS'med'
p6301
ag177
ag59
aS'small'
p6302
aS'low'
p6303
aS'unacc'
p6304
aa(lp6305
S'med'
p6306
aS'med'
p6307
ag177
ag59
aS'small'
p6308
aS'med'
p6309
aS'acc'
p6310
aa(lp6311
S'med'
p6312
aS'med'
p6313
ag177
ag59
aS'small'
p6314
aS'high'
p6315
aS'acc'
p6316
aa(lp6317
S'med'
p6318
aS'med'
p6319
ag177
ag59
aS'med'
p6320
aS'low'
p6321
aS'unacc'
p6322
aa(lp6323
S'med'
p6324
aS'med'
p6325
ag177
ag59
aS'med'
p6326
aS'med'
p6327
aS'acc'
p6328
aa(lp6329
S'med'
p6330
aS'med'
p6331
ag177
ag59
aS'med'
p6332
aS'high'
p6333
aS'acc'
p6334
aa(lp6335
S'med'
p6336
aS'med'
p6337
ag177
ag59
aS'big'
p6338
aS'low'
p6339
aS'unacc'
p6340
aa(lp6341
S'med'
p6342
aS'med'
p6343
ag177
ag59
aS'big'
p6344
aS'med'
p6345
aS'acc'
p6346
aa(lp6347
S'med'
p6348
aS'med'
p6349
ag177
ag59
aS'big'
p6350
aS'high'
p6351
aS'vgood'
p6352
aa(lp6353
S'med'
p6354
aS'med'
p6355
ag177
aS'more'
p6356
aS'small'
p6357
aS'low'
p6358
aS'unacc'
p6359
aa(lp6360
S'med'
p6361
aS'med'
p6362
ag177
aS'more'
p6363
aS'small'
p6364
aS'med'
p6365
aS'acc'
p6366
aa(lp6367
S'med'
p6368
aS'med'
p6369
ag177
aS'more'
p6370
aS'small'
p6371
aS'high'
p6372
aS'acc'
p6373
aa(lp6374
S'med'
p6375
aS'med'
p6376
ag177
aS'more'
p6377
aS'med'
p6378
aS'low'
p6379
aS'unacc'
p6380
aa(lp6381
S'med'
p6382
aS'med'
p6383
ag177
aS'more'
p6384
aS'med'
p6385
aS'med'
p6386
aS'acc'
p6387
aa(lp6388
S'med'
p6389
aS'med'
p6390
ag177
aS'more'
p6391
aS'med'
p6392
aS'high'
p6393
aS'vgood'
p6394
aa(lp6395
S'med'
p6396
aS'med'
p6397
ag177
aS'more'
p6398
aS'big'
p6399
aS'low'
p6400
aS'unacc'
p6401
aa(lp6402
S'med'
p6403
aS'med'
p6404
ag177
aS'more'
p6405
aS'big'
p6406
aS'med'
p6407
aS'acc'
p6408
aa(lp6409
S'med'
p6410
aS'med'
p6411
ag177
aS'more'
p6412
aS'big'
p6413
aS'high'
p6414
aS'vgood'
p6415
aa(lp6416
S'med'
p6417
aS'med'
p6418
ag59
ag4
aS'small'
p6419
aS'low'
p6420
aS'unacc'
p6421
aa(lp6422
S'med'
p6423
aS'med'
p6424
ag59
ag4
aS'small'
p6425
aS'med'
p6426
aS'unacc'
p6427
aa(lp6428
S'med'
p6429
aS'med'
p6430
ag59
ag4
aS'small'
p6431
aS'high'
p6432
aS'unacc'
p6433
aa(lp6434
S'med'
p6435
aS'med'
p6436
ag59
ag4
aS'med'
p6437
aS'low'
p6438
aS'unacc'
p6439
aa(lp6440
S'med'
p6441
aS'med'
p6442
ag59
ag4
aS'med'
p6443
aS'med'
p6444
aS'unacc'
p6445
aa(lp6446
S'med'
p6447
aS'med'
p6448
ag59
ag4
aS'med'
p6449
aS'high'
p6450
aS'unacc'
p6451
aa(lp6452
S'med'
p6453
aS'med'
p6454
ag59
ag4
aS'big'
p6455
aS'low'
p6456
aS'unacc'
p6457
aa(lp6458
S'med'
p6459
aS'med'
p6460
ag59
ag4
aS'big'
p6461
aS'med'
p6462
aS'unacc'
p6463
aa(lp6464
S'med'
p6465
aS'med'
p6466
ag59
ag4
aS'big'
p6467
aS'high'
p6468
aS'unacc'
p6469
aa(lp6470
S'med'
p6471
aS'med'
p6472
ag59
ag59
aS'small'
p6473
aS'low'
p6474
aS'unacc'
p6475
aa(lp6476
S'med'
p6477
aS'med'
p6478
ag59
ag59
aS'small'
p6479
aS'med'
p6480
aS'acc'
p6481
aa(lp6482
S'med'
p6483
aS'med'
p6484
ag59
ag59
aS'small'
p6485
aS'high'
p6486
aS'acc'
p6487
aa(lp6488
S'med'
p6489
aS'med'
p6490
ag59
ag59
aS'med'
p6491
aS'low'
p6492
aS'unacc'
p6493
aa(lp6494
S'med'
p6495
aS'med'
p6496
ag59
ag59
aS'med'
p6497
aS'med'
p6498
aS'acc'
p6499
aa(lp6500
S'med'
p6501
aS'med'
p6502
ag59
ag59
aS'med'
p6503
aS'high'
p6504
aS'vgood'
p6505
aa(lp6506
S'med'
p6507
aS'med'
p6508
ag59
ag59
aS'big'
p6509
aS'low'
p6510
aS'unacc'
p6511
aa(lp6512
S'med'
p6513
aS'med'
p6514
ag59
ag59
aS'big'
p6515
aS'med'
p6516
aS'acc'
p6517
aa(lp6518
S'med'
p6519
aS'med'
p6520
ag59
ag59
aS'big'
p6521
aS'high'
p6522
aS'vgood'
p6523
aa(lp6524
S'med'
p6525
aS'med'
p6526
ag59
aS'more'
p6527
aS'small'
p6528
aS'low'
p6529
aS'unacc'
p6530
aa(lp6531
S'med'
p6532
aS'med'
p6533
ag59
aS'more'
p6534
aS'small'
p6535
aS'med'
p6536
aS'acc'
p6537
aa(lp6538
S'med'
p6539
aS'med'
p6540
ag59
aS'more'
p6541
aS'small'
p6542
aS'high'
p6543
aS'acc'
p6544
aa(lp6545
S'med'
p6546
aS'med'
p6547
ag59
aS'more'
p6548
aS'med'
p6549
aS'low'
p6550
aS'unacc'
p6551
aa(lp6552
S'med'
p6553
aS'med'
p6554
ag59
aS'more'
p6555
aS'med'
p6556
aS'med'
p6557
aS'acc'
p6558
aa(lp6559
S'med'
p6560
aS'med'
p6561
ag59
aS'more'
p6562
aS'med'
p6563
aS'high'
p6564
aS'vgood'
p6565
aa(lp6566
S'med'
p6567
aS'med'
p6568
ag59
aS'more'
p6569
aS'big'
p6570
aS'low'
p6571
aS'unacc'
p6572
aa(lp6573
S'med'
p6574
aS'med'
p6575
ag59
aS'more'
p6576
aS'big'
p6577
aS'med'
p6578
aS'acc'
p6579
aa(lp6580
S'med'
p6581
aS'med'
p6582
ag59
aS'more'
p6583
aS'big'
p6584
aS'high'
p6585
aS'vgood'
p6586
aa(lp6587
S'med'
p6588
aS'med'
p6589
aS'5more'
p6590
ag4
aS'small'
p6591
aS'low'
p6592
aS'unacc'
p6593
aa(lp6594
S'med'
p6595
aS'med'
p6596
aS'5more'
p6597
ag4
aS'small'
p6598
aS'med'
p6599
aS'unacc'
p6600
aa(lp6601
S'med'
p6602
aS'med'
p6603
aS'5more'
p6604
ag4
aS'small'
p6605
aS'high'
p6606
aS'unacc'
p6607
aa(lp6608
S'med'
p6609
aS'med'
p6610
aS'5more'
p6611
ag4
aS'med'
p6612
aS'low'
p6613
aS'unacc'
p6614
aa(lp6615
S'med'
p6616
aS'med'
p6617
aS'5more'
p6618
ag4
aS'med'
p6619
aS'med'
p6620
aS'unacc'
p6621
aa(lp6622
S'med'
p6623
aS'med'
p6624
aS'5more'
p6625
ag4
aS'med'
p6626
aS'high'
p6627
aS'unacc'
p6628
aa(lp6629
S'med'
p6630
aS'med'
p6631
aS'5more'
p6632
ag4
aS'big'
p6633
aS'low'
p6634
aS'unacc'
p6635
aa(lp6636
S'med'
p6637
aS'med'
p6638
aS'5more'
p6639
ag4
aS'big'
p6640
aS'med'
p6641
aS'unacc'
p6642
aa(lp6643
S'med'
p6644
aS'med'
p6645
aS'5more'
p6646
ag4
aS'big'
p6647
aS'high'
p6648
aS'unacc'
p6649
aa(lp6650
S'med'
p6651
aS'med'
p6652
aS'5more'
p6653
ag59
aS'small'
p6654
aS'low'
p6655
aS'unacc'
p6656
aa(lp6657
S'med'
p6658
aS'med'
p6659
aS'5more'
p6660
ag59
aS'small'
p6661
aS'med'
p6662
aS'acc'
p6663
aa(lp6664
S'med'
p6665
aS'med'
p6666
aS'5more'
p6667
ag59
aS'small'
p6668
aS'high'
p6669
aS'acc'
p6670
aa(lp6671
S'med'
p6672
aS'med'
p6673
aS'5more'
p6674
ag59
aS'med'
p6675
aS'low'
p6676
aS'unacc'
p6677
aa(lp6678
S'med'
p6679
aS'med'
p6680
aS'5more'
p6681
ag59
aS'med'
p6682
aS'med'
p6683
aS'acc'
p6684
aa(lp6685
S'med'
p6686
aS'med'
p6687
aS'5more'
p6688
ag59
aS'med'
p6689
aS'high'
p6690
aS'vgood'
p6691
aa(lp6692
S'med'
p6693
aS'med'
p6694
aS'5more'
p6695
ag59
aS'big'
p6696
aS'low'
p6697
aS'unacc'
p6698
aa(lp6699
S'med'
p6700
aS'med'
p6701
aS'5more'
p6702
ag59
aS'big'
p6703
aS'med'
p6704
aS'acc'
p6705
aa(lp6706
S'med'
p6707
aS'med'
p6708
aS'5more'
p6709
ag59
aS'big'
p6710
aS'high'
p6711
aS'vgood'
p6712
aa(lp6713
S'med'
p6714
aS'med'
p6715
aS'5more'
p6716
aS'more'
p6717
aS'small'
p6718
aS'low'
p6719
aS'unacc'
p6720
aa(lp6721
S'med'
p6722
aS'med'
p6723
aS'5more'
p6724
aS'more'
p6725
aS'small'
p6726
aS'med'
p6727
aS'acc'
p6728
aa(lp6729
S'med'
p6730
aS'med'
p6731
aS'5more'
p6732
aS'more'
p6733
aS'small'
p6734
aS'high'
p6735
aS'acc'
p6736
aa(lp6737
S'med'
p6738
aS'med'
p6739
aS'5more'
p6740
aS'more'
p6741
aS'med'
p6742
aS'low'
p6743
aS'unacc'
p6744
aa(lp6745
S'med'
p6746
aS'med'
p6747
aS'5more'
p6748
aS'more'
p6749
aS'med'
p6750
aS'med'
p6751
aS'acc'
p6752
aa(lp6753
S'med'
p6754
aS'med'
p6755
aS'5more'
p6756
aS'more'
p6757
aS'med'
p6758
aS'high'
p6759
aS'vgood'
p6760
aa(lp6761
S'med'
p6762
aS'med'
p6763
aS'5more'
p6764
aS'more'
p6765
aS'big'
p6766
aS'low'
p6767
aS'unacc'
p6768
aa(lp6769
S'med'
p6770
aS'med'
p6771
aS'5more'
p6772
aS'more'
p6773
aS'big'
p6774
aS'med'
p6775
aS'acc'
p6776
aa(lp6777
S'med'
p6778
aS'med'
p6779
aS'5more'
p6780
aS'more'
p6781
aS'big'
p6782
aS'high'
p6783
aS'vgood'
p6784
aa(lp6785
S'med'
p6786
aS'low'
p6787
ag4
ag4
aS'small'
p6788
aS'low'
p6789
aS'unacc'
p6790
aa(lp6791
S'med'
p6792
aS'low'
p6793
ag4
ag4
aS'small'
p6794
aS'med'
p6795
aS'unacc'
p6796
aa(lp6797
S'med'
p6798
aS'low'
p6799
ag4
ag4
aS'small'
p6800
aS'high'
p6801
aS'unacc'
p6802
aa(lp6803
S'med'
p6804
aS'low'
p6805
ag4
ag4
aS'med'
p6806
aS'low'
p6807
aS'unacc'
p6808
aa(lp6809
S'med'
p6810
aS'low'
p6811
ag4
ag4
aS'med'
p6812
aS'med'
p6813
aS'unacc'
p6814
aa(lp6815
S'med'
p6816
aS'low'
p6817
ag4
ag4
aS'med'
p6818
aS'high'
p6819
aS'unacc'
p6820
aa(lp6821
S'med'
p6822
aS'low'
p6823
ag4
ag4
aS'big'
p6824
aS'low'
p6825
aS'unacc'
p6826
aa(lp6827
S'med'
p6828
aS'low'
p6829
ag4
ag4
aS'big'
p6830
aS'med'
p6831
aS'unacc'
p6832
aa(lp6833
S'med'
p6834
aS'low'
p6835
ag4
ag4
aS'big'
p6836
aS'high'
p6837
aS'unacc'
p6838
aa(lp6839
S'med'
p6840
aS'low'
p6841
ag4
ag59
aS'small'
p6842
aS'low'
p6843
aS'unacc'
p6844
aa(lp6845
S'med'
p6846
aS'low'
p6847
ag4
ag59
aS'small'
p6848
aS'med'
p6849
aS'acc'
p6850
aa(lp6851
S'med'
p6852
aS'low'
p6853
ag4
ag59
aS'small'
p6854
aS'high'
p6855
aS'good'
p6856
aa(lp6857
S'med'
p6858
aS'low'
p6859
ag4
ag59
aS'med'
p6860
aS'low'
p6861
aS'unacc'
p6862
aa(lp6863
S'med'
p6864
aS'low'
p6865
ag4
ag59
aS'med'
p6866
aS'med'
p6867
aS'acc'
p6868
aa(lp6869
S'med'
p6870
aS'low'
p6871
ag4
ag59
aS'med'
p6872
aS'high'
p6873
aS'good'
p6874
aa(lp6875
S'med'
p6876
aS'low'
p6877
ag4
ag59
aS'big'
p6878
aS'low'
p6879
aS'unacc'
p6880
aa(lp6881
S'med'
p6882
aS'low'
p6883
ag4
ag59
aS'big'
p6884
aS'med'
p6885
aS'good'
p6886
aa(lp6887
S'med'
p6888
aS'low'
p6889
ag4
ag59
aS'big'
p6890
aS'high'
p6891
aS'vgood'
p6892
aa(lp6893
S'med'
p6894
aS'low'
p6895
ag4
aS'more'
p6896
aS'small'
p6897
aS'low'
p6898
aS'unacc'
p6899
aa(lp6900
S'med'
p6901
aS'low'
p6902
ag4
aS'more'
p6903
aS'small'
p6904
aS'med'
p6905
aS'unacc'
p6906
aa(lp6907
S'med'
p6908
aS'low'
p6909
ag4
aS'more'
p6910
aS'small'
p6911
aS'high'
p6912
aS'unacc'
p6913
aa(lp6914
S'med'
p6915
aS'low'
p6916
ag4
aS'more'
p6917
aS'med'
p6918
aS'low'
p6919
aS'unacc'
p6920
aa(lp6921
S'med'
p6922
aS'low'
p6923
ag4
aS'more'
p6924
aS'med'
p6925
aS'med'
p6926
aS'acc'
p6927
aa(lp6928
S'med'
p6929
aS'low'
p6930
ag4
aS'more'
p6931
aS'med'
p6932
aS'high'
p6933
aS'good'
p6934
aa(lp6935
S'med'
p6936
aS'low'
p6937
ag4
aS'more'
p6938
aS'big'
p6939
aS'low'
p6940
aS'unacc'
p6941
aa(lp6942
S'med'
p6943
aS'low'
p6944
ag4
aS'more'
p6945
aS'big'
p6946
aS'med'
p6947
aS'good'
p6948
aa(lp6949
S'med'
p6950
aS'low'
p6951
ag4
aS'more'
p6952
aS'big'
p6953
aS'high'
p6954
aS'vgood'
p6955
aa(lp6956
S'med'
p6957
aS'low'
p6958
ag177
ag4
aS'small'
p6959
aS'low'
p6960
aS'unacc'
p6961
aa(lp6962
S'med'
p6963
aS'low'
p6964
ag177
ag4
aS'small'
p6965
aS'med'
p6966
aS'unacc'
p6967
aa(lp6968
S'med'
p6969
aS'low'
p6970
ag177
ag4
aS'small'
p6971
aS'high'
p6972
aS'unacc'
p6973
aa(lp6974
S'med'
p6975
aS'low'
p6976
ag177
ag4
aS'med'
p6977
aS'low'
p6978
aS'unacc'
p6979
aa(lp6980
S'med'
p6981
aS'low'
p6982
ag177
ag4
aS'med'
p6983
aS'med'
p6984
aS'unacc'
p6985
aa(lp6986
S'med'
p6987
aS'low'
p6988
ag177
ag4
aS'med'
p6989
aS'high'
p6990
aS'unacc'
p6991
aa(lp6992
S'med'
p6993
aS'low'
p6994
ag177
ag4
aS'big'
p6995
aS'low'
p6996
aS'unacc'
p6997
aa(lp6998
S'med'
p6999
aS'low'
p7000
ag177
ag4
aS'big'
p7001
aS'med'
p7002
aS'unacc'
p7003
aa(lp7004
S'med'
p7005
aS'low'
p7006
ag177
ag4
aS'big'
p7007
aS'high'
p7008
aS'unacc'
p7009
aa(lp7010
S'med'
p7011
aS'low'
p7012
ag177
ag59
aS'small'
p7013
aS'low'
p7014
aS'unacc'
p7015
aa(lp7016
S'med'
p7017
aS'low'
p7018
ag177
ag59
aS'small'
p7019
aS'med'
p7020
aS'acc'
p7021
aa(lp7022
S'med'
p7023
aS'low'
p7024
ag177
ag59
aS'small'
p7025
aS'high'
p7026
aS'good'
p7027
aa(lp7028
S'med'
p7029
aS'low'
p7030
ag177
ag59
aS'med'
p7031
aS'low'
p7032
aS'unacc'
p7033
aa(lp7034
S'med'
p7035
aS'low'
p7036
ag177
ag59
aS'med'
p7037
aS'med'
p7038
aS'acc'
p7039
aa(lp7040
S'med'
p7041
aS'low'
p7042
ag177
ag59
aS'med'
p7043
aS'high'
p7044
aS'good'
p7045
aa(lp7046
S'med'
p7047
aS'low'
p7048
ag177
ag59
aS'big'
p7049
aS'low'
p7050
aS'unacc'
p7051
aa(lp7052
S'med'
p7053
aS'low'
p7054
ag177
ag59
aS'big'
p7055
aS'med'
p7056
aS'good'
p7057
aa(lp7058
S'med'
p7059
aS'low'
p7060
ag177
ag59
aS'big'
p7061
aS'high'
p7062
aS'vgood'
p7063
aa(lp7064
S'med'
p7065
aS'low'
p7066
ag177
aS'more'
p7067
aS'small'
p7068
aS'low'
p7069
aS'unacc'
p7070
aa(lp7071
S'med'
p7072
aS'low'
p7073
ag177
aS'more'
p7074
aS'small'
p7075
aS'med'
p7076
aS'acc'
p7077
aa(lp7078
S'med'
p7079
aS'low'
p7080
ag177
aS'more'
p7081
aS'small'
p7082
aS'high'
p7083
aS'good'
p7084
aa(lp7085
S'med'
p7086
aS'low'
p7087
ag177
aS'more'
p7088
aS'med'
p7089
aS'low'
p7090
aS'unacc'
p7091
aa(lp7092
S'med'
p7093
aS'low'
p7094
ag177
aS'more'
p7095
aS'med'
p7096
aS'med'
p7097
aS'good'
p7098
aa(lp7099
S'med'
p7100
aS'low'
p7101
ag177
aS'more'
p7102
aS'med'
p7103
aS'high'
p7104
aS'vgood'
p7105
aa(lp7106
S'med'
p7107
aS'low'
p7108
ag177
aS'more'
p7109
aS'big'
p7110
aS'low'
p7111
aS'unacc'
p7112
aa(lp7113
S'med'
p7114
aS'low'
p7115
ag177
aS'more'
p7116
aS'big'
p7117
aS'med'
p7118
aS'good'
p7119
aa(lp7120
S'med'
p7121
aS'low'
p7122
ag177
aS'more'
p7123
aS'big'
p7124
aS'high'
p7125
aS'vgood'
p7126
aa(lp7127
S'med'
p7128
aS'low'
p7129
ag59
ag4
aS'small'
p7130
aS'low'
p7131
aS'unacc'
p7132
aa(lp7133
S'med'
p7134
aS'low'
p7135
ag59
ag4
aS'small'
p7136
aS'med'
p7137
aS'unacc'
p7138
aa(lp7139
S'med'
p7140
aS'low'
p7141
ag59
ag4
aS'small'
p7142
aS'high'
p7143
aS'unacc'
p7144
aa(lp7145
S'med'
p7146
aS'low'
p7147
ag59
ag4
aS'med'
p7148
aS'low'
p7149
aS'unacc'
p7150
aa(lp7151
S'med'
p7152
aS'low'
p7153
ag59
ag4
aS'med'
p7154
aS'med'
p7155
aS'unacc'
p7156
aa(lp7157
S'med'
p7158
aS'low'
p7159
ag59
ag4
aS'med'
p7160
aS'high'
p7161
aS'unacc'
p7162
aa(lp7163
S'med'
p7164
aS'low'
p7165
ag59
ag4
aS'big'
p7166
aS'low'
p7167
aS'unacc'
p7168
aa(lp7169
S'med'
p7170
aS'low'
p7171
ag59
ag4
aS'big'
p7172
aS'med'
p7173
aS'unacc'
p7174
aa(lp7175
S'med'
p7176
aS'low'
p7177
ag59
ag4
aS'big'
p7178
aS'high'
p7179
aS'unacc'
p7180
aa(lp7181
S'med'
p7182
aS'low'
p7183
ag59
ag59
aS'small'
p7184
aS'low'
p7185
aS'unacc'
p7186
aa(lp7187
S'med'
p7188
aS'low'
p7189
ag59
ag59
aS'small'
p7190
aS'med'
p7191
aS'acc'
p7192
aa(lp7193
S'med'
p7194
aS'low'
p7195
ag59
ag59
aS'small'
p7196
aS'high'
p7197
aS'good'
p7198
aa(lp7199
S'med'
p7200
aS'low'
p7201
ag59
ag59
aS'med'
p7202
aS'low'
p7203
aS'unacc'
p7204
aa(lp7205
S'med'
p7206
aS'low'
p7207
ag59
ag59
aS'med'
p7208
aS'med'
p7209
aS'good'
p7210
aa(lp7211
S'med'
p7212
aS'low'
p7213
ag59
ag59
aS'med'
p7214
aS'high'
p7215
aS'vgood'
p7216
aa(lp7217
S'med'
p7218
aS'low'
p7219
ag59
ag59
aS'big'
p7220
aS'low'
p7221
aS'unacc'
p7222
aa(lp7223
S'med'
p7224
aS'low'
p7225
ag59
ag59
aS'big'
p7226
aS'med'
p7227
aS'good'
p7228
aa(lp7229
S'med'
p7230
aS'low'
p7231
ag59
ag59
aS'big'
p7232
aS'high'
p7233
aS'vgood'
p7234
aa(lp7235
S'med'
p7236
aS'low'
p7237
ag59
aS'more'
p7238
aS'small'
p7239
aS'low'
p7240
aS'unacc'
p7241
aa(lp7242
S'med'
p7243
aS'low'
p7244
ag59
aS'more'
p7245
aS'small'
p7246
aS'med'
p7247
aS'acc'
p7248
aa(lp7249
S'med'
p7250
aS'low'
p7251
ag59
aS'more'
p7252
aS'small'
p7253
aS'high'
p7254
aS'good'
p7255
aa(lp7256
S'med'
p7257
aS'low'
p7258
ag59
aS'more'
p7259
aS'med'
p7260
aS'low'
p7261
aS'unacc'
p7262
aa(lp7263
S'med'
p7264
aS'low'
p7265
ag59
aS'more'
p7266
aS'med'
p7267
aS'med'
p7268
aS'good'
p7269
aa(lp7270
S'med'
p7271
aS'low'
p7272
ag59
aS'more'
p7273
aS'med'
p7274
aS'high'
p7275
aS'vgood'
p7276
aa(lp7277
S'med'
p7278
aS'low'
p7279
ag59
aS'more'
p7280
aS'big'
p7281
aS'low'
p7282
aS'unacc'
p7283
aa(lp7284
S'med'
p7285
aS'low'
p7286
ag59
aS'more'
p7287
aS'big'
p7288
aS'med'
p7289
aS'good'
p7290
aa(lp7291
S'med'
p7292
aS'low'
p7293
ag59
aS'more'
p7294
aS'big'
p7295
aS'high'
p7296
aS'vgood'
p7297
aa(lp7298
S'med'
p7299
aS'low'
p7300
aS'5more'
p7301
ag4
aS'small'
p7302
aS'low'
p7303
aS'unacc'
p7304
aa(lp7305
S'med'
p7306
aS'low'
p7307
aS'5more'
p7308
ag4
aS'small'
p7309
aS'med'
p7310
aS'unacc'
p7311
aa(lp7312
S'med'
p7313
aS'low'
p7314
aS'5more'
p7315
ag4
aS'small'
p7316
aS'high'
p7317
aS'unacc'
p7318
aa(lp7319
S'med'
p7320
aS'low'
p7321
aS'5more'
p7322
ag4
aS'med'
p7323
aS'low'
p7324
aS'unacc'
p7325
aa(lp7326
S'med'
p7327
aS'low'
p7328
aS'5more'
p7329
ag4
aS'med'
p7330
aS'med'
p7331
aS'unacc'
p7332
aa(lp7333
S'med'
p7334
aS'low'
p7335
aS'5more'
p7336
ag4
aS'med'
p7337
aS'high'
p7338
aS'unacc'
p7339
aa(lp7340
S'med'
p7341
aS'low'
p7342
aS'5more'
p7343
ag4
aS'big'
p7344
aS'low'
p7345
aS'unacc'
p7346
aa(lp7347
S'med'
p7348
aS'low'
p7349
aS'5more'
p7350
ag4
aS'big'
p7351
aS'med'
p7352
aS'unacc'
p7353
aa(lp7354
S'med'
p7355
aS'low'
p7356
aS'5more'
p7357
ag4
aS'big'
p7358
aS'high'
p7359
aS'unacc'
p7360
aa(lp7361
S'med'
p7362
aS'low'
p7363
aS'5more'
p7364
ag59
aS'small'
p7365
aS'low'
p7366
aS'unacc'
p7367
aa(lp7368
S'med'
p7369
aS'low'
p7370
aS'5more'
p7371
ag59
aS'small'
p7372
aS'med'
p7373
aS'acc'
p7374
aa(lp7375
S'med'
p7376
aS'low'
p7377
aS'5more'
p7378
ag59
aS'small'
p7379
aS'high'
p7380
aS'good'
p7381
aa(lp7382
S'med'
p7383
aS'low'
p7384
aS'5more'
p7385
ag59
aS'med'
p7386
aS'low'
p7387
aS'unacc'
p7388
aa(lp7389
S'med'
p7390
aS'low'
p7391
aS'5more'
p7392
ag59
aS'med'
p7393
aS'med'
p7394
aS'good'
p7395
aa(lp7396
S'med'
p7397
aS'low'
p7398
aS'5more'
p7399
ag59
aS'med'
p7400
aS'high'
p7401
aS'vgood'
p7402
aa(lp7403
S'med'
p7404
aS'low'
p7405
aS'5more'
p7406
ag59
aS'big'
p7407
aS'low'
p7408
aS'unacc'
p7409
aa(lp7410
S'med'
p7411
aS'low'
p7412
aS'5more'
p7413
ag59
aS'big'
p7414
aS'med'
p7415
aS'good'
p7416
aa(lp7417
S'med'
p7418
aS'low'
p7419
aS'5more'
p7420
ag59
aS'big'
p7421
aS'high'
p7422
aS'vgood'
p7423
aa(lp7424
S'med'
p7425
aS'low'
p7426
aS'5more'
p7427
aS'more'
p7428
aS'small'
p7429
aS'low'
p7430
aS'unacc'
p7431
aa(lp7432
S'med'
p7433
aS'low'
p7434
aS'5more'
p7435
aS'more'
p7436
aS'small'
p7437
aS'med'
p7438
aS'acc'
p7439
aa(lp7440
S'med'
p7441
aS'low'
p7442
aS'5more'
p7443
aS'more'
p7444
aS'small'
p7445
aS'high'
p7446
aS'good'
p7447
aa(lp7448
S'med'
p7449
aS'low'
p7450
aS'5more'
p7451
aS'more'
p7452
aS'med'
p7453
aS'low'
p7454
aS'unacc'
p7455
aa(lp7456
S'med'
p7457
aS'low'
p7458
aS'5more'
p7459
aS'more'
p7460
aS'med'
p7461
aS'med'
p7462
aS'good'
p7463
aa(lp7464
S'med'
p7465
aS'low'
p7466
aS'5more'
p7467
aS'more'
p7468
aS'med'
p7469
aS'high'
p7470
aS'vgood'
p7471
aa(lp7472
S'med'
p7473
aS'low'
p7474
aS'5more'
p7475
aS'more'
p7476
aS'big'
p7477
aS'low'
p7478
aS'unacc'
p7479
aa(lp7480
S'med'
p7481
aS'low'
p7482
aS'5more'
p7483
aS'more'
p7484
aS'big'
p7485
aS'med'
p7486
aS'good'
p7487
aa(lp7488
S'med'
p7489
aS'low'
p7490
aS'5more'
p7491
aS'more'
p7492
aS'big'
p7493
aS'high'
p7494
aS'vgood'
p7495
aa(lp7496
S'low'
p7497
aS'vhigh'
p7498
ag4
ag4
aS'small'
p7499
aS'low'
p7500
aS'unacc'
p7501
aa(lp7502
S'low'
p7503
aS'vhigh'
p7504
ag4
ag4
aS'small'
p7505
aS'med'
p7506
aS'unacc'
p7507
aa(lp7508
S'low'
p7509
aS'vhigh'
p7510
ag4
ag4
aS'small'
p7511
aS'high'
p7512
aS'unacc'
p7513
aa(lp7514
S'low'
p7515
aS'vhigh'
p7516
ag4
ag4
aS'med'
p7517
aS'low'
p7518
aS'unacc'
p7519
aa(lp7520
S'low'
p7521
aS'vhigh'
p7522
ag4
ag4
aS'med'
p7523
aS'med'
p7524
aS'unacc'
p7525
aa(lp7526
S'low'
p7527
aS'vhigh'
p7528
ag4
ag4
aS'med'
p7529
aS'high'
p7530
aS'unacc'
p7531
aa(lp7532
S'low'
p7533
aS'vhigh'
p7534
ag4
ag4
aS'big'
p7535
aS'low'
p7536
aS'unacc'
p7537
aa(lp7538
S'low'
p7539
aS'vhigh'
p7540
ag4
ag4
aS'big'
p7541
aS'med'
p7542
aS'unacc'
p7543
aa(lp7544
S'low'
p7545
aS'vhigh'
p7546
ag4
ag4
aS'big'
p7547
aS'high'
p7548
aS'unacc'
p7549
aa(lp7550
S'low'
p7551
aS'vhigh'
p7552
ag4
ag59
aS'small'
p7553
aS'low'
p7554
aS'unacc'
p7555
aa(lp7556
S'low'
p7557
aS'vhigh'
p7558
ag4
ag59
aS'small'
p7559
aS'med'
p7560
aS'unacc'
p7561
aa(lp7562
S'low'
p7563
aS'vhigh'
p7564
ag4
ag59
aS'small'
p7565
aS'high'
p7566
aS'acc'
p7567
aa(lp7568
S'low'
p7569
aS'vhigh'
p7570
ag4
ag59
aS'med'
p7571
aS'low'
p7572
aS'unacc'
p7573
aa(lp7574
S'low'
p7575
aS'vhigh'
p7576
ag4
ag59
aS'med'
p7577
aS'med'
p7578
aS'unacc'
p7579
aa(lp7580
S'low'
p7581
aS'vhigh'
p7582
ag4
ag59
aS'med'
p7583
aS'high'
p7584
aS'acc'
p7585
aa(lp7586
S'low'
p7587
aS'vhigh'
p7588
ag4
ag59
aS'big'
p7589
aS'low'
p7590
aS'unacc'
p7591
aa(lp7592
S'low'
p7593
aS'vhigh'
p7594
ag4
ag59
aS'big'
p7595
aS'med'
p7596
aS'acc'
p7597
aa(lp7598
S'low'
p7599
aS'vhigh'
p7600
ag4
ag59
aS'big'
p7601
aS'high'
p7602
aS'acc'
p7603
aa(lp7604
S'low'
p7605
aS'vhigh'
p7606
ag4
aS'more'
p7607
aS'small'
p7608
aS'low'
p7609
aS'unacc'
p7610
aa(lp7611
S'low'
p7612
aS'vhigh'
p7613
ag4
aS'more'
p7614
aS'small'
p7615
aS'med'
p7616
aS'unacc'
p7617
aa(lp7618
S'low'
p7619
aS'vhigh'
p7620
ag4
aS'more'
p7621
aS'small'
p7622
aS'high'
p7623
aS'unacc'
p7624
aa(lp7625
S'low'
p7626
aS'vhigh'
p7627
ag4
aS'more'
p7628
aS'med'
p7629
aS'low'
p7630
aS'unacc'
p7631
aa(lp7632
S'low'
p7633
aS'vhigh'
p7634
ag4
aS'more'
p7635
aS'med'
p7636
aS'med'
p7637
aS'unacc'
p7638
aa(lp7639
S'low'
p7640
aS'vhigh'
p7641
ag4
aS'more'
p7642
aS'med'
p7643
aS'high'
p7644
aS'acc'
p7645
aa(lp7646
S'low'
p7647
aS'vhigh'
p7648
ag4
aS'more'
p7649
aS'big'
p7650
aS'low'
p7651
aS'unacc'
p7652
aa(lp7653
S'low'
p7654
aS'vhigh'
p7655
ag4
aS'more'
p7656
aS'big'
p7657
aS'med'
p7658
aS'acc'
p7659
aa(lp7660
S'low'
p7661
aS'vhigh'
p7662
ag4
aS'more'
p7663
aS'big'
p7664
aS'high'
p7665
aS'acc'
p7666
aa(lp7667
S'low'
p7668
aS'vhigh'
p7669
ag177
ag4
aS'small'
p7670
aS'low'
p7671
aS'unacc'
p7672
aa(lp7673
S'low'
p7674
aS'vhigh'
p7675
ag177
ag4
aS'small'
p7676
aS'med'
p7677
aS'unacc'
p7678
aa(lp7679
S'low'
p7680
aS'vhigh'
p7681
ag177
ag4
aS'small'
p7682
aS'high'
p7683
aS'unacc'
p7684
aa(lp7685
S'low'
p7686
aS'vhigh'
p7687
ag177
ag4
aS'med'
p7688
aS'low'
p7689
aS'unacc'
p7690
aa(lp7691
S'low'
p7692
aS'vhigh'
p7693
ag177
ag4
aS'med'
p7694
aS'med'
p7695
aS'unacc'
p7696
aa(lp7697
S'low'
p7698
aS'vhigh'
p7699
ag177
ag4
aS'med'
p7700
aS'high'
p7701
aS'unacc'
p7702
aa(lp7703
S'low'
p7704
aS'vhigh'
p7705
ag177
ag4
aS'big'
p7706
aS'low'
p7707
aS'unacc'
p7708
aa(lp7709
S'low'
p7710
aS'vhigh'
p7711
ag177
ag4
aS'big'
p7712
aS'med'
p7713
aS'unacc'
p7714
aa(lp7715
S'low'
p7716
aS'vhigh'
p7717
ag177
ag4
aS'big'
p7718
aS'high'
p7719
aS'unacc'
p7720
aa(lp7721
S'low'
p7722
aS'vhigh'
p7723
ag177
ag59
aS'small'
p7724
aS'low'
p7725
aS'unacc'
p7726
aa(lp7727
S'low'
p7728
aS'vhigh'
p7729
ag177
ag59
aS'small'
p7730
aS'med'
p7731
aS'unacc'
p7732
aa(lp7733
S'low'
p7734
aS'vhigh'
p7735
ag177
ag59
aS'small'
p7736
aS'high'
p7737
aS'acc'
p7738
aa(lp7739
S'low'
p7740
aS'vhigh'
p7741
ag177
ag59
aS'med'
p7742
aS'low'
p7743
aS'unacc'
p7744
aa(lp7745
S'low'
p7746
aS'vhigh'
p7747
ag177
ag59
aS'med'
p7748
aS'med'
p7749
aS'unacc'
p7750
aa(lp7751
S'low'
p7752
aS'vhigh'
p7753
ag177
ag59
aS'med'
p7754
aS'high'
p7755
aS'acc'
p7756
aa(lp7757
S'low'
p7758
aS'vhigh'
p7759
ag177
ag59
aS'big'
p7760
aS'low'
p7761
aS'unacc'
p7762
aa(lp7763
S'low'
p7764
aS'vhigh'
p7765
ag177
ag59
aS'big'
p7766
aS'med'
p7767
aS'acc'
p7768
aa(lp7769
S'low'
p7770
aS'vhigh'
p7771
ag177
ag59
aS'big'
p7772
aS'high'
p7773
aS'acc'
p7774
aa(lp7775
S'low'
p7776
aS'vhigh'
p7777
ag177
aS'more'
p7778
aS'small'
p7779
aS'low'
p7780
aS'unacc'
p7781
aa(lp7782
S'low'
p7783
aS'vhigh'
p7784
ag177
aS'more'
p7785
aS'small'
p7786
aS'med'
p7787
aS'unacc'
p7788
aa(lp7789
S'low'
p7790
aS'vhigh'
p7791
ag177
aS'more'
p7792
aS'small'
p7793
aS'high'
p7794
aS'acc'
p7795
aa(lp7796
S'low'
p7797
aS'vhigh'
p7798
ag177
aS'more'
p7799
aS'med'
p7800
aS'low'
p7801
aS'unacc'
p7802
aa(lp7803
S'low'
p7804
aS'vhigh'
p7805
ag177
aS'more'
p7806
aS'med'
p7807
aS'med'
p7808
aS'acc'
p7809
aa(lp7810
S'low'
p7811
aS'vhigh'
p7812
ag177
aS'more'
p7813
aS'med'
p7814
aS'high'
p7815
aS'acc'
p7816
aa(lp7817
S'low'
p7818
aS'vhigh'
p7819
ag177
aS'more'
p7820
aS'big'
p7821
aS'low'
p7822
aS'unacc'
p7823
aa(lp7824
S'low'
p7825
aS'vhigh'
p7826
ag177
aS'more'
p7827
aS'big'
p7828
aS'med'
p7829
aS'acc'
p7830
aa(lp7831
S'low'
p7832
aS'vhigh'
p7833
ag177
aS'more'
p7834
aS'big'
p7835
aS'high'
p7836
aS'acc'
p7837
aa(lp7838
S'low'
p7839
aS'vhigh'
p7840
ag59
ag4
aS'small'
p7841
aS'low'
p7842
aS'unacc'
p7843
aa(lp7844
S'low'
p7845
aS'vhigh'
p7846
ag59
ag4
aS'small'
p7847
aS'med'
p7848
aS'unacc'
p7849
aa(lp7850
S'low'
p7851
aS'vhigh'
p7852
ag59
ag4
aS'small'
p7853
aS'high'
p7854
aS'unacc'
p7855
aa(lp7856
S'low'
p7857
aS'vhigh'
p7858
ag59
ag4
aS'med'
p7859
aS'low'
p7860
aS'unacc'
p7861
aa(lp7862
S'low'
p7863
aS'vhigh'
p7864
ag59
ag4
aS'med'
p7865
aS'med'
p7866
aS'unacc'
p7867
aa(lp7868
S'low'
p7869
aS'vhigh'
p7870
ag59
ag4
aS'med'
p7871
aS'high'
p7872
aS'unacc'
p7873
aa(lp7874
S'low'
p7875
aS'vhigh'
p7876
ag59
ag4
aS'big'
p7877
aS'low'
p7878
aS'unacc'
p7879
aa(lp7880
S'low'
p7881
aS'vhigh'
p7882
ag59
ag4
aS'big'
p7883
aS'med'
p7884
aS'unacc'
p7885
aa(lp7886
S'low'
p7887
aS'vhigh'
p7888
ag59
ag4
aS'big'
p7889
aS'high'
p7890
aS'unacc'
p7891
aa(lp7892
S'low'
p7893
aS'vhigh'
p7894
ag59
ag59
aS'small'
p7895
aS'low'
p7896
aS'unacc'
p7897
aa(lp7898
S'low'
p7899
aS'vhigh'
p7900
ag59
ag59
aS'small'
p7901
aS'med'
p7902
aS'unacc'
p7903
aa(lp7904
S'low'
p7905
aS'vhigh'
p7906
ag59
ag59
aS'small'
p7907
aS'high'
p7908
aS'acc'
p7909
aa(lp7910
S'low'
p7911
aS'vhigh'
p7912
ag59
ag59
aS'med'
p7913
aS'low'
p7914
aS'unacc'
p7915
aa(lp7916
S'low'
p7917
aS'vhigh'
p7918
ag59
ag59
aS'med'
p7919
aS'med'
p7920
aS'acc'
p7921
aa(lp7922
S'low'
p7923
aS'vhigh'
p7924
ag59
ag59
aS'med'
p7925
aS'high'
p7926
aS'acc'
p7927
aa(lp7928
S'low'
p7929
aS'vhigh'
p7930
ag59
ag59
aS'big'
p7931
aS'low'
p7932
aS'unacc'
p7933
aa(lp7934
S'low'
p7935
aS'vhigh'
p7936
ag59
ag59
aS'big'
p7937
aS'med'
p7938
aS'acc'
p7939
aa(lp7940
S'low'
p7941
aS'vhigh'
p7942
ag59
ag59
aS'big'
p7943
aS'high'
p7944
aS'acc'
p7945
aa(lp7946
S'low'
p7947
aS'vhigh'
p7948
ag59
aS'more'
p7949
aS'small'
p7950
aS'low'
p7951
aS'unacc'
p7952
aa(lp7953
S'low'
p7954
aS'vhigh'
p7955
ag59
aS'more'
p7956
aS'small'
p7957
aS'med'
p7958
aS'unacc'
p7959
aa(lp7960
S'low'
p7961
aS'vhigh'
p7962
ag59
aS'more'
p7963
aS'small'
p7964
aS'high'
p7965
aS'acc'
p7966
aa(lp7967
S'low'
p7968
aS'vhigh'
p7969
ag59
aS'more'
p7970
aS'med'
p7971
aS'low'
p7972
aS'unacc'
p7973
aa(lp7974
S'low'
p7975
aS'vhigh'
p7976
ag59
aS'more'
p7977
aS'med'
p7978
aS'med'
p7979
aS'acc'
p7980
aa(lp7981
S'low'
p7982
aS'vhigh'
p7983
ag59
aS'more'
p7984
aS'med'
p7985
aS'high'
p7986
aS'acc'
p7987
aa(lp7988
S'low'
p7989
aS'vhigh'
p7990
ag59
aS'more'
p7991
aS'big'
p7992
aS'low'
p7993
aS'unacc'
p7994
aa(lp7995
S'low'
p7996
aS'vhigh'
p7997
ag59
aS'more'
p7998
aS'big'
p7999
aS'med'
p8000
aS'acc'
p8001
aa(lp8002
S'low'
p8003
aS'vhigh'
p8004
ag59
aS'more'
p8005
aS'big'
p8006
aS'high'
p8007
aS'acc'
p8008
aa(lp8009
S'low'
p8010
aS'vhigh'
p8011
aS'5more'
p8012
ag4
aS'small'
p8013
aS'low'
p8014
aS'unacc'
p8015
aa(lp8016
S'low'
p8017
aS'vhigh'
p8018
aS'5more'
p8019
ag4
aS'small'
p8020
aS'med'
p8021
aS'unacc'
p8022
aa(lp8023
S'low'
p8024
aS'vhigh'
p8025
aS'5more'
p8026
ag4
aS'small'
p8027
aS'high'
p8028
aS'unacc'
p8029
aa(lp8030
S'low'
p8031
aS'vhigh'
p8032
aS'5more'
p8033
ag4
aS'med'
p8034
aS'low'
p8035
aS'unacc'
p8036
aa(lp8037
S'low'
p8038
aS'vhigh'
p8039
aS'5more'
p8040
ag4
aS'med'
p8041
aS'med'
p8042
aS'unacc'
p8043
aa(lp8044
S'low'
p8045
aS'vhigh'
p8046
aS'5more'
p8047
ag4
aS'med'
p8048
aS'high'
p8049
aS'unacc'
p8050
aa(lp8051
S'low'
p8052
aS'vhigh'
p8053
aS'5more'
p8054
ag4
aS'big'
p8055
aS'low'
p8056
aS'unacc'
p8057
aa(lp8058
S'low'
p8059
aS'vhigh'
p8060
aS'5more'
p8061
ag4
aS'big'
p8062
aS'med'
p8063
aS'unacc'
p8064
aa(lp8065
S'low'
p8066
aS'vhigh'
p8067
aS'5more'
p8068
ag4
aS'big'
p8069
aS'high'
p8070
aS'unacc'
p8071
aa(lp8072
S'low'
p8073
aS'vhigh'
p8074
aS'5more'
p8075
ag59
aS'small'
p8076
aS'low'
p8077
aS'unacc'
p8078
aa(lp8079
S'low'
p8080
aS'vhigh'
p8081
aS'5more'
p8082
ag59
aS'small'
p8083
aS'med'
p8084
aS'unacc'
p8085
aa(lp8086
S'low'
p8087
aS'vhigh'
p8088
aS'5more'
p8089
ag59
aS'small'
p8090
aS'high'
p8091
aS'acc'
p8092
aa(lp8093
S'low'
p8094
aS'vhigh'
p8095
aS'5more'
p8096
ag59
aS'med'
p8097
aS'low'
p8098
aS'unacc'
p8099
aa(lp8100
S'low'
p8101
aS'vhigh'
p8102
aS'5more'
p8103
ag59
aS'med'
p8104
aS'med'
p8105
aS'acc'
p8106
aa(lp8107
S'low'
p8108
aS'vhigh'
p8109
aS'5more'
p8110
ag59
aS'med'
p8111
aS'high'
p8112
aS'acc'
p8113
aa(lp8114
S'low'
p8115
aS'vhigh'
p8116
aS'5more'
p8117
ag59
aS'big'
p8118
aS'low'
p8119
aS'unacc'
p8120
aa(lp8121
S'low'
p8122
aS'vhigh'
p8123
aS'5more'
p8124
ag59
aS'big'
p8125
aS'med'
p8126
aS'acc'
p8127
aa(lp8128
S'low'
p8129
aS'vhigh'
p8130
aS'5more'
p8131
ag59
aS'big'
p8132
aS'high'
p8133
aS'acc'
p8134
aa(lp8135
S'low'
p8136
aS'vhigh'
p8137
aS'5more'
p8138
aS'more'
p8139
aS'small'
p8140
aS'low'
p8141
aS'unacc'
p8142
aa(lp8143
S'low'
p8144
aS'vhigh'
p8145
aS'5more'
p8146
aS'more'
p8147
aS'small'
p8148
aS'med'
p8149
aS'unacc'
p8150
aa(lp8151
S'low'
p8152
aS'vhigh'
p8153
aS'5more'
p8154
aS'more'
p8155
aS'small'
p8156
aS'high'
p8157
aS'acc'
p8158
aa(lp8159
S'low'
p8160
aS'vhigh'
p8161
aS'5more'
p8162
aS'more'
p8163
aS'med'
p8164
aS'low'
p8165
aS'unacc'
p8166
aa(lp8167
S'low'
p8168
aS'vhigh'
p8169
aS'5more'
p8170
aS'more'
p8171
aS'med'
p8172
aS'med'
p8173
aS'acc'
p8174
aa(lp8175
S'low'
p8176
aS'vhigh'
p8177
aS'5more'
p8178
aS'more'
p8179
aS'med'
p8180
aS'high'
p8181
aS'acc'
p8182
aa(lp8183
S'low'
p8184
aS'vhigh'
p8185
aS'5more'
p8186
aS'more'
p8187
aS'big'
p8188
aS'low'
p8189
aS'unacc'
p8190
aa(lp8191
S'low'
p8192
aS'vhigh'
p8193
aS'5more'
p8194
aS'more'
p8195
aS'big'
p8196
aS'med'
p8197
aS'acc'
p8198
aa(lp8199
S'low'
p8200
aS'vhigh'
p8201
aS'5more'
p8202
aS'more'
p8203
aS'big'
p8204
aS'high'
p8205
aS'acc'
p8206
aa(lp8207
S'low'
p8208
aS'high'
p8209
ag4
ag4
aS'small'
p8210
aS'low'
p8211
aS'unacc'
p8212
aa(lp8213
S'low'
p8214
aS'high'
p8215
ag4
ag4
aS'small'
p8216
aS'med'
p8217
aS'unacc'
p8218
aa(lp8219
S'low'
p8220
aS'high'
p8221
ag4
ag4
aS'small'
p8222
aS'high'
p8223
aS'unacc'
p8224
aa(lp8225
S'low'
p8226
aS'high'
p8227
ag4
ag4
aS'med'
p8228
aS'low'
p8229
aS'unacc'
p8230
aa(lp8231
S'low'
p8232
aS'high'
p8233
ag4
ag4
aS'med'
p8234
aS'med'
p8235
aS'unacc'
p8236
aa(lp8237
S'low'
p8238
aS'high'
p8239
ag4
ag4
aS'med'
p8240
aS'high'
p8241
aS'unacc'
p8242
aa(lp8243
S'low'
p8244
aS'high'
p8245
ag4
ag4
aS'big'
p8246
aS'low'
p8247
aS'unacc'
p8248
aa(lp8249
S'low'
p8250
aS'high'
p8251
ag4
ag4
aS'big'
p8252
aS'med'
p8253
aS'unacc'
p8254
aa(lp8255
S'low'
p8256
aS'high'
p8257
ag4
ag4
aS'big'
p8258
aS'high'
p8259
aS'unacc'
p8260
aa(lp8261
S'low'
p8262
aS'high'
p8263
ag4
ag59
aS'small'
p8264
aS'low'
p8265
aS'unacc'
p8266
aa(lp8267
S'low'
p8268
aS'high'
p8269
ag4
ag59
aS'small'
p8270
aS'med'
p8271
aS'acc'
p8272
aa(lp8273
S'low'
p8274
aS'high'
p8275
ag4
ag59
aS'small'
p8276
aS'high'
p8277
aS'acc'
p8278
aa(lp8279
S'low'
p8280
aS'high'
p8281
ag4
ag59
aS'med'
p8282
aS'low'
p8283
aS'unacc'
p8284
aa(lp8285
S'low'
p8286
aS'high'
p8287
ag4
ag59
aS'med'
p8288
aS'med'
p8289
aS'acc'
p8290
aa(lp8291
S'low'
p8292
aS'high'
p8293
ag4
ag59
aS'med'
p8294
aS'high'
p8295
aS'acc'
p8296
aa(lp8297
S'low'
p8298
aS'high'
p8299
ag4
ag59
aS'big'
p8300
aS'low'
p8301
aS'unacc'
p8302
aa(lp8303
S'low'
p8304
aS'high'
p8305
ag4
ag59
aS'big'
p8306
aS'med'
p8307
aS'acc'
p8308
aa(lp8309
S'low'
p8310
aS'high'
p8311
ag4
ag59
aS'big'
p8312
aS'high'
p8313
aS'vgood'
p8314
aa(lp8315
S'low'
p8316
aS'high'
p8317
ag4
aS'more'
p8318
aS'small'
p8319
aS'low'
p8320
aS'unacc'
p8321
aa(lp8322
S'low'
p8323
aS'high'
p8324
ag4
aS'more'
p8325
aS'small'
p8326
aS'med'
p8327
aS'unacc'
p8328
aa(lp8329
S'low'
p8330
aS'high'
p8331
ag4
aS'more'
p8332
aS'small'
p8333
aS'high'
p8334
aS'unacc'
p8335
aa(lp8336
S'low'
p8337
aS'high'
p8338
ag4
aS'more'
p8339
aS'med'
p8340
aS'low'
p8341
aS'unacc'
p8342
aa(lp8343
S'low'
p8344
aS'high'
p8345
ag4
aS'more'
p8346
aS'med'
p8347
aS'med'
p8348
aS'acc'
p8349
aa(lp8350
S'low'
p8351
aS'high'
p8352
ag4
aS'more'
p8353
aS'med'
p8354
aS'high'
p8355
aS'acc'
p8356
aa(lp8357
S'low'
p8358
aS'high'
p8359
ag4
aS'more'
p8360
aS'big'
p8361
aS'low'
p8362
aS'unacc'
p8363
aa(lp8364
S'low'
p8365
aS'high'
p8366
ag4
aS'more'
p8367
aS'big'
p8368
aS'med'
p8369
aS'acc'
p8370
aa(lp8371
S'low'
p8372
aS'high'
p8373
ag4
aS'more'
p8374
aS'big'
p8375
aS'high'
p8376
aS'vgood'
p8377
aa(lp8378
S'low'
p8379
aS'high'
p8380
ag177
ag4
aS'small'
p8381
aS'low'
p8382
aS'unacc'
p8383
aa(lp8384
S'low'
p8385
aS'high'
p8386
ag177
ag4
aS'small'
p8387
aS'med'
p8388
aS'unacc'
p8389
aa(lp8390
S'low'
p8391
aS'high'
p8392
ag177
ag4
aS'small'
p8393
aS'high'
p8394
aS'unacc'
p8395
aa(lp8396
S'low'
p8397
aS'high'
p8398
ag177
ag4
aS'med'
p8399
aS'low'
p8400
aS'unacc'
p8401
aa(lp8402
S'low'
p8403
aS'high'
p8404
ag177
ag4
aS'med'
p8405
aS'med'
p8406
aS'unacc'
p8407
aa(lp8408
S'low'
p8409
aS'high'
p8410
ag177
ag4
aS'med'
p8411
aS'high'
p8412
aS'unacc'
p8413
aa(lp8414
S'low'
p8415
aS'high'
p8416
ag177
ag4
aS'big'
p8417
aS'low'
p8418
aS'unacc'
p8419
aa(lp8420
S'low'
p8421
aS'high'
p8422
ag177
ag4
aS'big'
p8423
aS'med'
p8424
aS'unacc'
p8425
aa(lp8426
S'low'
p8427
aS'high'
p8428
ag177
ag4
aS'big'
p8429
aS'high'
p8430
aS'unacc'
p8431
aa(lp8432
S'low'
p8433
aS'high'
p8434
ag177
ag59
aS'small'
p8435
aS'low'
p8436
aS'unacc'
p8437
aa(lp8438
S'low'
p8439
aS'high'
p8440
ag177
ag59
aS'small'
p8441
aS'med'
p8442
aS'acc'
p8443
aa(lp8444
S'low'
p8445
aS'high'
p8446
ag177
ag59
aS'small'
p8447
aS'high'
p8448
aS'acc'
p8449
aa(lp8450
S'low'
p8451
aS'high'
p8452
ag177
ag59
aS'med'
p8453
aS'low'
p8454
aS'unacc'
p8455
aa(lp8456
S'low'
p8457
aS'high'
p8458
ag177
ag59
aS'med'
p8459
aS'med'
p8460
aS'acc'
p8461
aa(lp8462
S'low'
p8463
aS'high'
p8464
ag177
ag59
aS'med'
p8465
aS'high'
p8466
aS'acc'
p8467
aa(lp8468
S'low'
p8469
aS'high'
p8470
ag177
ag59
aS'big'
p8471
aS'low'
p8472
aS'unacc'
p8473
aa(lp8474
S'low'
p8475
aS'high'
p8476
ag177
ag59
aS'big'
p8477
aS'med'
p8478
aS'acc'
p8479
aa(lp8480
S'low'
p8481
aS'high'
p8482
ag177
ag59
aS'big'
p8483
aS'high'
p8484
aS'vgood'
p8485
aa(lp8486
S'low'
p8487
aS'high'
p8488
ag177
aS'more'
p8489
aS'small'
p8490
aS'low'
p8491
aS'unacc'
p8492
aa(lp8493
S'low'
p8494
aS'high'
p8495
ag177
aS'more'
p8496
aS'small'
p8497
aS'med'
p8498
aS'acc'
p8499
aa(lp8500
S'low'
p8501
aS'high'
p8502
ag177
aS'more'
p8503
aS'small'
p8504
aS'high'
p8505
aS'acc'
p8506
aa(lp8507
S'low'
p8508
aS'high'
p8509
ag177
aS'more'
p8510
aS'med'
p8511
aS'low'
p8512
aS'unacc'
p8513
aa(lp8514
S'low'
p8515
aS'high'
p8516
ag177
aS'more'
p8517
aS'med'
p8518
aS'med'
p8519
aS'acc'
p8520
aa(lp8521
S'low'
p8522
aS'high'
p8523
ag177
aS'more'
p8524
aS'med'
p8525
aS'high'
p8526
aS'vgood'
p8527
aa(lp8528
S'low'
p8529
aS'high'
p8530
ag177
aS'more'
p8531
aS'big'
p8532
aS'low'
p8533
aS'unacc'
p8534
aa(lp8535
S'low'
p8536
aS'high'
p8537
ag177
aS'more'
p8538
aS'big'
p8539
aS'med'
p8540
aS'acc'
p8541
aa(lp8542
S'low'
p8543
aS'high'
p8544
ag177
aS'more'
p8545
aS'big'
p8546
aS'high'
p8547
aS'vgood'
p8548
aa(lp8549
S'low'
p8550
aS'high'
p8551
ag59
ag4
aS'small'
p8552
aS'low'
p8553
aS'unacc'
p8554
aa(lp8555
S'low'
p8556
aS'high'
p8557
ag59
ag4
aS'small'
p8558
aS'med'
p8559
aS'unacc'
p8560
aa(lp8561
S'low'
p8562
aS'high'
p8563
ag59
ag4
aS'small'
p8564
aS'high'
p8565
aS'unacc'
p8566
aa(lp8567
S'low'
p8568
aS'high'
p8569
ag59
ag4
aS'med'
p8570
aS'low'
p8571
aS'unacc'
p8572
aa(lp8573
S'low'
p8574
aS'high'
p8575
ag59
ag4
aS'med'
p8576
aS'med'
p8577
aS'unacc'
p8578
aa(lp8579
S'low'
p8580
aS'high'
p8581
ag59
ag4
aS'med'
p8582
aS'high'
p8583
aS'unacc'
p8584
aa(lp8585
S'low'
p8586
aS'high'
p8587
ag59
ag4
aS'big'
p8588
aS'low'
p8589
aS'unacc'
p8590
aa(lp8591
S'low'
p8592
aS'high'
p8593
ag59
ag4
aS'big'
p8594
aS'med'
p8595
aS'unacc'
p8596
aa(lp8597
S'low'
p8598
aS'high'
p8599
ag59
ag4
aS'big'
p8600
aS'high'
p8601
aS'unacc'
p8602
aa(lp8603
S'low'
p8604
aS'high'
p8605
ag59
ag59
aS'small'
p8606
aS'low'
p8607
aS'unacc'
p8608
aa(lp8609
S'low'
p8610
aS'high'
p8611
ag59
ag59
aS'small'
p8612
aS'med'
p8613
aS'acc'
p8614
aa(lp8615
S'low'
p8616
aS'high'
p8617
ag59
ag59
aS'small'
p8618
aS'high'
p8619
aS'acc'
p8620
aa(lp8621
S'low'
p8622
aS'high'
p8623
ag59
ag59
aS'med'
p8624
aS'low'
p8625
aS'unacc'
p8626
aa(lp8627
S'low'
p8628
aS'high'
p8629
ag59
ag59
aS'med'
p8630
aS'med'
p8631
aS'acc'
p8632
aa(lp8633
S'low'
p8634
aS'high'
p8635
ag59
ag59
aS'med'
p8636
aS'high'
p8637
aS'vgood'
p8638
aa(lp8639
S'low'
p8640
aS'high'
p8641
ag59
ag59
aS'big'
p8642
aS'low'
p8643
aS'unacc'
p8644
aa(lp8645
S'low'
p8646
aS'high'
p8647
ag59
ag59
aS'big'
p8648
aS'med'
p8649
aS'acc'
p8650
aa(lp8651
S'low'
p8652
aS'high'
p8653
ag59
ag59
aS'big'
p8654
aS'high'
p8655
aS'vgood'
p8656
aa(lp8657
S'low'
p8658
aS'high'
p8659
ag59
aS'more'
p8660
aS'small'
p8661
aS'low'
p8662
aS'unacc'
p8663
aa(lp8664
S'low'
p8665
aS'high'
p8666
ag59
aS'more'
p8667
aS'small'
p8668
aS'med'
p8669
aS'acc'
p8670
aa(lp8671
S'low'
p8672
aS'high'
p8673
ag59
aS'more'
p8674
aS'small'
p8675
aS'high'
p8676
aS'acc'
p8677
aa(lp8678
S'low'
p8679
aS'high'
p8680
ag59
aS'more'
p8681
aS'med'
p8682
aS'low'
p8683
aS'unacc'
p8684
aa(lp8685
S'low'
p8686
aS'high'
p8687
ag59
aS'more'
p8688
aS'med'
p8689
aS'med'
p8690
aS'acc'
p8691
aa(lp8692
S'low'
p8693
aS'high'
p8694
ag59
aS'more'
p8695
aS'med'
p8696
aS'high'
p8697
aS'vgood'
p8698
aa(lp8699
S'low'
p8700
aS'high'
p8701
ag59
aS'more'
p8702
aS'big'
p8703
aS'low'
p8704
aS'unacc'
p8705
aa(lp8706
S'low'
p8707
aS'high'
p8708
ag59
aS'more'
p8709
aS'big'
p8710
aS'med'
p8711
aS'acc'
p8712
aa(lp8713
S'low'
p8714
aS'high'
p8715
ag59
aS'more'
p8716
aS'big'
p8717
aS'high'
p8718
aS'vgood'
p8719
aa(lp8720
S'low'
p8721
aS'high'
p8722
aS'5more'
p8723
ag4
aS'small'
p8724
aS'low'
p8725
aS'unacc'
p8726
aa(lp8727
S'low'
p8728
aS'high'
p8729
aS'5more'
p8730
ag4
aS'small'
p8731
aS'med'
p8732
aS'unacc'
p8733
aa(lp8734
S'low'
p8735
aS'high'
p8736
aS'5more'
p8737
ag4
aS'small'
p8738
aS'high'
p8739
aS'unacc'
p8740
aa(lp8741
S'low'
p8742
aS'high'
p8743
aS'5more'
p8744
ag4
aS'med'
p8745
aS'low'
p8746
aS'unacc'
p8747
aa(lp8748
S'low'
p8749
aS'high'
p8750
aS'5more'
p8751
ag4
aS'med'
p8752
aS'med'
p8753
aS'unacc'
p8754
aa(lp8755
S'low'
p8756
aS'high'
p8757
aS'5more'
p8758
ag4
aS'med'
p8759
aS'high'
p8760
aS'unacc'
p8761
aa(lp8762
S'low'
p8763
aS'high'
p8764
aS'5more'
p8765
ag4
aS'big'
p8766
aS'low'
p8767
aS'unacc'
p8768
aa(lp8769
S'low'
p8770
aS'high'
p8771
aS'5more'
p8772
ag4
aS'big'
p8773
aS'med'
p8774
aS'unacc'
p8775
aa(lp8776
S'low'
p8777
aS'high'
p8778
aS'5more'
p8779
ag4
aS'big'
p8780
aS'high'
p8781
aS'unacc'
p8782
aa(lp8783
S'low'
p8784
aS'high'
p8785
aS'5more'
p8786
ag59
aS'small'
p8787
aS'low'
p8788
aS'unacc'
p8789
aa(lp8790
S'low'
p8791
aS'high'
p8792
aS'5more'
p8793
ag59
aS'small'
p8794
aS'med'
p8795
aS'acc'
p8796
aa(lp8797
S'low'
p8798
aS'high'
p8799
aS'5more'
p8800
ag59
aS'small'
p8801
aS'high'
p8802
aS'acc'
p8803
aa(lp8804
S'low'
p8805
aS'high'
p8806
aS'5more'
p8807
ag59
aS'med'
p8808
aS'low'
p8809
aS'unacc'
p8810
aa(lp8811
S'low'
p8812
aS'high'
p8813
aS'5more'
p8814
ag59
aS'med'
p8815
aS'med'
p8816
aS'acc'
p8817
aa(lp8818
S'low'
p8819
aS'high'
p8820
aS'5more'
p8821
ag59
aS'big'
p8822
aS'low'
p8823
aS'unacc'
p8824
aa(lp8825
S'low'
p8826
aS'high'
p8827
aS'5more'
p8828
ag59
aS'big'
p8829
aS'med'
p8830
aS'acc'
p8831
aa(lp8832
S'low'
p8833
aS'high'
p8834
aS'5more'
p8835
aS'more'
p8836
aS'small'
p8837
aS'low'
p8838
aS'unacc'
p8839
aa(lp8840
S'low'
p8841
aS'high'
p8842
aS'5more'
p8843
aS'more'
p8844
aS'small'
p8845
aS'med'
p8846
aS'acc'
p8847
aa(lp8848
S'low'
p8849
aS'high'
p8850
aS'5more'
p8851
aS'more'
p8852
aS'small'
p8853
aS'high'
p8854
aS'acc'
p8855
aa(lp8856
S'low'
p8857
aS'high'
p8858
aS'5more'
p8859
aS'more'
p8860
aS'med'
p8861
aS'low'
p8862
aS'unacc'
p8863
aa(lp8864
S'low'
p8865
aS'high'
p8866
aS'5more'
p8867
aS'more'
p8868
aS'med'
p8869
aS'med'
p8870
aS'acc'
p8871
aa(lp8872
S'low'
p8873
aS'high'
p8874
aS'5more'
p8875
aS'more'
p8876
aS'big'
p8877
aS'low'
p8878
aS'unacc'
p8879
aa(lp8880
S'low'
p8881
aS'high'
p8882
aS'5more'
p8883
aS'more'
p8884
aS'big'
p8885
aS'med'
p8886
aS'acc'
p8887
aa(lp8888
S'low'
p8889
aS'med'
p8890
ag4
ag4
aS'small'
p8891
aS'low'
p8892
aS'unacc'
p8893
aa(lp8894
S'low'
p8895
aS'med'
p8896
ag4
ag4
aS'small'
p8897
aS'med'
p8898
aS'unacc'
p8899
aa(lp8900
S'low'
p8901
aS'med'
p8902
ag4
ag4
aS'small'
p8903
aS'high'
p8904
aS'unacc'
p8905
aa(lp8906
S'low'
p8907
aS'med'
p8908
ag4
ag4
aS'med'
p8909
aS'low'
p8910
aS'unacc'
p8911
aa(lp8912
S'low'
p8913
aS'med'
p8914
ag4
ag4
aS'med'
p8915
aS'med'
p8916
aS'unacc'
p8917
aa(lp8918
S'low'
p8919
aS'med'
p8920
ag4
ag4
aS'med'
p8921
aS'high'
p8922
aS'unacc'
p8923
aa(lp8924
S'low'
p8925
aS'med'
p8926
ag4
ag4
aS'big'
p8927
aS'low'
p8928
aS'unacc'
p8929
aa(lp8930
S'low'
p8931
aS'med'
p8932
ag4
ag4
aS'big'
p8933
aS'med'
p8934
aS'unacc'
p8935
aa(lp8936
S'low'
p8937
aS'med'
p8938
ag4
ag4
aS'big'
p8939
aS'high'
p8940
aS'unacc'
p8941
aa(lp8942
S'low'
p8943
aS'med'
p8944
ag4
ag59
aS'small'
p8945
aS'low'
p8946
aS'unacc'
p8947
aa(lp8948
S'low'
p8949
aS'med'
p8950
ag4
ag59
aS'small'
p8951
aS'med'
p8952
aS'acc'
p8953
aa(lp8954
S'low'
p8955
aS'med'
p8956
ag4
ag59
aS'small'
p8957
aS'high'
p8958
aS'good'
p8959
aa(lp8960
S'low'
p8961
aS'med'
p8962
ag4
ag59
aS'med'
p8963
aS'low'
p8964
aS'unacc'
p8965
aa(lp8966
S'low'
p8967
aS'med'
p8968
ag4
ag59
aS'med'
p8969
aS'med'
p8970
aS'acc'
p8971
aa(lp8972
S'low'
p8973
aS'med'
p8974
ag4
ag59
aS'med'
p8975
aS'high'
p8976
aS'good'
p8977
aa(lp8978
S'low'
p8979
aS'med'
p8980
ag4
ag59
aS'big'
p8981
aS'low'
p8982
aS'unacc'
p8983
aa(lp8984
S'low'
p8985
aS'med'
p8986
ag4
ag59
aS'big'
p8987
aS'med'
p8988
aS'good'
p8989
aa(lp8990
S'low'
p8991
aS'med'
p8992
ag4
aS'more'
p8993
aS'small'
p8994
aS'low'
p8995
aS'unacc'
p8996
aa(lp8997
S'low'
p8998
aS'med'
p8999
ag4
aS'more'
p9000
aS'small'
p9001
aS'med'
p9002
aS'unacc'
p9003
aa(lp9004
S'low'
p9005
aS'med'
p9006
ag4
aS'more'
p9007
aS'small'
p9008
aS'high'
p9009
aS'unacc'
p9010
aa(lp9011
S'low'
p9012
aS'med'
p9013
ag4
aS'more'
p9014
aS'med'
p9015
aS'low'
p9016
aS'unacc'
p9017
aa(lp9018
S'low'
p9019
aS'med'
p9020
ag4
aS'more'
p9021
aS'med'
p9022
aS'med'
p9023
aS'acc'
p9024
aa(lp9025
S'low'
p9026
aS'med'
p9027
ag4
aS'more'
p9028
aS'med'
p9029
aS'high'
p9030
aS'good'
p9031
aa(lp9032
S'low'
p9033
aS'med'
p9034
ag4
aS'more'
p9035
aS'big'
p9036
aS'low'
p9037
aS'unacc'
p9038
aa(lp9039
S'low'
p9040
aS'med'
p9041
ag4
aS'more'
p9042
aS'big'
p9043
aS'med'
p9044
aS'good'
p9045
aa(lp9046
S'low'
p9047
aS'med'
p9048
ag177
ag4
aS'small'
p9049
aS'low'
p9050
aS'unacc'
p9051
aa(lp9052
S'low'
p9053
aS'med'
p9054
ag177
ag4
aS'small'
p9055
aS'med'
p9056
aS'unacc'
p9057
aa(lp9058
S'low'
p9059
aS'med'
p9060
ag177
ag4
aS'small'
p9061
aS'high'
p9062
aS'unacc'
p9063
aa(lp9064
S'low'
p9065
aS'med'
p9066
ag177
ag4
aS'med'
p9067
aS'low'
p9068
aS'unacc'
p9069
aa(lp9070
S'low'
p9071
aS'med'
p9072
ag177
ag4
aS'med'
p9073
aS'med'
p9074
aS'unacc'
p9075
aa(lp9076
S'low'
p9077
aS'med'
p9078
ag177
ag4
aS'med'
p9079
aS'high'
p9080
aS'unacc'
p9081
aa(lp9082
S'low'
p9083
aS'med'
p9084
ag177
ag4
aS'big'
p9085
aS'low'
p9086
aS'unacc'
p9087
aa(lp9088
S'low'
p9089
aS'med'
p9090
ag177
ag4
aS'big'
p9091
aS'med'
p9092
aS'unacc'
p9093
aa(lp9094
S'low'
p9095
aS'med'
p9096
ag177
ag4
aS'big'
p9097
aS'high'
p9098
aS'unacc'
p9099
aa(lp9100
S'low'
p9101
aS'med'
p9102
ag177
ag59
aS'small'
p9103
aS'low'
p9104
aS'unacc'
p9105
aa(lp9106
S'low'
p9107
aS'med'
p9108
ag177
ag59
aS'small'
p9109
aS'med'
p9110
aS'acc'
p9111
aa(lp9112
S'low'
p9113
aS'med'
p9114
ag177
ag59
aS'small'
p9115
aS'high'
p9116
aS'good'
p9117
aa(lp9118
S'low'
p9119
aS'med'
p9120
ag177
ag59
aS'med'
p9121
aS'low'
p9122
aS'unacc'
p9123
aa(lp9124
S'low'
p9125
aS'med'
p9126
ag177
ag59
aS'med'
p9127
aS'med'
p9128
aS'acc'
p9129
aa(lp9130
S'low'
p9131
aS'med'
p9132
ag177
ag59
aS'med'
p9133
aS'high'
p9134
aS'good'
p9135
aa(lp9136
S'low'
p9137
aS'med'
p9138
ag177
ag59
aS'big'
p9139
aS'low'
p9140
aS'unacc'
p9141
aa(lp9142
S'low'
p9143
aS'med'
p9144
ag177
ag59
aS'big'
p9145
aS'med'
p9146
aS'good'
p9147
aa(lp9148
S'low'
p9149
aS'med'
p9150
ag177
ag59
aS'big'
p9151
aS'high'
p9152
aS'vgood'
p9153
aa(lp9154
S'low'
p9155
aS'med'
p9156
ag177
aS'more'
p9157
aS'small'
p9158
aS'low'
p9159
aS'unacc'
p9160
aa(lp9161
S'low'
p9162
aS'med'
p9163
ag177
aS'more'
p9164
aS'small'
p9165
aS'med'
p9166
aS'acc'
p9167
aa(lp9168
S'low'
p9169
aS'med'
p9170
ag177
aS'more'
p9171
aS'small'
p9172
aS'high'
p9173
aS'good'
p9174
aa(lp9175
S'low'
p9176
aS'med'
p9177
ag177
aS'more'
p9178
aS'med'
p9179
aS'low'
p9180
aS'unacc'
p9181
aa(lp9182
S'low'
p9183
aS'med'
p9184
ag177
aS'more'
p9185
aS'med'
p9186
aS'med'
p9187
aS'good'
p9188
aa(lp9189
S'low'
p9190
aS'med'
p9191
ag177
aS'more'
p9192
aS'med'
p9193
aS'high'
p9194
aS'vgood'
p9195
aa(lp9196
S'low'
p9197
aS'med'
p9198
ag177
aS'more'
p9199
aS'big'
p9200
aS'low'
p9201
aS'unacc'
p9202
aa(lp9203
S'low'
p9204
aS'med'
p9205
ag177
aS'more'
p9206
aS'big'
p9207
aS'med'
p9208
aS'good'
p9209
aa(lp9210
S'low'
p9211
aS'med'
p9212
ag177
aS'more'
p9213
aS'big'
p9214
aS'high'
p9215
aS'vgood'
p9216
aa(lp9217
S'low'
p9218
aS'med'
p9219
ag59
ag4
aS'small'
p9220
aS'low'
p9221
aS'unacc'
p9222
aa(lp9223
S'low'
p9224
aS'med'
p9225
ag59
ag4
aS'small'
p9226
aS'med'
p9227
aS'unacc'
p9228
aa(lp9229
S'low'
p9230
aS'med'
p9231
ag59
ag4
aS'small'
p9232
aS'high'
p9233
aS'unacc'
p9234
aa(lp9235
S'low'
p9236
aS'med'
p9237
ag59
ag4
aS'med'
p9238
aS'low'
p9239
aS'unacc'
p9240
aa(lp9241
S'low'
p9242
aS'med'
p9243
ag59
ag4
aS'med'
p9244
aS'med'
p9245
aS'unacc'
p9246
aa(lp9247
S'low'
p9248
aS'med'
p9249
ag59
ag4
aS'med'
p9250
aS'high'
p9251
aS'unacc'
p9252
aa(lp9253
S'low'
p9254
aS'med'
p9255
ag59
ag4
aS'big'
p9256
aS'low'
p9257
aS'unacc'
p9258
aa(lp9259
S'low'
p9260
aS'med'
p9261
ag59
ag4
aS'big'
p9262
aS'med'
p9263
aS'unacc'
p9264
aa(lp9265
S'low'
p9266
aS'med'
p9267
ag59
ag4
aS'big'
p9268
aS'high'
p9269
aS'unacc'
p9270
aa(lp9271
S'low'
p9272
aS'med'
p9273
ag59
ag59
aS'small'
p9274
aS'low'
p9275
aS'unacc'
p9276
aa(lp9277
S'low'
p9278
aS'med'
p9279
ag59
ag59
aS'small'
p9280
aS'med'
p9281
aS'acc'
p9282
aa(lp9283
S'low'
p9284
aS'med'
p9285
ag59
ag59
aS'small'
p9286
aS'high'
p9287
aS'good'
p9288
aa(lp9289
S'low'
p9290
aS'med'
p9291
ag59
ag59
aS'med'
p9292
aS'low'
p9293
aS'unacc'
p9294
aa(lp9295
S'low'
p9296
aS'med'
p9297
ag59
ag59
aS'med'
p9298
aS'high'
p9299
aS'vgood'
p9300
aa(lp9301
S'low'
p9302
aS'med'
p9303
ag59
ag59
aS'big'
p9304
aS'low'
p9305
aS'unacc'
p9306
aa(lp9307
S'low'
p9308
aS'med'
p9309
ag59
ag59
aS'big'
p9310
aS'high'
p9311
aS'vgood'
p9312
aa(lp9313
S'low'
p9314
aS'med'
p9315
ag59
aS'more'
p9316
aS'small'
p9317
aS'low'
p9318
aS'unacc'
p9319
aa(lp9320
S'low'
p9321
aS'med'
p9322
ag59
aS'more'
p9323
aS'small'
p9324
aS'med'
p9325
aS'acc'
p9326
aa(lp9327
S'low'
p9328
aS'med'
p9329
ag59
aS'more'
p9330
aS'med'
p9331
aS'low'
p9332
aS'unacc'
p9333
aa(lp9334
S'low'
p9335
aS'med'
p9336
ag59
aS'more'
p9337
aS'med'
p9338
aS'high'
p9339
aS'vgood'
p9340
aa(lp9341
S'low'
p9342
aS'med'
p9343
ag59
aS'more'
p9344
aS'big'
p9345
aS'low'
p9346
aS'unacc'
p9347
aa(lp9348
S'low'
p9349
aS'med'
p9350
ag59
aS'more'
p9351
aS'big'
p9352
aS'high'
p9353
aS'vgood'
p9354
aa(lp9355
S'low'
p9356
aS'med'
p9357
aS'5more'
p9358
ag4
aS'small'
p9359
aS'low'
p9360
aS'unacc'
p9361
aa(lp9362
S'low'
p9363
aS'med'
p9364
aS'5more'
p9365
ag4
aS'small'
p9366
aS'med'
p9367
aS'unacc'
p9368
aa(lp9369
S'low'
p9370
aS'med'
p9371
aS'5more'
p9372
ag4
aS'small'
p9373
aS'high'
p9374
aS'unacc'
p9375
aa(lp9376
S'low'
p9377
aS'med'
p9378
aS'5more'
p9379
ag4
aS'med'
p9380
aS'low'
p9381
aS'unacc'
p9382
aa(lp9383
S'low'
p9384
aS'med'
p9385
aS'5more'
p9386
ag4
aS'med'
p9387
aS'med'
p9388
aS'unacc'
p9389
aa(lp9390
S'low'
p9391
aS'med'
p9392
aS'5more'
p9393
ag4
aS'med'
p9394
aS'high'
p9395
aS'unacc'
p9396
aa(lp9397
S'low'
p9398
aS'med'
p9399
aS'5more'
p9400
ag4
aS'big'
p9401
aS'low'
p9402
aS'unacc'
p9403
aa(lp9404
S'low'
p9405
aS'med'
p9406
aS'5more'
p9407
ag4
aS'big'
p9408
aS'med'
p9409
aS'unacc'
p9410
aa(lp9411
S'low'
p9412
aS'med'
p9413
aS'5more'
p9414
ag4
aS'big'
p9415
aS'high'
p9416
aS'unacc'
p9417
aa(lp9418
S'low'
p9419
aS'med'
p9420
aS'5more'
p9421
ag59
aS'small'
p9422
aS'low'
p9423
aS'unacc'
p9424
aa(lp9425
S'low'
p9426
aS'med'
p9427
aS'5more'
p9428
ag59
aS'small'
p9429
aS'med'
p9430
aS'acc'
p9431
aa(lp9432
S'low'
p9433
aS'med'
p9434
aS'5more'
p9435
ag59
aS'med'
p9436
aS'low'
p9437
aS'unacc'
p9438
aa(lp9439
S'low'
p9440
aS'med'
p9441
aS'5more'
p9442
ag59
aS'med'
p9443
aS'high'
p9444
aS'vgood'
p9445
aa(lp9446
S'low'
p9447
aS'med'
p9448
aS'5more'
p9449
ag59
aS'big'
p9450
aS'low'
p9451
aS'unacc'
p9452
aa(lp9453
S'low'
p9454
aS'med'
p9455
aS'5more'
p9456
ag59
aS'big'
p9457
aS'med'
p9458
aS'good'
p9459
aa(lp9460
S'low'
p9461
aS'med'
p9462
aS'5more'
p9463
ag59
aS'big'
p9464
aS'high'
p9465
aS'vgood'
p9466
aa(lp9467
S'low'
p9468
aS'med'
p9469
aS'5more'
p9470
aS'more'
p9471
aS'small'
p9472
aS'low'
p9473
aS'unacc'
p9474
aa(lp9475
S'low'
p9476
aS'med'
p9477
aS'5more'
p9478
aS'more'
p9479
aS'small'
p9480
aS'med'
p9481
aS'acc'
p9482
aa(lp9483
S'low'
p9484
aS'med'
p9485
aS'5more'
p9486
aS'more'
p9487
aS'small'
p9488
aS'high'
p9489
aS'good'
p9490
aa(lp9491
S'low'
p9492
aS'med'
p9493
aS'5more'
p9494
aS'more'
p9495
aS'med'
p9496
aS'low'
p9497
aS'unacc'
p9498
aa(lp9499
S'low'
p9500
aS'med'
p9501
aS'5more'
p9502
aS'more'
p9503
aS'med'
p9504
aS'med'
p9505
aS'good'
p9506
aa(lp9507
S'low'
p9508
aS'med'
p9509
aS'5more'
p9510
aS'more'
p9511
aS'med'
p9512
aS'high'
p9513
aS'vgood'
p9514
aa(lp9515
S'low'
p9516
aS'med'
p9517
aS'5more'
p9518
aS'more'
p9519
aS'big'
p9520
aS'low'
p9521
aS'unacc'
p9522
aa(lp9523
S'low'
p9524
aS'med'
p9525
aS'5more'
p9526
aS'more'
p9527
aS'big'
p9528
aS'med'
p9529
aS'good'
p9530
aa(lp9531
S'low'
p9532
aS'med'
p9533
aS'5more'
p9534
aS'more'
p9535
aS'big'
p9536
aS'high'
p9537
aS'vgood'
p9538
aa(lp9539
S'low'
p9540
aS'low'
p9541
ag4
ag4
aS'small'
p9542
aS'low'
p9543
aS'unacc'
p9544
aa(lp9545
S'low'
p9546
aS'low'
p9547
ag4
ag4
aS'small'
p9548
aS'med'
p9549
aS'unacc'
p9550
aa(lp9551
S'low'
p9552
aS'low'
p9553
ag4
ag4
aS'small'
p9554
aS'high'
p9555
aS'unacc'
p9556
aa(lp9557
S'low'
p9558
aS'low'
p9559
ag4
ag4
aS'med'
p9560
aS'low'
p9561
aS'unacc'
p9562
aa(lp9563
S'low'
p9564
aS'low'
p9565
ag4
ag4
aS'med'
p9566
aS'med'
p9567
aS'unacc'
p9568
aa(lp9569
S'low'
p9570
aS'low'
p9571
ag4
ag4
aS'med'
p9572
aS'high'
p9573
aS'unacc'
p9574
aa(lp9575
S'low'
p9576
aS'low'
p9577
ag4
ag4
aS'big'
p9578
aS'low'
p9579
aS'unacc'
p9580
aa(lp9581
S'low'
p9582
aS'low'
p9583
ag4
ag4
aS'big'
p9584
aS'med'
p9585
aS'unacc'
p9586
aa(lp9587
S'low'
p9588
aS'low'
p9589
ag4
ag4
aS'big'
p9590
aS'high'
p9591
aS'unacc'
p9592
aa(lp9593
S'low'
p9594
aS'low'
p9595
ag4
ag59
aS'small'
p9596
aS'low'
p9597
aS'unacc'
p9598
aa(lp9599
S'low'
p9600
aS'low'
p9601
ag4
ag59
aS'small'
p9602
aS'med'
p9603
aS'acc'
p9604
aa(lp9605
S'low'
p9606
aS'low'
p9607
ag4
ag59
aS'small'
p9608
aS'high'
p9609
aS'good'
p9610
aa(lp9611
S'low'
p9612
aS'low'
p9613
ag4
ag59
aS'med'
p9614
aS'low'
p9615
aS'unacc'
p9616
aa(lp9617
S'low'
p9618
aS'low'
p9619
ag4
ag59
aS'med'
p9620
aS'med'
p9621
aS'acc'
p9622
aa(lp9623
S'low'
p9624
aS'low'
p9625
ag4
ag59
aS'med'
p9626
aS'high'
p9627
aS'good'
p9628
aa(lp9629
S'low'
p9630
aS'low'
p9631
ag4
ag59
aS'big'
p9632
aS'low'
p9633
aS'unacc'
p9634
aa(lp9635
S'low'
p9636
aS'low'
p9637
ag4
ag59
aS'big'
p9638
aS'med'
p9639
aS'good'
p9640
aa(lp9641
S'low'
p9642
aS'low'
p9643
ag4
ag59
aS'big'
p9644
aS'high'
p9645
aS'vgood'
p9646
aa(lp9647
S'low'
p9648
aS'low'
p9649
ag4
aS'more'
p9650
aS'small'
p9651
aS'low'
p9652
aS'unacc'
p9653
aa(lp9654
S'low'
p9655
aS'low'
p9656
ag4
aS'more'
p9657
aS'small'
p9658
aS'med'
p9659
aS'unacc'
p9660
aa(lp9661
S'low'
p9662
aS'low'
p9663
ag4
aS'more'
p9664
aS'small'
p9665
aS'high'
p9666
aS'unacc'
p9667
aa(lp9668
S'low'
p9669
aS'low'
p9670
ag4
aS'more'
p9671
aS'med'
p9672
aS'low'
p9673
aS'unacc'
p9674
aa(lp9675
S'low'
p9676
aS'low'
p9677
ag4
aS'more'
p9678
aS'med'
p9679
aS'med'
p9680
aS'acc'
p9681
aa(lp9682
S'low'
p9683
aS'low'
p9684
ag4
aS'more'
p9685
aS'med'
p9686
aS'high'
p9687
aS'good'
p9688
aa(lp9689
S'low'
p9690
aS'low'
p9691
ag4
aS'more'
p9692
aS'big'
p9693
aS'low'
p9694
aS'unacc'
p9695
aa(lp9696
S'low'
p9697
aS'low'
p9698
ag4
aS'more'
p9699
aS'big'
p9700
aS'med'
p9701
aS'good'
p9702
aa(lp9703
S'low'
p9704
aS'low'
p9705
ag4
aS'more'
p9706
aS'big'
p9707
aS'high'
p9708
aS'vgood'
p9709
aa(lp9710
S'low'
p9711
aS'low'
p9712
ag177
ag4
aS'small'
p9713
aS'low'
p9714
aS'unacc'
p9715
aa(lp9716
S'low'
p9717
aS'low'
p9718
ag177
ag4
aS'small'
p9719
aS'med'
p9720
aS'unacc'
p9721
aa(lp9722
S'low'
p9723
aS'low'
p9724
ag177
ag4
aS'small'
p9725
aS'high'
p9726
aS'unacc'
p9727
aa(lp9728
S'low'
p9729
aS'low'
p9730
ag177
ag4
aS'med'
p9731
aS'low'
p9732
aS'unacc'
p9733
aa(lp9734
S'low'
p9735
aS'low'
p9736
ag177
ag4
aS'med'
p9737
aS'med'
p9738
aS'unacc'
p9739
aa(lp9740
S'low'
p9741
aS'low'
p9742
ag177
ag4
aS'med'
p9743
aS'high'
p9744
aS'unacc'
p9745
aa(lp9746
S'low'
p9747
aS'low'
p9748
ag177
ag4
aS'big'
p9749
aS'low'
p9750
aS'unacc'
p9751
aa(lp9752
S'low'
p9753
aS'low'
p9754
ag177
ag4
aS'big'
p9755
aS'med'
p9756
aS'unacc'
p9757
aa(lp9758
S'low'
p9759
aS'low'
p9760
ag177
ag4
aS'big'
p9761
aS'high'
p9762
aS'unacc'
p9763
aa(lp9764
S'low'
p9765
aS'low'
p9766
ag177
ag59
aS'small'
p9767
aS'low'
p9768
aS'unacc'
p9769
aa(lp9770
S'low'
p9771
aS'low'
p9772
ag177
ag59
aS'small'
p9773
aS'med'
p9774
aS'acc'
p9775
aa(lp9776
S'low'
p9777
aS'low'
p9778
ag177
ag59
aS'small'
p9779
aS'high'
p9780
aS'good'
p9781
aa(lp9782
S'low'
p9783
aS'low'
p9784
ag177
ag59
aS'med'
p9785
aS'low'
p9786
aS'unacc'
p9787
aa(lp9788
S'low'
p9789
aS'low'
p9790
ag177
ag59
aS'med'
p9791
aS'med'
p9792
aS'acc'
p9793
aa(lp9794
S'low'
p9795
aS'low'
p9796
ag177
ag59
aS'med'
p9797
aS'high'
p9798
aS'good'
p9799
aa(lp9800
S'low'
p9801
aS'low'
p9802
ag177
ag59
aS'big'
p9803
aS'low'
p9804
aS'unacc'
p9805
aa(lp9806
S'low'
p9807
aS'low'
p9808
ag177
ag59
aS'big'
p9809
aS'med'
p9810
aS'good'
p9811
aa(lp9812
S'low'
p9813
aS'low'
p9814
ag177
ag59
aS'big'
p9815
aS'high'
p9816
aS'vgood'
p9817
aa(lp9818
S'low'
p9819
aS'low'
p9820
ag177
aS'more'
p9821
aS'small'
p9822
aS'low'
p9823
aS'unacc'
p9824
aa(lp9825
S'low'
p9826
aS'low'
p9827
ag177
aS'more'
p9828
aS'small'
p9829
aS'med'
p9830
aS'acc'
p9831
aa(lp9832
S'low'
p9833
aS'low'
p9834
ag177
aS'more'
p9835
aS'small'
p9836
aS'high'
p9837
aS'good'
p9838
aa(lp9839
S'low'
p9840
aS'low'
p9841
ag177
aS'more'
p9842
aS'med'
p9843
aS'low'
p9844
aS'unacc'
p9845
aa(lp9846
S'low'
p9847
aS'low'
p9848
ag177
aS'more'
p9849
aS'med'
p9850
aS'med'
p9851
aS'good'
p9852
aa(lp9853
S'low'
p9854
aS'low'
p9855
ag177
aS'more'
p9856
aS'med'
p9857
aS'high'
p9858
aS'vgood'
p9859
aa(lp9860
S'low'
p9861
aS'low'
p9862
ag177
aS'more'
p9863
aS'big'
p9864
aS'low'
p9865
aS'unacc'
p9866
aa(lp9867
S'low'
p9868
aS'low'
p9869
ag177
aS'more'
p9870
aS'big'
p9871
aS'med'
p9872
aS'good'
p9873
aa(lp9874
S'low'
p9875
aS'low'
p9876
ag177
aS'more'
p9877
aS'big'
p9878
aS'high'
p9879
aS'vgood'
p9880
aa(lp9881
S'low'
p9882
aS'low'
p9883
ag59
ag4
aS'small'
p9884
aS'low'
p9885
aS'unacc'
p9886
aa(lp9887
S'low'
p9888
aS'low'
p9889
ag59
ag4
aS'small'
p9890
aS'med'
p9891
aS'unacc'
p9892
aa(lp9893
S'low'
p9894
aS'low'
p9895
ag59
ag4
aS'small'
p9896
aS'high'
p9897
aS'unacc'
p9898
aa(lp9899
S'low'
p9900
aS'low'
p9901
ag59
ag4
aS'med'
p9902
aS'low'
p9903
aS'unacc'
p9904
aa(lp9905
S'low'
p9906
aS'low'
p9907
ag59
ag4
aS'med'
p9908
aS'med'
p9909
aS'unacc'
p9910
aa(lp9911
S'low'
p9912
aS'low'
p9913
ag59
ag4
aS'med'
p9914
aS'high'
p9915
aS'unacc'
p9916
aa(lp9917
S'low'
p9918
aS'low'
p9919
ag59
ag4
aS'big'
p9920
aS'low'
p9921
aS'unacc'
p9922
aa(lp9923
S'low'
p9924
aS'low'
p9925
ag59
ag4
aS'big'
p9926
aS'med'
p9927
aS'unacc'
p9928
aa(lp9929
S'low'
p9930
aS'low'
p9931
ag59
ag4
aS'big'
p9932
aS'high'
p9933
aS'unacc'
p9934
aa(lp9935
S'low'
p9936
aS'low'
p9937
ag59
ag59
aS'small'
p9938
aS'low'
p9939
aS'unacc'
p9940
aa(lp9941
S'low'
p9942
aS'low'
p9943
ag59
ag59
aS'small'
p9944
aS'med'
p9945
aS'acc'
p9946
aa(lp9947
S'low'
p9948
aS'low'
p9949
ag59
ag59
aS'small'
p9950
aS'high'
p9951
aS'good'
p9952
aa(lp9953
S'low'
p9954
aS'low'
p9955
ag59
ag59
aS'med'
p9956
aS'low'
p9957
aS'unacc'
p9958
aa(lp9959
S'low'
p9960
aS'low'
p9961
ag59
ag59
aS'med'
p9962
aS'med'
p9963
aS'good'
p9964
aa(lp9965
S'low'
p9966
aS'low'
p9967
ag59
ag59
aS'med'
p9968
aS'high'
p9969
aS'vgood'
p9970
aa(lp9971
S'low'
p9972
aS'low'
p9973
ag59
ag59
aS'big'
p9974
aS'low'
p9975
aS'unacc'
p9976
aa(lp9977
S'low'
p9978
aS'low'
p9979
ag59
ag59
aS'big'
p9980
aS'med'
p9981
aS'good'
p9982
aa(lp9983
S'low'
p9984
aS'low'
p9985
ag59
ag59
aS'big'
p9986
aS'high'
p9987
aS'vgood'
p9988
aa(lp9989
S'low'
p9990
aS'low'
p9991
ag59
aS'more'
p9992
aS'small'
p9993
aS'low'
p9994
aS'unacc'
p9995
aa(lp9996
S'low'
p9997
aS'low'
p9998
ag59
aS'more'
p9999
aS'small'
p10000
aS'med'
p10001
aS'acc'
p10002
aa(lp10003
S'low'
p10004
aS'low'
p10005
ag59
aS'more'
p10006
aS'small'
p10007
aS'high'
p10008
aS'good'
p10009
aa(lp10010
S'low'
p10011
aS'low'
p10012
ag59
aS'more'
p10013
aS'med'
p10014
aS'low'
p10015
aS'unacc'
p10016
aa(lp10017
S'low'
p10018
aS'low'
p10019
ag59
aS'more'
p10020
aS'med'
p10021
aS'med'
p10022
aS'good'
p10023
aa(lp10024
S'low'
p10025
aS'low'
p10026
ag59
aS'more'
p10027
aS'med'
p10028
aS'high'
p10029
aS'vgood'
p10030
aa(lp10031
S'low'
p10032
aS'low'
p10033
ag59
aS'more'
p10034
aS'big'
p10035
aS'low'
p10036
aS'unacc'
p10037
aa(lp10038
S'low'
p10039
aS'low'
p10040
ag59
aS'more'
p10041
aS'big'
p10042
aS'med'
p10043
aS'good'
p10044
aa(lp10045
S'low'
p10046
aS'low'
p10047
ag59
aS'more'
p10048
aS'big'
p10049
aS'high'
p10050
aS'vgood'
p10051
aa(lp10052
S'low'
p10053
aS'low'
p10054
aS'5more'
p10055
ag4
aS'small'
p10056
aS'low'
p10057
aS'unacc'
p10058
aa(lp10059
S'low'
p10060
aS'low'
p10061
aS'5more'
p10062
ag4
aS'small'
p10063
aS'med'
p10064
aS'unacc'
p10065
aa(lp10066
S'low'
p10067
aS'low'
p10068
aS'5more'
p10069
ag4
aS'small'
p10070
aS'high'
p10071
aS'unacc'
p10072
aa(lp10073
S'low'
p10074
aS'low'
p10075
aS'5more'
p10076
ag4
aS'med'
p10077
aS'low'
p10078
aS'unacc'
p10079
aa(lp10080
S'low'
p10081
aS'low'
p10082
aS'5more'
p10083
ag4
aS'med'
p10084
aS'med'
p10085
aS'unacc'
p10086
aa(lp10087
S'low'
p10088
aS'low'
p10089
aS'5more'
p10090
ag4
aS'med'
p10091
aS'high'
p10092
aS'unacc'
p10093
aa(lp10094
S'low'
p10095
aS'low'
p10096
aS'5more'
p10097
ag4
aS'big'
p10098
aS'low'
p10099
aS'unacc'
p10100
aa(lp10101
S'low'
p10102
aS'low'
p10103
aS'5more'
p10104
ag4
aS'big'
p10105
aS'med'
p10106
aS'unacc'
p10107
aa(lp10108
S'low'
p10109
aS'low'
p10110
aS'5more'
p10111
ag4
aS'big'
p10112
aS'high'
p10113
aS'unacc'
p10114
aa(lp10115
S'low'
p10116
aS'low'
p10117
aS'5more'
p10118
ag59
aS'small'
p10119
aS'low'
p10120
aS'unacc'
p10121
aa(lp10122
S'low'
p10123
aS'low'
p10124
aS'5more'
p10125
ag59
aS'small'
p10126
aS'med'
p10127
aS'acc'
p10128
aa(lp10129
S'low'
p10130
aS'low'
p10131
aS'5more'
p10132
ag59
aS'small'
p10133
aS'high'
p10134
aS'good'
p10135
aa(lp10136
S'low'
p10137
aS'low'
p10138
aS'5more'
p10139
ag59
aS'med'
p10140
aS'low'
p10141
aS'unacc'
p10142
aa(lp10143
S'low'
p10144
aS'low'
p10145
aS'5more'
p10146
ag59
aS'med'
p10147
aS'med'
p10148
aS'good'
p10149
aa(lp10150
S'low'
p10151
aS'low'
p10152
aS'5more'
p10153
ag59
aS'med'
p10154
aS'high'
p10155
aS'vgood'
p10156
aa(lp10157
S'low'
p10158
aS'low'
p10159
aS'5more'
p10160
ag59
aS'big'
p10161
aS'low'
p10162
aS'unacc'
p10163
aa(lp10164
S'low'
p10165
aS'low'
p10166
aS'5more'
p10167
ag59
aS'big'
p10168
aS'med'
p10169
aS'good'
p10170
aa(lp10171
S'low'
p10172
aS'low'
p10173
aS'5more'
p10174
ag59
aS'big'
p10175
aS'high'
p10176
aS'vgood'
p10177
aa(lp10178
S'low'
p10179
aS'low'
p10180
aS'5more'
p10181
aS'more'
p10182
aS'small'
p10183
aS'low'
p10184
aS'unacc'
p10185
aa(lp10186
S'low'
p10187
aS'low'
p10188
aS'5more'
p10189
aS'more'
p10190
aS'small'
p10191
aS'med'
p10192
aS'acc'
p10193
aa(lp10194
S'low'
p10195
aS'low'
p10196
aS'5more'
p10197
aS'more'
p10198
aS'small'
p10199
aS'high'
p10200
aS'good'
p10201
aa(lp10202
S'low'
p10203
aS'low'
p10204
aS'5more'
p10205
aS'more'
p10206
aS'med'
p10207
aS'low'
p10208
aS'unacc'
p10209
aa(lp10210
S'low'
p10211
aS'low'
p10212
aS'5more'
p10213
aS'more'
p10214
aS'med'
p10215
aS'med'
p10216
aS'good'
p10217
aa(lp10218
S'low'
p10219
aS'low'
p10220
aS'5more'
p10221
aS'more'
p10222
aS'med'
p10223
aS'high'
p10224
aS'vgood'
p10225
aa(lp10226
S'low'
p10227
aS'low'
p10228
aS'5more'
p10229
aS'more'
p10230
aS'big'
p10231
aS'low'
p10232
aS'unacc'
p10233
aa(lp10234
S'low'
p10235
aS'low'
p10236
aS'5more'
p10237
aS'more'
p10238
aS'big'
p10239
aS'med'
p10240
aS'good'
p10241
aa(lp10242
S'low'
p10243
aS'low'
p10244
aS'5more'
p10245
aS'more'
p10246
aS'big'
p10247
aS'high'
p10248
aS'vgood'
p10249
aa.