(lp0
(lp1
S'vhigh'
p2
aS'vhigh'
p3
aS'2'
p4
ag4
aS'small'
p5
aS'low'
p6
aS'unacc'
p7
aa(lp8
S'vhigh'
p9
aS'vhigh'
p10
ag4
ag4
aS'small'
p11
aS'med'
p12
aS'unacc'
p13
aa(lp14
S'vhigh'
p15
aS'vhigh'
p16
ag4
ag4
aS'small'
p17
aS'high'
p18
aS'unacc'
p19
aa(lp20
S'vhigh'
p21
aS'vhigh'
p22
ag4
ag4
aS'med'
p23
aS'low'
p24
aS'unacc'
p25
aa(lp26
S'vhigh'
p27
aS'vhigh'
p28
ag4
ag4
aS'med'
p29
aS'med'
p30
aS'unacc'
p31
aa(lp32
S'vhigh'
p33
aS'vhigh'
p34
ag4
ag4
aS'med'
p35
aS'high'
p36
aS'unacc'
p37
aa(lp38
S'vhigh'
p39
aS'vhigh'
p40
ag4
ag4
aS'big'
p41
aS'low'
p42
aS'unacc'
p43
aa(lp44
S'vhigh'
p45
aS'vhigh'
p46
ag4
ag4
aS'big'
p47
aS'med'
p48
aS'unacc'
p49
aa(lp50
S'vhigh'
p51
aS'vhigh'
p52
ag4
ag4
aS'big'
p53
aS'high'
p54
aS'unacc'
p55
aa(lp56
S'vhigh'
p57
aS'vhigh'
p58
ag4
aS'4'
p59
aS'small'
p60
aS'low'
p61
aS'unacc'
p62
aa(lp63
S'vhigh'
p64
aS'vhigh'
p65
ag4
ag59
aS'small'
p66
aS'med'
p67
aS'unacc'
p68
aa(lp69
S'vhigh'
p70
aS'vhigh'
p71
ag4
ag59
aS'small'
p72
aS'high'
p73
aS'unacc'
p74
aa(lp75
S'vhigh'
p76
aS'vhigh'
p77
ag4
ag59
aS'med'
p78
aS'low'
p79
aS'unacc'
p80
aa(lp81
S'vhigh'
p82
aS'vhigh'
p83
ag4
ag59
aS'med'
p84
aS'med'
p85
aS'unacc'
p86
aa(lp87
S'vhigh'
p88
aS'vhigh'
p89
ag4
ag59
aS'med'
p90
aS'high'
p91
aS'unacc'
p92
aa(lp93
S'vhigh'
p94
aS'vhigh'
p95
ag4
ag59
aS'big'
p96
aS'low'
p97
aS'unacc'
p98
aa(lp99
S'vhigh'
p100
aS'vhigh'
p101
ag4
ag59
aS'big'
p102
aS'med'
p103
aS'unacc'
p104
aa(lp105
S'vhigh'
p106
aS'vhigh'
p107
ag4
ag59
aS'big'
p108
aS'high'
p109
aS'unacc'
p110
aa(lp111
S'vhigh'
p112
aS'vhigh'
p113
ag4
aS'more'
p114
aS'small'
p115
aS'low'
p116
aS'unacc'
p117
aa(lp118
S'vhigh'
p119
aS'vhigh'
p120
ag4
aS'more'
p121
aS'small'
p122
aS'med'
p123
aS'unacc'
p124
aa(lp125
S'vhigh'
p126
aS'vhigh'
p127
ag4
aS'more'
p128
aS'small'
p129
aS'high'
p130
aS'unacc'
p131
aa(lp132
S'vhigh'
p133
aS'vhigh'
p134
ag4
aS'more'
p135
aS'med'
p136
aS'low'
p137
aS'unacc'
p138
aa(lp139
S'vhigh'
p140
aS'vhigh'
p141
ag4
aS'more'
p142
aS'med'
p143
aS'med'
p144
aS'unacc'
p145
aa(lp146
S'vhigh'
p147
aS'vhigh'
p148
ag4
aS'more'
p149
aS'med'
p150
aS'high'
p151
aS'unacc'
p152
aa(lp153
S'vhigh'
p154
aS'vhigh'
p155
ag4
aS'more'
p156
aS'big'
p157
aS'low'
p158
aS'unacc'
p159
aa(lp160
S'vhigh'
p161
aS'vhigh'
p162
ag4
aS'more'
p163
aS'big'
p164
aS'med'
p165
aS'unacc'
p166
aa(lp167
S'vhigh'
p168
aS'vhigh'
p169
ag4
aS'more'
p170
aS'big'
p171
aS'high'
p172
aS'unacc'
p173
aa(lp174
S'vhigh'
p175
aS'vhigh'
p176
aS'3'
p177
ag4
aS'small'
p178
aS'low'
p179
aS'unacc'
p180
aa(lp181
S'vhigh'
p182
aS'vhigh'
p183
ag177
ag4
aS'small'
p184
aS'med'
p185
aS'unacc'
p186
aa(lp187
S'vhigh'
p188
aS'vhigh'
p189
ag177
ag4
aS'small'
p190
aS'high'
p191
aS'unacc'
p192
aa(lp193
S'vhigh'
p194
aS'vhigh'
p195
ag177
ag4
aS'med'
p196
aS'low'
p197
aS'unacc'
p198
aa(lp199
S'vhigh'
p200
aS'vhigh'
p201
ag177
ag4
aS'med'
p202
aS'med'
p203
aS'unacc'
p204
aa(lp205
S'vhigh'
p206
aS'vhigh'
p207
ag177
ag4
aS'med'
p208
aS'high'
p209
aS'unacc'
p210
aa(lp211
S'vhigh'
p212
aS'vhigh'
p213
ag177
ag4
aS'big'
p214
aS'low'
p215
aS'unacc'
p216
aa(lp217
S'vhigh'
p218
aS'vhigh'
p219
ag177
ag4
aS'big'
p220
aS'med'
p221
aS'unacc'
p222
aa(lp223
S'vhigh'
p224
aS'vhigh'
p225
ag177
ag4
aS'big'
p226
aS'high'
p227
aS'unacc'
p228
aa(lp229
S'vhigh'
p230
aS'vhigh'
p231
ag177
ag59
aS'small'
p232
aS'low'
p233
aS'unacc'
p234
aa(lp235
S'vhigh'
p236
aS'vhigh'
p237
ag177
ag59
aS'small'
p238
aS'med'
p239
aS'unacc'
p240
aa(lp241
S'vhigh'
p242
aS'vhigh'
p243
ag177
ag59
aS'small'
p244
aS'high'
p245
aS'unacc'
p246
aa(lp247
S'vhigh'
p248
aS'vhigh'
p249
ag177
ag59
aS'med'
p250
aS'low'
p251
aS'unacc'
p252
aa(lp253
S'vhigh'
p254
aS'vhigh'
p255
ag177
ag59
aS'med'
p256
aS'med'
p257
aS'unacc'
p258
aa(lp259
S'vhigh'
p260
aS'vhigh'
p261
ag177
ag59
aS'med'
p262
aS'high'
p263
aS'unacc'
p264
aa(lp265
S'vhigh'
p266
aS'vhigh'
p267
ag177
ag59
aS'big'
p268
aS'low'
p269
aS'unacc'
p270
aa(lp271
S'vhigh'
p272
aS'vhigh'
p273
ag177
ag59
aS'big'
p274
aS'med'
p275
aS'unacc'
p276
aa(lp277
S'vhigh'
p278
aS'vhigh'
p279
ag177
ag59
aS'big'
p280
aS'high'
p281
aS'unacc'
p282
aa(lp283
S'vhigh'
p284
aS'vhigh'
p285
ag177
aS'more'
p286
aS'small'
p287
aS'low'
p288
aS'unacc'
p289
aa(lp290
S'vhigh'
p291
aS'vhigh'
p292
ag177
aS'more'
p293
aS'small'
p294
aS'med'
p295
aS'unacc'
p296
aa(lp297
S'vhigh'
p298
aS'vhigh'
p299
ag177
aS'more'
p300
aS'small'
p301
aS'high'
p302
aS'unacc'
p303
aa(lp304
S'vhigh'
p305
aS'vhigh'
p306
ag177
aS'more'
p307
aS'med'
p308
aS'low'
p309
aS'unacc'
p310
aa(lp311
S'vhigh'
p312
aS'vhigh'
p313
ag177
aS'more'
p314
aS'med'
p315
aS'med'
p316
aS'unacc'
p317
aa(lp318
S'vhigh'
p319
aS'vhigh'
p320
ag177
aS'more'
p321
aS'med'
p322
aS'high'
p323
aS'unacc'
p324
aa(lp325
S'vhigh'
p326
aS'vhigh'
p327
ag177
aS'more'
p328
aS'big'
p329
aS'low'
p330
aS'unacc'
p331
aa(lp332
S'vhigh'
p333
aS'vhigh'
p334
ag177
aS'more'
p335
aS'big'
p336
aS'med'
p337
aS'unacc'
p338
aa(lp339
S'vhigh'
p340
aS'vhigh'
p341
ag177
aS'more'
p342
aS'big'
p343
aS'high'
p344
aS'unacc'
p345
aa(lp346
S'vhigh'
p347
aS'vhigh'
p348
ag59
ag4
aS'small'
p349
aS'low'
p350
aS'unacc'
p351
aa(lp352
S'vhigh'
p353
aS'vhigh'
p354
ag59
ag4
aS'small'
p355
aS'med'
p356
aS'unacc'
p357
aa(lp358
S'vhigh'
p359
aS'vhigh'
p360
ag59
ag4
aS'small'
p361
aS'high'
p362
aS'unacc'
p363
aa(lp364
S'vhigh'
p365
aS'vhigh'
p366
ag59
ag4
aS'med'
p367
aS'low'
p368
aS'unacc'
p369
aa(lp370
S'vhigh'
p371
aS'vhigh'
p372
ag59
ag4
aS'med'
p373
aS'med'
p374
aS'unacc'
p375
aa(lp376
S'vhigh'
p377
aS'vhigh'
p378
ag59
ag4
aS'med'
p379
aS'high'
p380
aS'unacc'
p381
aa(lp382
S'vhigh'
p383
aS'vhigh'
p384
ag59
ag4
aS'big'
p385
aS'low'
p386
aS'unacc'
p387
aa(lp388
S'vhigh'
p389
aS'vhigh'
p390
ag59
ag4
aS'big'
p391
aS'med'
p392
aS'unacc'
p393
aa(lp394
S'vhigh'
p395
aS'vhigh'
p396
ag59
ag4
aS'big'
p397
aS'high'
p398
aS'unacc'
p399
aa(lp400
S'vhigh'
p401
aS'vhigh'
p402
ag59
ag59
aS'small'
p403
aS'low'
p404
aS'unacc'
p405
aa(lp406
S'vhigh'
p407
aS'vhigh'
p408
ag59
ag59
aS'small'
p409
aS'med'
p410
aS'unacc'
p411
aa(lp412
S'vhigh'
p413
aS'vhigh'
p414
ag59
ag59
aS'small'
p415
aS'high'
p416
aS'unacc'
p417
aa(lp418
S'vhigh'
p419
aS'vhigh'
p420
ag59
ag59
aS'med'
p421
aS'low'
p422
aS'unacc'
p423
aa(lp424
S'vhigh'
p425
aS'vhigh'
p426
ag59
ag59
aS'med'
p427
aS'med'
p428
aS'unacc'
p429
aa(lp430
S'vhigh'
p431
aS'vhigh'
p432
ag59
ag59
aS'med'
p433
aS'high'
p434
aS'unacc'
p435
aa(lp436
S'vhigh'
p437
aS'vhigh'
p438
ag59
ag59
aS'big'
p439
aS'low'
p440
aS'unacc'
p441
aa(lp442
S'vhigh'
p443
aS'vhigh'
p444
ag59
ag59
aS'big'
p445
aS'med'
p446
aS'unacc'
p447
aa(lp448
S'vhigh'
p449
aS'vhigh'
p450
ag59
ag59
aS'big'
p451
aS'high'
p452
aS'unacc'
p453
aa(lp454
S'vhigh'
p455
aS'vhigh'
p456
ag59
aS'more'
p457
aS'small'
p458
aS'low'
p459
aS'unacc'
p460
aa(lp461
S'vhigh'
p462
aS'vhigh'
p463
ag59
aS'more'
p464
aS'small'
p465
aS'med'
p466
aS'unacc'
p467
aa(lp468
S'vhigh'
p469
aS'vhigh'
p470
ag59
aS'more'
p471
aS'small'
p472
aS'high'
p473
aS'unacc'
p474
aa(lp475
S'vhigh'
p476
aS'vhigh'
p477
ag59
aS'more'
p478
aS'med'
p479
aS'low'
p480
aS'unacc'
p481
aa(lp482
S'vhigh'
p483
aS'vhigh'
p484
ag59
aS'more'
p485
aS'med'
p486
aS'med'
p487
aS'unacc'
p488
aa(lp489
S'vhigh'
p490
aS'vhigh'
p491
ag59
aS'more'
p492
aS'med'
p493
aS'high'
p494
aS'unacc'
p495
aa(lp496
S'vhigh'
p497
aS'vhigh'
p498
ag59
aS'more'
p499
aS'big'
p500
aS'low'
p501
aS'unacc'
p502
aa(lp503
S'vhigh'
p504
aS'vhigh'
p505
ag59
aS'more'
p506
aS'big'
p507
aS'med'
p508
aS'unacc'
p509
aa(lp510
S'vhigh'
p511
aS'vhigh'
p512
ag59
aS'more'
p513
aS'big'
p514
aS'high'
p515
aS'unacc'
p516
aa(lp517
S'vhigh'
p518
aS'vhigh'
p519
aS'5more'
p520
ag4
aS'small'
p521
aS'low'
p522
aS'unacc'
p523
aa(lp524
S'vhigh'
p525
aS'vhigh'
p526
aS'5more'
p527
ag4
aS'small'
p528
aS'med'
p529
aS'unacc'
p530
aa(lp531
S'vhigh'
p532
aS'vhigh'
p533
aS'5more'
p534
ag4
aS'small'
p535
aS'high'
p536
aS'unacc'
p537
aa(lp538
S'vhigh'
p539
aS'vhigh'
p540
aS'5more'
p541
ag4
aS'med'
p542
aS'low'
p543
aS'unacc'
p544
aa(lp545
S'vhigh'
p546
aS'vhigh'
p547
aS'5more'
p548
ag4
aS'med'
p549
aS'med'
p550
aS'unacc'
p551
aa(lp552
S'vhigh'
p553
aS'vhigh'
p554
aS'5more'
p555
ag4
aS'med'
p556
aS'high'
p557
aS'unacc'
p558
aa(lp559
S'vhigh'
p560
aS'vhigh'
p561
aS'5more'
p562
ag4
aS'big'
p563
aS'low'
p564
aS'unacc'
p565
aa(lp566
S'vhigh'
p567
aS'vhigh'
p568
aS'5more'
p569
ag4
aS'big'
p570
aS'med'
p571
aS'unacc'
p572
aa(lp573
S'vhigh'
p574
aS'vhigh'
p575
aS'5more'
p576
ag4
aS'big'
p577
aS'high'
p578
aS'unacc'
p579
aa(lp580
S'vhigh'
p581
aS'vhigh'
p582
aS'5more'
p583
ag59
aS'small'
p584
aS'low'
p585
aS'unacc'
p586
aa(lp587
S'vhigh'
p588
aS'vhigh'
p589
aS'5more'
p590
ag59
aS'small'
p591
aS'med'
p592
aS'unacc'
p593
aa(lp594
S'vhigh'
p595
aS'vhigh'
p596
aS'5more'
p597
ag59
aS'small'
p598
aS'high'
p599
aS'unacc'
p600
aa(lp601
S'vhigh'
p602
aS'vhigh'
p603
aS'5more'
p604
ag59
aS'med'
p605
aS'low'
p606
aS'unacc'
p607
aa(lp608
S'vhigh'
p609
aS'vhigh'
p610
aS'5more'
p611
ag59
aS'med'
p612
aS'med'
p613
aS'unacc'
p614
aa(lp615
S'vhigh'
p616
aS'vhigh'
p617
aS'5more'
p618
ag59
aS'med'
p619
aS'high'
p620
aS'unacc'
p621
aa(lp622
S'vhigh'
p623
aS'vhigh'
p624
aS'5more'
p625
ag59
aS'big'
p626
aS'low'
p627
aS'unacc'
p628
aa(lp629
S'vhigh'
p630
aS'vhigh'
p631
aS'5more'
p632
ag59
aS'big'
p633
aS'med'
p634
aS'unacc'
p635
aa(lp636
S'vhigh'
p637
aS'vhigh'
p638
aS'5more'
p639
ag59
aS'big'
p640
aS'high'
p641
aS'unacc'
p642
aa(lp643
S'vhigh'
p644
aS'vhigh'
p645
aS'5more'
p646
aS'more'
p647
aS'small'
p648
aS'low'
p649
aS'unacc'
p650
aa(lp651
S'vhigh'
p652
aS'vhigh'
p653
aS'5more'
p654
aS'more'
p655
aS'small'
p656
aS'med'
p657
aS'unacc'
p658
aa(lp659
S'vhigh'
p660
aS'vhigh'
p661
aS'5more'
p662
aS'more'
p663
aS'small'
p664
aS'high'
p665
aS'unacc'
p666
aa(lp667
S'vhigh'
p668
aS'vhigh'
p669
aS'5more'
p670
aS'more'
p671
aS'med'
p672
aS'low'
p673
aS'unacc'
p674
aa(lp675
S'vhigh'
p676
aS'vhigh'
p677
aS'5more'
p678
aS'more'
p679
aS'med'
p680
aS'med'
p681
aS'unacc'
p682
aa(lp683
S'vhigh'
p684
aS'vhigh'
p685
aS'5more'
p686
aS'more'
p687
aS'med'
p688
aS'high'
p689
aS'unacc'
p690
aa(lp691
S'vhigh'
p692
aS'vhigh'
p693
aS'5more'
p694
aS'more'
p695
aS'big'
p696
aS'low'
p697
aS'unacc'
p698
aa(lp699
S'vhigh'
p700
aS'vhigh'
p701
aS'5more'
p702
aS'more'
p703
aS'big'
p704
aS'med'
p705
aS'unacc'
p706
aa(lp707
S'vhigh'
p708
aS'vhigh'
p709
aS'5more'
p710
aS'more'
p711
aS'big'
p712
aS'high'
p713
aS'unacc'
p714
aa(lp715
S'vhigh'
p716
aS'high'
p717
ag4
ag4
aS'small'
p718
aS'low'
p719
aS'unacc'
p720
aa(lp721
S'vhigh'
p722
aS'high'
p723
ag4
ag4
aS'small'
p724
aS'med'
p725
aS'unacc'
p726
aa(lp727
S'vhigh'
p728
aS'high'
p729
ag4
ag4
aS'small'
p730
aS'high'
p731
aS'unacc'
p732
aa(lp733
S'vhigh'
p734
aS'high'
p735
ag4
ag4
aS'med'
p736
aS'low'
p737
aS'unacc'
p738
aa(lp739
S'vhigh'
p740
aS'high'
p741
ag4
ag4
aS'med'
p742
aS'med'
p743
aS'unacc'
p744
aa(lp745
S'vhigh'
p746
aS'high'
p747
ag4
ag4
aS'med'
p748
aS'high'
p749
aS'unacc'
p750
aa(lp751
S'vhigh'
p752
aS'high'
p753
ag4
ag4
aS'big'
p754
aS'low'
p755
aS'unacc'
p756
aa(lp757
S'vhigh'
p758
aS'high'
p759
ag4
ag4
aS'big'
p760
aS'med'
p761
aS'unacc'
p762
aa(lp763
S'vhigh'
p764
aS'high'
p765
ag4
ag4
aS'big'
p766
aS'high'
p767
aS'unacc'
p768
aa(lp769
S'vhigh'
p770
aS'high'
p771
ag4
ag59
aS'small'
p772
aS'low'
p773
aS'unacc'
p774
aa(lp775
S'vhigh'
p776
aS'high'
p777
ag4
ag59
aS'small'
p778
aS'med'
p779
aS'unacc'
p780
aa(lp781
S'vhigh'
p782
aS'high'
p783
ag4
ag59
aS'small'
p784
aS'high'
p785
aS'unacc'
p786
aa(lp787
S'vhigh'
p788
aS'high'
p789
ag4
ag59
aS'med'
p790
aS'low'
p791
aS'unacc'
p792
aa(lp793
S'vhigh'
p794
aS'high'
p795
ag4
ag59
aS'med'
p796
aS'med'
p797
aS'unacc'
p798
aa(lp799
S'vhigh'
p800
aS'high'
p801
ag4
ag59
aS'med'
p802
aS'high'
p803
aS'unacc'
p804
aa(lp805
S'vhigh'
p806
aS'high'
p807
ag4
ag59
aS'big'
p808
aS'low'
p809
aS'unacc'
p810
aa(lp811
S'vhigh'
p812
aS'high'
p813
ag4
ag59
aS'big'
p814
aS'med'
p815
aS'unacc'
p816
aa(lp817
S'vhigh'
p818
aS'high'
p819
ag4
ag59
aS'big'
p820
aS'high'
p821
aS'unacc'
p822
aa(lp823
S'vhigh'
p824
aS'high'
p825
ag4
aS'more'
p826
aS'small'
p827
aS'low'
p828
aS'unacc'
p829
aa(lp830
S'vhigh'
p831
aS'high'
p832
ag4
aS'more'
p833
aS'small'
p834
aS'med'
p835
aS'unacc'
p836
aa(lp837
S'vhigh'
p838
aS'high'
p839
ag4
aS'more'
p840
aS'small'
p841
aS'high'
p842
aS'unacc'
p843
aa(lp844
S'vhigh'
p845
aS'high'
p846
ag4
aS'more'
p847
aS'med'
p848
aS'low'
p849
aS'unacc'
p850
aa(lp851
S'vhigh'
p852
aS'high'
p853
ag4
aS'more'
p854
aS'med'
p855
aS'med'
p856
aS'unacc'
p857
aa(lp858
S'vhigh'
p859
aS'high'
p860
ag4
aS'more'
p861
aS'med'
p862
aS'high'
p863
aS'unacc'
p864
aa(lp865
S'vhigh'
p866
aS'high'
p867
ag4
aS'more'
p868
aS'big'
p869
aS'low'
p870
aS'unacc'
p871
aa(lp872
S'vhigh'
p873
aS'high'
p874
ag4
aS'more'
p875
aS'big'
p876
aS'med'
p877
aS'unacc'
p878
aa(lp879
S'vhigh'
p880
aS'high'
p881
ag4
aS'more'
p882
aS'big'
p883
aS'high'
p884
aS'unacc'
p885
aa(lp886
S'vhigh'
p887
aS'high'
p888
ag177
ag4
aS'small'
p889
aS'low'
p890
aS'unacc'
p891
aa(lp892
S'vhigh'
p893
aS'high'
p894
ag177
ag4
aS'small'
p895
aS'med'
p896
aS'unacc'
p897
aa(lp898
S'vhigh'
p899
aS'high'
p900
ag177
ag4
aS'small'
p901
aS'high'
p902
aS'unacc'
p903
aa(lp904
S'vhigh'
p905
aS'high'
p906
ag177
ag4
aS'med'
p907
aS'low'
p908
aS'unacc'
p909
aa(lp910
S'vhigh'
p911
aS'high'
p912
ag177
ag4
aS'med'
p913
aS'med'
p914
aS'unacc'
p915
aa(lp916
S'vhigh'
p917
aS'high'
p918
ag177
ag4
aS'med'
p919
aS'high'
p920
aS'unacc'
p921
aa(lp922
S'vhigh'
p923
aS'high'
p924
ag177
ag4
aS'big'
p925
aS'low'
p926
aS'unacc'
p927
aa(lp928
S'vhigh'
p929
aS'high'
p930
ag177
ag4
aS'big'
p931
aS'med'
p932
aS'unacc'
p933
aa(lp934
S'vhigh'
p935
aS'high'
p936
ag177
ag4
aS'big'
p937
aS'high'
p938
aS'unacc'
p939
aa(lp940
S'vhigh'
p941
aS'high'
p942
ag177
ag59
aS'small'
p943
aS'low'
p944
aS'unacc'
p945
aa(lp946
S'vhigh'
p947
aS'high'
p948
ag177
ag59
aS'small'
p949
aS'med'
p950
aS'unacc'
p951
aa(lp952
S'vhigh'
p953
aS'high'
p954
ag177
ag59
aS'small'
p955
aS'high'
p956
aS'unacc'
p957
aa(lp958
S'vhigh'
p959
aS'high'
p960
ag177
ag59
aS'med'
p961
aS'low'
p962
aS'unacc'
p963
aa(lp964
S'vhigh'
p965
aS'high'
p966
ag177
ag59
aS'med'
p967
aS'med'
p968
aS'unacc'
p969
aa(lp970
S'vhigh'
p971
aS'high'
p972
ag177
ag59
aS'med'
p973
aS'high'
p974
aS'unacc'
p975
aa(lp976
S'vhigh'
p977
aS'high'
p978
ag177
ag59
aS'big'
p979
aS'low'
p980
aS'unacc'
p981
aa(lp982
S'vhigh'
p983
aS'high'
p984
ag177
ag59
aS'big'
p985
aS'med'
p986
aS'unacc'
p987
aa(lp988
S'vhigh'
p989
aS'high'
p990
ag177
ag59
aS'big'
p991
aS'high'
p992
aS'unacc'
p993
aa(lp994
S'vhigh'
p995
aS'high'
p996
ag177
aS'more'
p997
aS'small'
p998
aS'low'
p999
aS'unacc'
p1000
aa(lp1001
S'vhigh'
p1002
aS'high'
p1003
ag177
aS'more'
p1004
aS'small'
p1005
aS'med'
p1006
aS'unacc'
p1007
aa(lp1008
S'vhigh'
p1009
aS'high'
p1010
ag177
aS'more'
p1011
aS'small'
p1012
aS'high'
p1013
aS'unacc'
p1014
aa(lp1015
S'vhigh'
p1016
aS'high'
p1017
ag177
aS'more'
p1018
aS'med'
p1019
aS'low'
p1020
aS'unacc'
p1021
aa(lp1022
S'vhigh'
p1023
aS'high'
p1024
ag177
aS'more'
p1025
aS'med'
p1026
aS'med'
p1027
aS'unacc'
p1028
aa(lp1029
S'vhigh'
p1030
aS'high'
p1031
ag177
aS'more'
p1032
aS'med'
p1033
aS'high'
p1034
aS'unacc'
p1035
aa(lp1036
S'vhigh'
p1037
aS'high'
p1038
ag177
aS'more'
p1039
aS'big'
p1040
aS'low'
p1041
aS'unacc'
p1042
aa(lp1043
S'vhigh'
p1044
aS'high'
p1045
ag177
aS'more'
p1046
aS'big'
p1047
aS'med'
p1048
aS'unacc'
p1049
aa(lp1050
S'vhigh'
p1051
aS'high'
p1052
ag177
aS'more'
p1053
aS'big'
p1054
aS'high'
p1055
aS'unacc'
p1056
aa(lp1057
S'vhigh'
p1058
aS'high'
p1059
ag59
ag4
aS'small'
p1060
aS'low'
p1061
aS'unacc'
p1062
aa(lp1063
S'vhigh'
p1064
aS'high'
p1065
ag59
ag4
aS'small'
p1066
aS'med'
p1067
aS'unacc'
p1068
aa(lp1069
S'vhigh'
p1070
aS'high'
p1071
ag59
ag4
aS'small'
p1072
aS'high'
p1073
aS'unacc'
p1074
aa(lp1075
S'vhigh'
p1076
aS'high'
p1077
ag59
ag4
aS'med'
p1078
aS'low'
p1079
aS'unacc'
p1080
aa(lp1081
S'vhigh'
p1082
aS'high'
p1083
ag59
ag4
aS'med'
p1084
aS'med'
p1085
aS'unacc'
p1086
aa(lp1087
S'vhigh'
p1088
aS'high'
p1089
ag59
ag4
aS'med'
p1090
aS'high'
p1091
aS'unacc'
p1092
aa(lp1093
S'vhigh'
p1094
aS'high'
p1095
ag59
ag4
aS'big'
p1096
aS'low'
p1097
aS'unacc'
p1098
aa(lp1099
S'vhigh'
p1100
aS'high'
p1101
ag59
ag4
aS'big'
p1102
aS'med'
p1103
aS'unacc'
p1104
aa(lp1105
S'vhigh'
p1106
aS'high'
p1107
ag59
ag4
aS'big'
p1108
aS'high'
p1109
aS'unacc'
p1110
aa(lp1111
S'vhigh'
p1112
aS'high'
p1113
ag59
ag59
aS'small'
p1114
aS'low'
p1115
aS'unacc'
p1116
aa(lp1117
S'vhigh'
p1118
aS'high'
p1119
ag59
ag59
aS'small'
p1120
aS'med'
p1121
aS'unacc'
p1122
aa(lp1123
S'vhigh'
p1124
aS'high'
p1125
ag59
ag59
aS'small'
p1126
aS'high'
p1127
aS'unacc'
p1128
aa(lp1129
S'vhigh'
p1130
aS'high'
p1131
ag59
ag59
aS'med'
p1132
aS'low'
p1133
aS'unacc'
p1134
aa(lp1135
S'vhigh'
p1136
aS'high'
p1137
ag59
ag59
aS'med'
p1138
aS'med'
p1139
aS'unacc'
p1140
aa(lp1141
S'vhigh'
p1142
aS'high'
p1143
ag59
ag59
aS'med'
p1144
aS'high'
p1145
aS'unacc'
p1146
aa(lp1147
S'vhigh'
p1148
aS'high'
p1149
ag59
ag59
aS'big'
p1150
aS'low'
p1151
aS'unacc'
p1152
aa(lp1153
S'vhigh'
p1154
aS'high'
p1155
ag59
ag59
aS'big'
p1156
aS'med'
p1157
aS'unacc'
p1158
aa(lp1159
S'vhigh'
p1160
aS'high'
p1161
ag59
ag59
aS'big'
p1162
aS'high'
p1163
aS'unacc'
p1164
aa(lp1165
S'vhigh'
p1166
aS'high'
p1167
ag59
aS'more'
p1168
aS'small'
p1169
aS'low'
p1170
aS'unacc'
p1171
aa(lp1172
S'vhigh'
p1173
aS'high'
p1174
ag59
aS'more'
p1175
aS'small'
p1176
aS'med'
p1177
aS'unacc'
p1178
aa(lp1179
S'vhigh'
p1180
aS'high'
p1181
ag59
aS'more'
p1182
aS'small'
p1183
aS'high'
p1184
aS'unacc'
p1185
aa(lp1186
S'vhigh'
p1187
aS'high'
p1188
ag59
aS'more'
p1189
aS'med'
p1190
aS'low'
p1191
aS'unacc'
p1192
aa(lp1193
S'vhigh'
p1194
aS'high'
p1195
ag59
aS'more'
p1196
aS'med'
p1197
aS'med'
p1198
aS'unacc'
p1199
aa(lp1200
S'vhigh'
p1201
aS'high'
p1202
ag59
aS'more'
p1203
aS'med'
p1204
aS'high'
p1205
aS'unacc'
p1206
aa(lp1207
S'vhigh'
p1208
aS'high'
p1209
ag59
aS'more'
p1210
aS'big'
p1211
aS'low'
p1212
aS'unacc'
p1213
aa(lp1214
S'vhigh'
p1215
aS'high'
p1216
ag59
aS'more'
p1217
aS'big'
p1218
aS'med'
p1219
aS'unacc'
p1220
aa(lp1221
S'vhigh'
p1222
aS'high'
p1223
ag59
aS'more'
p1224
aS'big'
p1225
aS'high'
p1226
aS'unacc'
p1227
aa(lp1228
S'vhigh'
p1229
aS'high'
p1230
aS'5more'
p1231
ag4
aS'small'
p1232
aS'low'
p1233
aS'unacc'
p1234
aa(lp1235
S'vhigh'
p1236
aS'high'
p1237
aS'5more'
p1238
ag4
aS'small'
p1239
aS'med'
p1240
aS'unacc'
p1241
aa(lp1242
S'vhigh'
p1243
aS'high'
p1244
aS'5more'
p1245
ag4
aS'small'
p1246
aS'high'
p1247
aS'unacc'
p1248
aa(lp1249
S'vhigh'
p1250
aS'high'
p1251
aS'5more'
p1252
ag4
aS'med'
p1253
aS'low'
p1254
aS'unacc'
p1255
aa(lp1256
S'vhigh'
p1257
aS'high'
p1258
aS'5more'
p1259
ag4
aS'med'
p1260
aS'med'
p1261
aS'unacc'
p1262
aa(lp1263
S'vhigh'
p1264
aS'high'
p1265
aS'5more'
p1266
ag4
aS'med'
p1267
aS'high'
p1268
aS'unacc'
p1269
aa(lp1270
S'vhigh'
p1271
aS'high'
p1272
aS'5more'
p1273
ag4
aS'big'
p1274
aS'low'
p1275
aS'unacc'
p1276
aa(lp1277
S'vhigh'
p1278
aS'high'
p1279
aS'5more'
p1280
ag4
aS'big'
p1281
aS'med'
p1282
aS'unacc'
p1283
aa(lp1284
S'vhigh'
p1285
aS'high'
p1286
aS'5more'
p1287
ag4
aS'big'
p1288
aS'high'
p1289
aS'unacc'
p1290
aa(lp1291
S'vhigh'
p1292
aS'high'
p1293
aS'5more'
p1294
ag59
aS'small'
p1295
aS'low'
p1296
aS'unacc'
p1297
aa(lp1298
S'vhigh'
p1299
aS'high'
p1300
aS'5more'
p1301
ag59
aS'small'
p1302
aS'med'
p1303
aS'unacc'
p1304
aa(lp1305
S'vhigh'
p1306
aS'high'
p1307
aS'5more'
p1308
ag59
aS'small'
p1309
aS'high'
p1310
aS'unacc'
p1311
aa(lp1312
S'vhigh'
p1313
aS'high'
p1314
aS'5more'
p1315
ag59
aS'med'
p1316
aS'low'
p1317
aS'unacc'
p1318
aa(lp1319
S'vhigh'
p1320
aS'high'
p1321
aS'5more'
p1322
ag59
aS'med'
p1323
aS'med'
p1324
aS'unacc'
p1325
aa(lp1326
S'vhigh'
p1327
aS'high'
p1328
aS'5more'
p1329
ag59
aS'med'
p1330
aS'high'
p1331
aS'unacc'
p1332
aa(lp1333
S'vhigh'
p1334
aS'high'
p1335
aS'5more'
p1336
ag59
aS'big'
p1337
aS'low'
p1338
aS'unacc'
p1339
aa(lp1340
S'vhigh'
p1341
aS'high'
p1342
aS'5more'
p1343
ag59
aS'big'
p1344
aS'med'
p1345
aS'unacc'
p1346
aa(lp1347
S'vhigh'
p1348
aS'high'
p1349
aS'5more'
p1350
ag59
aS'big'
p1351
aS'high'
p1352
aS'unacc'
p1353
aa(lp1354
S'vhigh'
p1355
aS'high'
p1356
aS'5more'
p1357
aS'more'
p1358
aS'small'
p1359
aS'low'
p1360
aS'unacc'
p1361
aa(lp1362
S'vhigh'
p1363
aS'high'
p1364
aS'5more'
p1365
aS'more'
p1366
aS'small'
p1367
aS'med'
p1368
aS'unacc'
p1369
aa(lp1370
S'vhigh'
p1371
aS'high'
p1372
aS'5more'
p1373
aS'more'
p1374
aS'small'
p1375
aS'high'
p1376
aS'unacc'
p1377
aa(lp1378
S'vhigh'
p1379
aS'high'
p1380
aS'5more'
p1381
aS'more'
p1382
aS'med'
p1383
aS'low'
p1384
aS'unacc'
p1385
aa(lp1386
S'vhigh'
p1387
aS'high'
p1388
aS'5more'
p1389
aS'more'
p1390
aS'med'
p1391
aS'med'
p1392
aS'unacc'
p1393
aa(lp1394
S'vhigh'
p1395
aS'high'
p1396
aS'5more'
p1397
aS'more'
p1398
aS'med'
p1399
aS'high'
p1400
aS'unacc'
p1401
aa(lp1402
S'vhigh'
p1403
aS'high'
p1404
aS'5more'
p1405
aS'more'
p1406
aS'big'
p1407
aS'low'
p1408
aS'unacc'
p1409
aa(lp1410
S'vhigh'
p1411
aS'high'
p1412
aS'5more'
p1413
aS'more'
p1414
aS'big'
p1415
aS'med'
p1416
aS'unacc'
p1417
aa(lp1418
S'vhigh'
p1419
aS'high'
p1420
aS'5more'
p1421
aS'more'
p1422
aS'big'
p1423
aS'high'
p1424
aS'unacc'
p1425
aa(lp1426
S'vhigh'
p1427
aS'med'
p1428
ag4
ag4
aS'small'
p1429
aS'low'
p1430
aS'unacc'
p1431
aa(lp1432
S'vhigh'
p1433
aS'med'
p1434
ag4
ag4
aS'small'
p1435
aS'med'
p1436
aS'unacc'
p1437
aa(lp1438
S'vhigh'
p1439
aS'med'
p1440
ag4
ag4
aS'small'
p1441
aS'high'
p1442
aS'unacc'
p1443
aa(lp1444
S'vhigh'
p1445
aS'med'
p1446
ag4
ag4
aS'med'
p1447
aS'low'
p1448
aS'unacc'
p1449
aa(lp1450
S'vhigh'
p1451
aS'med'
p1452
ag4
ag4
aS'med'
p1453
aS'med'
p1454
aS'unacc'
p1455
aa(lp1456
S'vhigh'
p1457
aS'med'
p1458
ag4
ag4
aS'med'
p1459
aS'high'
p1460
aS'unacc'
p1461
aa(lp1462
S'vhigh'
p1463
aS'med'
p1464
ag4
ag4
aS'big'
p1465
aS'low'
p1466
aS'unacc'
p1467
aa(lp1468
S'vhigh'
p1469
aS'med'
p1470
ag4
ag4
aS'big'
p1471
aS'med'
p1472
aS'unacc'
p1473
aa(lp1474
S'vhigh'
p1475
aS'med'
p1476
ag4
ag4
aS'big'
p1477
aS'high'
p1478
aS'unacc'
p1479
aa(lp1480
S'vhigh'
p1481
aS'med'
p1482
ag4
ag59
aS'small'
p1483
aS'low'
p1484
aS'unacc'
p1485
aa(lp1486
S'vhigh'
p1487
aS'med'
p1488
ag4
ag59
aS'small'
p1489
aS'med'
p1490
aS'unacc'
p1491
aa(lp1492
S'vhigh'
p1493
aS'med'
p1494
ag4
ag59
aS'small'
p1495
aS'high'
p1496
aS'acc'
p1497
aa(lp1498
S'vhigh'
p1499
aS'med'
p1500
ag4
ag59
aS'med'
p1501
aS'low'
p1502
aS'unacc'
p1503
aa(lp1504
S'vhigh'
p1505
aS'med'
p1506
ag4
ag59
aS'med'
p1507
aS'med'
p1508
aS'unacc'
p1509
aa(lp1510
S'vhigh'
p1511
aS'med'
p1512
ag4
ag59
aS'med'
p1513
aS'high'
p1514
aS'acc'
p1515
aa(lp1516
S'vhigh'
p1517
aS'med'
p1518
ag4
ag59
aS'big'
p1519
aS'low'
p1520
aS'unacc'
p1521
aa(lp1522
S'vhigh'
p1523
aS'med'
p1524
ag4
ag59
aS'big'
p1525
aS'med'
p1526
aS'acc'
p1527
aa(lp1528
S'vhigh'
p1529
aS'med'
p1530
ag4
ag59
aS'big'
p1531
aS'high'
p1532
aS'acc'
p1533
aa(lp1534
S'vhigh'
p1535
aS'med'
p1536
ag4
aS'more'
p1537
aS'small'
p1538
aS'low'
p1539
aS'unacc'
p1540
aa(lp1541
S'vhigh'
p1542
aS'med'
p1543
ag4
aS'more'
p1544
aS'small'
p1545
aS'med'
p1546
aS'unacc'
p1547
aa(lp1548
S'vhigh'
p1549
aS'med'
p1550
ag4
aS'more'
p1551
aS'small'
p1552
aS'high'
p1553
aS'unacc'
p1554
aa(lp1555
S'vhigh'
p1556
aS'med'
p1557
ag4
aS'more'
p1558
aS'med'
p1559
aS'low'
p1560
aS'unacc'
p1561
aa(lp1562
S'vhigh'
p1563
aS'med'
p1564
ag4
aS'more'
p1565
aS'med'
p1566
aS'med'
p1567
aS'unacc'
p1568
aa(lp1569
S'vhigh'
p1570
aS'med'
p1571
ag4
aS'more'
p1572
aS'med'
p1573
aS'high'
p1574
aS'acc'
p1575
aa(lp1576
S'vhigh'
p1577
aS'med'
p1578
ag4
aS'more'
p1579
aS'big'
p1580
aS'low'
p1581
aS'unacc'
p1582
aa(lp1583
S'vhigh'
p1584
aS'med'
p1585
ag4
aS'more'
p1586
aS'big'
p1587
aS'med'
p1588
aS'acc'
p1589
aa(lp1590
S'vhigh'
p1591
aS'med'
p1592
ag4
aS'more'
p1593
aS'big'
p1594
aS'high'
p1595
aS'acc'
p1596
aa(lp1597
S'vhigh'
p1598
aS'med'
p1599
ag177
ag4
aS'small'
p1600
aS'low'
p1601
aS'unacc'
p1602
aa(lp1603
S'vhigh'
p1604
aS'med'
p1605
ag177
ag4
aS'small'
p1606
aS'med'
p1607
aS'unacc'
p1608
aa(lp1609
S'vhigh'
p1610
aS'med'
p1611
ag177
ag4
aS'small'
p1612
aS'high'
p1613
aS'unacc'
p1614
aa(lp1615
S'vhigh'
p1616
aS'med'
p1617
ag177
ag4
aS'med'
p1618
aS'low'
p1619
aS'unacc'
p1620
aa(lp1621
S'vhigh'
p1622
aS'med'
p1623
ag177
ag4
aS'med'
p1624
aS'med'
p1625
aS'unacc'
p1626
aa(lp1627
S'vhigh'
p1628
aS'med'
p1629
ag177
ag4
aS'med'
p1630
aS'high'
p1631
aS'unacc'
p1632
aa(lp1633
S'vhigh'
p1634
aS'med'
p1635
ag177
ag59
aS'small'
p1636
aS'high'
p1637
aS'acc'
p1638
aa(lp1639
S'vhigh'
p1640
aS'med'
p1641
ag177
ag59
aS'med'
p1642
aS'high'
p1643
aS'acc'
p1644
aa(lp1645
S'vhigh'
p1646
aS'med'
p1647
ag177
ag59
aS'big'
p1648
aS'med'
p1649
aS'acc'
p1650
aa(lp1651
S'vhigh'
p1652
aS'med'
p1653
ag177
ag59
aS'big'
p1654
aS'high'
p1655
aS'acc'
p1656
aa(lp1657
S'vhigh'
p1658
aS'med'
p1659
ag177
aS'more'
p1660
aS'small'
p1661
aS'high'
p1662
aS'acc'
p1663
aa(lp1664
S'vhigh'
p1665
aS'med'
p1666
ag177
aS'more'
p1667
aS'med'
p1668
aS'med'
p1669
aS'acc'
p1670
aa(lp1671
S'vhigh'
p1672
aS'med'
p1673
ag177
aS'more'
p1674
aS'med'
p1675
aS'high'
p1676
aS'acc'
p1677
aa(lp1678
S'vhigh'
p1679
aS'med'
p1680
ag177
aS'more'
p1681
aS'big'
p1682
aS'med'
p1683
aS'acc'
p1684
aa(lp1685
S'vhigh'
p1686
aS'med'
p1687
ag177
aS'more'
p1688
aS'big'
p1689
aS'high'
p1690
aS'acc'
p1691
aa(lp1692
S'vhigh'
p1693
aS'med'
p1694
ag59
ag59
aS'small'
p1695
aS'high'
p1696
aS'acc'
p1697
aa(lp1698
S'vhigh'
p1699
aS'med'
p1700
ag59
ag59
aS'med'
p1701
aS'med'
p1702
aS'acc'
p1703
aa(lp1704
S'vhigh'
p1705
aS'med'
p1706
ag59
ag59
aS'med'
p1707
aS'high'
p1708
aS'acc'
p1709
aa(lp1710
S'vhigh'
p1711
aS'med'
p1712
ag59
ag59
aS'big'
p1713
aS'med'
p1714
aS'acc'
p1715
aa(lp1716
S'vhigh'
p1717
aS'med'
p1718
ag59
ag59
aS'big'
p1719
aS'high'
p1720
aS'acc'
p1721
aa(lp1722
S'vhigh'
p1723
aS'med'
p1724
ag59
aS'more'
p1725
aS'small'
p1726
aS'high'
p1727
aS'acc'
p1728
aa(lp1729
S'vhigh'
p1730
aS'med'
p1731
ag59
aS'more'
p1732
aS'med'
p1733
aS'med'
p1734
aS'acc'
p1735
aa(lp1736
S'vhigh'
p1737
aS'med'
p1738
ag59
aS'more'
p1739
aS'med'
p1740
aS'high'
p1741
aS'acc'
p1742
aa(lp1743
S'vhigh'
p1744
aS'med'
p1745
ag59
aS'more'
p1746
aS'big'
p1747
aS'med'
p1748
aS'acc'
p1749
aa(lp1750
S'vhigh'
p1751
aS'med'
p1752
ag59
aS'more'
p1753
aS'big'
p1754
aS'high'
p1755
aS'acc'
p1756
aa(lp1757
S'vhigh'
p1758
aS'med'
p1759
aS'5more'
p1760
ag59
aS'small'
p1761
aS'high'
p1762
aS'acc'
p1763
aa(lp1764
S'vhigh'
p1765
aS'med'
p1766
aS'5more'
p1767
ag59
aS'med'
p1768
aS'med'
p1769
aS'acc'
p1770
aa(lp1771
S'vhigh'
p1772
aS'med'
p1773
aS'5more'
p1774
ag59
aS'med'
p1775
aS'high'
p1776
aS'acc'
p1777
aa(lp1778
S'vhigh'
p1779
aS'med'
p1780
aS'5more'
p1781
ag59
aS'big'
p1782
aS'med'
p1783
aS'acc'
p1784
aa(lp1785
S'vhigh'
p1786
aS'med'
p1787
aS'5more'
p1788
ag59
aS'big'
p1789
aS'high'
p1790
aS'acc'
p1791
aa(lp1792
S'vhigh'
p1793
aS'med'
p1794
aS'5more'
p1795
aS'more'
p1796
aS'small'
p1797
aS'high'
p1798
aS'acc'
p1799
aa(lp1800
S'vhigh'
p1801
aS'med'
p1802
aS'5more'
p1803
aS'more'
p1804
aS'med'
p1805
aS'med'
p1806
aS'acc'
p1807
aa(lp1808
S'vhigh'
p1809
aS'med'
p1810
aS'5more'
p1811
aS'more'
p1812
aS'med'
p1813
aS'high'
p1814
aS'acc'
p1815
aa(lp1816
S'vhigh'
p1817
aS'med'
p1818
aS'5more'
p1819
aS'more'
p1820
aS'big'
p1821
aS'med'
p1822
aS'acc'
p1823
aa(lp1824
S'vhigh'
p1825
aS'med'
p1826
aS'5more'
p1827
aS'more'
p1828
aS'big'
p1829
aS'high'
p1830
aS'acc'
p1831
aa(lp1832
S'vhigh'
p1833
aS'low'
p1834
ag4
ag59
aS'small'
p1835
aS'high'
p1836
aS'acc'
p1837
aa(lp1838
S'vhigh'
p1839
aS'low'
p1840
ag4
ag59
aS'med'
p1841
aS'high'
p1842
aS'acc'
p1843
aa(lp1844
S'vhigh'
p1845
aS'low'
p1846
ag4
ag59
aS'big'
p1847
aS'med'
p1848
aS'acc'
p1849
aa(lp1850
S'vhigh'
p1851
aS'low'
p1852
ag4
ag59
aS'big'
p1853
aS'high'
p1854
aS'acc'
p1855
aa(lp1856
S'vhigh'
p1857
aS'low'
p1858
ag4
aS'more'
p1859
aS'med'
p1860
aS'high'
p1861
aS'acc'
p1862
aa(lp1863
S'vhigh'
p1864
aS'low'
p1865
ag4
aS'more'
p1866
aS'big'
p1867
aS'med'
p1868
aS'acc'
p1869
aa(lp1870
S'vhigh'
p1871
aS'low'
p1872
ag4
aS'more'
p1873
aS'big'
p1874
aS'high'
p1875
aS'acc'
p1876
aa(lp1877
S'vhigh'
p1878
aS'low'
p1879
ag177
ag59
aS'small'
p1880
aS'high'
p1881
aS'acc'
p1882
aa(lp1883
S'vhigh'
p1884
aS'low'
p1885
ag177
ag59
aS'med'
p1886
aS'high'
p1887
aS'acc'
p1888
aa(lp1889
S'vhigh'
p1890
aS'low'
p1891
ag177
ag59
aS'big'
p1892
aS'med'
p1893
aS'acc'
p1894
aa(lp1895
S'vhigh'
p1896
aS'low'
p1897
ag177
ag59
aS'big'
p1898
aS'high'
p1899
aS'acc'
p1900
aa(lp1901
S'vhigh'
p1902
aS'low'
p1903
ag177
aS'more'
p1904
aS'small'
p1905
aS'high'
p1906
aS'acc'
p1907
aa(lp1908
S'vhigh'
p1909
aS'low'
p1910
ag177
aS'more'
p1911
aS'med'
p1912
aS'med'
p1913
aS'acc'
p1914
aa(lp1915
S'vhigh'
p1916
aS'low'
p1917
ag177
aS'more'
p1918
aS'med'
p1919
aS'high'
p1920
aS'acc'
p1921
aa(lp1922
S'vhigh'
p1923
aS'low'
p1924
ag177
aS'more'
p1925
aS'big'
p1926
aS'med'
p1927
aS'acc'
p1928
aa(lp1929
S'vhigh'
p1930
aS'low'
p1931
ag177
aS'more'
p1932
aS'big'
p1933
aS'high'
p1934
aS'acc'
p1935
aa(lp1936
S'vhigh'
p1937
aS'low'
p1938
ag59
ag59
aS'small'
p1939
aS'high'
p1940
aS'acc'
p1941
aa(lp1942
S'vhigh'
p1943
aS'low'
p1944
ag59
ag59
aS'med'
p1945
aS'med'
p1946
aS'acc'
p1947
aa(lp1948
S'vhigh'
p1949
aS'low'
p1950
ag59
ag59
aS'med'
p1951
aS'high'
p1952
aS'acc'
p1953
aa(lp1954
S'vhigh'
p1955
aS'low'
p1956
ag59
ag59
aS'big'
p1957
aS'med'
p1958
aS'acc'
p1959
aa(lp1960
S'vhigh'
p1961
aS'low'
p1962
ag59
ag59
aS'big'
p1963
aS'high'
p1964
aS'acc'
p1965
aa(lp1966
S'vhigh'
p1967
aS'low'
p1968
ag59
aS'more'
p1969
aS'small'
p1970
aS'high'
p1971
aS'acc'
p1972
aa(lp1973
S'vhigh'
p1974
aS'low'
p1975
ag59
aS'more'
p1976
aS'med'
p1977
aS'med'
p1978
aS'acc'
p1979
aa(lp1980
S'vhigh'
p1981
aS'low'
p1982
ag59
aS'more'
p1983
aS'med'
p1984
aS'high'
p1985
aS'acc'
p1986
aa(lp1987
S'vhigh'
p1988
aS'low'
p1989
ag59
aS'more'
p1990
aS'big'
p1991
aS'med'
p1992
aS'acc'
p1993
aa(lp1994
S'vhigh'
p1995
aS'low'
p1996
ag59
aS'more'
p1997
aS'big'
p1998
aS'high'
p1999
aS'acc'
p2000
aa(lp2001
S'vhigh'
p2002
aS'low'
p2003
aS'5more'
p2004
ag59
aS'small'
p2005
aS'high'
p2006
aS'acc'
p2007
aa(lp2008
S'vhigh'
p2009
aS'low'
p2010
aS'5more'
p2011
ag59
aS'med'
p2012
aS'med'
p2013
aS'acc'
p2014
aa(lp2015
S'vhigh'
p2016
aS'low'
p2017
aS'5more'
p2018
ag59
aS'med'
p2019
aS'high'
p2020
aS'acc'
p2021
aa(lp2022
S'vhigh'
p2023
aS'low'
p2024
aS'5more'
p2025
ag59
aS'big'
p2026
aS'med'
p2027
aS'acc'
p2028
aa(lp2029
S'vhigh'
p2030
aS'low'
p2031
aS'5more'
p2032
ag59
aS'big'
p2033
aS'high'
p2034
aS'acc'
p2035
aa(lp2036
S'vhigh'
p2037
aS'low'
p2038
aS'5more'
p2039
aS'more'
p2040
aS'small'
p2041
aS'high'
p2042
aS'acc'
p2043
aa(lp2044
S'vhigh'
p2045
aS'low'
p2046
aS'5more'
p2047
aS'more'
p2048
aS'med'
p2049
aS'med'
p2050
aS'acc'
p2051
aa(lp2052
S'vhigh'
p2053
aS'low'
p2054
aS'5more'
p2055
aS'more'
p2056
aS'med'
p2057
aS'high'
p2058
aS'acc'
p2059
aa(lp2060
S'vhigh'
p2061
aS'low'
p2062
aS'5more'
p2063
aS'more'
p2064
aS'big'
p2065
aS'med'
p2066
aS'acc'
p2067
aa(lp2068
S'vhigh'
p2069
aS'low'
p2070
aS'5more'
p2071
aS'more'
p2072
aS'big'
p2073
aS'high'
p2074
aS'acc'
p2075
aa(lp2076
S'high'
p2077
aS'vhigh'
p2078
ag4
ag4
aS'med'
p2079
aS'low'
p2080
aS'unacc'
p2081
aa(lp2082
S'high'
p2083
aS'vhigh'
p2084
ag4
ag4
aS'med'
p2085
aS'med'
p2086
aS'unacc'
p2087
aa(lp2088
S'high'
p2089
aS'vhigh'
p2090
ag4
ag4
aS'med'
p2091
aS'high'
p2092
aS'unacc'
p2093
aa(lp2094
S'high'
p2095
aS'vhigh'
p2096
ag4
ag4
aS'big'
p2097
aS'low'
p2098
aS'unacc'
p2099
aa(lp2100
S'high'
p2101
aS'vhigh'
p2102
ag4
ag4
aS'big'
p2103
aS'med'
p2104
aS'unacc'
p2105
aa(lp2106
S'high'
p2107
aS'vhigh'
p2108
ag4
ag4
aS'big'
p2109
aS'high'
p2110
aS'unacc'
p2111
aa(lp2112
S'high'
p2113
aS'vhigh'
p2114
ag4
ag59
aS'small'
p2115
aS'low'
p2116
aS'unacc'
p2117
aa(lp2118
S'high'
p2119
aS'vhigh'
p2120
ag4
ag59
aS'small'
p2121
aS'med'
p2122
aS'unacc'
p2123
aa(lp2124
S'high'
p2125
aS'vhigh'
p2126
ag4
ag59
aS'small'
p2127
aS'high'
p2128
aS'unacc'
p2129
aa(lp2130
S'high'
p2131
aS'vhigh'
p2132
ag4
ag59
aS'med'
p2133
aS'low'
p2134
aS'unacc'
p2135
aa(lp2136
S'high'
p2137
aS'vhigh'
p2138
ag4
ag59
aS'med'
p2139
aS'med'
p2140
aS'unacc'
p2141
aa(lp2142
S'high'
p2143
aS'vhigh'
p2144
ag4
ag59
aS'med'
p2145
aS'high'
p2146
aS'unacc'
p2147
aa(lp2148
S'high'
p2149
aS'vhigh'
p2150
ag4
ag59
aS'big'
p2151
aS'low'
p2152
aS'unacc'
p2153
aa(lp2154
S'high'
p2155
aS'vhigh'
p2156
ag4
ag59
aS'big'
p2157
aS'med'
p2158
aS'unacc'
p2159
aa(lp2160
S'high'
p2161
aS'vhigh'
p2162
ag4
ag59
aS'big'
p2163
aS'high'
p2164
aS'unacc'
p2165
aa(lp2166
S'high'
p2167
aS'vhigh'
p2168
ag4
aS'more'
p2169
aS'small'
p2170
aS'low'
p2171
aS'unacc'
p2172
aa(lp2173
S'high'
p2174
aS'vhigh'
p2175
ag4
aS'more'
p2176
aS'small'
p2177
aS'med'
p2178
aS'unacc'
p2179
aa(lp2180
S'high'
p2181
aS'vhigh'
p2182
ag4
aS'more'
p2183
aS'small'
p2184
aS'high'
p2185
aS'unacc'
p2186
aa(lp2187
S'high'
p2188
aS'vhigh'
p2189
ag4
aS'more'
p2190
aS'med'
p2191
aS'low'
p2192
aS'unacc'
p2193
aa(lp2194
S'high'
p2195
aS'vhigh'
p2196
ag4
aS'more'
p2197
aS'med'
p2198
aS'med'
p2199
aS'unacc'
p2200
aa(lp2201
S'high'
p2202
aS'vhigh'
p2203
ag4
aS'more'
p2204
aS'med'
p2205
aS'high'
p2206
aS'unacc'
p2207
aa(lp2208
S'high'
p2209
aS'vhigh'
p2210
ag4
aS'more'
p2211
aS'big'
p2212
aS'low'
p2213
aS'unacc'
p2214
aa(lp2215
S'high'
p2216
aS'vhigh'
p2217
ag4
aS'more'
p2218
aS'big'
p2219
aS'med'
p2220
aS'unacc'
p2221
aa(lp2222
S'high'
p2223
aS'vhigh'
p2224
ag4
aS'more'
p2225
aS'big'
p2226
aS'high'
p2227
aS'unacc'
p2228
aa(lp2229
S'high'
p2230
aS'vhigh'
p2231
ag177
ag4
aS'small'
p2232
aS'low'
p2233
aS'unacc'
p2234
aa(lp2235
S'high'
p2236
aS'vhigh'
p2237
ag177
ag4
aS'small'
p2238
aS'med'
p2239
aS'unacc'
p2240
aa(lp2241
S'high'
p2242
aS'vhigh'
p2243
ag177
ag4
aS'small'
p2244
aS'high'
p2245
aS'unacc'
p2246
aa(lp2247
S'high'
p2248
aS'vhigh'
p2249
ag177
ag4
aS'med'
p2250
aS'low'
p2251
aS'unacc'
p2252
aa(lp2253
S'high'
p2254
aS'vhigh'
p2255
ag177
ag4
aS'med'
p2256
aS'med'
p2257
aS'unacc'
p2258
aa(lp2259
S'high'
p2260
aS'vhigh'
p2261
ag177
ag4
aS'med'
p2262
aS'high'
p2263
aS'unacc'
p2264
aa(lp2265
S'high'
p2266
aS'vhigh'
p2267
ag177
ag4
aS'big'
p2268
aS'low'
p2269
aS'unacc'
p2270
aa(lp2271
S'high'
p2272
aS'vhigh'
p2273
ag177
ag4
aS'big'
p2274
aS'med'
p2275
aS'unacc'
p2276
aa(lp2277
S'high'
p2278
aS'vhigh'
p2279
ag177
ag4
aS'big'
p2280
aS'high'
p2281
aS'unacc'
p2282
aa(lp2283
S'high'
p2284
aS'vhigh'
p2285
ag177
ag59
aS'small'
p2286
aS'low'
p2287
aS'unacc'
p2288
aa(lp2289
S'high'
p2290
aS'vhigh'
p2291
ag177
ag59
aS'small'
p2292
aS'med'
p2293
aS'unacc'
p2294
aa(lp2295
S'high'
p2296
aS'vhigh'
p2297
ag177
ag59
aS'small'
p2298
aS'high'
p2299
aS'unacc'
p2300
aa(lp2301
S'high'
p2302
aS'vhigh'
p2303
ag177
ag59
aS'med'
p2304
aS'low'
p2305
aS'unacc'
p2306
aa(lp2307
S'high'
p2308
aS'vhigh'
p2309
ag177
ag59
aS'med'
p2310
aS'med'
p2311
aS'unacc'
p2312
aa(lp2313
S'high'
p2314
aS'vhigh'
p2315
ag177
ag59
aS'med'
p2316
aS'high'
p2317
aS'unacc'
p2318
aa(lp2319
S'high'
p2320
aS'vhigh'
p2321
ag177
ag59
aS'big'
p2322
aS'low'
p2323
aS'unacc'
p2324
aa(lp2325
S'high'
p2326
aS'vhigh'
p2327
ag177
ag59
aS'big'
p2328
aS'med'
p2329
aS'unacc'
p2330
aa(lp2331
S'high'
p2332
aS'vhigh'
p2333
ag177
ag59
aS'big'
p2334
aS'high'
p2335
aS'unacc'
p2336
aa(lp2337
S'high'
p2338
aS'vhigh'
p2339
ag177
aS'more'
p2340
aS'small'
p2341
aS'low'
p2342
aS'unacc'
p2343
aa(lp2344
S'high'
p2345
aS'vhigh'
p2346
ag177
aS'more'
p2347
aS'small'
p2348
aS'med'
p2349
aS'unacc'
p2350
aa(lp2351
S'high'
p2352
aS'vhigh'
p2353
ag177
aS'more'
p2354
aS'small'
p2355
aS'high'
p2356
aS'unacc'
p2357
aa(lp2358
S'high'
p2359
aS'vhigh'
p2360
ag177
aS'more'
p2361
aS'med'
p2362
aS'low'
p2363
aS'unacc'
p2364
aa(lp2365
S'high'
p2366
aS'vhigh'
p2367
ag177
aS'more'
p2368
aS'med'
p2369
aS'med'
p2370
aS'unacc'
p2371
aa(lp2372
S'high'
p2373
aS'vhigh'
p2374
ag177
aS'more'
p2375
aS'med'
p2376
aS'high'
p2377
aS'unacc'
p2378
aa(lp2379
S'high'
p2380
aS'vhigh'
p2381
ag177
aS'more'
p2382
aS'big'
p2383
aS'low'
p2384
aS'unacc'
p2385
aa(lp2386
S'high'
p2387
aS'vhigh'
p2388
ag177
aS'more'
p2389
aS'big'
p2390
aS'med'
p2391
aS'unacc'
p2392
aa(lp2393
S'high'
p2394
aS'vhigh'
p2395
ag177
aS'more'
p2396
aS'big'
p2397
aS'high'
p2398
aS'unacc'
p2399
aa(lp2400
S'high'
p2401
aS'vhigh'
p2402
ag59
ag4
aS'small'
p2403
aS'low'
p2404
aS'unacc'
p2405
aa(lp2406
S'high'
p2407
aS'vhigh'
p2408
ag59
ag4
aS'small'
p2409
aS'med'
p2410
aS'unacc'
p2411
aa(lp2412
S'high'
p2413
aS'vhigh'
p2414
ag59
ag4
aS'small'
p2415
aS'high'
p2416
aS'unacc'
p2417
aa(lp2418
S'high'
p2419
aS'vhigh'
p2420
ag59
ag4
aS'med'
p2421
aS'low'
p2422
aS'unacc'
p2423
aa(lp2424
S'high'
p2425
aS'vhigh'
p2426
ag59
ag4
aS'med'
p2427
aS'med'
p2428
aS'unacc'
p2429
aa(lp2430
S'high'
p2431
aS'vhigh'
p2432
ag59
ag4
aS'med'
p2433
aS'high'
p2434
aS'unacc'
p2435
aa(lp2436
S'high'
p2437
aS'vhigh'
p2438
ag59
ag4
aS'big'
p2439
aS'low'
p2440
aS'unacc'
p2441
aa(lp2442
S'high'
p2443
aS'vhigh'
p2444
ag59
ag4
aS'big'
p2445
aS'med'
p2446
aS'unacc'
p2447
aa(lp2448
S'high'
p2449
aS'vhigh'
p2450
ag59
ag4
aS'big'
p2451
aS'high'
p2452
aS'unacc'
p2453
aa(lp2454
S'high'
p2455
aS'vhigh'
p2456
ag59
ag59
aS'small'
p2457
aS'low'
p2458
aS'unacc'
p2459
aa(lp2460
S'high'
p2461
aS'vhigh'
p2462
ag59
ag59
aS'small'
p2463
aS'med'
p2464
aS'unacc'
p2465
aa(lp2466
S'high'
p2467
aS'vhigh'
p2468
ag59
ag59
aS'small'
p2469
aS'high'
p2470
aS'unacc'
p2471
aa(lp2472
S'high'
p2473
aS'vhigh'
p2474
ag59
ag59
aS'med'
p2475
aS'low'
p2476
aS'unacc'
p2477
aa(lp2478
S'high'
p2479
aS'vhigh'
p2480
ag59
ag59
aS'med'
p2481
aS'med'
p2482
aS'unacc'
p2483
aa(lp2484
S'high'
p2485
aS'vhigh'
p2486
ag59
ag59
aS'med'
p2487
aS'high'
p2488
aS'unacc'
p2489
aa(lp2490
S'high'
p2491
aS'vhigh'
p2492
ag59
ag59
aS'big'
p2493
aS'low'
p2494
aS'unacc'
p2495
aa(lp2496
S'high'
p2497
aS'vhigh'
p2498
ag59
ag59
aS'big'
p2499
aS'med'
p2500
aS'unacc'
p2501
aa(lp2502
S'high'
p2503
aS'vhigh'
p2504
ag59
ag59
aS'big'
p2505
aS'high'
p2506
aS'unacc'
p2507
aa(lp2508
S'high'
p2509
aS'vhigh'
p2510
ag59
aS'more'
p2511
aS'small'
p2512
aS'low'
p2513
aS'unacc'
p2514
aa(lp2515
S'high'
p2516
aS'vhigh'
p2517
ag59
aS'more'
p2518
aS'small'
p2519
aS'med'
p2520
aS'unacc'
p2521
aa(lp2522
S'high'
p2523
aS'vhigh'
p2524
ag59
aS'more'
p2525
aS'small'
p2526
aS'high'
p2527
aS'unacc'
p2528
aa(lp2529
S'high'
p2530
aS'vhigh'
p2531
ag59
aS'more'
p2532
aS'med'
p2533
aS'low'
p2534
aS'unacc'
p2535
aa(lp2536
S'high'
p2537
aS'vhigh'
p2538
ag59
aS'more'
p2539
aS'med'
p2540
aS'med'
p2541
aS'unacc'
p2542
aa(lp2543
S'high'
p2544
aS'vhigh'
p2545
ag59
aS'more'
p2546
aS'med'
p2547
aS'high'
p2548
aS'unacc'
p2549
aa(lp2550
S'high'
p2551
aS'vhigh'
p2552
ag59
aS'more'
p2553
aS'big'
p2554
aS'low'
p2555
aS'unacc'
p2556
aa(lp2557
S'high'
p2558
aS'vhigh'
p2559
ag59
aS'more'
p2560
aS'big'
p2561
aS'med'
p2562
aS'unacc'
p2563
aa(lp2564
S'high'
p2565
aS'vhigh'
p2566
ag59
aS'more'
p2567
aS'big'
p2568
aS'high'
p2569
aS'unacc'
p2570
aa(lp2571
S'high'
p2572
aS'vhigh'
p2573
aS'5more'
p2574
ag4
aS'small'
p2575
aS'low'
p2576
aS'unacc'
p2577
aa(lp2578
S'high'
p2579
aS'vhigh'
p2580
aS'5more'
p2581
ag4
aS'small'
p2582
aS'med'
p2583
aS'unacc'
p2584
aa(lp2585
S'high'
p2586
aS'vhigh'
p2587
aS'5more'
p2588
ag4
aS'small'
p2589
aS'high'
p2590
aS'unacc'
p2591
aa(lp2592
S'high'
p2593
aS'vhigh'
p2594
aS'5more'
p2595
ag4
aS'med'
p2596
aS'low'
p2597
aS'unacc'
p2598
aa(lp2599
S'high'
p2600
aS'vhigh'
p2601
aS'5more'
p2602
ag4
aS'med'
p2603
aS'med'
p2604
aS'unacc'
p2605
aa(lp2606
S'high'
p2607
aS'vhigh'
p2608
aS'5more'
p2609
ag4
aS'med'
p2610
aS'high'
p2611
aS'unacc'
p2612
aa(lp2613
S'high'
p2614
aS'vhigh'
p2615
aS'5more'
p2616
ag4
aS'big'
p2617
aS'low'
p2618
aS'unacc'
p2619
aa(lp2620
S'high'
p2621
aS'vhigh'
p2622
aS'5more'
p2623
ag4
aS'big'
p2624
aS'med'
p2625
aS'unacc'
p2626
aa(lp2627
S'high'
p2628
aS'vhigh'
p2629
aS'5more'
p2630
ag4
aS'big'
p2631
aS'high'
p2632
aS'unacc'
p2633
aa(lp2634
S'high'
p2635
aS'vhigh'
p2636
aS'5more'
p2637
ag59
aS'small'
p2638
aS'low'
p2639
aS'unacc'
p2640
aa(lp2641
S'high'
p2642
aS'vhigh'
p2643
aS'5more'
p2644
ag59
aS'small'
p2645
aS'med'
p2646
aS'unacc'
p2647
aa(lp2648
S'high'
p2649
aS'vhigh'
p2650
aS'5more'
p2651
ag59
aS'small'
p2652
aS'high'
p2653
aS'unacc'
p2654
aa(lp2655
S'high'
p2656
aS'vhigh'
p2657
aS'5more'
p2658
ag59
aS'med'
p2659
aS'low'
p2660
aS'unacc'
p2661
aa(lp2662
S'high'
p2663
aS'vhigh'
p2664
aS'5more'
p2665
ag59
aS'med'
p2666
aS'med'
p2667
aS'unacc'
p2668
aa(lp2669
S'high'
p2670
aS'vhigh'
p2671
aS'5more'
p2672
ag59
aS'med'
p2673
aS'high'
p2674
aS'unacc'
p2675
aa(lp2676
S'high'
p2677
aS'vhigh'
p2678
aS'5more'
p2679
ag59
aS'big'
p2680
aS'low'
p2681
aS'unacc'
p2682
aa(lp2683
S'high'
p2684
aS'vhigh'
p2685
aS'5more'
p2686
ag59
aS'big'
p2687
aS'med'
p2688
aS'unacc'
p2689
aa(lp2690
S'high'
p2691
aS'vhigh'
p2692
aS'5more'
p2693
ag59
aS'big'
p2694
aS'high'
p2695
aS'unacc'
p2696
aa(lp2697
S'high'
p2698
aS'vhigh'
p2699
aS'5more'
p2700
aS'more'
p2701
aS'small'
p2702
aS'low'
p2703
aS'unacc'
p2704
aa(lp2705
S'high'
p2706
aS'vhigh'
p2707
aS'5more'
p2708
aS'more'
p2709
aS'small'
p2710
aS'med'
p2711
aS'unacc'
p2712
aa(lp2713
S'high'
p2714
aS'vhigh'
p2715
aS'5more'
p2716
aS'more'
p2717
aS'small'
p2718
aS'high'
p2719
aS'unacc'
p2720
aa(lp2721
S'high'
p2722
aS'vhigh'
p2723
aS'5more'
p2724
aS'more'
p2725
aS'med'
p2726
aS'low'
p2727
aS'unacc'
p2728
aa(lp2729
S'high'
p2730
aS'vhigh'
p2731
aS'5more'
p2732
aS'more'
p2733
aS'med'
p2734
aS'med'
p2735
aS'unacc'
p2736
aa(lp2737
S'high'
p2738
aS'vhigh'
p2739
aS'5more'
p2740
aS'more'
p2741
aS'med'
p2742
aS'high'
p2743
aS'unacc'
p2744
aa(lp2745
S'high'
p2746
aS'vhigh'
p2747
aS'5more'
p2748
aS'more'
p2749
aS'big'
p2750
aS'low'
p2751
aS'unacc'
p2752
aa(lp2753
S'high'
p2754
aS'vhigh'
p2755
aS'5more'
p2756
aS'more'
p2757
aS'big'
p2758
aS'med'
p2759
aS'unacc'
p2760
aa(lp2761
S'high'
p2762
aS'vhigh'
p2763
aS'5more'
p2764
aS'more'
p2765
aS'big'
p2766
aS'high'
p2767
aS'unacc'
p2768
aa(lp2769
S'high'
p2770
aS'high'
p2771
ag4
ag4
aS'small'
p2772
aS'low'
p2773
aS'unacc'
p2774
aa(lp2775
S'high'
p2776
aS'high'
p2777
ag4
ag4
aS'small'
p2778
aS'med'
p2779
aS'unacc'
p2780
aa(lp2781
S'high'
p2782
aS'high'
p2783
ag4
ag4
aS'small'
p2784
aS'high'
p2785
aS'unacc'
p2786
aa(lp2787
S'high'
p2788
aS'high'
p2789
ag4
ag4
aS'med'
p2790
aS'low'
p2791
aS'unacc'
p2792
aa(lp2793
S'high'
p2794
aS'high'
p2795
ag4
ag4
aS'med'
p2796
aS'med'
p2797
aS'unacc'
p2798
aa(lp2799
S'high'
p2800
aS'high'
p2801
ag4
ag4
aS'med'
p2802
aS'high'
p2803
aS'unacc'
p2804
aa(lp2805
S'high'
p2806
aS'high'
p2807
ag4
ag4
aS'big'
p2808
aS'low'
p2809
aS'unacc'
p2810
aa(lp2811
S'high'
p2812
aS'high'
p2813
ag4
ag4
aS'big'
p2814
aS'med'
p2815
aS'unacc'
p2816
aa(lp2817
S'high'
p2818
aS'high'
p2819
ag4
ag4
aS'big'
p2820
aS'high'
p2821
aS'unacc'
p2822
aa(lp2823
S'high'
p2824
aS'high'
p2825
ag4
ag59
aS'small'
p2826
aS'low'
p2827
aS'unacc'
p2828
aa(lp2829
S'high'
p2830
aS'high'
p2831
ag4
ag59
aS'small'
p2832
aS'med'
p2833
aS'unacc'
p2834
aa(lp2835
S'high'
p2836
aS'high'
p2837
ag4
ag59
aS'small'
p2838
aS'high'
p2839
aS'acc'
p2840
aa(lp2841
S'high'
p2842
aS'high'
p2843
ag4
ag59
aS'med'
p2844
aS'low'
p2845
aS'unacc'
p2846
aa(lp2847
S'high'
p2848
aS'high'
p2849
ag4
ag59
aS'med'
p2850
aS'med'
p2851
aS'unacc'
p2852
aa(lp2853
S'high'
p2854
aS'high'
p2855
ag4
ag59
aS'med'
p2856
aS'high'
p2857
aS'acc'
p2858
aa(lp2859
S'high'
p2860
aS'high'
p2861
ag4
ag59
aS'big'
p2862
aS'low'
p2863
aS'unacc'
p2864
aa(lp2865
S'high'
p2866
aS'high'
p2867
ag4
ag59
aS'big'
p2868
aS'med'
p2869
aS'acc'
p2870
aa(lp2871
S'high'
p2872
aS'high'
p2873
ag4
ag59
aS'big'
p2874
aS'high'
p2875
aS'acc'
p2876
aa(lp2877
S'high'
p2878
aS'high'
p2879
ag4
aS'more'
p2880
aS'small'
p2881
aS'low'
p2882
aS'unacc'
p2883
aa(lp2884
S'high'
p2885
aS'high'
p2886
ag4
aS'more'
p2887
aS'small'
p2888
aS'med'
p2889
aS'unacc'
p2890
aa(lp2891
S'high'
p2892
aS'high'
p2893
ag4
aS'more'
p2894
aS'small'
p2895
aS'high'
p2896
aS'unacc'
p2897
aa(lp2898
S'high'
p2899
aS'high'
p2900
ag4
aS'more'
p2901
aS'med'
p2902
aS'low'
p2903
aS'unacc'
p2904
aa(lp2905
S'high'
p2906
aS'high'
p2907
ag4
aS'more'
p2908
aS'med'
p2909
aS'med'
p2910
aS'unacc'
p2911
aa(lp2912
S'high'
p2913
aS'high'
p2914
ag4
aS'more'
p2915
aS'med'
p2916
aS'high'
p2917
aS'acc'
p2918
aa(lp2919
S'high'
p2920
aS'high'
p2921
ag4
aS'more'
p2922
aS'big'
p2923
aS'low'
p2924
aS'unacc'
p2925
aa(lp2926
S'high'
p2927
aS'high'
p2928
ag4
aS'more'
p2929
aS'big'
p2930
aS'med'
p2931
aS'acc'
p2932
aa(lp2933
S'high'
p2934
aS'high'
p2935
ag177
ag4
aS'small'
p2936
aS'low'
p2937
aS'unacc'
p2938
aa(lp2939
S'high'
p2940
aS'high'
p2941
ag177
ag4
aS'small'
p2942
aS'med'
p2943
aS'unacc'
p2944
aa(lp2945
S'high'
p2946
aS'high'
p2947
ag177
ag4
aS'small'
p2948
aS'high'
p2949
aS'unacc'
p2950
aa(lp2951
S'high'
p2952
aS'high'
p2953
ag177
ag4
aS'med'
p2954
aS'low'
p2955
aS'unacc'
p2956
aa(lp2957
S'high'
p2958
aS'high'
p2959
ag177
ag4
aS'med'
p2960
aS'med'
p2961
aS'unacc'
p2962
aa(lp2963
S'high'
p2964
aS'high'
p2965
ag177
ag4
aS'med'
p2966
aS'high'
p2967
aS'unacc'
p2968
aa(lp2969
S'high'
p2970
aS'high'
p2971
ag177
ag4
aS'big'
p2972
aS'low'
p2973
aS'unacc'
p2974
aa(lp2975
S'high'
p2976
aS'high'
p2977
ag177
ag4
aS'big'
p2978
aS'med'
p2979
aS'unacc'
p2980
aa(lp2981
S'high'
p2982
aS'high'
p2983
ag177
ag4
aS'big'
p2984
aS'high'
p2985
aS'unacc'
p2986
aa(lp2987
S'high'
p2988
aS'high'
p2989
ag177
ag59
aS'small'
p2990
aS'low'
p2991
aS'unacc'
p2992
aa(lp2993
S'high'
p2994
aS'high'
p2995
ag177
ag59
aS'small'
p2996
aS'med'
p2997
aS'unacc'
p2998
aa(lp2999
S'high'
p3000
aS'high'
p3001
ag177
ag59
aS'med'
p3002
aS'low'
p3003
aS'unacc'
p3004
aa(lp3005
S'high'
p3006
aS'high'
p3007
ag177
ag59
aS'med'
p3008
aS'med'
p3009
aS'unacc'
p3010
aa(lp3011
S'high'
p3012
aS'high'
p3013
ag177
ag59
aS'big'
p3014
aS'low'
p3015
aS'unacc'
p3016
aa(lp3017
S'high'
p3018
aS'high'
p3019
ag177
aS'more'
p3020
aS'small'
p3021
aS'low'
p3022
aS'unacc'
p3023
aa(lp3024
S'high'
p3025
aS'high'
p3026
ag177
aS'more'
p3027
aS'small'
p3028
aS'med'
p3029
aS'unacc'
p3030
aa(lp3031
S'high'
p3032
aS'high'
p3033
ag177
aS'more'
p3034
aS'med'
p3035
aS'low'
p3036
aS'unacc'
p3037
aa(lp3038
S'high'
p3039
aS'high'
p3040
ag177
aS'more'
p3041
aS'big'
p3042
aS'low'
p3043
aS'unacc'
p3044
aa(lp3045
S'high'
p3046
aS'high'
p3047
ag59
ag4
aS'small'
p3048
aS'low'
p3049
aS'unacc'
p3050
aa(lp3051
S'high'
p3052
aS'high'
p3053
ag59
ag4
aS'small'
p3054
aS'med'
p3055
aS'unacc'
p3056
aa(lp3057
S'high'
p3058
aS'high'
p3059
ag59
ag4
aS'small'
p3060
aS'high'
p3061
aS'unacc'
p3062
aa(lp3063
S'high'
p3064
aS'high'
p3065
ag59
ag4
aS'med'
p3066
aS'low'
p3067
aS'unacc'
p3068
aa(lp3069
S'high'
p3070
aS'high'
p3071
ag59
ag4
aS'med'
p3072
aS'med'
p3073
aS'unacc'
p3074
aa(lp3075
S'high'
p3076
aS'high'
p3077
ag59
ag4
aS'med'
p3078
aS'high'
p3079
aS'unacc'
p3080
aa(lp3081
S'high'
p3082
aS'high'
p3083
ag59
ag4
aS'big'
p3084
aS'low'
p3085
aS'unacc'
p3086
aa(lp3087
S'high'
p3088
aS'high'
p3089
ag59
ag4
aS'big'
p3090
aS'med'
p3091
aS'unacc'
p3092
aa(lp3093
S'high'
p3094
aS'high'
p3095
ag59
ag4
aS'big'
p3096
aS'high'
p3097
aS'unacc'
p3098
aa(lp3099
S'high'
p3100
aS'high'
p3101
ag59
ag59
aS'small'
p3102
aS'low'
p3103
aS'unacc'
p3104
aa(lp3105
S'high'
p3106
aS'high'
p3107
ag59
ag59
aS'small'
p3108
aS'med'
p3109
aS'unacc'
p3110
aa(lp3111
S'high'
p3112
aS'high'
p3113
ag59
ag59
aS'med'
p3114
aS'low'
p3115
aS'unacc'
p3116
aa(lp3117
S'high'
p3118
aS'high'
p3119
ag59
ag59
aS'big'
p3120
aS'low'
p3121
aS'unacc'
p3122
aa(lp3123
S'high'
p3124
aS'high'
p3125
ag59
aS'more'
p3126
aS'small'
p3127
aS'low'
p3128
aS'unacc'
p3129
aa(lp3130
S'high'
p3131
aS'high'
p3132
ag59
aS'more'
p3133
aS'small'
p3134
aS'med'
p3135
aS'unacc'
p3136
aa(lp3137
S'high'
p3138
aS'high'
p3139
ag59
aS'more'
p3140
aS'med'
p3141
aS'low'
p3142
aS'unacc'
p3143
aa(lp3144
S'high'
p3145
aS'high'
p3146
ag59
aS'more'
p3147
aS'big'
p3148
aS'low'
p3149
aS'unacc'
p3150
aa(lp3151
S'high'
p3152
aS'high'
p3153
aS'5more'
p3154
ag4
aS'small'
p3155
aS'low'
p3156
aS'unacc'
p3157
aa(lp3158
S'high'
p3159
aS'high'
p3160
aS'5more'
p3161
ag4
aS'small'
p3162
aS'med'
p3163
aS'unacc'
p3164
aa(lp3165
S'high'
p3166
aS'high'
p3167
aS'5more'
p3168
ag4
aS'small'
p3169
aS'high'
p3170
aS'unacc'
p3171
aa(lp3172
S'high'
p3173
aS'high'
p3174
aS'5more'
p3175
ag4
aS'med'
p3176
aS'low'
p3177
aS'unacc'
p3178
aa(lp3179
S'high'
p3180
aS'high'
p3181
aS'5more'
p3182
ag4
aS'med'
p3183
aS'med'
p3184
aS'unacc'
p3185
aa(lp3186
S'high'
p3187
aS'high'
p3188
aS'5more'
p3189
ag4
aS'med'
p3190
aS'high'
p3191
aS'unacc'
p3192
aa(lp3193
S'high'
p3194
aS'high'
p3195
aS'5more'
p3196
ag4
aS'big'
p3197
aS'low'
p3198
aS'unacc'
p3199
aa(lp3200
S'high'
p3201
aS'high'
p3202
aS'5more'
p3203
ag4
aS'big'
p3204
aS'med'
p3205
aS'unacc'
p3206
aa(lp3207
S'high'
p3208
aS'high'
p3209
aS'5more'
p3210
ag4
aS'big'
p3211
aS'high'
p3212
aS'unacc'
p3213
aa(lp3214
S'high'
p3215
aS'high'
p3216
aS'5more'
p3217
ag59
aS'small'
p3218
aS'low'
p3219
aS'unacc'
p3220
aa(lp3221
S'high'
p3222
aS'high'
p3223
aS'5more'
p3224
ag59
aS'small'
p3225
aS'med'
p3226
aS'unacc'
p3227
aa(lp3228
S'high'
p3229
aS'high'
p3230
aS'5more'
p3231
ag59
aS'med'
p3232
aS'low'
p3233
aS'unacc'
p3234
aa(lp3235
S'high'
p3236
aS'high'
p3237
aS'5more'
p3238
ag59
aS'big'
p3239
aS'low'
p3240
aS'unacc'
p3241
aa(lp3242
S'high'
p3243
aS'high'
p3244
aS'5more'
p3245
aS'more'
p3246
aS'small'
p3247
aS'low'
p3248
aS'unacc'
p3249
aa(lp3250
S'high'
p3251
aS'high'
p3252
aS'5more'
p3253
aS'more'
p3254
aS'small'
p3255
aS'med'
p3256
aS'unacc'
p3257
aa(lp3258
S'high'
p3259
aS'high'
p3260
aS'5more'
p3261
aS'more'
p3262
aS'med'
p3263
aS'low'
p3264
aS'unacc'
p3265
aa(lp3266
S'high'
p3267
aS'high'
p3268
aS'5more'
p3269
aS'more'
p3270
aS'big'
p3271
aS'low'
p3272
aS'unacc'
p3273
aa(lp3274
S'high'
p3275
aS'med'
p3276
ag4
ag4
aS'small'
p3277
aS'low'
p3278
aS'unacc'
p3279
aa(lp3280
S'high'
p3281
aS'med'
p3282
ag4
ag4
aS'small'
p3283
aS'med'
p3284
aS'unacc'
p3285
aa(lp3286
S'high'
p3287
aS'med'
p3288
ag4
ag4
aS'small'
p3289
aS'high'
p3290
aS'unacc'
p3291
aa(lp3292
S'high'
p3293
aS'med'
p3294
ag4
ag4
aS'med'
p3295
aS'low'
p3296
aS'unacc'
p3297
aa(lp3298
S'high'
p3299
aS'med'
p3300
ag4
ag4
aS'med'
p3301
aS'med'
p3302
aS'unacc'
p3303
aa(lp3304
S'high'
p3305
aS'med'
p3306
ag4
ag4
aS'med'
p3307
aS'high'
p3308
aS'unacc'
p3309
aa(lp3310
S'high'
p3311
aS'med'
p3312
ag4
ag4
aS'big'
p3313
aS'low'
p3314
aS'unacc'
p3315
aa(lp3316
S'high'
p3317
aS'med'
p3318
ag4
ag4
aS'big'
p3319
aS'med'
p3320
aS'unacc'
p3321
aa(lp3322
S'high'
p3323
aS'med'
p3324
ag4
ag4
aS'big'
p3325
aS'high'
p3326
aS'unacc'
p3327
aa(lp3328
S'high'
p3329
aS'med'
p3330
ag4
ag59
aS'small'
p3331
aS'low'
p3332
aS'unacc'
p3333
aa(lp3334
S'high'
p3335
aS'med'
p3336
ag4
ag59
aS'small'
p3337
aS'med'
p3338
aS'unacc'
p3339
aa(lp3340
S'high'
p3341
aS'med'
p3342
ag4
ag59
aS'med'
p3343
aS'low'
p3344
aS'unacc'
p3345
aa(lp3346
S'high'
p3347
aS'med'
p3348
ag4
ag59
aS'med'
p3349
aS'med'
p3350
aS'unacc'
p3351
aa(lp3352
S'high'
p3353
aS'med'
p3354
ag4
ag59
aS'big'
p3355
aS'low'
p3356
aS'unacc'
p3357
aa(lp3358
S'high'
p3359
aS'med'
p3360
ag4
aS'more'
p3361
aS'small'
p3362
aS'low'
p3363
aS'unacc'
p3364
aa(lp3365
S'high'
p3366
aS'med'
p3367
ag4
aS'more'
p3368
aS'small'
p3369
aS'med'
p3370
aS'unacc'
p3371
aa(lp3372
S'high'
p3373
aS'med'
p3374
ag4
aS'more'
p3375
aS'small'
p3376
aS'high'
p3377
aS'unacc'
p3378
aa(lp3379
S'high'
p3380
aS'med'
p3381
ag4
aS'more'
p3382
aS'med'
p3383
aS'low'
p3384
aS'unacc'
p3385
aa(lp3386
S'high'
p3387
aS'med'
p3388
ag4
aS'more'
p3389
aS'med'
p3390
aS'med'
p3391
aS'unacc'
p3392
aa(lp3393
S'high'
p3394
aS'med'
p3395
ag4
aS'more'
p3396
aS'big'
p3397
aS'low'
p3398
aS'unacc'
p3399
aa(lp3400
S'high'
p3401
aS'med'
p3402
ag177
ag4
aS'small'
p3403
aS'low'
p3404
aS'unacc'
p3405
aa(lp3406
S'high'
p3407
aS'med'
p3408
ag177
ag4
aS'small'
p3409
aS'med'
p3410
aS'unacc'
p3411
aa(lp3412
S'high'
p3413
aS'med'
p3414
ag177
ag4
aS'small'
p3415
aS'high'
p3416
aS'unacc'
p3417
aa(lp3418
S'high'
p3419
aS'med'
p3420
ag177
ag4
aS'med'
p3421
aS'low'
p3422
aS'unacc'
p3423
aa(lp3424
S'high'
p3425
aS'med'
p3426
ag177
ag4
aS'med'
p3427
aS'med'
p3428
aS'unacc'
p3429
aa(lp3430
S'high'
p3431
aS'med'
p3432
ag177
ag4
aS'med'
p3433
aS'high'
p3434
aS'unacc'
p3435
aa(lp3436
S'high'
p3437
aS'med'
p3438
ag177
ag4
aS'big'
p3439
aS'low'
p3440
aS'unacc'
p3441
aa(lp3442
S'high'
p3443
aS'med'
p3444
ag177
ag4
aS'big'
p3445
aS'med'
p3446
aS'unacc'
p3447
aa(lp3448
S'high'
p3449
aS'med'
p3450
ag177
ag4
aS'big'
p3451
aS'high'
p3452
aS'unacc'
p3453
aa(lp3454
S'high'
p3455
aS'med'
p3456
ag177
ag59
aS'small'
p3457
aS'low'
p3458
aS'unacc'
p3459
aa(lp3460
S'high'
p3461
aS'med'
p3462
ag177
ag59
aS'small'
p3463
aS'med'
p3464
aS'unacc'
p3465
aa(lp3466
S'high'
p3467
aS'med'
p3468
ag177
ag59
aS'med'
p3469
aS'low'
p3470
aS'unacc'
p3471
aa(lp3472
S'high'
p3473
aS'med'
p3474
ag177
ag59
aS'med'
p3475
aS'med'
p3476
aS'unacc'
p3477
aa(lp3478
S'high'
p3479
aS'med'
p3480
ag177
ag59
aS'big'
p3481
aS'low'
p3482
aS'unacc'
p3483
aa(lp3484
S'high'
p3485
aS'med'
p3486
ag177
ag59
aS'big'
p3487
aS'med'
p3488
aS'acc'
p3489
aa(lp3490
S'high'
p3491
aS'med'
p3492
ag177
ag59
aS'big'
p3493
aS'high'
p3494
aS'acc'
p3495
aa(lp3496
S'high'
p3497
aS'med'
p3498
ag177
aS'more'
p3499
aS'small'
p3500
aS'low'
p3501
aS'unacc'
p3502
aa(lp3503
S'high'
p3504
aS'med'
p3505
ag177
aS'more'
p3506
aS'small'
p3507
aS'med'
p3508
aS'unacc'
p3509
aa(lp3510
S'high'
p3511
aS'med'
p3512
ag177
aS'more'
p3513
aS'small'
p3514
aS'high'
p3515
aS'acc'
p3516
aa(lp3517
S'high'
p3518
aS'med'
p3519
ag177
aS'more'
p3520
aS'med'
p3521
aS'low'
p3522
aS'unacc'
p3523
aa(lp3524
S'high'
p3525
aS'med'
p3526
ag177
aS'more'
p3527
aS'med'
p3528
aS'med'
p3529
aS'acc'
p3530
aa(lp3531
S'high'
p3532
aS'med'
p3533
ag177
aS'more'
p3534
aS'med'
p3535
aS'high'
p3536
aS'acc'
p3537
aa(lp3538
S'high'
p3539
aS'med'
p3540
ag177
aS'more'
p3541
aS'big'
p3542
aS'low'
p3543
aS'unacc'
p3544
aa(lp3545
S'high'
p3546
aS'med'
p3547
ag177
aS'more'
p3548
aS'big'
p3549
aS'med'
p3550
aS'acc'
p3551
aa(lp3552
S'high'
p3553
aS'med'
p3554
ag177
aS'more'
p3555
aS'big'
p3556
aS'high'
p3557
aS'acc'
p3558
aa(lp3559
S'high'
p3560
aS'med'
p3561
ag59
ag4
aS'small'
p3562
aS'low'
p3563
aS'unacc'
p3564
aa(lp3565
S'high'
p3566
aS'med'
p3567
ag59
ag4
aS'small'
p3568
aS'med'
p3569
aS'unacc'
p3570
aa(lp3571
S'high'
p3572
aS'med'
p3573
ag59
ag4
aS'small'
p3574
aS'high'
p3575
aS'unacc'
p3576
aa(lp3577
S'high'
p3578
aS'med'
p3579
ag59
ag4
aS'med'
p3580
aS'low'
p3581
aS'unacc'
p3582
aa(lp3583
S'high'
p3584
aS'med'
p3585
ag59
ag4
aS'med'
p3586
aS'med'
p3587
aS'unacc'
p3588
aa(lp3589
S'high'
p3590
aS'med'
p3591
ag59
ag4
aS'med'
p3592
aS'high'
p3593
aS'unacc'
p3594
aa(lp3595
S'high'
p3596
aS'med'
p3597
ag59
ag4
aS'big'
p3598
aS'low'
p3599
aS'unacc'
p3600
aa(lp3601
S'high'
p3602
aS'med'
p3603
ag59
ag4
aS'big'
p3604
aS'med'
p3605
aS'unacc'
p3606
aa(lp3607
S'high'
p3608
aS'med'
p3609
ag59
ag4
aS'big'
p3610
aS'high'
p3611
aS'unacc'
p3612
aa(lp3613
S'high'
p3614
aS'med'
p3615
ag59
ag59
aS'small'
p3616
aS'low'
p3617
aS'unacc'
p3618
aa(lp3619
S'high'
p3620
aS'med'
p3621
ag59
ag59
aS'small'
p3622
aS'med'
p3623
aS'unacc'
p3624
aa(lp3625
S'high'
p3626
aS'med'
p3627
ag59
ag59
aS'small'
p3628
aS'high'
p3629
aS'acc'
p3630
aa(lp3631
S'high'
p3632
aS'med'
p3633
ag59
ag59
aS'med'
p3634
aS'low'
p3635
aS'unacc'
p3636
aa(lp3637
S'high'
p3638
aS'med'
p3639
ag59
ag59
aS'med'
p3640
aS'med'
p3641
aS'acc'
p3642
aa(lp3643
S'high'
p3644
aS'med'
p3645
ag59
ag59
aS'med'
p3646
aS'high'
p3647
aS'acc'
p3648
aa(lp3649
S'high'
p3650
aS'med'
p3651
ag59
ag59
aS'big'
p3652
aS'low'
p3653
aS'unacc'
p3654
aa(lp3655
S'high'
p3656
aS'med'
p3657
ag59
ag59
aS'big'
p3658
aS'med'
p3659
aS'acc'
p3660
aa(lp3661
S'high'
p3662
aS'med'
p3663
ag59
ag59
aS'big'
p3664
aS'high'
p3665
aS'acc'
p3666
aa(lp3667
S'high'
p3668
aS'med'
p3669
ag59
aS'more'
p3670
aS'small'
p3671
aS'low'
p3672
aS'unacc'
p3673
aa(lp3674
S'high'
p3675
aS'med'
p3676
ag59
aS'more'
p3677
aS'small'
p3678
aS'med'
p3679
aS'unacc'
p3680
aa(lp3681
S'high'
p3682
aS'med'
p3683
ag59
aS'more'
p3684
aS'small'
p3685
aS'high'
p3686
aS'acc'
p3687
aa(lp3688
S'high'
p3689
aS'med'
p3690
ag59
aS'more'
p3691
aS'med'
p3692
aS'low'
p3693
aS'unacc'
p3694
aa(lp3695
S'high'
p3696
aS'med'
p3697
ag59
aS'more'
p3698
aS'med'
p3699
aS'med'
p3700
aS'acc'
p3701
aa(lp3702
S'high'
p3703
aS'med'
p3704
ag59
aS'more'
p3705
aS'med'
p3706
aS'high'
p3707
aS'acc'
p3708
aa(lp3709
S'high'
p3710
aS'med'
p3711
ag59
aS'more'
p3712
aS'big'
p3713
aS'low'
p3714
aS'unacc'
p3715
aa(lp3716
S'high'
p3717
aS'med'
p3718
ag59
aS'more'
p3719
aS'big'
p3720
aS'med'
p3721
aS'acc'
p3722
aa(lp3723
S'high'
p3724
aS'med'
p3725
ag59
aS'more'
p3726
aS'big'
p3727
aS'high'
p3728
aS'acc'
p3729
aa(lp3730
S'high'
p3731
aS'med'
p3732
aS'5more'
p3733
ag4
aS'small'
p3734
aS'low'
p3735
aS'unacc'
p3736
aa(lp3737
S'high'
p3738
aS'med'
p3739
aS'5more'
p3740
ag4
aS'small'
p3741
aS'med'
p3742
aS'unacc'
p3743
aa(lp3744
S'high'
p3745
aS'med'
p3746
aS'5more'
p3747
ag4
aS'small'
p3748
aS'high'
p3749
aS'unacc'
p3750
aa(lp3751
S'high'
p3752
aS'med'
p3753
aS'5more'
p3754
ag4
aS'med'
p3755
aS'low'
p3756
aS'unacc'
p3757
aa(lp3758
S'high'
p3759
aS'med'
p3760
aS'5more'
p3761
ag4
aS'med'
p3762
aS'med'
p3763
aS'unacc'
p3764
aa(lp3765
S'high'
p3766
aS'med'
p3767
aS'5more'
p3768
ag4
aS'med'
p3769
aS'high'
p3770
aS'unacc'
p3771
aa(lp3772
S'high'
p3773
aS'med'
p3774
aS'5more'
p3775
ag4
aS'big'
p3776
aS'low'
p3777
aS'unacc'
p3778
aa(lp3779
S'high'
p3780
aS'med'
p3781
aS'5more'
p3782
ag4
aS'big'
p3783
aS'med'
p3784
aS'unacc'
p3785
aa(lp3786
S'high'
p3787
aS'med'
p3788
aS'5more'
p3789
ag4
aS'big'
p3790
aS'high'
p3791
aS'unacc'
p3792
aa(lp3793
S'high'
p3794
aS'med'
p3795
aS'5more'
p3796
ag59
aS'small'
p3797
aS'low'
p3798
aS'unacc'
p3799
aa(lp3800
S'high'
p3801
aS'med'
p3802
aS'5more'
p3803
ag59
aS'small'
p3804
aS'med'
p3805
aS'unacc'
p3806
aa(lp3807
S'high'
p3808
aS'med'
p3809
aS'5more'
p3810
ag59
aS'small'
p3811
aS'high'
p3812
aS'acc'
p3813
aa(lp3814
S'high'
p3815
aS'med'
p3816
aS'5more'
p3817
ag59
aS'med'
p3818
aS'low'
p3819
aS'unacc'
p3820
aa(lp3821
S'high'
p3822
aS'med'
p3823
aS'5more'
p3824
ag59
aS'med'
p3825
aS'med'
p3826
aS'acc'
p3827
aa(lp3828
S'high'
p3829
aS'med'
p3830
aS'5more'
p3831
ag59
aS'med'
p3832
aS'high'
p3833
aS'acc'
p3834
aa(lp3835
S'high'
p3836
aS'med'
p3837
aS'5more'
p3838
ag59
aS'big'
p3839
aS'low'
p3840
aS'unacc'
p3841
aa(lp3842
S'high'
p3843
aS'med'
p3844
aS'5more'
p3845
ag59
aS'big'
p3846
aS'med'
p3847
aS'acc'
p3848
aa(lp3849
S'high'
p3850
aS'med'
p3851
aS'5more'
p3852
ag59
aS'big'
p3853
aS'high'
p3854
aS'acc'
p3855
aa(lp3856
S'high'
p3857
aS'med'
p3858
aS'5more'
p3859
aS'more'
p3860
aS'small'
p3861
aS'low'
p3862
aS'unacc'
p3863
aa(lp3864
S'high'
p3865
aS'med'
p3866
aS'5more'
p3867
aS'more'
p3868
aS'small'
p3869
aS'med'
p3870
aS'unacc'
p3871
aa(lp3872
S'high'
p3873
aS'med'
p3874
aS'5more'
p3875
aS'more'
p3876
aS'small'
p3877
aS'high'
p3878
aS'acc'
p3879
aa(lp3880
S'high'
p3881
aS'med'
p3882
aS'5more'
p3883
aS'more'
p3884
aS'med'
p3885
aS'low'
p3886
aS'unacc'
p3887
aa(lp3888
S'high'
p3889
aS'med'
p3890
aS'5more'
p3891
aS'more'
p3892
aS'med'
p3893
aS'med'
p3894
aS'acc'
p3895
aa(lp3896
S'high'
p3897
aS'med'
p3898
aS'5more'
p3899
aS'more'
p3900
aS'med'
p3901
aS'high'
p3902
aS'acc'
p3903
aa(lp3904
S'high'
p3905
aS'med'
p3906
aS'5more'
p3907
aS'more'
p3908
aS'big'
p3909
aS'low'
p3910
aS'unacc'
p3911
aa(lp3912
S'high'
p3913
aS'med'
p3914
aS'5more'
p3915
aS'more'
p3916
aS'big'
p3917
aS'med'
p3918
aS'acc'
p3919
aa(lp3920
S'high'
p3921
aS'med'
p3922
aS'5more'
p3923
aS'more'
p3924
aS'big'
p3925
aS'high'
p3926
aS'acc'
p3927
aa(lp3928
S'high'
p3929
aS'low'
p3930
ag4
ag4
aS'small'
p3931
aS'low'
p3932
aS'unacc'
p3933
aa(lp3934
S'high'
p3935
aS'low'
p3936
ag4
ag4
aS'small'
p3937
aS'med'
p3938
aS'unacc'
p3939
aa(lp3940
S'high'
p3941
aS'low'
p3942
ag4
ag4
aS'small'
p3943
aS'high'
p3944
aS'unacc'
p3945
aa(lp3946
S'high'
p3947
aS'low'
p3948
ag4
ag4
aS'med'
p3949
aS'low'
p3950
aS'unacc'
p3951
aa(lp3952
S'high'
p3953
aS'low'
p3954
ag4
ag4
aS'med'
p3955
aS'med'
p3956
aS'unacc'
p3957
aa(lp3958
S'high'
p3959
aS'low'
p3960
ag4
ag4
aS'med'
p3961
aS'high'
p3962
aS'unacc'
p3963
aa(lp3964
S'high'
p3965
aS'low'
p3966
ag4
ag4
aS'big'
p3967
aS'low'
p3968
aS'unacc'
p3969
aa(lp3970
S'high'
p3971
aS'low'
p3972
ag4
ag4
aS'big'
p3973
aS'med'
p3974
aS'unacc'
p3975
aa(lp3976
S'high'
p3977
aS'low'
p3978
ag4
ag4
aS'big'
p3979
aS'high'
p3980
aS'unacc'
p3981
aa(lp3982
S'high'
p3983
aS'low'
p3984
ag4
ag59
aS'small'
p3985
aS'low'
p3986
aS'unacc'
p3987
aa(lp3988
S'high'
p3989
aS'low'
p3990
ag4
ag59
aS'small'
p3991
aS'med'
p3992
aS'unacc'
p3993
aa(lp3994
S'high'
p3995
aS'low'
p3996
ag4
ag59
aS'small'
p3997
aS'high'
p3998
aS'acc'
p3999
aa(lp4000
S'high'
p4001
aS'low'
p4002
ag4
ag59
aS'med'
p4003
aS'low'
p4004
aS'unacc'
p4005
aa(lp4006
S'high'
p4007
aS'low'
p4008
ag4
ag59
aS'med'
p4009
aS'med'
p4010
aS'unacc'
p4011
aa(lp4012
S'high'
p4013
aS'low'
p4014
ag4
ag59
aS'med'
p4015
aS'high'
p4016
aS'acc'
p4017
aa(lp4018
S'high'
p4019
aS'low'
p4020
ag4
ag59
aS'big'
p4021
aS'low'
p4022
aS'unacc'
p4023
aa(lp4024
S'high'
p4025
aS'low'
p4026
ag4
ag59
aS'big'
p4027
aS'med'
p4028
aS'acc'
p4029
aa(lp4030
S'high'
p4031
aS'low'
p4032
ag4
ag59
aS'big'
p4033
aS'high'
p4034
aS'acc'
p4035
aa(lp4036
S'high'
p4037
aS'low'
p4038
ag4
aS'more'
p4039
aS'small'
p4040
aS'low'
p4041
aS'unacc'
p4042
aa(lp4043
S'high'
p4044
aS'low'
p4045
ag4
aS'more'
p4046
aS'small'
p4047
aS'med'
p4048
aS'unacc'
p4049
aa(lp4050
S'high'
p4051
aS'low'
p4052
ag4
aS'more'
p4053
aS'small'
p4054
aS'high'
p4055
aS'unacc'
p4056
aa(lp4057
S'high'
p4058
aS'low'
p4059
ag4
aS'more'
p4060
aS'med'
p4061
aS'low'
p4062
aS'unacc'
p4063
aa(lp4064
S'high'
p4065
aS'low'
p4066
ag4
aS'more'
p4067
aS'med'
p4068
aS'med'
p4069
aS'unacc'
p4070
aa(lp4071
S'high'
p4072
aS'low'
p4073
ag4
aS'more'
p4074
aS'med'
p4075
aS'high'
p4076
aS'acc'
p4077
aa(lp4078
S'high'
p4079
aS'low'
p4080
ag4
aS'more'
p4081
aS'big'
p4082
aS'low'
p4083
aS'unacc'
p4084
aa(lp4085
S'high'
p4086
aS'low'
p4087
ag4
aS'more'
p4088
aS'big'
p4089
aS'med'
p4090
aS'acc'
p4091
aa(lp4092
S'high'
p4093
aS'low'
p4094
ag4
aS'more'
p4095
aS'big'
p4096
aS'high'
p4097
aS'acc'
p4098
aa(lp4099
S'high'
p4100
aS'low'
p4101
ag177
ag4
aS'small'
p4102
aS'low'
p4103
aS'unacc'
p4104
aa(lp4105
S'high'
p4106
aS'low'
p4107
ag177
ag4
aS'small'
p4108
aS'med'
p4109
aS'unacc'
p4110
aa(lp4111
S'high'
p4112
aS'low'
p4113
ag177
ag4
aS'small'
p4114
aS'high'
p4115
aS'unacc'
p4116
aa(lp4117
S'high'
p4118
aS'low'
p4119
ag177
ag4
aS'med'
p4120
aS'low'
p4121
aS'unacc'
p4122
aa(lp4123
S'high'
p4124
aS'low'
p4125
ag177
ag4
aS'med'
p4126
aS'med'
p4127
aS'unacc'
p4128
aa(lp4129
S'high'
p4130
aS'low'
p4131
ag177
ag4
aS'med'
p4132
aS'high'
p4133
aS'unacc'
p4134
aa(lp4135
S'high'
p4136
aS'low'
p4137
ag177
ag4
aS'big'
p4138
aS'low'
p4139
aS'unacc'
p4140
aa(lp4141
S'high'
p4142
aS'low'
p4143
ag177
ag4
aS'big'
p4144
aS'med'
p4145
aS'unacc'
p4146
aa(lp4147
S'high'
p4148
aS'low'
p4149
ag177
ag4
aS'big'
p4150
aS'high'
p4151
aS'unacc'
p4152
aa(lp4153
S'high'
p4154
aS'low'
p4155
ag177
ag59
aS'small'
p4156
aS'low'
p4157
aS'unacc'
p4158
aa(lp4159
S'high'
p4160
aS'low'
p4161
ag177
ag59
aS'small'
p4162
aS'med'
p4163
aS'unacc'
p4164
aa(lp4165
S'high'
p4166
aS'low'
p4167
ag177
ag59
aS'small'
p4168
aS'high'
p4169
aS'acc'
p4170
aa(lp4171
S'high'
p4172
aS'low'
p4173
ag177
ag59
aS'med'
p4174
aS'low'
p4175
aS'unacc'
p4176
aa(lp4177
S'high'
p4178
aS'low'
p4179
ag177
ag59
aS'med'
p4180
aS'med'
p4181
aS'unacc'
p4182
aa(lp4183
S'high'
p4184
aS'low'
p4185
ag177
ag59
aS'med'
p4186
aS'high'
p4187
aS'acc'
p4188
aa(lp4189
S'high'
p4190
aS'low'
p4191
ag177
ag59
aS'big'
p4192
aS'low'
p4193
aS'unacc'
p4194
aa(lp4195
S'high'
p4196
aS'low'
p4197
ag177
ag59
aS'big'
p4198
aS'med'
p4199
aS'acc'
p4200
aa(lp4201
S'high'
p4202
aS'low'
p4203
ag177
ag59
aS'big'
p4204
aS'high'
p4205
aS'acc'
p4206
aa(lp4207
S'high'
p4208
aS'low'
p4209
ag177
aS'more'
p4210
aS'small'
p4211
aS'low'
p4212
aS'unacc'
p4213
aa(lp4214
S'high'
p4215
aS'low'
p4216
ag177
aS'more'
p4217
aS'small'
p4218
aS'med'
p4219
aS'unacc'
p4220
aa(lp4221
S'high'
p4222
aS'low'
p4223
ag177
aS'more'
p4224
aS'small'
p4225
aS'high'
p4226
aS'acc'
p4227
aa(lp4228
S'high'
p4229
aS'low'
p4230
ag177
aS'more'
p4231
aS'med'
p4232
aS'low'
p4233
aS'unacc'
p4234
aa(lp4235
S'high'
p4236
aS'low'
p4237
ag177
aS'more'
p4238
aS'med'
p4239
aS'med'
p4240
aS'acc'
p4241
aa(lp4242
S'high'
p4243
aS'low'
p4244
ag177
aS'more'
p4245
aS'med'
p4246
aS'high'
p4247
aS'acc'
p4248
aa(lp4249
S'high'
p4250
aS'low'
p4251
ag177
aS'more'
p4252
aS'big'
p4253
aS'low'
p4254
aS'unacc'
p4255
aa(lp4256
S'high'
p4257
aS'low'
p4258
ag177
aS'more'
p4259
aS'big'
p4260
aS'med'
p4261
aS'acc'
p4262
aa(lp4263
S'high'
p4264
aS'low'
p4265
ag177
aS'more'
p4266
aS'big'
p4267
aS'high'
p4268
aS'acc'
p4269
aa(lp4270
S'high'
p4271
aS'low'
p4272
ag59
ag4
aS'small'
p4273
aS'low'
p4274
aS'unacc'
p4275
aa(lp4276
S'high'
p4277
aS'low'
p4278
ag59
ag4
aS'small'
p4279
aS'med'
p4280
aS'unacc'
p4281
aa(lp4282
S'high'
p4283
aS'low'
p4284
ag59
ag4
aS'small'
p4285
aS'high'
p4286
aS'unacc'
p4287
aa(lp4288
S'high'
p4289
aS'low'
p4290
ag59
ag4
aS'med'
p4291
aS'low'
p4292
aS'unacc'
p4293
aa(lp4294
S'high'
p4295
aS'low'
p4296
ag59
ag4
aS'med'
p4297
aS'med'
p4298
aS'unacc'
p4299
aa(lp4300
S'high'
p4301
aS'low'
p4302
ag59
ag4
aS'med'
p4303
aS'high'
p4304
aS'unacc'
p4305
aa(lp4306
S'high'
p4307
aS'low'
p4308
ag59
ag4
aS'big'
p4309
aS'low'
p4310
aS'unacc'
p4311
aa(lp4312
S'high'
p4313
aS'low'
p4314
ag59
ag4
aS'big'
p4315
aS'med'
p4316
aS'unacc'
p4317
aa(lp4318
S'high'
p4319
aS'low'
p4320
ag59
ag4
aS'big'
p4321
aS'high'
p4322
aS'unacc'
p4323
aa(lp4324
S'high'
p4325
aS'low'
p4326
ag59
ag59
aS'small'
p4327
aS'low'
p4328
aS'unacc'
p4329
aa(lp4330
S'high'
p4331
aS'low'
p4332
ag59
ag59
aS'small'
p4333
aS'med'
p4334
aS'unacc'
p4335
aa(lp4336
S'high'
p4337
aS'low'
p4338
ag59
ag59
aS'small'
p4339
aS'high'
p4340
aS'acc'
p4341
aa(lp4342
S'high'
p4343
aS'low'
p4344
ag59
ag59
aS'med'
p4345
aS'low'
p4346
aS'unacc'
p4347
aa(lp4348
S'high'
p4349
aS'low'
p4350
ag59
ag59
aS'med'
p4351
aS'med'
p4352
aS'acc'
p4353
aa(lp4354
S'high'
p4355
aS'low'
p4356
ag59
ag59
aS'med'
p4357
aS'high'
p4358
aS'acc'
p4359
aa(lp4360
S'high'
p4361
aS'low'
p4362
ag59
ag59
aS'big'
p4363
aS'low'
p4364
aS'unacc'
p4365
aa(lp4366
S'high'
p4367
aS'low'
p4368
ag59
ag59
aS'big'
p4369
aS'med'
p4370
aS'acc'
p4371
aa(lp4372
S'high'
p4373
aS'low'
p4374
ag59
ag59
aS'big'
p4375
aS'high'
p4376
aS'acc'
p4377
aa(lp4378
S'high'
p4379
aS'low'
p4380
ag59
aS'more'
p4381
aS'small'
p4382
aS'low'
p4383
aS'unacc'
p4384
aa(lp4385
S'high'
p4386
aS'low'
p4387
ag59
aS'more'
p4388
aS'small'
p4389
aS'med'
p4390
aS'unacc'
p4391
aa(lp4392
S'high'
p4393
aS'low'
p4394
ag59
aS'more'
p4395
aS'small'
p4396
aS'high'
p4397
aS'acc'
p4398
aa(lp4399
S'high'
p4400
aS'low'
p4401
ag59
aS'more'
p4402
aS'med'
p4403
aS'low'
p4404
aS'unacc'
p4405
aa(lp4406
S'high'
p4407
aS'low'
p4408
ag59
aS'more'
p4409
aS'med'
p4410
aS'med'
p4411
aS'acc'
p4412
aa(lp4413
S'high'
p4414
aS'low'
p4415
ag59
aS'more'
p4416
aS'med'
p4417
aS'high'
p4418
aS'acc'
p4419
aa(lp4420
S'high'
p4421
aS'low'
p4422
ag59
aS'more'
p4423
aS'big'
p4424
aS'low'
p4425
aS'unacc'
p4426
aa(lp4427
S'high'
p4428
aS'low'
p4429
ag59
aS'more'
p4430
aS'big'
p4431
aS'med'
p4432
aS'acc'
p4433
aa(lp4434
S'high'
p4435
aS'low'
p4436
ag59
aS'more'
p4437
aS'big'
p4438
aS'high'
p4439
aS'acc'
p4440
aa(lp4441
S'high'
p4442
aS'low'
p4443
aS'5more'
p4444
ag4
aS'small'
p4445
aS'low'
p4446
aS'unacc'
p4447
aa(lp4448
S'high'
p4449
aS'low'
p4450
aS'5more'
p4451
ag4
aS'small'
p4452
aS'med'
p4453
aS'unacc'
p4454
aa(lp4455
S'high'
p4456
aS'low'
p4457
aS'5more'
p4458
ag4
aS'small'
p4459
aS'high'
p4460
aS'unacc'
p4461
aa(lp4462
S'high'
p4463
aS'low'
p4464
aS'5more'
p4465
ag4
aS'med'
p4466
aS'low'
p4467
aS'unacc'
p4468
aa(lp4469
S'high'
p4470
aS'low'
p4471
aS'5more'
p4472
ag4
aS'med'
p4473
aS'med'
p4474
aS'unacc'
p4475
aa(lp4476
S'high'
p4477
aS'low'
p4478
aS'5more'
p4479
ag4
aS'med'
p4480
aS'high'
p4481
aS'unacc'
p4482
aa(lp4483
S'high'
p4484
aS'low'
p4485
aS'5more'
p4486
ag4
aS'big'
p4487
aS'low'
p4488
aS'unacc'
p4489
aa(lp4490
S'high'
p4491
aS'low'
p4492
aS'5more'
p4493
ag4
aS'big'
p4494
aS'med'
p4495
aS'unacc'
p4496
aa(lp4497
S'high'
p4498
aS'low'
p4499
aS'5more'
p4500
ag4
aS'big'
p4501
aS'high'
p4502
aS'unacc'
p4503
aa(lp4504
S'high'
p4505
aS'low'
p4506
aS'5more'
p4507
ag59
aS'small'
p4508
aS'low'
p4509
aS'unacc'
p4510
aa(lp4511
S'high'
p4512
aS'low'
p4513
aS'5more'
p4514
ag59
aS'small'
p4515
aS'med'
p4516
aS'unacc'
p4517
aa(lp4518
S'high'
p4519
aS'low'
p4520
aS'5more'
p4521
ag59
aS'small'
p4522
aS'high'
p4523
aS'acc'
p4524
aa(lp4525
S'high'
p4526
aS'low'
p4527
aS'5more'
p4528
ag59
aS'med'
p4529
aS'low'
p4530
aS'unacc'
p4531
aa(lp4532
S'high'
p4533
aS'low'
p4534
aS'5more'
p4535
ag59
aS'med'
p4536
aS'med'
p4537
aS'acc'
p4538
aa(lp4539
S'high'
p4540
aS'low'
p4541
aS'5more'
p4542
ag59
aS'med'
p4543
aS'high'
p4544
aS'acc'
p4545
aa(lp4546
S'high'
p4547
aS'low'
p4548
aS'5more'
p4549
ag59
aS'big'
p4550
aS'low'
p4551
aS'unacc'
p4552
aa(lp4553
S'high'
p4554
aS'low'
p4555
aS'5more'
p4556
ag59
aS'big'
p4557
aS'med'
p4558
aS'acc'
p4559
aa(lp4560
S'high'
p4561
aS'low'
p4562
aS'5more'
p4563
ag59
aS'big'
p4564
aS'high'
p4565
aS'acc'
p4566
aa(lp4567
S'high'
p4568
aS'low'
p4569
aS'5more'
p4570
aS'more'
p4571
aS'small'
p4572
aS'low'
p4573
aS'unacc'
p4574
aa(lp4575
S'high'
p4576
aS'low'
p4577
aS'5more'
p4578
aS'more'
p4579
aS'small'
p4580
aS'med'
p4581
aS'unacc'
p4582
aa(lp4583
S'high'
p4584
aS'low'
p4585
aS'5more'
p4586
aS'more'
p4587
aS'small'
p4588
aS'high'
p4589
aS'acc'
p4590
aa(lp4591
S'high'
p4592
aS'low'
p4593
aS'5more'
p4594
aS'more'
p4595
aS'med'
p4596
aS'low'
p4597
aS'unacc'
p4598
aa(lp4599
S'high'
p4600
aS'low'
p4601
aS'5more'
p4602
aS'more'
p4603
aS'med'
p4604
aS'med'
p4605
aS'acc'
p4606
aa(lp4607
S'high'
p4608
aS'low'
p4609
aS'5more'
p4610
aS'more'
p4611
aS'med'
p4612
aS'high'
p4613
aS'acc'
p4614
aa(lp4615
S'high'
p4616
aS'low'
p4617
aS'5more'
p4618
aS'more'
p4619
aS'big'
p4620
aS'low'
p4621
aS'unacc'
p4622
aa(lp4623
S'high'
p4624
aS'low'
p4625
aS'5more'
p4626
aS'more'
p4627
aS'big'
p4628
aS'med'
p4629
aS'acc'
p4630
aa(lp4631
S'high'
p4632
aS'low'
p4633
aS'5more'
p4634
aS'more'
p4635
aS'big'
p4636
aS'high'
p4637
aS'acc'
p4638
aa(lp4639
S'med'
p4640
aS'vhigh'
p4641
ag4
ag4
aS'small'
p4642
aS'low'
p4643
aS'unacc'
p4644
aa(lp4645
S'med'
p4646
aS'vhigh'
p4647
ag4
ag4
aS'small'
p4648
aS'med'
p4649
aS'unacc'
p4650
aa(lp4651
S'med'
p4652
aS'vhigh'
p4653
ag4
ag4
aS'small'
p4654
aS'high'
p4655
aS'unacc'
p4656
aa(lp4657
S'med'
p4658
aS'vhigh'
p4659
ag4
ag4
aS'med'
p4660
aS'low'
p4661
aS'unacc'
p4662
aa(lp4663
S'med'
p4664
aS'vhigh'
p4665
ag4
ag4
aS'med'
p4666
aS'med'
p4667
aS'unacc'
p4668
aa(lp4669
S'med'
p4670
aS'vhigh'
p4671
ag4
ag4
aS'med'
p4672
aS'high'
p4673
aS'unacc'
p4674
aa(lp4675
S'med'
p4676
aS'vhigh'
p4677
ag4
ag4
aS'big'
p4678
aS'low'
p4679
aS'unacc'
p4680
aa(lp4681
S'med'
p4682
aS'vhigh'
p4683
ag4
ag4
aS'big'
p4684
aS'med'
p4685
aS'unacc'
p4686
aa(lp4687
S'med'
p4688
aS'vhigh'
p4689
ag4
ag4
aS'big'
p4690
aS'high'
p4691
aS'unacc'
p4692
aa(lp4693
S'med'
p4694
aS'vhigh'
p4695
ag4
ag59
aS'small'
p4696
aS'low'
p4697
aS'unacc'
p4698
aa(lp4699
S'med'
p4700
aS'vhigh'
p4701
ag4
ag59
aS'small'
p4702
aS'med'
p4703
aS'unacc'
p4704
aa(lp4705
S'med'
p4706
aS'vhigh'
p4707
ag4
ag59
aS'small'
p4708
aS'high'
p4709
aS'acc'
p4710
aa(lp4711
S'med'
p4712
aS'vhigh'
p4713
ag4
ag59
aS'med'
p4714
aS'low'
p4715
aS'unacc'
p4716
aa(lp4717
S'med'
p4718
aS'vhigh'
p4719
ag4
ag59
aS'med'
p4720
aS'med'
p4721
aS'unacc'
p4722
aa(lp4723
S'med'
p4724
aS'vhigh'
p4725
ag4
ag59
aS'med'
p4726
aS'high'
p4727
aS'acc'
p4728
aa(lp4729
S'med'
p4730
aS'vhigh'
p4731
ag4
ag59
aS'big'
p4732
aS'low'
p4733
aS'unacc'
p4734
aa(lp4735
S'med'
p4736
aS'vhigh'
p4737
ag4
ag59
aS'big'
p4738
aS'med'
p4739
aS'acc'
p4740
aa(lp4741
S'med'
p4742
aS'vhigh'
p4743
ag4
ag59
aS'big'
p4744
aS'high'
p4745
aS'acc'
p4746
aa(lp4747
S'med'
p4748
aS'vhigh'
p4749
ag4
aS'more'
p4750
aS'small'
p4751
aS'low'
p4752
aS'unacc'
p4753
aa(lp4754
S'med'
p4755
aS'vhigh'
p4756
ag4
aS'more'
p4757
aS'small'
p4758
aS'med'
p4759
aS'unacc'
p4760
aa(lp4761
S'med'
p4762
aS'vhigh'
p4763
ag4
aS'more'
p4764
aS'small'
p4765
aS'high'
p4766
aS'unacc'
p4767
aa(lp4768
S'med'
p4769
aS'vhigh'
p4770
ag4
aS'more'
p4771
aS'med'
p4772
aS'low'
p4773
aS'unacc'
p4774
aa(lp4775
S'med'
p4776
aS'vhigh'
p4777
ag4
aS'more'
p4778
aS'med'
p4779
aS'med'
p4780
aS'unacc'
p4781
aa(lp4782
S'med'
p4783
aS'vhigh'
p4784
ag4
aS'more'
p4785
aS'med'
p4786
aS'high'
p4787
aS'acc'
p4788
aa(lp4789
S'med'
p4790
aS'vhigh'
p4791
ag4
aS'more'
p4792
aS'big'
p4793
aS'low'
p4794
aS'unacc'
p4795
aa(lp4796
S'med'
p4797
aS'vhigh'
p4798
ag4
aS'more'
p4799
aS'big'
p4800
aS'med'
p4801
aS'acc'
p4802
aa(lp4803
S'med'
p4804
aS'vhigh'
p4805
ag4
aS'more'
p4806
aS'big'
p4807
aS'high'
p4808
aS'acc'
p4809
aa(lp4810
S'med'
p4811
aS'vhigh'
p4812
ag177
ag4
aS'small'
p4813
aS'low'
p4814
aS'unacc'
p4815
aa(lp4816
S'med'
p4817
aS'vhigh'
p4818
ag177
ag4
aS'small'
p4819
aS'med'
p4820
aS'unacc'
p4821
aa(lp4822
S'med'
p4823
aS'vhigh'
p4824
ag177
ag4
aS'small'
p4825
aS'high'
p4826
aS'unacc'
p4827
aa(lp4828
S'med'
p4829
aS'vhigh'
p4830
ag177
ag4
aS'med'
p4831
aS'low'
p4832
aS'unacc'
p4833
aa(lp4834
S'med'
p4835
aS'vhigh'
p4836
ag177
ag4
aS'med'
p4837
aS'med'
p4838
aS'unacc'
p4839
aa(lp4840
S'med'
p4841
aS'vhigh'
p4842
ag177
ag4
aS'med'
p4843
aS'high'
p4844
aS'unacc'
p4845
aa(lp4846
S'med'
p4847
aS'vhigh'
p4848
ag177
ag4
aS'big'
p4849
aS'low'
p4850
aS'unacc'
p4851
aa(lp4852
S'med'
p4853
aS'vhigh'
p4854
ag177
ag4
aS'big'
p4855
aS'med'
p4856
aS'unacc'
p4857
aa(lp4858
S'med'
p4859
aS'vhigh'
p4860
ag177
ag4
aS'big'
p4861
aS'high'
p4862
aS'unacc'
p4863
aa(lp4864
S'med'
p4865
aS'vhigh'
p4866
ag177
ag59
aS'small'
p4867
aS'low'
p4868
aS'unacc'
p4869
aa(lp4870
S'med'
p4871
aS'vhigh'
p4872
ag177
ag59
aS'small'
p4873
aS'med'
p4874
aS'unacc'
p4875
aa(lp4876
S'med'
p4877
aS'vhigh'
p4878
ag177
ag59
aS'small'
p4879
aS'high'
p4880
aS'acc'
p4881
aa(lp4882
S'med'
p4883
aS'vhigh'
p4884
ag177
ag59
aS'med'
p4885
aS'low'
p4886
aS'unacc'
p4887
aa(lp4888
S'med'
p4889
aS'vhigh'
p4890
ag177
ag59
aS'med'
p4891
aS'med'
p4892
aS'unacc'
p4893
aa(lp4894
S'med'
p4895
aS'vhigh'
p4896
ag177
ag59
aS'med'
p4897
aS'high'
p4898
aS'acc'
p4899
aa(lp4900
S'med'
p4901
aS'vhigh'
p4902
ag177
ag59
aS'big'
p4903
aS'low'
p4904
aS'unacc'
p4905
aa(lp4906
S'med'
p4907
aS'vhigh'
p4908
ag177
ag59
aS'big'
p4909
aS'med'
p4910
aS'acc'
p4911
aa(lp4912
S'med'
p4913
aS'vhigh'
p4914
ag177
ag59
aS'big'
p4915
aS'high'
p4916
aS'acc'
p4917
aa(lp4918
S'med'
p4919
aS'vhigh'
p4920
ag177
aS'more'
p4921
aS'small'
p4922
aS'low'
p4923
aS'unacc'
p4924
aa(lp4925
S'med'
p4926
aS'vhigh'
p4927
ag177
aS'more'
p4928
aS'small'
p4929
aS'med'
p4930
aS'unacc'
p4931
aa(lp4932
S'med'
p4933
aS'vhigh'
p4934
ag177
aS'more'
p4935
aS'small'
p4936
aS'high'
p4937
aS'acc'
p4938
aa(lp4939
S'med'
p4940
aS'vhigh'
p4941
ag177
aS'more'
p4942
aS'med'
p4943
aS'low'
p4944
aS'unacc'
p4945
aa(lp4946
S'med'
p4947
aS'vhigh'
p4948
ag177
aS'more'
p4949
aS'med'
p4950
aS'med'
p4951
aS'acc'
p4952
aa(lp4953
S'med'
p4954
aS'vhigh'
p4955
ag177
aS'more'
p4956
aS'med'
p4957
aS'high'
p4958
aS'acc'
p4959
aa(lp4960
S'med'
p4961
aS'vhigh'
p4962
ag177
aS'more'
p4963
aS'big'
p4964
aS'low'
p4965
aS'unacc'
p4966
aa(lp4967
S'med'
p4968
aS'vhigh'
p4969
ag177
aS'more'
p4970
aS'big'
p4971
aS'med'
p4972
aS'acc'
p4973
aa(lp4974
S'med'
p4975
aS'vhigh'
p4976
ag177
aS'more'
p4977
aS'big'
p4978
aS'high'
p4979
aS'acc'
p4980
aa(lp4981
S'med'
p4982
aS'vhigh'
p4983
ag59
ag4
aS'small'
p4984
aS'low'
p4985
aS'unacc'
p4986
aa(lp4987
S'med'
p4988
aS'vhigh'
p4989
ag59
ag4
aS'small'
p4990
aS'med'
p4991
aS'unacc'
p4992
aa(lp4993
S'med'
p4994
aS'vhigh'
p4995
ag59
ag4
aS'small'
p4996
aS'high'
p4997
aS'unacc'
p4998
aa(lp4999
S'med'
p5000
aS'vhigh'
p5001
ag59
ag4
aS'med'
p5002
aS'low'
p5003
aS'unacc'
p5004
aa(lp5005
S'med'
p5006
aS'vhigh'
p5007
ag59
ag4
aS'med'
p5008
aS'med'
p5009
aS'unacc'
p5010
aa(lp5011
S'med'
p5012
aS'vhigh'
p5013
ag59
ag4
aS'med'
p5014
aS'high'
p5015
aS'unacc'
p5016
aa(lp5017
S'med'
p5018
aS'vhigh'
p5019
ag59
ag4
aS'big'
p5020
aS'low'
p5021
aS'unacc'
p5022
aa(lp5023
S'med'
p5024
aS'vhigh'
p5025
ag59
ag4
aS'big'
p5026
aS'med'
p5027
aS'unacc'
p5028
aa(lp5029
S'med'
p5030
aS'vhigh'
p5031
ag59
ag4
aS'big'
p5032
aS'high'
p5033
aS'unacc'
p5034
aa(lp5035
S'med'
p5036
aS'vhigh'
p5037
ag59
ag59
aS'small'
p5038
aS'low'
p5039
aS'unacc'
p5040
aa(lp5041
S'med'
p5042
aS'vhigh'
p5043
ag59
ag59
aS'small'
p5044
aS'med'
p5045
aS'unacc'
p5046
aa(lp5047
S'med'
p5048
aS'vhigh'
p5049
ag59
ag59
aS'small'
p5050
aS'high'
p5051
aS'acc'
p5052
aa(lp5053
S'med'
p5054
aS'vhigh'
p5055
ag59
ag59
aS'med'
p5056
aS'low'
p5057
aS'unacc'
p5058
aa(lp5059
S'med'
p5060
aS'vhigh'
p5061
ag59
ag59
aS'med'
p5062
aS'med'
p5063
aS'acc'
p5064
aa(lp5065
S'med'
p5066
aS'vhigh'
p5067
ag59
ag59
aS'med'
p5068
aS'high'
p5069
aS'acc'
p5070
aa(lp5071
S'med'
p5072
aS'vhigh'
p5073
ag59
ag59
aS'big'
p5074
aS'low'
p5075
aS'unacc'
p5076
aa(lp5077
S'med'
p5078
aS'vhigh'
p5079
ag59
ag59
aS'big'
p5080
aS'med'
p5081
aS'acc'
p5082
aa(lp5083
S'med'
p5084
aS'vhigh'
p5085
ag59
ag59
aS'big'
p5086
aS'high'
p5087
aS'acc'
p5088
aa(lp5089
S'med'
p5090
aS'vhigh'
p5091
ag59
aS'more'
p5092
aS'small'
p5093
aS'low'
p5094
aS'unacc'
p5095
aa(lp5096
S'med'
p5097
aS'vhigh'
p5098
ag59
aS'more'
p5099
aS'small'
p5100
aS'med'
p5101
aS'unacc'
p5102
aa(lp5103
S'med'
p5104
aS'vhigh'
p5105
ag59
aS'more'
p5106
aS'small'
p5107
aS'high'
p5108
aS'acc'
p5109
aa(lp5110
S'med'
p5111
aS'vhigh'
p5112
ag59
aS'more'
p5113
aS'med'
p5114
aS'low'
p5115
aS'unacc'
p5116
aa(lp5117
S'med'
p5118
aS'vhigh'
p5119
ag59
aS'more'
p5120
aS'med'
p5121
aS'med'
p5122
aS'acc'
p5123
aa(lp5124
S'med'
p5125
aS'vhigh'
p5126
ag59
aS'more'
p5127
aS'med'
p5128
aS'high'
p5129
aS'acc'
p5130
aa(lp5131
S'med'
p5132
aS'vhigh'
p5133
ag59
aS'more'
p5134
aS'big'
p5135
aS'low'
p5136
aS'unacc'
p5137
aa(lp5138
S'med'
p5139
aS'vhigh'
p5140
ag59
aS'more'
p5141
aS'big'
p5142
aS'med'
p5143
aS'acc'
p5144
aa(lp5145
S'med'
p5146
aS'vhigh'
p5147
ag59
aS'more'
p5148
aS'big'
p5149
aS'high'
p5150
aS'acc'
p5151
aa(lp5152
S'med'
p5153
aS'vhigh'
p5154
aS'5more'
p5155
ag4
aS'small'
p5156
aS'low'
p5157
aS'unacc'
p5158
aa(lp5159
S'med'
p5160
aS'vhigh'
p5161
aS'5more'
p5162
ag4
aS'small'
p5163
aS'med'
p5164
aS'unacc'
p5165
aa(lp5166
S'med'
p5167
aS'vhigh'
p5168
aS'5more'
p5169
ag4
aS'small'
p5170
aS'high'
p5171
aS'unacc'
p5172
aa(lp5173
S'med'
p5174
aS'vhigh'
p5175
aS'5more'
p5176
ag4
aS'med'
p5177
aS'low'
p5178
aS'unacc'
p5179
aa(lp5180
S'med'
p5181
aS'vhigh'
p5182
aS'5more'
p5183
ag4
aS'med'
p5184
aS'med'
p5185
aS'unacc'
p5186
aa(lp5187
S'med'
p5188
aS'vhigh'
p5189
aS'5more'
p5190
ag4
aS'med'
p5191
aS'high'
p5192
aS'unacc'
p5193
aa(lp5194
S'med'
p5195
aS'vhigh'
p5196
aS'5more'
p5197
ag4
aS'big'
p5198
aS'low'
p5199
aS'unacc'
p5200
aa(lp5201
S'med'
p5202
aS'vhigh'
p5203
aS'5more'
p5204
ag4
aS'big'
p5205
aS'med'
p5206
aS'unacc'
p5207
aa(lp5208
S'med'
p5209
aS'vhigh'
p5210
aS'5more'
p5211
ag4
aS'big'
p5212
aS'high'
p5213
aS'unacc'
p5214
aa(lp5215
S'med'
p5216
aS'vhigh'
p5217
aS'5more'
p5218
ag59
aS'small'
p5219
aS'low'
p5220
aS'unacc'
p5221
aa(lp5222
S'med'
p5223
aS'vhigh'
p5224
aS'5more'
p5225
ag59
aS'small'
p5226
aS'med'
p5227
aS'unacc'
p5228
aa(lp5229
S'med'
p5230
aS'vhigh'
p5231
aS'5more'
p5232
ag59
aS'small'
p5233
aS'high'
p5234
aS'acc'
p5235
aa(lp5236
S'med'
p5237
aS'vhigh'
p5238
aS'5more'
p5239
ag59
aS'med'
p5240
aS'low'
p5241
aS'unacc'
p5242
aa(lp5243
S'med'
p5244
aS'vhigh'
p5245
aS'5more'
p5246
ag59
aS'med'
p5247
aS'med'
p5248
aS'acc'
p5249
aa(lp5250
S'med'
p5251
aS'vhigh'
p5252
aS'5more'
p5253
ag59
aS'med'
p5254
aS'high'
p5255
aS'acc'
p5256
aa(lp5257
S'med'
p5258
aS'vhigh'
p5259
aS'5more'
p5260
ag59
aS'big'
p5261
aS'low'
p5262
aS'unacc'
p5263
aa(lp5264
S'med'
p5265
aS'vhigh'
p5266
aS'5more'
p5267
ag59
aS'big'
p5268
aS'med'
p5269
aS'acc'
p5270
aa(lp5271
S'med'
p5272
aS'vhigh'
p5273
aS'5more'
p5274
ag59
aS'big'
p5275
aS'high'
p5276
aS'acc'
p5277
aa(lp5278
S'med'
p5279
aS'vhigh'
p5280
aS'5more'
p5281
aS'more'
p5282
aS'small'
p5283
aS'low'
p5284
aS'unacc'
p5285
aa(lp5286
S'med'
p5287
aS'vhigh'
p5288
aS'5more'
p5289
aS'more'
p5290
aS'small'
p5291
aS'med'
p5292
aS'unacc'
p5293
aa(lp5294
S'med'
p5295
aS'vhigh'
p5296
aS'5more'
p5297
aS'more'
p5298
aS'small'
p5299
aS'high'
p5300
aS'acc'
p5301
aa(lp5302
S'med'
p5303
aS'vhigh'
p5304
aS'5more'
p5305
aS'more'
p5306
aS'med'
p5307
aS'low'
p5308
aS'unacc'
p5309
aa(lp5310
S'med'
p5311
aS'vhigh'
p5312
aS'5more'
p5313
aS'more'
p5314
aS'med'
p5315
aS'med'
p5316
aS'acc'
p5317
aa(lp5318
S'med'
p5319
aS'vhigh'
p5320
aS'5more'
p5321
aS'more'
p5322
aS'med'
p5323
aS'high'
p5324
aS'acc'
p5325
aa(lp5326
S'med'
p5327
aS'vhigh'
p5328
aS'5more'
p5329
aS'more'
p5330
aS'big'
p5331
aS'low'
p5332
aS'unacc'
p5333
aa(lp5334
S'med'
p5335
aS'vhigh'
p5336
aS'5more'
p5337
aS'more'
p5338
aS'big'
p5339
aS'med'
p5340
aS'acc'
p5341
aa(lp5342
S'med'
p5343
aS'vhigh'
p5344
aS'5more'
p5345
aS'more'
p5346
aS'big'
p5347
aS'high'
p5348
aS'acc'
p5349
aa(lp5350
S'med'
p5351
aS'high'
p5352
ag4
ag4
aS'small'
p5353
aS'low'
p5354
aS'unacc'
p5355
aa(lp5356
S'med'
p5357
aS'high'
p5358
ag4
ag4
aS'small'
p5359
aS'med'
p5360
aS'unacc'
p5361
aa(lp5362
S'med'
p5363
aS'high'
p5364
ag4
ag4
aS'small'
p5365
aS'high'
p5366
aS'unacc'
p5367
aa(lp5368
S'med'
p5369
aS'high'
p5370
ag4
ag4
aS'med'
p5371
aS'low'
p5372
aS'unacc'
p5373
aa(lp5374
S'med'
p5375
aS'high'
p5376
ag4
ag4
aS'med'
p5377
aS'med'
p5378
aS'unacc'
p5379
aa(lp5380
S'med'
p5381
aS'high'
p5382
ag4
ag4
aS'med'
p5383
aS'high'
p5384
aS'unacc'
p5385
aa(lp5386
S'med'
p5387
aS'high'
p5388
ag4
ag4
aS'big'
p5389
aS'low'
p5390
aS'unacc'
p5391
aa(lp5392
S'med'
p5393
aS'high'
p5394
ag4
ag4
aS'big'
p5395
aS'med'
p5396
aS'unacc'
p5397
aa(lp5398
S'med'
p5399
aS'high'
p5400
ag4
ag4
aS'big'
p5401
aS'high'
p5402
aS'unacc'
p5403
aa(lp5404
S'med'
p5405
aS'high'
p5406
ag4
ag59
aS'small'
p5407
aS'low'
p5408
aS'unacc'
p5409
aa(lp5410
S'med'
p5411
aS'high'
p5412
ag4
ag59
aS'small'
p5413
aS'med'
p5414
aS'unacc'
p5415
aa(lp5416
S'med'
p5417
aS'high'
p5418
ag4
ag59
aS'small'
p5419
aS'high'
p5420
aS'acc'
p5421
aa(lp5422
S'med'
p5423
aS'high'
p5424
ag4
ag59
aS'med'
p5425
aS'low'
p5426
aS'unacc'
p5427
aa(lp5428
S'med'
p5429
aS'high'
p5430
ag4
ag59
aS'med'
p5431
aS'med'
p5432
aS'unacc'
p5433
aa(lp5434
S'med'
p5435
aS'high'
p5436
ag4
ag59
aS'med'
p5437
aS'high'
p5438
aS'acc'
p5439
aa(lp5440
S'med'
p5441
aS'high'
p5442
ag4
ag59
aS'big'
p5443
aS'low'
p5444
aS'unacc'
p5445
aa(lp5446
S'med'
p5447
aS'high'
p5448
ag4
ag59
aS'big'
p5449
aS'med'
p5450
aS'acc'
p5451
aa(lp5452
S'med'
p5453
aS'high'
p5454
ag4
ag59
aS'big'
p5455
aS'high'
p5456
aS'acc'
p5457
aa(lp5458
S'med'
p5459
aS'high'
p5460
ag4
aS'more'
p5461
aS'small'
p5462
aS'low'
p5463
aS'unacc'
p5464
aa(lp5465
S'med'
p5466
aS'high'
p5467
ag4
aS'more'
p5468
aS'small'
p5469
aS'med'
p5470
aS'unacc'
p5471
aa(lp5472
S'med'
p5473
aS'high'
p5474
ag4
aS'more'
p5475
aS'small'
p5476
aS'high'
p5477
aS'unacc'
p5478
aa(lp5479
S'med'
p5480
aS'high'
p5481
ag4
aS'more'
p5482
aS'med'
p5483
aS'low'
p5484
aS'unacc'
p5485
aa(lp5486
S'med'
p5487
aS'high'
p5488
ag4
aS'more'
p5489
aS'med'
p5490
aS'med'
p5491
aS'unacc'
p5492
aa(lp5493
S'med'
p5494
aS'high'
p5495
ag4
aS'more'
p5496
aS'med'
p5497
aS'high'
p5498
aS'acc'
p5499
aa(lp5500
S'med'
p5501
aS'high'
p5502
ag4
aS'more'
p5503
aS'big'
p5504
aS'low'
p5505
aS'unacc'
p5506
aa(lp5507
S'med'
p5508
aS'high'
p5509
ag4
aS'more'
p5510
aS'big'
p5511
aS'med'
p5512
aS'acc'
p5513
aa(lp5514
S'med'
p5515
aS'high'
p5516
ag4
aS'more'
p5517
aS'big'
p5518
aS'high'
p5519
aS'acc'
p5520
aa(lp5521
S'med'
p5522
aS'high'
p5523
ag177
ag4
aS'small'
p5524
aS'low'
p5525
aS'unacc'
p5526
aa(lp5527
S'med'
p5528
aS'high'
p5529
ag177
ag4
aS'small'
p5530
aS'med'
p5531
aS'unacc'
p5532
aa(lp5533
S'med'
p5534
aS'high'
p5535
ag177
ag4
aS'small'
p5536
aS'high'
p5537
aS'unacc'
p5538
aa(lp5539
S'med'
p5540
aS'high'
p5541
ag177
ag4
aS'med'
p5542
aS'low'
p5543
aS'unacc'
p5544
aa(lp5545
S'med'
p5546
aS'high'
p5547
ag177
ag4
aS'med'
p5548
aS'med'
p5549
aS'unacc'
p5550
aa(lp5551
S'med'
p5552
aS'high'
p5553
ag177
ag4
aS'med'
p5554
aS'high'
p5555
aS'unacc'
p5556
aa(lp5557
S'med'
p5558
aS'high'
p5559
ag177
ag4
aS'big'
p5560
aS'low'
p5561
aS'unacc'
p5562
aa(lp5563
S'med'
p5564
aS'high'
p5565
ag177
ag4
aS'big'
p5566
aS'med'
p5567
aS'unacc'
p5568
aa(lp5569
S'med'
p5570
aS'high'
p5571
ag177
ag4
aS'big'
p5572
aS'high'
p5573
aS'unacc'
p5574
aa(lp5575
S'med'
p5576
aS'high'
p5577
ag177
ag59
aS'small'
p5578
aS'low'
p5579
aS'unacc'
p5580
aa(lp5581
S'med'
p5582
aS'high'
p5583
ag177
ag59
aS'small'
p5584
aS'med'
p5585
aS'unacc'
p5586
aa(lp5587
S'med'
p5588
aS'high'
p5589
ag177
ag59
aS'small'
p5590
aS'high'
p5591
aS'acc'
p5592
aa(lp5593
S'med'
p5594
aS'high'
p5595
ag177
ag59
aS'med'
p5596
aS'low'
p5597
aS'unacc'
p5598
aa(lp5599
S'med'
p5600
aS'high'
p5601
ag177
ag59
aS'med'
p5602
aS'med'
p5603
aS'unacc'
p5604
aa(lp5605
S'med'
p5606
aS'high'
p5607
ag177
ag59
aS'med'
p5608
aS'high'
p5609
aS'acc'
p5610
aa(lp5611
S'med'
p5612
aS'high'
p5613
ag177
ag59
aS'big'
p5614
aS'low'
p5615
aS'unacc'
p5616
aa(lp5617
S'med'
p5618
aS'high'
p5619
ag177
ag59
aS'big'
p5620
aS'med'
p5621
aS'acc'
p5622
aa(lp5623
S'med'
p5624
aS'high'
p5625
ag177
ag59
aS'big'
p5626
aS'high'
p5627
aS'acc'
p5628
aa(lp5629
S'med'
p5630
aS'high'
p5631
ag177
aS'more'
p5632
aS'small'
p5633
aS'low'
p5634
aS'unacc'
p5635
aa(lp5636
S'med'
p5637
aS'high'
p5638
ag177
aS'more'
p5639
aS'small'
p5640
aS'med'
p5641
aS'unacc'
p5642
aa(lp5643
S'med'
p5644
aS'high'
p5645
ag177
aS'more'
p5646
aS'small'
p5647
aS'high'
p5648
aS'acc'
p5649
aa(lp5650
S'med'
p5651
aS'high'
p5652
ag177
aS'more'
p5653
aS'med'
p5654
aS'low'
p5655
aS'unacc'
p5656
aa(lp5657
S'med'
p5658
aS'high'
p5659
ag177
aS'more'
p5660
aS'med'
p5661
aS'med'
p5662
aS'acc'
p5663
aa(lp5664
S'med'
p5665
aS'high'
p5666
ag177
aS'more'
p5667
aS'med'
p5668
aS'high'
p5669
aS'acc'
p5670
aa(lp5671
S'med'
p5672
aS'high'
p5673
ag177
aS'more'
p5674
aS'big'
p5675
aS'low'
p5676
aS'unacc'
p5677
aa(lp5678
S'med'
p5679
aS'high'
p5680
ag177
aS'more'
p5681
aS'big'
p5682
aS'med'
p5683
aS'acc'
p5684
aa(lp5685
S'med'
p5686
aS'high'
p5687
ag177
aS'more'
p5688
aS'big'
p5689
aS'high'
p5690
aS'acc'
p5691
aa(lp5692
S'med'
p5693
aS'high'
p5694
ag59
ag4
aS'small'
p5695
aS'low'
p5696
aS'unacc'
p5697
aa(lp5698
S'med'
p5699
aS'high'
p5700
ag59
ag4
aS'small'
p5701
aS'med'
p5702
aS'unacc'
p5703
aa(lp5704
S'med'
p5705
aS'high'
p5706
ag59
ag4
aS'small'
p5707
aS'high'
p5708
aS'unacc'
p5709
aa(lp5710
S'med'
p5711
aS'high'
p5712
ag59
ag4
aS'med'
p5713
aS'low'
p5714
aS'unacc'
p5715
aa(lp5716
S'med'
p5717
aS'high'
p5718
ag59
ag4
aS'med'
p5719
aS'med'
p5720
aS'unacc'
p5721
aa(lp5722
S'med'
p5723
aS'high'
p5724
ag59
ag4
aS'med'
p5725
aS'high'
p5726
aS'unacc'
p5727
aa(lp5728
S'med'
p5729
aS'high'
p5730
ag59
ag4
aS'big'
p5731
aS'low'
p5732
aS'unacc'
p5733
aa(lp5734
S'med'
p5735
aS'high'
p5736
ag59
ag4
aS'big'
p5737
aS'med'
p5738
aS'unacc'
p5739
aa(lp5740
S'med'
p5741
aS'high'
p5742
ag59
ag4
aS'big'
p5743
aS'high'
p5744
aS'unacc'
p5745
aa(lp5746
S'med'
p5747
aS'high'
p5748
ag59
ag59
aS'small'
p5749
aS'low'
p5750
aS'unacc'
p5751
aa(lp5752
S'med'
p5753
aS'high'
p5754
ag59
ag59
aS'small'
p5755
aS'med'
p5756
aS'unacc'
p5757
aa(lp5758
S'med'
p5759
aS'high'
p5760
ag59
ag59
aS'small'
p5761
aS'high'
p5762
aS'acc'
p5763
aa(lp5764
S'med'
p5765
aS'high'
p5766
ag59
ag59
aS'med'
p5767
aS'low'
p5768
aS'unacc'
p5769
aa(lp5770
S'med'
p5771
aS'high'
p5772
ag59
ag59
aS'med'
p5773
aS'med'
p5774
aS'acc'
p5775
aa(lp5776
S'med'
p5777
aS'high'
p5778
ag59
ag59
aS'med'
p5779
aS'high'
p5780
aS'acc'
p5781
aa(lp5782
S'med'
p5783
aS'high'
p5784
ag59
ag59
aS'big'
p5785
aS'low'
p5786
aS'unacc'
p5787
aa(lp5788
S'med'
p5789
aS'high'
p5790
ag59
ag59
aS'big'
p5791
aS'med'
p5792
aS'acc'
p5793
aa(lp5794
S'med'
p5795
aS'high'
p5796
ag59
ag59
aS'big'
p5797
aS'high'
p5798
aS'acc'
p5799
aa(lp5800
S'med'
p5801
aS'high'
p5802
ag59
aS'more'
p5803
aS'small'
p5804
aS'low'
p5805
aS'unacc'
p5806
aa(lp5807
S'med'
p5808
aS'high'
p5809
ag59
aS'more'
p5810
aS'small'
p5811
aS'med'
p5812
aS'unacc'
p5813
aa(lp5814
S'med'
p5815
aS'high'
p5816
ag59
aS'more'
p5817
aS'small'
p5818
aS'high'
p5819
aS'acc'
p5820
aa(lp5821
S'med'
p5822
aS'high'
p5823
ag59
aS'more'
p5824
aS'med'
p5825
aS'low'
p5826
aS'unacc'
p5827
aa(lp5828
S'med'
p5829
aS'high'
p5830
ag59
aS'more'
p5831
aS'med'
p5832
aS'med'
p5833
aS'acc'
p5834
aa(lp5835
S'med'
p5836
aS'high'
p5837
ag59
aS'more'
p5838
aS'med'
p5839
aS'high'
p5840
aS'acc'
p5841
aa(lp5842
S'med'
p5843
aS'high'
p5844
ag59
aS'more'
p5845
aS'big'
p5846
aS'low'
p5847
aS'unacc'
p5848
aa(lp5849
S'med'
p5850
aS'high'
p5851
ag59
aS'more'
p5852
aS'big'
p5853
aS'med'
p5854
aS'acc'
p5855
aa(lp5856
S'med'
p5857
aS'high'
p5858
ag59
aS'more'
p5859
aS'big'
p5860
aS'high'
p5861
aS'acc'
p5862
aa(lp5863
S'med'
p5864
aS'high'
p5865
aS'5more'
p5866
ag4
aS'small'
p5867
aS'low'
p5868
aS'unacc'
p5869
aa(lp5870
S'med'
p5871
aS'high'
p5872
aS'5more'
p5873
ag4
aS'small'
p5874
aS'med'
p5875
aS'unacc'
p5876
aa(lp5877
S'med'
p5878
aS'high'
p5879
aS'5more'
p5880
ag4
aS'small'
p5881
aS'high'
p5882
aS'unacc'
p5883
aa(lp5884
S'med'
p5885
aS'high'
p5886
aS'5more'
p5887
ag4
aS'med'
p5888
aS'low'
p5889
aS'unacc'
p5890
aa(lp5891
S'med'
p5892
aS'high'
p5893
aS'5more'
p5894
ag4
aS'med'
p5895
aS'med'
p5896
aS'unacc'
p5897
aa(lp5898
S'med'
p5899
aS'high'
p5900
aS'5more'
p5901
ag4
aS'med'
p5902
aS'high'
p5903
aS'unacc'
p5904
aa(lp5905
S'med'
p5906
aS'high'
p5907
aS'5more'
p5908
ag4
aS'big'
p5909
aS'low'
p5910
aS'unacc'
p5911
aa(lp5912
S'med'
p5913
aS'high'
p5914
aS'5more'
p5915
ag4
aS'big'
p5916
aS'med'
p5917
aS'unacc'
p5918
aa(lp5919
S'med'
p5920
aS'high'
p5921
aS'5more'
p5922
ag4
aS'big'
p5923
aS'high'
p5924
aS'unacc'
p5925
aa(lp5926
S'med'
p5927
aS'high'
p5928
aS'5more'
p5929
ag59
aS'small'
p5930
aS'low'
p5931
aS'unacc'
p5932
aa(lp5933
S'med'
p5934
aS'high'
p5935
aS'5more'
p5936
ag59
aS'small'
p5937
aS'med'
p5938
aS'unacc'
p5939
aa(lp5940
S'med'
p5941
aS'high'
p5942
aS'5more'
p5943
ag59
aS'small'
p5944
aS'high'
p5945
aS'acc'
p5946
aa(lp5947
S'med'
p5948
aS'high'
p5949
aS'5more'
p5950
ag59
aS'med'
p5951
aS'low'
p5952
aS'unacc'
p5953
aa(lp5954
S'med'
p5955
aS'high'
p5956
aS'5more'
p5957
ag59
aS'med'
p5958
aS'med'
p5959
aS'acc'
p5960
aa(lp5961
S'med'
p5962
aS'high'
p5963
aS'5more'
p5964
ag59
aS'med'
p5965
aS'high'
p5966
aS'acc'
p5967
aa(lp5968
S'med'
p5969
aS'high'
p5970
aS'5more'
p5971
ag59
aS'big'
p5972
aS'low'
p5973
aS'unacc'
p5974
aa(lp5975
S'med'
p5976
aS'high'
p5977
aS'5more'
p5978
ag59
aS'big'
p5979
aS'med'
p5980
aS'acc'
p5981
aa(lp5982
S'med'
p5983
aS'high'
p5984
aS'5more'
p5985
ag59
aS'big'
p5986
aS'high'
p5987
aS'acc'
p5988
aa(lp5989
S'med'
p5990
aS'high'
p5991
aS'5more'
p5992
aS'more'
p5993
aS'small'
p5994
aS'low'
p5995
aS'unacc'
p5996
aa(lp5997
S'med'
p5998
aS'high'
p5999
aS'5more'
p6000
aS'more'
p6001
aS'small'
p6002
aS'med'
p6003
aS'unacc'
p6004
aa(lp6005
S'med'
p6006
aS'high'
p6007
aS'5more'
p6008
aS'more'
p6009
aS'small'
p6010
aS'high'
p6011
aS'acc'
p6012
aa(lp6013
S'med'
p6014
aS'high'
p6015
aS'5more'
p6016
aS'more'
p6017
aS'med'
p6018
aS'low'
p6019
aS'unacc'
p6020
aa(lp6021
S'med'
p6022
aS'high'
p6023
aS'5more'
p6024
aS'more'
p6025
aS'med'
p6026
aS'med'
p6027
aS'acc'
p6028
aa(lp6029
S'med'
p6030
aS'high'
p6031
aS'5more'
p6032
aS'more'
p6033
aS'med'
p6034
aS'high'
p6035
aS'acc'
p6036
aa(lp6037
S'med'
p6038
aS'high'
p6039
aS'5more'
p6040
aS'more'
p6041
aS'big'
p6042
aS'low'
p6043
aS'unacc'
p6044
aa(lp6045
S'med'
p6046
aS'high'
p6047
aS'5more'
p6048
aS'more'
p6049
aS'big'
p6050
aS'med'
p6051
aS'acc'
p6052
aa(lp6053
S'med'
p6054
aS'high'
p6055
aS'5more'
p6056
aS'more'
p6057
aS'big'
p6058
aS'high'
p6059
aS'acc'
p6060
aa(lp6061
S'med'
p6062
aS'med'
p6063
ag4
ag4
aS'small'
p6064
aS'low'
p6065
aS'unacc'
p6066
aa(lp6067
S'med'
p6068
aS'med'
p6069
ag4
ag4
aS'small'
p6070
aS'med'
p6071
aS'unacc'
p6072
aa(lp6073
S'med'
p6074
aS'med'
p6075
ag4
ag4
aS'small'
p6076
aS'high'
p6077
aS'unacc'
p6078
aa(lp6079
S'med'
p6080
aS'med'
p6081
ag4
ag4
aS'med'
p6082
aS'low'
p6083
aS'unacc'
p6084
aa(lp6085
S'med'
p6086
aS'med'
p6087
ag4
ag4
aS'med'
p6088
aS'med'
p6089
aS'unacc'
p6090
aa(lp6091
S'med'
p6092
aS'med'
p6093
ag4
ag4
aS'med'
p6094
aS'high'
p6095
aS'unacc'
p6096
aa(lp6097
S'med'
p6098
aS'med'
p6099
ag4
ag4
aS'big'
p6100
aS'low'
p6101
aS'unacc'
p6102
aa(lp6103
S'med'
p6104
aS'med'
p6105
ag4
ag4
aS'big'
p6106
aS'med'
p6107
aS'unacc'
p6108
aa(lp6109
S'med'
p6110
aS'med'
p6111
ag4
ag4
aS'big'
p6112
aS'high'
p6113
aS'unacc'
p6114
aa(lp6115
S'med'
p6116
aS'med'
p6117
ag4
ag59
aS'small'
p6118
aS'low'
p6119
aS'unacc'
p6120
aa(lp6121
S'med'
p6122
aS'med'
p6123
ag4
ag59
aS'small'
p6124
aS'med'
p6125
aS'acc'
p6126
aa(lp6127
S'med'
p6128
aS'med'
p6129
ag4
ag59
aS'small'
p6130
aS'high'
p6131
aS'acc'
p6132
aa(lp6133
S'med'
p6134
aS'med'
p6135
ag4
ag59
aS'med'
p6136
aS'low'
p6137
aS'unacc'
p6138
aa(lp6139
S'med'
p6140
aS'med'
p6141
ag4
ag59
aS'med'
p6142
aS'med'
p6143
aS'acc'
p6144
aa(lp6145
S'med'
p6146
aS'med'
p6147
ag4
ag59
aS'med'
p6148
aS'high'
p6149
aS'acc'
p6150
aa(lp6151
S'med'
p6152
aS'med'
p6153
ag4
ag59
aS'big'
p6154
aS'low'
p6155
aS'unacc'
p6156
aa(lp6157
S'med'
p6158
aS'med'
p6159
ag4
ag59
aS'big'
p6160
aS'med'
p6161
aS'acc'
p6162
aa(lp6163
S'med'
p6164
aS'med'
p6165
ag4
ag59
aS'big'
p6166
aS'high'
p6167
aS'vgood'
p6168
aa(lp6169
S'med'
p6170
aS'med'
p6171
ag4
aS'more'
p6172
aS'small'
p6173
aS'low'
p6174
aS'unacc'
p6175
aa(lp6176
S'med'
p6177
aS'med'
p6178
ag4
aS'more'
p6179
aS'small'
p6180
aS'med'
p6181
aS'unacc'
p6182
aa(lp6183
S'med'
p6184
aS'med'
p6185
ag4
aS'more'
p6186
aS'small'
p6187
aS'high'
p6188
aS'unacc'
p6189
aa(lp6190
S'med'
p6191
aS'med'
p6192
ag4
aS'more'
p6193
aS'med'
p6194
aS'low'
p6195
aS'unacc'
p6196
aa(lp6197
S'med'
p6198
aS'med'
p6199
ag4
aS'more'
p6200
aS'med'
p6201
aS'med'
p6202
aS'acc'
p6203
aa(lp6204
S'med'
p6205
aS'med'
p6206
ag4
aS'more'
p6207
aS'med'
p6208
aS'high'
p6209
aS'acc'
p6210
aa(lp6211
S'med'
p6212
aS'med'
p6213
ag4
aS'more'
p6214
aS'big'
p6215
aS'low'
p6216
aS'unacc'
p6217
aa(lp6218
S'med'
p6219
aS'med'
p6220
ag4
aS'more'
p6221
aS'big'
p6222
aS'med'
p6223
aS'acc'
p6224
aa(lp6225
S'med'
p6226
aS'med'
p6227
ag4
aS'more'
p6228
aS'big'
p6229
aS'high'
p6230
aS'vgood'
p6231
aa(lp6232
S'med'
p6233
aS'med'
p6234
ag177
ag4
aS'small'
p6235
aS'low'
p6236
aS'unacc'
p6237
aa(lp6238
S'med'
p6239
aS'med'
p6240
ag177
ag4
aS'small'
p6241
aS'med'
p6242
aS'unacc'
p6243
aa(lp6244
S'med'
p6245
aS'med'
p6246
ag177
ag4
aS'small'
p6247
aS'high'
p6248
aS'unacc'
p6249
aa(lp6250
S'med'
p6251
aS'med'
p6252
ag177
ag4
aS'med'
p6253
aS'low'
p6254
aS'unacc'
p6255
aa(lp6256
S'med'
p6257
aS'med'
p6258
ag177
ag4
aS'med'
p6259
aS'med'
p6260
aS'unacc'
p6261
aa(lp6262
S'med'
p6263
aS'med'
p6264
ag177
ag4
aS'med'
p6265
aS'high'
p6266
aS'unacc'
p6267
aa(lp6268
S'med'
p6269
aS'med'
p6270
ag177
ag4
aS'big'
p6271
aS'low'
p6272
aS'unacc'
p6273
aa(lp6274
S'med'
p6275
aS'med'
p6276
ag177
ag4
aS'big'
p6277
aS'med'
p6278
aS'unacc'
p6279
aa(lp6280
S'med'
p6281
aS'med'
p6282
ag177
ag4
aS'big'
p6283
aS'high'
p6284
aS'unacc'
p6285
aa(lp6286
S'med'
p6287
aS'med'
p6288
ag177
ag59
aS'small'
p6289
aS'low'
p6290
aS'unacc'
p6291
aa(lp6292
S'med'
p6293
aS'med'
p6294
ag177
ag59
aS'small'
p6295
aS'med'
p6296
aS'acc'
p6297
aa(lp6298
S'med'
p6299
aS'med'
p6300
ag177
ag59
aS'small'
p6301
aS'high'
p6302
aS'acc'
p6303
aa(lp6304
S'med'
p6305
aS'med'
p6306
ag177
ag59
aS'med'
p6307
aS'low'
p6308
aS'unacc'
p6309
aa(lp6310
S'med'
p6311
aS'med'
p6312
ag177
ag59
aS'med'
p6313
aS'med'
p6314
aS'acc'
p6315
aa(lp6316
S'med'
p6317
aS'med'
p6318
ag177
ag59
aS'med'
p6319
aS'high'
p6320
aS'acc'
p6321
aa(lp6322
S'med'
p6323
aS'med'
p6324
ag177
ag59
aS'big'
p6325
aS'low'
p6326
aS'unacc'
p6327
aa(lp6328
S'med'
p6329
aS'med'
p6330
ag177
ag59
aS'big'
p6331
aS'med'
p6332
aS'acc'
p6333
aa(lp6334
S'med'
p6335
aS'med'
p6336
ag177
ag59
aS'big'
p6337
aS'high'
p6338
aS'vgood'
p6339
aa(lp6340
S'med'
p6341
aS'med'
p6342
ag177
aS'more'
p6343
aS'small'
p6344
aS'low'
p6345
aS'unacc'
p6346
aa(lp6347
S'med'
p6348
aS'med'
p6349
ag177
aS'more'
p6350
aS'small'
p6351
aS'med'
p6352
aS'acc'
p6353
aa(lp6354
S'med'
p6355
aS'med'
p6356
ag177
aS'more'
p6357
aS'small'
p6358
aS'high'
p6359
aS'acc'
p6360
aa(lp6361
S'med'
p6362
aS'med'
p6363
ag177
aS'more'
p6364
aS'med'
p6365
aS'low'
p6366
aS'unacc'
p6367
aa(lp6368
S'med'
p6369
aS'med'
p6370
ag177
aS'more'
p6371
aS'med'
p6372
aS'med'
p6373
aS'acc'
p6374
aa(lp6375
S'med'
p6376
aS'med'
p6377
ag177
aS'more'
p6378
aS'med'
p6379
aS'high'
p6380
aS'vgood'
p6381
aa(lp6382
S'med'
p6383
aS'med'
p6384
ag177
aS'more'
p6385
aS'big'
p6386
aS'low'
p6387
aS'unacc'
p6388
aa(lp6389
S'med'
p6390
aS'med'
p6391
ag177
aS'more'
p6392
aS'big'
p6393
aS'med'
p6394
aS'acc'
p6395
aa(lp6396
S'med'
p6397
aS'med'
p6398
ag177
aS'more'
p6399
aS'big'
p6400
aS'high'
p6401
aS'vgood'
p6402
aa(lp6403
S'med'
p6404
aS'med'
p6405
ag59
ag4
aS'small'
p6406
aS'low'
p6407
aS'unacc'
p6408
aa(lp6409
S'med'
p6410
aS'med'
p6411
ag59
ag4
aS'small'
p6412
aS'med'
p6413
aS'unacc'
p6414
aa(lp6415
S'med'
p6416
aS'med'
p6417
ag59
ag4
aS'small'
p6418
aS'high'
p6419
aS'unacc'
p6420
aa(lp6421
S'med'
p6422
aS'med'
p6423
ag59
ag4
aS'med'
p6424
aS'low'
p6425
aS'unacc'
p6426
aa(lp6427
S'med'
p6428
aS'med'
p6429
ag59
ag4
aS'med'
p6430
aS'med'
p6431
aS'unacc'
p6432
aa(lp6433
S'med'
p6434
aS'med'
p6435
ag59
ag4
aS'med'
p6436
aS'high'
p6437
aS'unacc'
p6438
aa(lp6439
S'med'
p6440
aS'med'
p6441
ag59
ag4
aS'big'
p6442
aS'low'
p6443
aS'unacc'
p6444
aa(lp6445
S'med'
p6446
aS'med'
p6447
ag59
ag4
aS'big'
p6448
aS'med'
p6449
aS'unacc'
p6450
aa(lp6451
S'med'
p6452
aS'med'
p6453
ag59
ag4
aS'big'
p6454
aS'high'
p6455
aS'unacc'
p6456
aa(lp6457
S'med'
p6458
aS'med'
p6459
ag59
ag59
aS'small'
p6460
aS'low'
p6461
aS'unacc'
p6462
aa(lp6463
S'med'
p6464
aS'med'
p6465
ag59
ag59
aS'small'
p6466
aS'med'
p6467
aS'acc'
p6468
aa(lp6469
S'med'
p6470
aS'med'
p6471
ag59
ag59
aS'small'
p6472
aS'high'
p6473
aS'acc'
p6474
aa(lp6475
S'med'
p6476
aS'med'
p6477
ag59
ag59
aS'med'
p6478
aS'low'
p6479
aS'unacc'
p6480
aa(lp6481
S'med'
p6482
aS'med'
p6483
ag59
ag59
aS'med'
p6484
aS'med'
p6485
aS'acc'
p6486
aa(lp6487
S'med'
p6488
aS'med'
p6489
ag59
ag59
aS'med'
p6490
aS'high'
p6491
aS'vgood'
p6492
aa(lp6493
S'med'
p6494
aS'med'
p6495
ag59
ag59
aS'big'
p6496
aS'low'
p6497
aS'unacc'
p6498
aa(lp6499
S'med'
p6500
aS'med'
p6501
ag59
ag59
aS'big'
p6502
aS'med'
p6503
aS'acc'
p6504
aa(lp6505
S'med'
p6506
aS'med'
p6507
ag59
ag59
aS'big'
p6508
aS'high'
p6509
aS'vgood'
p6510
aa(lp6511
S'med'
p6512
aS'med'
p6513
ag59
aS'more'
p6514
aS'small'
p6515
aS'low'
p6516
aS'unacc'
p6517
aa(lp6518
S'med'
p6519
aS'med'
p6520
ag59
aS'more'
p6521
aS'small'
p6522
aS'med'
p6523
aS'acc'
p6524
aa(lp6525
S'med'
p6526
aS'med'
p6527
ag59
aS'more'
p6528
aS'small'
p6529
aS'high'
p6530
aS'acc'
p6531
aa(lp6532
S'med'
p6533
aS'med'
p6534
ag59
aS'more'
p6535
aS'med'
p6536
aS'low'
p6537
aS'unacc'
p6538
aa(lp6539
S'med'
p6540
aS'med'
p6541
ag59
aS'more'
p6542
aS'med'
p6543
aS'med'
p6544
aS'acc'
p6545
aa(lp6546
S'med'
p6547
aS'med'
p6548
ag59
aS'more'
p6549
aS'med'
p6550
aS'high'
p6551
aS'vgood'
p6552
aa(lp6553
S'med'
p6554
aS'med'
p6555
ag59
aS'more'
p6556
aS'big'
p6557
aS'low'
p6558
aS'unacc'
p6559
aa(lp6560
S'med'
p6561
aS'med'
p6562
ag59
aS'more'
p6563
aS'big'
p6564
aS'med'
p6565
aS'acc'
p6566
aa(lp6567
S'med'
p6568
aS'med'
p6569
ag59
aS'more'
p6570
aS'big'
p6571
aS'high'
p6572
aS'vgood'
p6573
aa(lp6574
S'med'
p6575
aS'med'
p6576
aS'5more'
p6577
ag4
aS'small'
p6578
aS'low'
p6579
aS'unacc'
p6580
aa(lp6581
S'med'
p6582
aS'med'
p6583
aS'5more'
p6584
ag4
aS'small'
p6585
aS'med'
p6586
aS'unacc'
p6587
aa(lp6588
S'med'
p6589
aS'med'
p6590
aS'5more'
p6591
ag4
aS'small'
p6592
aS'high'
p6593
aS'unacc'
p6594
aa(lp6595
S'med'
p6596
aS'med'
p6597
aS'5more'
p6598
ag4
aS'med'
p6599
aS'low'
p6600
aS'unacc'
p6601
aa(lp6602
S'med'
p6603
aS'med'
p6604
aS'5more'
p6605
ag4
aS'med'
p6606
aS'med'
p6607
aS'unacc'
p6608
aa(lp6609
S'med'
p6610
aS'med'
p6611
aS'5more'
p6612
ag4
aS'med'
p6613
aS'high'
p6614
aS'unacc'
p6615
aa(lp6616
S'med'
p6617
aS'med'
p6618
aS'5more'
p6619
ag4
aS'big'
p6620
aS'low'
p6621
aS'unacc'
p6622
aa(lp6623
S'med'
p6624
aS'med'
p6625
aS'5more'
p6626
ag4
aS'big'
p6627
aS'med'
p6628
aS'unacc'
p6629
aa(lp6630
S'med'
p6631
aS'med'
p6632
aS'5more'
p6633
ag4
aS'big'
p6634
aS'high'
p6635
aS'unacc'
p6636
aa(lp6637
S'med'
p6638
aS'med'
p6639
aS'5more'
p6640
ag59
aS'small'
p6641
aS'low'
p6642
aS'unacc'
p6643
aa(lp6644
S'med'
p6645
aS'med'
p6646
aS'5more'
p6647
ag59
aS'small'
p6648
aS'med'
p6649
aS'acc'
p6650
aa(lp6651
S'med'
p6652
aS'med'
p6653
aS'5more'
p6654
ag59
aS'small'
p6655
aS'high'
p6656
aS'acc'
p6657
aa(lp6658
S'med'
p6659
aS'med'
p6660
aS'5more'
p6661
ag59
aS'med'
p6662
aS'low'
p6663
aS'unacc'
p6664
aa(lp6665
S'med'
p6666
aS'med'
p6667
aS'5more'
p6668
ag59
aS'med'
p6669
aS'med'
p6670
aS'acc'
p6671
aa(lp6672
S'med'
p6673
aS'med'
p6674
aS'5more'
p6675
ag59
aS'med'
p6676
aS'high'
p6677
aS'vgood'
p6678
aa(lp6679
S'med'
p6680
aS'med'
p6681
aS'5more'
p6682
ag59
aS'big'
p6683
aS'low'
p6684
aS'unacc'
p6685
aa(lp6686
S'med'
p6687
aS'med'
p6688
aS'5more'
p6689
ag59
aS'big'
p6690
aS'med'
p6691
aS'acc'
p6692
aa(lp6693
S'med'
p6694
aS'med'
p6695
aS'5more'
p6696
ag59
aS'big'
p6697
aS'high'
p6698
aS'vgood'
p6699
aa(lp6700
S'med'
p6701
aS'med'
p6702
aS'5more'
p6703
aS'more'
p6704
aS'small'
p6705
aS'low'
p6706
aS'unacc'
p6707
aa(lp6708
S'med'
p6709
aS'med'
p6710
aS'5more'
p6711
aS'more'
p6712
aS'small'
p6713
aS'med'
p6714
aS'acc'
p6715
aa(lp6716
S'med'
p6717
aS'med'
p6718
aS'5more'
p6719
aS'more'
p6720
aS'small'
p6721
aS'high'
p6722
aS'acc'
p6723
aa(lp6724
S'med'
p6725
aS'med'
p6726
aS'5more'
p6727
aS'more'
p6728
aS'med'
p6729
aS'low'
p6730
aS'unacc'
p6731
aa(lp6732
S'med'
p6733
aS'med'
p6734
aS'5more'
p6735
aS'more'
p6736
aS'med'
p6737
aS'med'
p6738
aS'acc'
p6739
aa(lp6740
S'med'
p6741
aS'med'
p6742
aS'5more'
p6743
aS'more'
p6744
aS'med'
p6745
aS'high'
p6746
aS'vgood'
p6747
aa(lp6748
S'med'
p6749
aS'med'
p6750
aS'5more'
p6751
aS'more'
p6752
aS'big'
p6753
aS'low'
p6754
aS'unacc'
p6755
aa(lp6756
S'med'
p6757
aS'med'
p6758
aS'5more'
p6759
aS'more'
p6760
aS'big'
p6761
aS'med'
p6762
aS'acc'
p6763
aa(lp6764
S'med'
p6765
aS'med'
p6766
aS'5more'
p6767
aS'more'
p6768
aS'big'
p6769
aS'high'
p6770
aS'vgood'
p6771
aa(lp6772
S'med'
p6773
aS'low'
p6774
ag4
ag4
aS'small'
p6775
aS'low'
p6776
aS'unacc'
p6777
aa(lp6778
S'med'
p6779
aS'low'
p6780
ag4
ag4
aS'small'
p6781
aS'med'
p6782
aS'unacc'
p6783
aa(lp6784
S'med'
p6785
aS'low'
p6786
ag4
ag4
aS'small'
p6787
aS'high'
p6788
aS'unacc'
p6789
aa(lp6790
S'med'
p6791
aS'low'
p6792
ag4
ag4
aS'med'
p6793
aS'low'
p6794
aS'unacc'
p6795
aa(lp6796
S'med'
p6797
aS'low'
p6798
ag4
ag4
aS'med'
p6799
aS'med'
p6800
aS'unacc'
p6801
aa(lp6802
S'med'
p6803
aS'low'
p6804
ag4
ag4
aS'med'
p6805
aS'high'
p6806
aS'unacc'
p6807
aa(lp6808
S'med'
p6809
aS'low'
p6810
ag4
ag4
aS'big'
p6811
aS'low'
p6812
aS'unacc'
p6813
aa(lp6814
S'med'
p6815
aS'low'
p6816
ag4
ag4
aS'big'
p6817
aS'med'
p6818
aS'unacc'
p6819
aa(lp6820
S'med'
p6821
aS'low'
p6822
ag4
ag4
aS'big'
p6823
aS'high'
p6824
aS'unacc'
p6825
aa(lp6826
S'med'
p6827
aS'low'
p6828
ag4
ag59
aS'small'
p6829
aS'low'
p6830
aS'unacc'
p6831
aa(lp6832
S'med'
p6833
aS'low'
p6834
ag4
ag59
aS'small'
p6835
aS'med'
p6836
aS'acc'
p6837
aa(lp6838
S'med'
p6839
aS'low'
p6840
ag4
ag59
aS'small'
p6841
aS'high'
p6842
aS'good'
p6843
aa(lp6844
S'med'
p6845
aS'low'
p6846
ag4
ag59
aS'med'
p6847
aS'low'
p6848
aS'unacc'
p6849
aa(lp6850
S'med'
p6851
aS'low'
p6852
ag4
ag59
aS'med'
p6853
aS'med'
p6854
aS'acc'
p6855
aa(lp6856
S'med'
p6857
aS'low'
p6858
ag4
ag59
aS'med'
p6859
aS'high'
p6860
aS'good'
p6861
aa(lp6862
S'med'
p6863
aS'low'
p6864
ag4
ag59
aS'big'
p6865
aS'low'
p6866
aS'unacc'
p6867
aa(lp6868
S'med'
p6869
aS'low'
p6870
ag4
ag59
aS'big'
p6871
aS'med'
p6872
aS'good'
p6873
aa(lp6874
S'med'
p6875
aS'low'
p6876
ag4
ag59
aS'big'
p6877
aS'high'
p6878
aS'vgood'
p6879
aa(lp6880
S'med'
p6881
aS'low'
p6882
ag4
aS'more'
p6883
aS'small'
p6884
aS'low'
p6885
aS'unacc'
p6886
aa(lp6887
S'med'
p6888
aS'low'
p6889
ag4
aS'more'
p6890
aS'small'
p6891
aS'med'
p6892
aS'unacc'
p6893
aa(lp6894
S'med'
p6895
aS'low'
p6896
ag4
aS'more'
p6897
aS'small'
p6898
aS'high'
p6899
aS'unacc'
p6900
aa(lp6901
S'med'
p6902
aS'low'
p6903
ag4
aS'more'
p6904
aS'med'
p6905
aS'low'
p6906
aS'unacc'
p6907
aa(lp6908
S'med'
p6909
aS'low'
p6910
ag4
aS'more'
p6911
aS'med'
p6912
aS'med'
p6913
aS'acc'
p6914
aa(lp6915
S'med'
p6916
aS'low'
p6917
ag4
aS'more'
p6918
aS'med'
p6919
aS'high'
p6920
aS'good'
p6921
aa(lp6922
S'med'
p6923
aS'low'
p6924
ag4
aS'more'
p6925
aS'big'
p6926
aS'low'
p6927
aS'unacc'
p6928
aa(lp6929
S'med'
p6930
aS'low'
p6931
ag4
aS'more'
p6932
aS'big'
p6933
aS'med'
p6934
aS'good'
p6935
aa(lp6936
S'med'
p6937
aS'low'
p6938
ag177
ag4
aS'small'
p6939
aS'low'
p6940
aS'unacc'
p6941
aa(lp6942
S'med'
p6943
aS'low'
p6944
ag177
ag4
aS'small'
p6945
aS'med'
p6946
aS'unacc'
p6947
aa(lp6948
S'med'
p6949
aS'low'
p6950
ag177
ag4
aS'small'
p6951
aS'high'
p6952
aS'unacc'
p6953
aa(lp6954
S'med'
p6955
aS'low'
p6956
ag177
ag4
aS'med'
p6957
aS'low'
p6958
aS'unacc'
p6959
aa(lp6960
S'med'
p6961
aS'low'
p6962
ag177
ag4
aS'med'
p6963
aS'med'
p6964
aS'unacc'
p6965
aa(lp6966
S'med'
p6967
aS'low'
p6968
ag177
ag4
aS'med'
p6969
aS'high'
p6970
aS'unacc'
p6971
aa(lp6972
S'med'
p6973
aS'low'
p6974
ag177
ag4
aS'big'
p6975
aS'low'
p6976
aS'unacc'
p6977
aa(lp6978
S'med'
p6979
aS'low'
p6980
ag177
ag4
aS'big'
p6981
aS'med'
p6982
aS'unacc'
p6983
aa(lp6984
S'med'
p6985
aS'low'
p6986
ag177
ag4
aS'big'
p6987
aS'high'
p6988
aS'unacc'
p6989
aa(lp6990
S'med'
p6991
aS'low'
p6992
ag177
ag59
aS'small'
p6993
aS'low'
p6994
aS'unacc'
p6995
aa(lp6996
S'med'
p6997
aS'low'
p6998
ag177
ag59
aS'small'
p6999
aS'med'
p7000
aS'acc'
p7001
aa(lp7002
S'med'
p7003
aS'low'
p7004
ag177
ag59
aS'small'
p7005
aS'high'
p7006
aS'good'
p7007
aa(lp7008
S'med'
p7009
aS'low'
p7010
ag177
ag59
aS'med'
p7011
aS'low'
p7012
aS'unacc'
p7013
aa(lp7014
S'med'
p7015
aS'low'
p7016
ag177
ag59
aS'med'
p7017
aS'med'
p7018
aS'acc'
p7019
aa(lp7020
S'med'
p7021
aS'low'
p7022
ag177
ag59
aS'med'
p7023
aS'high'
p7024
aS'good'
p7025
aa(lp7026
S'med'
p7027
aS'low'
p7028
ag177
ag59
aS'big'
p7029
aS'low'
p7030
aS'unacc'
p7031
aa(lp7032
S'med'
p7033
aS'low'
p7034
ag177
ag59
aS'big'
p7035
aS'med'
p7036
aS'good'
p7037
aa(lp7038
S'med'
p7039
aS'low'
p7040
ag177
aS'more'
p7041
aS'small'
p7042
aS'low'
p7043
aS'unacc'
p7044
aa(lp7045
S'med'
p7046
aS'low'
p7047
ag177
aS'more'
p7048
aS'small'
p7049
aS'med'
p7050
aS'acc'
p7051
aa(lp7052
S'med'
p7053
aS'low'
p7054
ag177
aS'more'
p7055
aS'small'
p7056
aS'high'
p7057
aS'good'
p7058
aa(lp7059
S'med'
p7060
aS'low'
p7061
ag177
aS'more'
p7062
aS'med'
p7063
aS'low'
p7064
aS'unacc'
p7065
aa(lp7066
S'med'
p7067
aS'low'
p7068
ag177
aS'more'
p7069
aS'med'
p7070
aS'med'
p7071
aS'good'
p7072
aa(lp7073
S'med'
p7074
aS'low'
p7075
ag177
aS'more'
p7076
aS'big'
p7077
aS'low'
p7078
aS'unacc'
p7079
aa(lp7080
S'med'
p7081
aS'low'
p7082
ag177
aS'more'
p7083
aS'big'
p7084
aS'med'
p7085
aS'good'
p7086
aa(lp7087
S'med'
p7088
aS'low'
p7089
ag59
ag4
aS'small'
p7090
aS'low'
p7091
aS'unacc'
p7092
aa(lp7093
S'med'
p7094
aS'low'
p7095
ag59
ag4
aS'small'
p7096
aS'med'
p7097
aS'unacc'
p7098
aa(lp7099
S'med'
p7100
aS'low'
p7101
ag59
ag4
aS'small'
p7102
aS'high'
p7103
aS'unacc'
p7104
aa(lp7105
S'med'
p7106
aS'low'
p7107
ag59
ag4
aS'med'
p7108
aS'low'
p7109
aS'unacc'
p7110
aa(lp7111
S'med'
p7112
aS'low'
p7113
ag59
ag4
aS'med'
p7114
aS'med'
p7115
aS'unacc'
p7116
aa(lp7117
S'med'
p7118
aS'low'
p7119
ag59
ag4
aS'med'
p7120
aS'high'
p7121
aS'unacc'
p7122
aa(lp7123
S'med'
p7124
aS'low'
p7125
ag59
ag4
aS'big'
p7126
aS'low'
p7127
aS'unacc'
p7128
aa(lp7129
S'med'
p7130
aS'low'
p7131
ag59
ag4
aS'big'
p7132
aS'med'
p7133
aS'unacc'
p7134
aa(lp7135
S'med'
p7136
aS'low'
p7137
ag59
ag4
aS'big'
p7138
aS'high'
p7139
aS'unacc'
p7140
aa(lp7141
S'med'
p7142
aS'low'
p7143
ag59
ag59
aS'small'
p7144
aS'low'
p7145
aS'unacc'
p7146
aa(lp7147
S'med'
p7148
aS'low'
p7149
ag59
ag59
aS'small'
p7150
aS'med'
p7151
aS'acc'
p7152
aa(lp7153
S'med'
p7154
aS'low'
p7155
ag59
ag59
aS'small'
p7156
aS'high'
p7157
aS'good'
p7158
aa(lp7159
S'med'
p7160
aS'low'
p7161
ag59
ag59
aS'med'
p7162
aS'low'
p7163
aS'unacc'
p7164
aa(lp7165
S'med'
p7166
aS'low'
p7167
ag59
ag59
aS'med'
p7168
aS'med'
p7169
aS'good'
p7170
aa(lp7171
S'med'
p7172
aS'low'
p7173
ag59
ag59
aS'big'
p7174
aS'low'
p7175
aS'unacc'
p7176
aa(lp7177
S'med'
p7178
aS'low'
p7179
ag59
ag59
aS'big'
p7180
aS'med'
p7181
aS'good'
p7182
aa(lp7183
S'med'
p7184
aS'low'
p7185
ag59
aS'more'
p7186
aS'small'
p7187
aS'low'
p7188
aS'unacc'
p7189
aa(lp7190
S'med'
p7191
aS'low'
p7192
ag59
aS'more'
p7193
aS'small'
p7194
aS'med'
p7195
aS'acc'
p7196
aa(lp7197
S'med'
p7198
aS'low'
p7199
ag59
aS'more'
p7200
aS'med'
p7201
aS'low'
p7202
aS'unacc'
p7203
aa(lp7204
S'med'
p7205
aS'low'
p7206
ag59
aS'more'
p7207
aS'big'
p7208
aS'low'
p7209
aS'unacc'
p7210
aa(lp7211
S'med'
p7212
aS'low'
p7213
ag59
aS'more'
p7214
aS'big'
p7215
aS'high'
p7216
aS'vgood'
p7217
aa(lp7218
S'med'
p7219
aS'low'
p7220
aS'5more'
p7221
ag4
aS'small'
p7222
aS'low'
p7223
aS'unacc'
p7224
aa(lp7225
S'med'
p7226
aS'low'
p7227
aS'5more'
p7228
ag4
aS'small'
p7229
aS'med'
p7230
aS'unacc'
p7231
aa(lp7232
S'med'
p7233
aS'low'
p7234
aS'5more'
p7235
ag4
aS'small'
p7236
aS'high'
p7237
aS'unacc'
p7238
aa(lp7239
S'med'
p7240
aS'low'
p7241
aS'5more'
p7242
ag4
aS'med'
p7243
aS'low'
p7244
aS'unacc'
p7245
aa(lp7246
S'med'
p7247
aS'low'
p7248
aS'5more'
p7249
ag4
aS'med'
p7250
aS'med'
p7251
aS'unacc'
p7252
aa(lp7253
S'med'
p7254
aS'low'
p7255
aS'5more'
p7256
ag4
aS'med'
p7257
aS'high'
p7258
aS'unacc'
p7259
aa(lp7260
S'med'
p7261
aS'low'
p7262
aS'5more'
p7263
ag4
aS'big'
p7264
aS'low'
p7265
aS'unacc'
p7266
aa(lp7267
S'med'
p7268
aS'low'
p7269
aS'5more'
p7270
ag4
aS'big'
p7271
aS'med'
p7272
aS'unacc'
p7273
aa(lp7274
S'med'
p7275
aS'low'
p7276
aS'5more'
p7277
ag4
aS'big'
p7278
aS'high'
p7279
aS'unacc'
p7280
aa(lp7281
S'med'
p7282
aS'low'
p7283
aS'5more'
p7284
ag59
aS'small'
p7285
aS'low'
p7286
aS'unacc'
p7287
aa(lp7288
S'med'
p7289
aS'low'
p7290
aS'5more'
p7291
ag59
aS'small'
p7292
aS'med'
p7293
aS'acc'
p7294
aa(lp7295
S'med'
p7296
aS'low'
p7297
aS'5more'
p7298
ag59
aS'med'
p7299
aS'low'
p7300
aS'unacc'
p7301
aa(lp7302
S'med'
p7303
aS'low'
p7304
aS'5more'
p7305
ag59
aS'med'
p7306
aS'high'
p7307
aS'vgood'
p7308
aa(lp7309
S'med'
p7310
aS'low'
p7311
aS'5more'
p7312
ag59
aS'big'
p7313
aS'low'
p7314
aS'unacc'
p7315
aa(lp7316
S'med'
p7317
aS'low'
p7318
aS'5more'
p7319
ag59
aS'big'
p7320
aS'high'
p7321
aS'vgood'
p7322
aa(lp7323
S'med'
p7324
aS'low'
p7325
aS'5more'
p7326
aS'more'
p7327
aS'small'
p7328
aS'low'
p7329
aS'unacc'
p7330
aa(lp7331
S'med'
p7332
aS'low'
p7333
aS'5more'
p7334
aS'more'
p7335
aS'small'
p7336
aS'med'
p7337
aS'acc'
p7338
aa(lp7339
S'med'
p7340
aS'low'
p7341
aS'5more'
p7342
aS'more'
p7343
aS'med'
p7344
aS'low'
p7345
aS'unacc'
p7346
aa(lp7347
S'med'
p7348
aS'low'
p7349
aS'5more'
p7350
aS'more'
p7351
aS'med'
p7352
aS'med'
p7353
aS'good'
p7354
aa(lp7355
S'med'
p7356
aS'low'
p7357
aS'5more'
p7358
aS'more'
p7359
aS'med'
p7360
aS'high'
p7361
aS'vgood'
p7362
aa(lp7363
S'med'
p7364
aS'low'
p7365
aS'5more'
p7366
aS'more'
p7367
aS'big'
p7368
aS'low'
p7369
aS'unacc'
p7370
aa(lp7371
S'med'
p7372
aS'low'
p7373
aS'5more'
p7374
aS'more'
p7375
aS'big'
p7376
aS'med'
p7377
aS'good'
p7378
aa(lp7379
S'med'
p7380
aS'low'
p7381
aS'5more'
p7382
aS'more'
p7383
aS'big'
p7384
aS'high'
p7385
aS'vgood'
p7386
aa(lp7387
S'low'
p7388
aS'vhigh'
p7389
ag4
ag4
aS'small'
p7390
aS'low'
p7391
aS'unacc'
p7392
aa(lp7393
S'low'
p7394
aS'vhigh'
p7395
ag4
ag4
aS'small'
p7396
aS'med'
p7397
aS'unacc'
p7398
aa(lp7399
S'low'
p7400
aS'vhigh'
p7401
ag4
ag4
aS'small'
p7402
aS'high'
p7403
aS'unacc'
p7404
aa(lp7405
S'low'
p7406
aS'vhigh'
p7407
ag4
ag4
aS'med'
p7408
aS'low'
p7409
aS'unacc'
p7410
aa(lp7411
S'low'
p7412
aS'vhigh'
p7413
ag4
ag4
aS'med'
p7414
aS'med'
p7415
aS'unacc'
p7416
aa(lp7417
S'low'
p7418
aS'vhigh'
p7419
ag4
ag4
aS'med'
p7420
aS'high'
p7421
aS'unacc'
p7422
aa(lp7423
S'low'
p7424
aS'vhigh'
p7425
ag4
ag4
aS'big'
p7426
aS'low'
p7427
aS'unacc'
p7428
aa(lp7429
S'low'
p7430
aS'vhigh'
p7431
ag4
ag4
aS'big'
p7432
aS'med'
p7433
aS'unacc'
p7434
aa(lp7435
S'low'
p7436
aS'vhigh'
p7437
ag4
ag4
aS'big'
p7438
aS'high'
p7439
aS'unacc'
p7440
aa(lp7441
S'low'
p7442
aS'vhigh'
p7443
ag4
ag59
aS'small'
p7444
aS'low'
p7445
aS'unacc'
p7446
aa(lp7447
S'low'
p7448
aS'vhigh'
p7449
ag4
ag59
aS'small'
p7450
aS'med'
p7451
aS'unacc'
p7452
aa(lp7453
S'low'
p7454
aS'vhigh'
p7455
ag4
ag59
aS'small'
p7456
aS'high'
p7457
aS'acc'
p7458
aa(lp7459
S'low'
p7460
aS'vhigh'
p7461
ag4
ag59
aS'med'
p7462
aS'low'
p7463
aS'unacc'
p7464
aa(lp7465
S'low'
p7466
aS'vhigh'
p7467
ag4
ag59
aS'med'
p7468
aS'med'
p7469
aS'unacc'
p7470
aa(lp7471
S'low'
p7472
aS'vhigh'
p7473
ag4
ag59
aS'med'
p7474
aS'high'
p7475
aS'acc'
p7476
aa(lp7477
S'low'
p7478
aS'vhigh'
p7479
ag4
ag59
aS'big'
p7480
aS'low'
p7481
aS'unacc'
p7482
aa(lp7483
S'low'
p7484
aS'vhigh'
p7485
ag4
ag59
aS'big'
p7486
aS'med'
p7487
aS'acc'
p7488
aa(lp7489
S'low'
p7490
aS'vhigh'
p7491
ag4
ag59
aS'big'
p7492
aS'high'
p7493
aS'acc'
p7494
aa(lp7495
S'low'
p7496
aS'vhigh'
p7497
ag4
aS'more'
p7498
aS'small'
p7499
aS'low'
p7500
aS'unacc'
p7501
aa(lp7502
S'low'
p7503
aS'vhigh'
p7504
ag4
aS'more'
p7505
aS'small'
p7506
aS'med'
p7507
aS'unacc'
p7508
aa(lp7509
S'low'
p7510
aS'vhigh'
p7511
ag4
aS'more'
p7512
aS'small'
p7513
aS'high'
p7514
aS'unacc'
p7515
aa(lp7516
S'low'
p7517
aS'vhigh'
p7518
ag4
aS'more'
p7519
aS'med'
p7520
aS'low'
p7521
aS'unacc'
p7522
aa(lp7523
S'low'
p7524
aS'vhigh'
p7525
ag4
aS'more'
p7526
aS'med'
p7527
aS'med'
p7528
aS'unacc'
p7529
aa(lp7530
S'low'
p7531
aS'vhigh'
p7532
ag4
aS'more'
p7533
aS'med'
p7534
aS'high'
p7535
aS'acc'
p7536
aa(lp7537
S'low'
p7538
aS'vhigh'
p7539
ag4
aS'more'
p7540
aS'big'
p7541
aS'low'
p7542
aS'unacc'
p7543
aa(lp7544
S'low'
p7545
aS'vhigh'
p7546
ag4
aS'more'
p7547
aS'big'
p7548
aS'med'
p7549
aS'acc'
p7550
aa(lp7551
S'low'
p7552
aS'vhigh'
p7553
ag4
aS'more'
p7554
aS'big'
p7555
aS'high'
p7556
aS'acc'
p7557
aa(lp7558
S'low'
p7559
aS'vhigh'
p7560
ag177
ag4
aS'small'
p7561
aS'low'
p7562
aS'unacc'
p7563
aa(lp7564
S'low'
p7565
aS'vhigh'
p7566
ag177
ag4
aS'small'
p7567
aS'med'
p7568
aS'unacc'
p7569
aa(lp7570
S'low'
p7571
aS'vhigh'
p7572
ag177
ag4
aS'small'
p7573
aS'high'
p7574
aS'unacc'
p7575
aa(lp7576
S'low'
p7577
aS'vhigh'
p7578
ag177
ag4
aS'med'
p7579
aS'low'
p7580
aS'unacc'
p7581
aa(lp7582
S'low'
p7583
aS'vhigh'
p7584
ag177
ag4
aS'med'
p7585
aS'med'
p7586
aS'unacc'
p7587
aa(lp7588
S'low'
p7589
aS'vhigh'
p7590
ag177
ag4
aS'med'
p7591
aS'high'
p7592
aS'unacc'
p7593
aa(lp7594
S'low'
p7595
aS'vhigh'
p7596
ag177
ag4
aS'big'
p7597
aS'low'
p7598
aS'unacc'
p7599
aa(lp7600
S'low'
p7601
aS'vhigh'
p7602
ag177
ag4
aS'big'
p7603
aS'med'
p7604
aS'unacc'
p7605
aa(lp7606
S'low'
p7607
aS'vhigh'
p7608
ag177
ag4
aS'big'
p7609
aS'high'
p7610
aS'unacc'
p7611
aa(lp7612
S'low'
p7613
aS'vhigh'
p7614
ag177
ag59
aS'small'
p7615
aS'low'
p7616
aS'unacc'
p7617
aa(lp7618
S'low'
p7619
aS'vhigh'
p7620
ag177
ag59
aS'small'
p7621
aS'med'
p7622
aS'unacc'
p7623
aa(lp7624
S'low'
p7625
aS'vhigh'
p7626
ag177
ag59
aS'small'
p7627
aS'high'
p7628
aS'acc'
p7629
aa(lp7630
S'low'
p7631
aS'vhigh'
p7632
ag177
ag59
aS'med'
p7633
aS'low'
p7634
aS'unacc'
p7635
aa(lp7636
S'low'
p7637
aS'vhigh'
p7638
ag177
ag59
aS'med'
p7639
aS'med'
p7640
aS'unacc'
p7641
aa(lp7642
S'low'
p7643
aS'vhigh'
p7644
ag177
ag59
aS'med'
p7645
aS'high'
p7646
aS'acc'
p7647
aa(lp7648
S'low'
p7649
aS'vhigh'
p7650
ag177
ag59
aS'big'
p7651
aS'low'
p7652
aS'unacc'
p7653
aa(lp7654
S'low'
p7655
aS'vhigh'
p7656
ag177
ag59
aS'big'
p7657
aS'med'
p7658
aS'acc'
p7659
aa(lp7660
S'low'
p7661
aS'vhigh'
p7662
ag177
ag59
aS'big'
p7663
aS'high'
p7664
aS'acc'
p7665
aa(lp7666
S'low'
p7667
aS'vhigh'
p7668
ag177
aS'more'
p7669
aS'small'
p7670
aS'low'
p7671
aS'unacc'
p7672
aa(lp7673
S'low'
p7674
aS'vhigh'
p7675
ag177
aS'more'
p7676
aS'small'
p7677
aS'med'
p7678
aS'unacc'
p7679
aa(lp7680
S'low'
p7681
aS'vhigh'
p7682
ag177
aS'more'
p7683
aS'small'
p7684
aS'high'
p7685
aS'acc'
p7686
aa(lp7687
S'low'
p7688
aS'vhigh'
p7689
ag177
aS'more'
p7690
aS'med'
p7691
aS'low'
p7692
aS'unacc'
p7693
aa(lp7694
S'low'
p7695
aS'vhigh'
p7696
ag177
aS'more'
p7697
aS'med'
p7698
aS'med'
p7699
aS'acc'
p7700
aa(lp7701
S'low'
p7702
aS'vhigh'
p7703
ag177
aS'more'
p7704
aS'med'
p7705
aS'high'
p7706
aS'acc'
p7707
aa(lp7708
S'low'
p7709
aS'vhigh'
p7710
ag177
aS'more'
p7711
aS'big'
p7712
aS'low'
p7713
aS'unacc'
p7714
aa(lp7715
S'low'
p7716
aS'vhigh'
p7717
ag177
aS'more'
p7718
aS'big'
p7719
aS'med'
p7720
aS'acc'
p7721
aa(lp7722
S'low'
p7723
aS'vhigh'
p7724
ag177
aS'more'
p7725
aS'big'
p7726
aS'high'
p7727
aS'acc'
p7728
aa(lp7729
S'low'
p7730
aS'vhigh'
p7731
ag59
ag4
aS'small'
p7732
aS'low'
p7733
aS'unacc'
p7734
aa(lp7735
S'low'
p7736
aS'vhigh'
p7737
ag59
ag4
aS'small'
p7738
aS'med'
p7739
aS'unacc'
p7740
aa(lp7741
S'low'
p7742
aS'vhigh'
p7743
ag59
ag4
aS'small'
p7744
aS'high'
p7745
aS'unacc'
p7746
aa(lp7747
S'low'
p7748
aS'vhigh'
p7749
ag59
ag4
aS'med'
p7750
aS'low'
p7751
aS'unacc'
p7752
aa(lp7753
S'low'
p7754
aS'vhigh'
p7755
ag59
ag4
aS'med'
p7756
aS'med'
p7757
aS'unacc'
p7758
aa(lp7759
S'low'
p7760
aS'vhigh'
p7761
ag59
ag4
aS'med'
p7762
aS'high'
p7763
aS'unacc'
p7764
aa(lp7765
S'low'
p7766
aS'vhigh'
p7767
ag59
ag4
aS'big'
p7768
aS'low'
p7769
aS'unacc'
p7770
aa(lp7771
S'low'
p7772
aS'vhigh'
p7773
ag59
ag4
aS'big'
p7774
aS'med'
p7775
aS'unacc'
p7776
aa(lp7777
S'low'
p7778
aS'vhigh'
p7779
ag59
ag4
aS'big'
p7780
aS'high'
p7781
aS'unacc'
p7782
aa(lp7783
S'low'
p7784
aS'vhigh'
p7785
ag59
ag59
aS'small'
p7786
aS'low'
p7787
aS'unacc'
p7788
aa(lp7789
S'low'
p7790
aS'vhigh'
p7791
ag59
ag59
aS'small'
p7792
aS'med'
p7793
aS'unacc'
p7794
aa(lp7795
S'low'
p7796
aS'vhigh'
p7797
ag59
ag59
aS'small'
p7798
aS'high'
p7799
aS'acc'
p7800
aa(lp7801
S'low'
p7802
aS'vhigh'
p7803
ag59
ag59
aS'med'
p7804
aS'low'
p7805
aS'unacc'
p7806
aa(lp7807
S'low'
p7808
aS'vhigh'
p7809
ag59
ag59
aS'med'
p7810
aS'med'
p7811
aS'acc'
p7812
aa(lp7813
S'low'
p7814
aS'vhigh'
p7815
ag59
ag59
aS'med'
p7816
aS'high'
p7817
aS'acc'
p7818
aa(lp7819
S'low'
p7820
aS'vhigh'
p7821
ag59
ag59
aS'big'
p7822
aS'low'
p7823
aS'unacc'
p7824
aa(lp7825
S'low'
p7826
aS'vhigh'
p7827
ag59
ag59
aS'big'
p7828
aS'med'
p7829
aS'acc'
p7830
aa(lp7831
S'low'
p7832
aS'vhigh'
p7833
ag59
ag59
aS'big'
p7834
aS'high'
p7835
aS'acc'
p7836
aa(lp7837
S'low'
p7838
aS'vhigh'
p7839
ag59
aS'more'
p7840
aS'small'
p7841
aS'low'
p7842
aS'unacc'
p7843
aa(lp7844
S'low'
p7845
aS'vhigh'
p7846
ag59
aS'more'
p7847
aS'small'
p7848
aS'med'
p7849
aS'unacc'
p7850
aa(lp7851
S'low'
p7852
aS'vhigh'
p7853
ag59
aS'more'
p7854
aS'small'
p7855
aS'high'
p7856
aS'acc'
p7857
aa(lp7858
S'low'
p7859
aS'vhigh'
p7860
ag59
aS'more'
p7861
aS'med'
p7862
aS'low'
p7863
aS'unacc'
p7864
aa(lp7865
S'low'
p7866
aS'vhigh'
p7867
ag59
aS'more'
p7868
aS'med'
p7869
aS'med'
p7870
aS'acc'
p7871
aa(lp7872
S'low'
p7873
aS'vhigh'
p7874
ag59
aS'more'
p7875
aS'med'
p7876
aS'high'
p7877
aS'acc'
p7878
aa(lp7879
S'low'
p7880
aS'vhigh'
p7881
ag59
aS'more'
p7882
aS'big'
p7883
aS'low'
p7884
aS'unacc'
p7885
aa(lp7886
S'low'
p7887
aS'vhigh'
p7888
ag59
aS'more'
p7889
aS'big'
p7890
aS'med'
p7891
aS'acc'
p7892
aa(lp7893
S'low'
p7894
aS'vhigh'
p7895
ag59
aS'more'
p7896
aS'big'
p7897
aS'high'
p7898
aS'acc'
p7899
aa(lp7900
S'low'
p7901
aS'vhigh'
p7902
aS'5more'
p7903
ag4
aS'small'
p7904
aS'low'
p7905
aS'unacc'
p7906
aa(lp7907
S'low'
p7908
aS'vhigh'
p7909
aS'5more'
p7910
ag4
aS'small'
p7911
aS'med'
p7912
aS'unacc'
p7913
aa(lp7914
S'low'
p7915
aS'vhigh'
p7916
aS'5more'
p7917
ag4
aS'small'
p7918
aS'high'
p7919
aS'unacc'
p7920
aa(lp7921
S'low'
p7922
aS'vhigh'
p7923
aS'5more'
p7924
ag4
aS'med'
p7925
aS'low'
p7926
aS'unacc'
p7927
aa(lp7928
S'low'
p7929
aS'vhigh'
p7930
aS'5more'
p7931
ag4
aS'med'
p7932
aS'med'
p7933
aS'unacc'
p7934
aa(lp7935
S'low'
p7936
aS'vhigh'
p7937
aS'5more'
p7938
ag4
aS'med'
p7939
aS'high'
p7940
aS'unacc'
p7941
aa(lp7942
S'low'
p7943
aS'vhigh'
p7944
aS'5more'
p7945
ag4
aS'big'
p7946
aS'low'
p7947
aS'unacc'
p7948
aa(lp7949
S'low'
p7950
aS'vhigh'
p7951
aS'5more'
p7952
ag4
aS'big'
p7953
aS'med'
p7954
aS'unacc'
p7955
aa(lp7956
S'low'
p7957
aS'vhigh'
p7958
aS'5more'
p7959
ag4
aS'big'
p7960
aS'high'
p7961
aS'unacc'
p7962
aa(lp7963
S'low'
p7964
aS'vhigh'
p7965
aS'5more'
p7966
ag59
aS'small'
p7967
aS'low'
p7968
aS'unacc'
p7969
aa(lp7970
S'low'
p7971
aS'vhigh'
p7972
aS'5more'
p7973
ag59
aS'small'
p7974
aS'med'
p7975
aS'unacc'
p7976
aa(lp7977
S'low'
p7978
aS'vhigh'
p7979
aS'5more'
p7980
ag59
aS'small'
p7981
aS'high'
p7982
aS'acc'
p7983
aa(lp7984
S'low'
p7985
aS'vhigh'
p7986
aS'5more'
p7987
ag59
aS'med'
p7988
aS'low'
p7989
aS'unacc'
p7990
aa(lp7991
S'low'
p7992
aS'vhigh'
p7993
aS'5more'
p7994
ag59
aS'med'
p7995
aS'med'
p7996
aS'acc'
p7997
aa(lp7998
S'low'
p7999
aS'vhigh'
p8000
aS'5more'
p8001
ag59
aS'med'
p8002
aS'high'
p8003
aS'acc'
p8004
aa(lp8005
S'low'
p8006
aS'vhigh'
p8007
aS'5more'
p8008
ag59
aS'big'
p8009
aS'low'
p8010
aS'unacc'
p8011
aa(lp8012
S'low'
p8013
aS'vhigh'
p8014
aS'5more'
p8015
ag59
aS'big'
p8016
aS'med'
p8017
aS'acc'
p8018
aa(lp8019
S'low'
p8020
aS'vhigh'
p8021
aS'5more'
p8022
ag59
aS'big'
p8023
aS'high'
p8024
aS'acc'
p8025
aa(lp8026
S'low'
p8027
aS'vhigh'
p8028
aS'5more'
p8029
aS'more'
p8030
aS'small'
p8031
aS'low'
p8032
aS'unacc'
p8033
aa(lp8034
S'low'
p8035
aS'vhigh'
p8036
aS'5more'
p8037
aS'more'
p8038
aS'small'
p8039
aS'med'
p8040
aS'unacc'
p8041
aa(lp8042
S'low'
p8043
aS'vhigh'
p8044
aS'5more'
p8045
aS'more'
p8046
aS'small'
p8047
aS'high'
p8048
aS'acc'
p8049
aa(lp8050
S'low'
p8051
aS'vhigh'
p8052
aS'5more'
p8053
aS'more'
p8054
aS'med'
p8055
aS'low'
p8056
aS'unacc'
p8057
aa(lp8058
S'low'
p8059
aS'vhigh'
p8060
aS'5more'
p8061
aS'more'
p8062
aS'med'
p8063
aS'med'
p8064
aS'acc'
p8065
aa(lp8066
S'low'
p8067
aS'vhigh'
p8068
aS'5more'
p8069
aS'more'
p8070
aS'med'
p8071
aS'high'
p8072
aS'acc'
p8073
aa(lp8074
S'low'
p8075
aS'vhigh'
p8076
aS'5more'
p8077
aS'more'
p8078
aS'big'
p8079
aS'low'
p8080
aS'unacc'
p8081
aa(lp8082
S'low'
p8083
aS'vhigh'
p8084
aS'5more'
p8085
aS'more'
p8086
aS'big'
p8087
aS'med'
p8088
aS'acc'
p8089
aa(lp8090
S'low'
p8091
aS'vhigh'
p8092
aS'5more'
p8093
aS'more'
p8094
aS'big'
p8095
aS'high'
p8096
aS'acc'
p8097
aa(lp8098
S'low'
p8099
aS'high'
p8100
ag4
ag4
aS'small'
p8101
aS'low'
p8102
aS'unacc'
p8103
aa(lp8104
S'low'
p8105
aS'high'
p8106
ag4
ag4
aS'small'
p8107
aS'med'
p8108
aS'unacc'
p8109
aa(lp8110
S'low'
p8111
aS'high'
p8112
ag4
ag4
aS'small'
p8113
aS'high'
p8114
aS'unacc'
p8115
aa(lp8116
S'low'
p8117
aS'high'
p8118
ag4
ag4
aS'med'
p8119
aS'low'
p8120
aS'unacc'
p8121
aa(lp8122
S'low'
p8123
aS'high'
p8124
ag4
ag4
aS'med'
p8125
aS'med'
p8126
aS'unacc'
p8127
aa(lp8128
S'low'
p8129
aS'high'
p8130
ag4
ag4
aS'med'
p8131
aS'high'
p8132
aS'unacc'
p8133
aa(lp8134
S'low'
p8135
aS'high'
p8136
ag4
ag4
aS'big'
p8137
aS'low'
p8138
aS'unacc'
p8139
aa(lp8140
S'low'
p8141
aS'high'
p8142
ag4
ag4
aS'big'
p8143
aS'med'
p8144
aS'unacc'
p8145
aa(lp8146
S'low'
p8147
aS'high'
p8148
ag4
ag4
aS'big'
p8149
aS'high'
p8150
aS'unacc'
p8151
aa(lp8152
S'low'
p8153
aS'high'
p8154
ag4
ag59
aS'small'
p8155
aS'low'
p8156
aS'unacc'
p8157
aa(lp8158
S'low'
p8159
aS'high'
p8160
ag4
ag59
aS'small'
p8161
aS'med'
p8162
aS'acc'
p8163
aa(lp8164
S'low'
p8165
aS'high'
p8166
ag4
ag59
aS'small'
p8167
aS'high'
p8168
aS'acc'
p8169
aa(lp8170
S'low'
p8171
aS'high'
p8172
ag4
ag59
aS'med'
p8173
aS'low'
p8174
aS'unacc'
p8175
aa(lp8176
S'low'
p8177
aS'high'
p8178
ag4
ag59
aS'med'
p8179
aS'med'
p8180
aS'acc'
p8181
aa(lp8182
S'low'
p8183
aS'high'
p8184
ag4
ag59
aS'med'
p8185
aS'high'
p8186
aS'acc'
p8187
aa(lp8188
S'low'
p8189
aS'high'
p8190
ag4
ag59
aS'big'
p8191
aS'low'
p8192
aS'unacc'
p8193
aa(lp8194
S'low'
p8195
aS'high'
p8196
ag4
ag59
aS'big'
p8197
aS'med'
p8198
aS'acc'
p8199
aa(lp8200
S'low'
p8201
aS'high'
p8202
ag4
ag59
aS'big'
p8203
aS'high'
p8204
aS'vgood'
p8205
aa(lp8206
S'low'
p8207
aS'high'
p8208
ag4
aS'more'
p8209
aS'small'
p8210
aS'low'
p8211
aS'unacc'
p8212
aa(lp8213
S'low'
p8214
aS'high'
p8215
ag4
aS'more'
p8216
aS'small'
p8217
aS'med'
p8218
aS'unacc'
p8219
aa(lp8220
S'low'
p8221
aS'high'
p8222
ag4
aS'more'
p8223
aS'small'
p8224
aS'high'
p8225
aS'unacc'
p8226
aa(lp8227
S'low'
p8228
aS'high'
p8229
ag4
aS'more'
p8230
aS'med'
p8231
aS'low'
p8232
aS'unacc'
p8233
aa(lp8234
S'low'
p8235
aS'high'
p8236
ag4
aS'more'
p8237
aS'med'
p8238
aS'med'
p8239
aS'acc'
p8240
aa(lp8241
S'low'
p8242
aS'high'
p8243
ag4
aS'more'
p8244
aS'med'
p8245
aS'high'
p8246
aS'acc'
p8247
aa(lp8248
S'low'
p8249
aS'high'
p8250
ag4
aS'more'
p8251
aS'big'
p8252
aS'low'
p8253
aS'unacc'
p8254
aa(lp8255
S'low'
p8256
aS'high'
p8257
ag4
aS'more'
p8258
aS'big'
p8259
aS'med'
p8260
aS'acc'
p8261
aa(lp8262
S'low'
p8263
aS'high'
p8264
ag4
aS'more'
p8265
aS'big'
p8266
aS'high'
p8267
aS'vgood'
p8268
aa(lp8269
S'low'
p8270
aS'high'
p8271
ag177
ag4
aS'small'
p8272
aS'low'
p8273
aS'unacc'
p8274
aa(lp8275
S'low'
p8276
aS'high'
p8277
ag177
ag4
aS'small'
p8278
aS'med'
p8279
aS'unacc'
p8280
aa(lp8281
S'low'
p8282
aS'high'
p8283
ag177
ag4
aS'small'
p8284
aS'high'
p8285
aS'unacc'
p8286
aa(lp8287
S'low'
p8288
aS'high'
p8289
ag177
ag4
aS'med'
p8290
aS'low'
p8291
aS'unacc'
p8292
aa(lp8293
S'low'
p8294
aS'high'
p8295
ag177
ag4
aS'med'
p8296
aS'med'
p8297
aS'unacc'
p8298
aa(lp8299
S'low'
p8300
aS'high'
p8301
ag177
ag4
aS'med'
p8302
aS'high'
p8303
aS'unacc'
p8304
aa(lp8305
S'low'
p8306
aS'high'
p8307
ag177
ag4
aS'big'
p8308
aS'low'
p8309
aS'unacc'
p8310
aa(lp8311
S'low'
p8312
aS'high'
p8313
ag177
ag4
aS'big'
p8314
aS'med'
p8315
aS'unacc'
p8316
aa(lp8317
S'low'
p8318
aS'high'
p8319
ag177
ag4
aS'big'
p8320
aS'high'
p8321
aS'unacc'
p8322
aa(lp8323
S'low'
p8324
aS'high'
p8325
ag177
ag59
aS'small'
p8326
aS'low'
p8327
aS'unacc'
p8328
aa(lp8329
S'low'
p8330
aS'high'
p8331
ag177
ag59
aS'small'
p8332
aS'med'
p8333
aS'acc'
p8334
aa(lp8335
S'low'
p8336
aS'high'
p8337
ag177
ag59
aS'small'
p8338
aS'high'
p8339
aS'acc'
p8340
aa(lp8341
S'low'
p8342
aS'high'
p8343
ag177
ag59
aS'med'
p8344
aS'low'
p8345
aS'unacc'
p8346
aa(lp8347
S'low'
p8348
aS'high'
p8349
ag177
ag59
aS'med'
p8350
aS'med'
p8351
aS'acc'
p8352
aa(lp8353
S'low'
p8354
aS'high'
p8355
ag177
ag59
aS'med'
p8356
aS'high'
p8357
aS'acc'
p8358
aa(lp8359
S'low'
p8360
aS'high'
p8361
ag177
ag59
aS'big'
p8362
aS'low'
p8363
aS'unacc'
p8364
aa(lp8365
S'low'
p8366
aS'high'
p8367
ag177
ag59
aS'big'
p8368
aS'med'
p8369
aS'acc'
p8370
aa(lp8371
S'low'
p8372
aS'high'
p8373
ag177
ag59
aS'big'
p8374
aS'high'
p8375
aS'vgood'
p8376
aa(lp8377
S'low'
p8378
aS'high'
p8379
ag177
aS'more'
p8380
aS'small'
p8381
aS'low'
p8382
aS'unacc'
p8383
aa(lp8384
S'low'
p8385
aS'high'
p8386
ag177
aS'more'
p8387
aS'small'
p8388
aS'med'
p8389
aS'acc'
p8390
aa(lp8391
S'low'
p8392
aS'high'
p8393
ag177
aS'more'
p8394
aS'small'
p8395
aS'high'
p8396
aS'acc'
p8397
aa(lp8398
S'low'
p8399
aS'high'
p8400
ag177
aS'more'
p8401
aS'med'
p8402
aS'low'
p8403
aS'unacc'
p8404
aa(lp8405
S'low'
p8406
aS'high'
p8407
ag177
aS'more'
p8408
aS'med'
p8409
aS'med'
p8410
aS'acc'
p8411
aa(lp8412
S'low'
p8413
aS'high'
p8414
ag177
aS'more'
p8415
aS'med'
p8416
aS'high'
p8417
aS'vgood'
p8418
aa(lp8419
S'low'
p8420
aS'high'
p8421
ag177
aS'more'
p8422
aS'big'
p8423
aS'low'
p8424
aS'unacc'
p8425
aa(lp8426
S'low'
p8427
aS'high'
p8428
ag177
aS'more'
p8429
aS'big'
p8430
aS'med'
p8431
aS'acc'
p8432
aa(lp8433
S'low'
p8434
aS'high'
p8435
ag177
aS'more'
p8436
aS'big'
p8437
aS'high'
p8438
aS'vgood'
p8439
aa(lp8440
S'low'
p8441
aS'high'
p8442
ag59
ag4
aS'small'
p8443
aS'low'
p8444
aS'unacc'
p8445
aa(lp8446
S'low'
p8447
aS'high'
p8448
ag59
ag4
aS'small'
p8449
aS'med'
p8450
aS'unacc'
p8451
aa(lp8452
S'low'
p8453
aS'high'
p8454
ag59
ag4
aS'small'
p8455
aS'high'
p8456
aS'unacc'
p8457
aa(lp8458
S'low'
p8459
aS'high'
p8460
ag59
ag4
aS'med'
p8461
aS'low'
p8462
aS'unacc'
p8463
aa(lp8464
S'low'
p8465
aS'high'
p8466
ag59
ag4
aS'med'
p8467
aS'med'
p8468
aS'unacc'
p8469
aa(lp8470
S'low'
p8471
aS'high'
p8472
ag59
ag4
aS'med'
p8473
aS'high'
p8474
aS'unacc'
p8475
aa(lp8476
S'low'
p8477
aS'high'
p8478
ag59
ag4
aS'big'
p8479
aS'low'
p8480
aS'unacc'
p8481
aa(lp8482
S'low'
p8483
aS'high'
p8484
ag59
ag4
aS'big'
p8485
aS'med'
p8486
aS'unacc'
p8487
aa(lp8488
S'low'
p8489
aS'high'
p8490
ag59
ag4
aS'big'
p8491
aS'high'
p8492
aS'unacc'
p8493
aa(lp8494
S'low'
p8495
aS'high'
p8496
ag59
ag59
aS'small'
p8497
aS'low'
p8498
aS'unacc'
p8499
aa(lp8500
S'low'
p8501
aS'high'
p8502
ag59
ag59
aS'small'
p8503
aS'med'
p8504
aS'acc'
p8505
aa(lp8506
S'low'
p8507
aS'high'
p8508
ag59
ag59
aS'small'
p8509
aS'high'
p8510
aS'acc'
p8511
aa(lp8512
S'low'
p8513
aS'high'
p8514
ag59
ag59
aS'med'
p8515
aS'low'
p8516
aS'unacc'
p8517
aa(lp8518
S'low'
p8519
aS'high'
p8520
ag59
ag59
aS'med'
p8521
aS'med'
p8522
aS'acc'
p8523
aa(lp8524
S'low'
p8525
aS'high'
p8526
ag59
ag59
aS'med'
p8527
aS'high'
p8528
aS'vgood'
p8529
aa(lp8530
S'low'
p8531
aS'high'
p8532
ag59
ag59
aS'big'
p8533
aS'low'
p8534
aS'unacc'
p8535
aa(lp8536
S'low'
p8537
aS'high'
p8538
ag59
ag59
aS'big'
p8539
aS'med'
p8540
aS'acc'
p8541
aa(lp8542
S'low'
p8543
aS'high'
p8544
ag59
ag59
aS'big'
p8545
aS'high'
p8546
aS'vgood'
p8547
aa(lp8548
S'low'
p8549
aS'high'
p8550
ag59
aS'more'
p8551
aS'small'
p8552
aS'low'
p8553
aS'unacc'
p8554
aa(lp8555
S'low'
p8556
aS'high'
p8557
ag59
aS'more'
p8558
aS'small'
p8559
aS'med'
p8560
aS'acc'
p8561
aa(lp8562
S'low'
p8563
aS'high'
p8564
ag59
aS'more'
p8565
aS'small'
p8566
aS'high'
p8567
aS'acc'
p8568
aa(lp8569
S'low'
p8570
aS'high'
p8571
ag59
aS'more'
p8572
aS'med'
p8573
aS'low'
p8574
aS'unacc'
p8575
aa(lp8576
S'low'
p8577
aS'high'
p8578
ag59
aS'more'
p8579
aS'med'
p8580
aS'med'
p8581
aS'acc'
p8582
aa(lp8583
S'low'
p8584
aS'high'
p8585
ag59
aS'more'
p8586
aS'med'
p8587
aS'high'
p8588
aS'vgood'
p8589
aa(lp8590
S'low'
p8591
aS'high'
p8592
ag59
aS'more'
p8593
aS'big'
p8594
aS'low'
p8595
aS'unacc'
p8596
aa(lp8597
S'low'
p8598
aS'high'
p8599
ag59
aS'more'
p8600
aS'big'
p8601
aS'med'
p8602
aS'acc'
p8603
aa(lp8604
S'low'
p8605
aS'high'
p8606
ag59
aS'more'
p8607
aS'big'
p8608
aS'high'
p8609
aS'vgood'
p8610
aa(lp8611
S'low'
p8612
aS'high'
p8613
aS'5more'
p8614
ag4
aS'small'
p8615
aS'low'
p8616
aS'unacc'
p8617
aa(lp8618
S'low'
p8619
aS'high'
p8620
aS'5more'
p8621
ag4
aS'small'
p8622
aS'med'
p8623
aS'unacc'
p8624
aa(lp8625
S'low'
p8626
aS'high'
p8627
aS'5more'
p8628
ag4
aS'small'
p8629
aS'high'
p8630
aS'unacc'
p8631
aa(lp8632
S'low'
p8633
aS'high'
p8634
aS'5more'
p8635
ag4
aS'med'
p8636
aS'low'
p8637
aS'unacc'
p8638
aa(lp8639
S'low'
p8640
aS'high'
p8641
aS'5more'
p8642
ag4
aS'med'
p8643
aS'med'
p8644
aS'unacc'
p8645
aa(lp8646
S'low'
p8647
aS'high'
p8648
aS'5more'
p8649
ag4
aS'med'
p8650
aS'high'
p8651
aS'unacc'
p8652
aa(lp8653
S'low'
p8654
aS'high'
p8655
aS'5more'
p8656
ag4
aS'big'
p8657
aS'low'
p8658
aS'unacc'
p8659
aa(lp8660
S'low'
p8661
aS'high'
p8662
aS'5more'
p8663
ag4
aS'big'
p8664
aS'med'
p8665
aS'unacc'
p8666
aa(lp8667
S'low'
p8668
aS'high'
p8669
aS'5more'
p8670
ag4
aS'big'
p8671
aS'high'
p8672
aS'unacc'
p8673
aa(lp8674
S'low'
p8675
aS'high'
p8676
aS'5more'
p8677
ag59
aS'small'
p8678
aS'low'
p8679
aS'unacc'
p8680
aa(lp8681
S'low'
p8682
aS'high'
p8683
aS'5more'
p8684
ag59
aS'small'
p8685
aS'med'
p8686
aS'acc'
p8687
aa(lp8688
S'low'
p8689
aS'high'
p8690
aS'5more'
p8691
ag59
aS'small'
p8692
aS'high'
p8693
aS'acc'
p8694
aa(lp8695
S'low'
p8696
aS'high'
p8697
aS'5more'
p8698
ag59
aS'med'
p8699
aS'low'
p8700
aS'unacc'
p8701
aa(lp8702
S'low'
p8703
aS'high'
p8704
aS'5more'
p8705
ag59
aS'med'
p8706
aS'med'
p8707
aS'acc'
p8708
aa(lp8709
S'low'
p8710
aS'high'
p8711
aS'5more'
p8712
ag59
aS'med'
p8713
aS'high'
p8714
aS'vgood'
p8715
aa(lp8716
S'low'
p8717
aS'high'
p8718
aS'5more'
p8719
ag59
aS'big'
p8720
aS'low'
p8721
aS'unacc'
p8722
aa(lp8723
S'low'
p8724
aS'high'
p8725
aS'5more'
p8726
ag59
aS'big'
p8727
aS'med'
p8728
aS'acc'
p8729
aa(lp8730
S'low'
p8731
aS'high'
p8732
aS'5more'
p8733
ag59
aS'big'
p8734
aS'high'
p8735
aS'vgood'
p8736
aa(lp8737
S'low'
p8738
aS'high'
p8739
aS'5more'
p8740
aS'more'
p8741
aS'small'
p8742
aS'low'
p8743
aS'unacc'
p8744
aa(lp8745
S'low'
p8746
aS'high'
p8747
aS'5more'
p8748
aS'more'
p8749
aS'small'
p8750
aS'med'
p8751
aS'acc'
p8752
aa(lp8753
S'low'
p8754
aS'high'
p8755
aS'5more'
p8756
aS'more'
p8757
aS'small'
p8758
aS'high'
p8759
aS'acc'
p8760
aa(lp8761
S'low'
p8762
aS'high'
p8763
aS'5more'
p8764
aS'more'
p8765
aS'med'
p8766
aS'low'
p8767
aS'unacc'
p8768
aa(lp8769
S'low'
p8770
aS'high'
p8771
aS'5more'
p8772
aS'more'
p8773
aS'med'
p8774
aS'med'
p8775
aS'acc'
p8776
aa(lp8777
S'low'
p8778
aS'high'
p8779
aS'5more'
p8780
aS'more'
p8781
aS'med'
p8782
aS'high'
p8783
aS'vgood'
p8784
aa(lp8785
S'low'
p8786
aS'high'
p8787
aS'5more'
p8788
aS'more'
p8789
aS'big'
p8790
aS'low'
p8791
aS'unacc'
p8792
aa(lp8793
S'low'
p8794
aS'high'
p8795
aS'5more'
p8796
aS'more'
p8797
aS'big'
p8798
aS'med'
p8799
aS'acc'
p8800
aa(lp8801
S'low'
p8802
aS'high'
p8803
aS'5more'
p8804
aS'more'
p8805
aS'big'
p8806
aS'high'
p8807
aS'vgood'
p8808
aa(lp8809
S'low'
p8810
aS'med'
p8811
ag4
ag4
aS'small'
p8812
aS'low'
p8813
aS'unacc'
p8814
aa(lp8815
S'low'
p8816
aS'med'
p8817
ag4
ag4
aS'small'
p8818
aS'med'
p8819
aS'unacc'
p8820
aa(lp8821
S'low'
p8822
aS'med'
p8823
ag4
ag4
aS'small'
p8824
aS'high'
p8825
aS'unacc'
p8826
aa(lp8827
S'low'
p8828
aS'med'
p8829
ag4
ag4
aS'med'
p8830
aS'low'
p8831
aS'unacc'
p8832
aa(lp8833
S'low'
p8834
aS'med'
p8835
ag4
ag4
aS'med'
p8836
aS'med'
p8837
aS'unacc'
p8838
aa(lp8839
S'low'
p8840
aS'med'
p8841
ag4
ag4
aS'med'
p8842
aS'high'
p8843
aS'unacc'
p8844
aa(lp8845
S'low'
p8846
aS'med'
p8847
ag4
ag4
aS'big'
p8848
aS'low'
p8849
aS'unacc'
p8850
aa(lp8851
S'low'
p8852
aS'med'
p8853
ag4
ag4
aS'big'
p8854
aS'med'
p8855
aS'unacc'
p8856
aa(lp8857
S'low'
p8858
aS'med'
p8859
ag4
ag4
aS'big'
p8860
aS'high'
p8861
aS'unacc'
p8862
aa(lp8863
S'low'
p8864
aS'med'
p8865
ag4
ag59
aS'small'
p8866
aS'low'
p8867
aS'unacc'
p8868
aa(lp8869
S'low'
p8870
aS'med'
p8871
ag4
ag59
aS'small'
p8872
aS'med'
p8873
aS'acc'
p8874
aa(lp8875
S'low'
p8876
aS'med'
p8877
ag4
ag59
aS'small'
p8878
aS'high'
p8879
aS'good'
p8880
aa(lp8881
S'low'
p8882
aS'med'
p8883
ag4
ag59
aS'med'
p8884
aS'low'
p8885
aS'unacc'
p8886
aa(lp8887
S'low'
p8888
aS'med'
p8889
ag4
ag59
aS'med'
p8890
aS'med'
p8891
aS'acc'
p8892
aa(lp8893
S'low'
p8894
aS'med'
p8895
ag4
ag59
aS'med'
p8896
aS'high'
p8897
aS'good'
p8898
aa(lp8899
S'low'
p8900
aS'med'
p8901
ag4
ag59
aS'big'
p8902
aS'low'
p8903
aS'unacc'
p8904
aa(lp8905
S'low'
p8906
aS'med'
p8907
ag4
ag59
aS'big'
p8908
aS'med'
p8909
aS'good'
p8910
aa(lp8911
S'low'
p8912
aS'med'
p8913
ag4
ag59
aS'big'
p8914
aS'high'
p8915
aS'vgood'
p8916
aa(lp8917
S'low'
p8918
aS'med'
p8919
ag4
aS'more'
p8920
aS'small'
p8921
aS'low'
p8922
aS'unacc'
p8923
aa(lp8924
S'low'
p8925
aS'med'
p8926
ag4
aS'more'
p8927
aS'small'
p8928
aS'med'
p8929
aS'unacc'
p8930
aa(lp8931
S'low'
p8932
aS'med'
p8933
ag4
aS'more'
p8934
aS'small'
p8935
aS'high'
p8936
aS'unacc'
p8937
aa(lp8938
S'low'
p8939
aS'med'
p8940
ag4
aS'more'
p8941
aS'med'
p8942
aS'low'
p8943
aS'unacc'
p8944
aa(lp8945
S'low'
p8946
aS'med'
p8947
ag4
aS'more'
p8948
aS'med'
p8949
aS'med'
p8950
aS'acc'
p8951
aa(lp8952
S'low'
p8953
aS'med'
p8954
ag4
aS'more'
p8955
aS'med'
p8956
aS'high'
p8957
aS'good'
p8958
aa(lp8959
S'low'
p8960
aS'med'
p8961
ag4
aS'more'
p8962
aS'big'
p8963
aS'low'
p8964
aS'unacc'
p8965
aa(lp8966
S'low'
p8967
aS'med'
p8968
ag4
aS'more'
p8969
aS'big'
p8970
aS'med'
p8971
aS'good'
p8972
aa(lp8973
S'low'
p8974
aS'med'
p8975
ag4
aS'more'
p8976
aS'big'
p8977
aS'high'
p8978
aS'vgood'
p8979
aa(lp8980
S'low'
p8981
aS'med'
p8982
ag177
ag4
aS'small'
p8983
aS'low'
p8984
aS'unacc'
p8985
aa(lp8986
S'low'
p8987
aS'med'
p8988
ag177
ag4
aS'small'
p8989
aS'med'
p8990
aS'unacc'
p8991
aa(lp8992
S'low'
p8993
aS'med'
p8994
ag177
ag4
aS'small'
p8995
aS'high'
p8996
aS'unacc'
p8997
aa(lp8998
S'low'
p8999
aS'med'
p9000
ag177
ag4
aS'med'
p9001
aS'low'
p9002
aS'unacc'
p9003
aa(lp9004
S'low'
p9005
aS'med'
p9006
ag177
ag4
aS'med'
p9007
aS'med'
p9008
aS'unacc'
p9009
aa(lp9010
S'low'
p9011
aS'med'
p9012
ag177
ag4
aS'med'
p9013
aS'high'
p9014
aS'unacc'
p9015
aa(lp9016
S'low'
p9017
aS'med'
p9018
ag177
ag4
aS'big'
p9019
aS'low'
p9020
aS'unacc'
p9021
aa(lp9022
S'low'
p9023
aS'med'
p9024
ag177
ag4
aS'big'
p9025
aS'med'
p9026
aS'unacc'
p9027
aa(lp9028
S'low'
p9029
aS'med'
p9030
ag177
ag4
aS'big'
p9031
aS'high'
p9032
aS'unacc'
p9033
aa(lp9034
S'low'
p9035
aS'med'
p9036
ag177
ag59
aS'small'
p9037
aS'low'
p9038
aS'unacc'
p9039
aa(lp9040
S'low'
p9041
aS'med'
p9042
ag177
ag59
aS'small'
p9043
aS'med'
p9044
aS'acc'
p9045
aa(lp9046
S'low'
p9047
aS'med'
p9048
ag177
ag59
aS'small'
p9049
aS'high'
p9050
aS'good'
p9051
aa(lp9052
S'low'
p9053
aS'med'
p9054
ag177
ag59
aS'med'
p9055
aS'low'
p9056
aS'unacc'
p9057
aa(lp9058
S'low'
p9059
aS'med'
p9060
ag177
ag59
aS'med'
p9061
aS'med'
p9062
aS'acc'
p9063
aa(lp9064
S'low'
p9065
aS'med'
p9066
ag177
ag59
aS'med'
p9067
aS'high'
p9068
aS'good'
p9069
aa(lp9070
S'low'
p9071
aS'med'
p9072
ag177
ag59
aS'big'
p9073
aS'low'
p9074
aS'unacc'
p9075
aa(lp9076
S'low'
p9077
aS'med'
p9078
ag177
ag59
aS'big'
p9079
aS'med'
p9080
aS'good'
p9081
aa(lp9082
S'low'
p9083
aS'med'
p9084
ag177
ag59
aS'big'
p9085
aS'high'
p9086
aS'vgood'
p9087
aa(lp9088
S'low'
p9089
aS'med'
p9090
ag177
aS'more'
p9091
aS'small'
p9092
aS'low'
p9093
aS'unacc'
p9094
aa(lp9095
S'low'
p9096
aS'med'
p9097
ag177
aS'more'
p9098
aS'small'
p9099
aS'med'
p9100
aS'acc'
p9101
aa(lp9102
S'low'
p9103
aS'med'
p9104
ag177
aS'more'
p9105
aS'small'
p9106
aS'high'
p9107
aS'good'
p9108
aa(lp9109
S'low'
p9110
aS'med'
p9111
ag177
aS'more'
p9112
aS'med'
p9113
aS'low'
p9114
aS'unacc'
p9115
aa(lp9116
S'low'
p9117
aS'med'
p9118
ag177
aS'more'
p9119
aS'med'
p9120
aS'med'
p9121
aS'good'
p9122
aa(lp9123
S'low'
p9124
aS'med'
p9125
ag177
aS'more'
p9126
aS'med'
p9127
aS'high'
p9128
aS'vgood'
p9129
aa(lp9130
S'low'
p9131
aS'med'
p9132
ag177
aS'more'
p9133
aS'big'
p9134
aS'low'
p9135
aS'unacc'
p9136
aa(lp9137
S'low'
p9138
aS'med'
p9139
ag177
aS'more'
p9140
aS'big'
p9141
aS'med'
p9142
aS'good'
p9143
aa(lp9144
S'low'
p9145
aS'med'
p9146
ag177
aS'more'
p9147
aS'big'
p9148
aS'high'
p9149
aS'vgood'
p9150
aa(lp9151
S'low'
p9152
aS'med'
p9153
ag59
ag4
aS'small'
p9154
aS'low'
p9155
aS'unacc'
p9156
aa(lp9157
S'low'
p9158
aS'med'
p9159
ag59
ag4
aS'small'
p9160
aS'med'
p9161
aS'unacc'
p9162
aa(lp9163
S'low'
p9164
aS'med'
p9165
ag59
ag4
aS'small'
p9166
aS'high'
p9167
aS'unacc'
p9168
aa(lp9169
S'low'
p9170
aS'med'
p9171
ag59
ag4
aS'med'
p9172
aS'low'
p9173
aS'unacc'
p9174
aa(lp9175
S'low'
p9176
aS'med'
p9177
ag59
ag4
aS'med'
p9178
aS'med'
p9179
aS'unacc'
p9180
aa(lp9181
S'low'
p9182
aS'med'
p9183
ag59
ag4
aS'med'
p9184
aS'high'
p9185
aS'unacc'
p9186
aa(lp9187
S'low'
p9188
aS'med'
p9189
ag59
ag4
aS'big'
p9190
aS'low'
p9191
aS'unacc'
p9192
aa(lp9193
S'low'
p9194
aS'med'
p9195
ag59
ag4
aS'big'
p9196
aS'med'
p9197
aS'unacc'
p9198
aa(lp9199
S'low'
p9200
aS'med'
p9201
ag59
ag4
aS'big'
p9202
aS'high'
p9203
aS'unacc'
p9204
aa(lp9205
S'low'
p9206
aS'med'
p9207
ag59
ag59
aS'small'
p9208
aS'low'
p9209
aS'unacc'
p9210
aa(lp9211
S'low'
p9212
aS'med'
p9213
ag59
ag59
aS'small'
p9214
aS'med'
p9215
aS'acc'
p9216
aa(lp9217
S'low'
p9218
aS'med'
p9219
ag59
ag59
aS'small'
p9220
aS'high'
p9221
aS'good'
p9222
aa(lp9223
S'low'
p9224
aS'med'
p9225
ag59
ag59
aS'med'
p9226
aS'low'
p9227
aS'unacc'
p9228
aa(lp9229
S'low'
p9230
aS'med'
p9231
ag59
ag59
aS'med'
p9232
aS'med'
p9233
aS'good'
p9234
aa(lp9235
S'low'
p9236
aS'med'
p9237
ag59
ag59
aS'med'
p9238
aS'high'
p9239
aS'vgood'
p9240
aa(lp9241
S'low'
p9242
aS'med'
p9243
ag59
ag59
aS'big'
p9244
aS'low'
p9245
aS'unacc'
p9246
aa(lp9247
S'low'
p9248
aS'med'
p9249
ag59
ag59
aS'big'
p9250
aS'med'
p9251
aS'good'
p9252
aa(lp9253
S'low'
p9254
aS'med'
p9255
ag59
ag59
aS'big'
p9256
aS'high'
p9257
aS'vgood'
p9258
aa(lp9259
S'low'
p9260
aS'med'
p9261
ag59
aS'more'
p9262
aS'small'
p9263
aS'low'
p9264
aS'unacc'
p9265
aa(lp9266
S'low'
p9267
aS'med'
p9268
ag59
aS'more'
p9269
aS'small'
p9270
aS'med'
p9271
aS'acc'
p9272
aa(lp9273
S'low'
p9274
aS'med'
p9275
ag59
aS'more'
p9276
aS'small'
p9277
aS'high'
p9278
aS'good'
p9279
aa(lp9280
S'low'
p9281
aS'med'
p9282
ag59
aS'more'
p9283
aS'med'
p9284
aS'low'
p9285
aS'unacc'
p9286
aa(lp9287
S'low'
p9288
aS'med'
p9289
ag59
aS'more'
p9290
aS'med'
p9291
aS'med'
p9292
aS'good'
p9293
aa(lp9294
S'low'
p9295
aS'med'
p9296
ag59
aS'more'
p9297
aS'med'
p9298
aS'high'
p9299
aS'vgood'
p9300
aa(lp9301
S'low'
p9302
aS'med'
p9303
ag59
aS'more'
p9304
aS'big'
p9305
aS'low'
p9306
aS'unacc'
p9307
aa(lp9308
S'low'
p9309
aS'med'
p9310
ag59
aS'more'
p9311
aS'big'
p9312
aS'med'
p9313
aS'good'
p9314
aa(lp9315
S'low'
p9316
aS'med'
p9317
ag59
aS'more'
p9318
aS'big'
p9319
aS'high'
p9320
aS'vgood'
p9321
aa(lp9322
S'low'
p9323
aS'med'
p9324
aS'5more'
p9325
ag4
aS'small'
p9326
aS'low'
p9327
aS'unacc'
p9328
aa(lp9329
S'low'
p9330
aS'med'
p9331
aS'5more'
p9332
ag4
aS'small'
p9333
aS'med'
p9334
aS'unacc'
p9335
aa(lp9336
S'low'
p9337
aS'med'
p9338
aS'5more'
p9339
ag4
aS'small'
p9340
aS'high'
p9341
aS'unacc'
p9342
aa(lp9343
S'low'
p9344
aS'med'
p9345
aS'5more'
p9346
ag4
aS'med'
p9347
aS'low'
p9348
aS'unacc'
p9349
aa(lp9350
S'low'
p9351
aS'med'
p9352
aS'5more'
p9353
ag4
aS'med'
p9354
aS'med'
p9355
aS'unacc'
p9356
aa(lp9357
S'low'
p9358
aS'med'
p9359
aS'5more'
p9360
ag4
aS'med'
p9361
aS'high'
p9362
aS'unacc'
p9363
aa(lp9364
S'low'
p9365
aS'med'
p9366
aS'5more'
p9367
ag4
aS'big'
p9368
aS'low'
p9369
aS'unacc'
p9370
aa(lp9371
S'low'
p9372
aS'med'
p9373
aS'5more'
p9374
ag4
aS'big'
p9375
aS'med'
p9376
aS'unacc'
p9377
aa(lp9378
S'low'
p9379
aS'med'
p9380
aS'5more'
p9381
ag4
aS'big'
p9382
aS'high'
p9383
aS'unacc'
p9384
aa(lp9385
S'low'
p9386
aS'med'
p9387
aS'5more'
p9388
ag59
aS'small'
p9389
aS'low'
p9390
aS'unacc'
p9391
aa(lp9392
S'low'
p9393
aS'med'
p9394
aS'5more'
p9395
ag59
aS'small'
p9396
aS'med'
p9397
aS'acc'
p9398
aa(lp9399
S'low'
p9400
aS'med'
p9401
aS'5more'
p9402
ag59
aS'small'
p9403
aS'high'
p9404
aS'good'
p9405
aa(lp9406
S'low'
p9407
aS'med'
p9408
aS'5more'
p9409
ag59
aS'med'
p9410
aS'low'
p9411
aS'unacc'
p9412
aa(lp9413
S'low'
p9414
aS'med'
p9415
aS'5more'
p9416
ag59
aS'med'
p9417
aS'med'
p9418
aS'good'
p9419
aa(lp9420
S'low'
p9421
aS'med'
p9422
aS'5more'
p9423
ag59
aS'med'
p9424
aS'high'
p9425
aS'vgood'
p9426
aa(lp9427
S'low'
p9428
aS'med'
p9429
aS'5more'
p9430
ag59
aS'big'
p9431
aS'low'
p9432
aS'unacc'
p9433
aa(lp9434
S'low'
p9435
aS'med'
p9436
aS'5more'
p9437
ag59
aS'big'
p9438
aS'med'
p9439
aS'good'
p9440
aa(lp9441
S'low'
p9442
aS'med'
p9443
aS'5more'
p9444
ag59
aS'big'
p9445
aS'high'
p9446
aS'vgood'
p9447
aa(lp9448
S'low'
p9449
aS'med'
p9450
aS'5more'
p9451
aS'more'
p9452
aS'small'
p9453
aS'low'
p9454
aS'unacc'
p9455
aa(lp9456
S'low'
p9457
aS'med'
p9458
aS'5more'
p9459
aS'more'
p9460
aS'small'
p9461
aS'med'
p9462
aS'acc'
p9463
aa(lp9464
S'low'
p9465
aS'med'
p9466
aS'5more'
p9467
aS'more'
p9468
aS'small'
p9469
aS'high'
p9470
aS'good'
p9471
aa(lp9472
S'low'
p9473
aS'med'
p9474
aS'5more'
p9475
aS'more'
p9476
aS'med'
p9477
aS'low'
p9478
aS'unacc'
p9479
aa(lp9480
S'low'
p9481
aS'med'
p9482
aS'5more'
p9483
aS'more'
p9484
aS'med'
p9485
aS'med'
p9486
aS'good'
p9487
aa(lp9488
S'low'
p9489
aS'med'
p9490
aS'5more'
p9491
aS'more'
p9492
aS'med'
p9493
aS'high'
p9494
aS'vgood'
p9495
aa(lp9496
S'low'
p9497
aS'med'
p9498
aS'5more'
p9499
aS'more'
p9500
aS'big'
p9501
aS'low'
p9502
aS'unacc'
p9503
aa(lp9504
S'low'
p9505
aS'med'
p9506
aS'5more'
p9507
aS'more'
p9508
aS'big'
p9509
aS'med'
p9510
aS'good'
p9511
aa(lp9512
S'low'
p9513
aS'med'
p9514
aS'5more'
p9515
aS'more'
p9516
aS'big'
p9517
aS'high'
p9518
aS'vgood'
p9519
aa(lp9520
S'low'
p9521
aS'low'
p9522
ag4
ag4
aS'small'
p9523
aS'low'
p9524
aS'unacc'
p9525
aa(lp9526
S'low'
p9527
aS'low'
p9528
ag4
ag4
aS'small'
p9529
aS'med'
p9530
aS'unacc'
p9531
aa(lp9532
S'low'
p9533
aS'low'
p9534
ag4
ag4
aS'small'
p9535
aS'high'
p9536
aS'unacc'
p9537
aa(lp9538
S'low'
p9539
aS'low'
p9540
ag4
ag4
aS'med'
p9541
aS'low'
p9542
aS'unacc'
p9543
aa(lp9544
S'low'
p9545
aS'low'
p9546
ag4
ag4
aS'med'
p9547
aS'med'
p9548
aS'unacc'
p9549
aa(lp9550
S'low'
p9551
aS'low'
p9552
ag4
ag4
aS'med'
p9553
aS'high'
p9554
aS'unacc'
p9555
aa(lp9556
S'low'
p9557
aS'low'
p9558
ag4
ag4
aS'big'
p9559
aS'low'
p9560
aS'unacc'
p9561
aa(lp9562
S'low'
p9563
aS'low'
p9564
ag4
ag4
aS'big'
p9565
aS'med'
p9566
aS'unacc'
p9567
aa(lp9568
S'low'
p9569
aS'low'
p9570
ag4
ag4
aS'big'
p9571
aS'high'
p9572
aS'unacc'
p9573
aa(lp9574
S'low'
p9575
aS'low'
p9576
ag4
ag59
aS'small'
p9577
aS'low'
p9578
aS'unacc'
p9579
aa(lp9580
S'low'
p9581
aS'low'
p9582
ag4
ag59
aS'small'
p9583
aS'med'
p9584
aS'acc'
p9585
aa(lp9586
S'low'
p9587
aS'low'
p9588
ag4
ag59
aS'small'
p9589
aS'high'
p9590
aS'good'
p9591
aa(lp9592
S'low'
p9593
aS'low'
p9594
ag4
ag59
aS'med'
p9595
aS'low'
p9596
aS'unacc'
p9597
aa(lp9598
S'low'
p9599
aS'low'
p9600
ag4
ag59
aS'med'
p9601
aS'med'
p9602
aS'acc'
p9603
aa(lp9604
S'low'
p9605
aS'low'
p9606
ag4
ag59
aS'med'
p9607
aS'high'
p9608
aS'good'
p9609
aa(lp9610
S'low'
p9611
aS'low'
p9612
ag4
ag59
aS'big'
p9613
aS'low'
p9614
aS'unacc'
p9615
aa(lp9616
S'low'
p9617
aS'low'
p9618
ag4
ag59
aS'big'
p9619
aS'med'
p9620
aS'good'
p9621
aa(lp9622
S'low'
p9623
aS'low'
p9624
ag4
ag59
aS'big'
p9625
aS'high'
p9626
aS'vgood'
p9627
aa(lp9628
S'low'
p9629
aS'low'
p9630
ag4
aS'more'
p9631
aS'small'
p9632
aS'low'
p9633
aS'unacc'
p9634
aa(lp9635
S'low'
p9636
aS'low'
p9637
ag4
aS'more'
p9638
aS'small'
p9639
aS'med'
p9640
aS'unacc'
p9641
aa(lp9642
S'low'
p9643
aS'low'
p9644
ag4
aS'more'
p9645
aS'small'
p9646
aS'high'
p9647
aS'unacc'
p9648
aa(lp9649
S'low'
p9650
aS'low'
p9651
ag4
aS'more'
p9652
aS'med'
p9653
aS'low'
p9654
aS'unacc'
p9655
aa(lp9656
S'low'
p9657
aS'low'
p9658
ag4
aS'more'
p9659
aS'med'
p9660
aS'med'
p9661
aS'acc'
p9662
aa(lp9663
S'low'
p9664
aS'low'
p9665
ag4
aS'more'
p9666
aS'med'
p9667
aS'high'
p9668
aS'good'
p9669
aa(lp9670
S'low'
p9671
aS'low'
p9672
ag4
aS'more'
p9673
aS'big'
p9674
aS'low'
p9675
aS'unacc'
p9676
aa(lp9677
S'low'
p9678
aS'low'
p9679
ag4
aS'more'
p9680
aS'big'
p9681
aS'med'
p9682
aS'good'
p9683
aa(lp9684
S'low'
p9685
aS'low'
p9686
ag4
aS'more'
p9687
aS'big'
p9688
aS'high'
p9689
aS'vgood'
p9690
aa(lp9691
S'low'
p9692
aS'low'
p9693
ag177
ag4
aS'small'
p9694
aS'low'
p9695
aS'unacc'
p9696
aa(lp9697
S'low'
p9698
aS'low'
p9699
ag177
ag4
aS'small'
p9700
aS'med'
p9701
aS'unacc'
p9702
aa(lp9703
S'low'
p9704
aS'low'
p9705
ag177
ag4
aS'small'
p9706
aS'high'
p9707
aS'unacc'
p9708
aa(lp9709
S'low'
p9710
aS'low'
p9711
ag177
ag4
aS'med'
p9712
aS'low'
p9713
aS'unacc'
p9714
aa(lp9715
S'low'
p9716
aS'low'
p9717
ag177
ag4
aS'med'
p9718
aS'med'
p9719
aS'unacc'
p9720
aa(lp9721
S'low'
p9722
aS'low'
p9723
ag177
ag4
aS'med'
p9724
aS'high'
p9725
aS'unacc'
p9726
aa(lp9727
S'low'
p9728
aS'low'
p9729
ag177
ag4
aS'big'
p9730
aS'low'
p9731
aS'unacc'
p9732
aa(lp9733
S'low'
p9734
aS'low'
p9735
ag177
ag4
aS'big'
p9736
aS'med'
p9737
aS'unacc'
p9738
aa(lp9739
S'low'
p9740
aS'low'
p9741
ag177
ag4
aS'big'
p9742
aS'high'
p9743
aS'unacc'
p9744
aa(lp9745
S'low'
p9746
aS'low'
p9747
ag177
ag59
aS'small'
p9748
aS'low'
p9749
aS'unacc'
p9750
aa(lp9751
S'low'
p9752
aS'low'
p9753
ag177
ag59
aS'small'
p9754
aS'med'
p9755
aS'acc'
p9756
aa(lp9757
S'low'
p9758
aS'low'
p9759
ag177
ag59
aS'small'
p9760
aS'high'
p9761
aS'good'
p9762
aa(lp9763
S'low'
p9764
aS'low'
p9765
ag177
ag59
aS'med'
p9766
aS'low'
p9767
aS'unacc'
p9768
aa(lp9769
S'low'
p9770
aS'low'
p9771
ag177
ag59
aS'med'
p9772
aS'med'
p9773
aS'acc'
p9774
aa(lp9775
S'low'
p9776
aS'low'
p9777
ag177
ag59
aS'med'
p9778
aS'high'
p9779
aS'good'
p9780
aa(lp9781
S'low'
p9782
aS'low'
p9783
ag177
ag59
aS'big'
p9784
aS'low'
p9785
aS'unacc'
p9786
aa(lp9787
S'low'
p9788
aS'low'
p9789
ag177
ag59
aS'big'
p9790
aS'med'
p9791
aS'good'
p9792
aa(lp9793
S'low'
p9794
aS'low'
p9795
ag177
ag59
aS'big'
p9796
aS'high'
p9797
aS'vgood'
p9798
aa(lp9799
S'low'
p9800
aS'low'
p9801
ag177
aS'more'
p9802
aS'small'
p9803
aS'low'
p9804
aS'unacc'
p9805
aa(lp9806
S'low'
p9807
aS'low'
p9808
ag177
aS'more'
p9809
aS'small'
p9810
aS'med'
p9811
aS'acc'
p9812
aa(lp9813
S'low'
p9814
aS'low'
p9815
ag177
aS'more'
p9816
aS'small'
p9817
aS'high'
p9818
aS'good'
p9819
aa(lp9820
S'low'
p9821
aS'low'
p9822
ag177
aS'more'
p9823
aS'med'
p9824
aS'low'
p9825
aS'unacc'
p9826
aa(lp9827
S'low'
p9828
aS'low'
p9829
ag177
aS'more'
p9830
aS'med'
p9831
aS'med'
p9832
aS'good'
p9833
aa(lp9834
S'low'
p9835
aS'low'
p9836
ag177
aS'more'
p9837
aS'med'
p9838
aS'high'
p9839
aS'vgood'
p9840
aa(lp9841
S'low'
p9842
aS'low'
p9843
ag177
aS'more'
p9844
aS'big'
p9845
aS'low'
p9846
aS'unacc'
p9847
aa(lp9848
S'low'
p9849
aS'low'
p9850
ag177
aS'more'
p9851
aS'big'
p9852
aS'med'
p9853
aS'good'
p9854
aa(lp9855
S'low'
p9856
aS'low'
p9857
ag177
aS'more'
p9858
aS'big'
p9859
aS'high'
p9860
aS'vgood'
p9861
aa(lp9862
S'low'
p9863
aS'low'
p9864
ag59
ag4
aS'small'
p9865
aS'low'
p9866
aS'unacc'
p9867
aa(lp9868
S'low'
p9869
aS'low'
p9870
ag59
ag4
aS'small'
p9871
aS'med'
p9872
aS'unacc'
p9873
aa(lp9874
S'low'
p9875
aS'low'
p9876
ag59
ag4
aS'small'
p9877
aS'high'
p9878
aS'unacc'
p9879
aa(lp9880
S'low'
p9881
aS'low'
p9882
ag59
ag4
aS'med'
p9883
aS'low'
p9884
aS'unacc'
p9885
aa(lp9886
S'low'
p9887
aS'low'
p9888
ag59
ag4
aS'med'
p9889
aS'med'
p9890
aS'unacc'
p9891
aa(lp9892
S'low'
p9893
aS'low'
p9894
ag59
ag4
aS'med'
p9895
aS'high'
p9896
aS'unacc'
p9897
aa(lp9898
S'low'
p9899
aS'low'
p9900
ag59
ag4
aS'big'
p9901
aS'low'
p9902
aS'unacc'
p9903
aa(lp9904
S'low'
p9905
aS'low'
p9906
ag59
ag4
aS'big'
p9907
aS'med'
p9908
aS'unacc'
p9909
aa(lp9910
S'low'
p9911
aS'low'
p9912
ag59
ag4
aS'big'
p9913
aS'high'
p9914
aS'unacc'
p9915
aa(lp9916
S'low'
p9917
aS'low'
p9918
ag59
ag59
aS'small'
p9919
aS'low'
p9920
aS'unacc'
p9921
aa(lp9922
S'low'
p9923
aS'low'
p9924
ag59
ag59
aS'small'
p9925
aS'med'
p9926
aS'acc'
p9927
aa(lp9928
S'low'
p9929
aS'low'
p9930
ag59
ag59
aS'small'
p9931
aS'high'
p9932
aS'good'
p9933
aa(lp9934
S'low'
p9935
aS'low'
p9936
ag59
ag59
aS'med'
p9937
aS'low'
p9938
aS'unacc'
p9939
aa(lp9940
S'low'
p9941
aS'low'
p9942
ag59
ag59
aS'med'
p9943
aS'med'
p9944
aS'good'
p9945
aa(lp9946
S'low'
p9947
aS'low'
p9948
ag59
ag59
aS'med'
p9949
aS'high'
p9950
aS'vgood'
p9951
aa(lp9952
S'low'
p9953
aS'low'
p9954
ag59
ag59
aS'big'
p9955
aS'low'
p9956
aS'unacc'
p9957
aa(lp9958
S'low'
p9959
aS'low'
p9960
ag59
ag59
aS'big'
p9961
aS'med'
p9962
aS'good'
p9963
aa(lp9964
S'low'
p9965
aS'low'
p9966
ag59
ag59
aS'big'
p9967
aS'high'
p9968
aS'vgood'
p9969
aa(lp9970
S'low'
p9971
aS'low'
p9972
ag59
aS'more'
p9973
aS'small'
p9974
aS'low'
p9975
aS'unacc'
p9976
aa(lp9977
S'low'
p9978
aS'low'
p9979
ag59
aS'more'
p9980
aS'small'
p9981
aS'med'
p9982
aS'acc'
p9983
aa(lp9984
S'low'
p9985
aS'low'
p9986
ag59
aS'more'
p9987
aS'small'
p9988
aS'high'
p9989
aS'good'
p9990
aa(lp9991
S'low'
p9992
aS'low'
p9993
ag59
aS'more'
p9994
aS'med'
p9995
aS'low'
p9996
aS'unacc'
p9997
aa(lp9998
S'low'
p9999
aS'low'
p10000
ag59
aS'more'
p10001
aS'med'
p10002
aS'med'
p10003
aS'good'
p10004
aa(lp10005
S'low'
p10006
aS'low'
p10007
ag59
aS'more'
p10008
aS'med'
p10009
aS'high'
p10010
aS'vgood'
p10011
aa(lp10012
S'low'
p10013
aS'low'
p10014
ag59
aS'more'
p10015
aS'big'
p10016
aS'low'
p10017
aS'unacc'
p10018
aa(lp10019
S'low'
p10020
aS'low'
p10021
ag59
aS'more'
p10022
aS'big'
p10023
aS'med'
p10024
aS'good'
p10025
aa(lp10026
S'low'
p10027
aS'low'
p10028
ag59
aS'more'
p10029
aS'big'
p10030
aS'high'
p10031
aS'vgood'
p10032
aa(lp10033
S'low'
p10034
aS'low'
p10035
aS'5more'
p10036
ag4
aS'small'
p10037
aS'low'
p10038
aS'unacc'
p10039
aa(lp10040
S'low'
p10041
aS'low'
p10042
aS'5more'
p10043
ag4
aS'small'
p10044
aS'med'
p10045
aS'unacc'
p10046
aa(lp10047
S'low'
p10048
aS'low'
p10049
aS'5more'
p10050
ag4
aS'small'
p10051
aS'high'
p10052
aS'unacc'
p10053
aa(lp10054
S'low'
p10055
aS'low'
p10056
aS'5more'
p10057
ag4
aS'med'
p10058
aS'low'
p10059
aS'unacc'
p10060
aa(lp10061
S'low'
p10062
aS'low'
p10063
aS'5more'
p10064
ag4
aS'med'
p10065
aS'med'
p10066
aS'unacc'
p10067
aa(lp10068
S'low'
p10069
aS'low'
p10070
aS'5more'
p10071
ag4
aS'med'
p10072
aS'high'
p10073
aS'unacc'
p10074
aa(lp10075
S'low'
p10076
aS'low'
p10077
aS'5more'
p10078
ag4
aS'big'
p10079
aS'low'
p10080
aS'unacc'
p10081
aa(lp10082
S'low'
p10083
aS'low'
p10084
aS'5more'
p10085
ag4
aS'big'
p10086
aS'med'
p10087
aS'unacc'
p10088
aa(lp10089
S'low'
p10090
aS'low'
p10091
aS'5more'
p10092
ag4
aS'big'
p10093
aS'high'
p10094
aS'unacc'
p10095
aa(lp10096
S'low'
p10097
aS'low'
p10098
aS'5more'
p10099
ag59
aS'small'
p10100
aS'low'
p10101
aS'unacc'
p10102
aa(lp10103
S'low'
p10104
aS'low'
p10105
aS'5more'
p10106
ag59
aS'small'
p10107
aS'med'
p10108
aS'acc'
p10109
aa(lp10110
S'low'
p10111
aS'low'
p10112
aS'5more'
p10113
ag59
aS'small'
p10114
aS'high'
p10115
aS'good'
p10116
aa(lp10117
S'low'
p10118
aS'low'
p10119
aS'5more'
p10120
ag59
aS'med'
p10121
aS'low'
p10122
aS'unacc'
p10123
aa(lp10124
S'low'
p10125
aS'low'
p10126
aS'5more'
p10127
ag59
aS'med'
p10128
aS'med'
p10129
aS'good'
p10130
aa(lp10131
S'low'
p10132
aS'low'
p10133
aS'5more'
p10134
ag59
aS'med'
p10135
aS'high'
p10136
aS'vgood'
p10137
aa(lp10138
S'low'
p10139
aS'low'
p10140
aS'5more'
p10141
ag59
aS'big'
p10142
aS'low'
p10143
aS'unacc'
p10144
aa(lp10145
S'low'
p10146
aS'low'
p10147
aS'5more'
p10148
ag59
aS'big'
p10149
aS'med'
p10150
aS'good'
p10151
aa(lp10152
S'low'
p10153
aS'low'
p10154
aS'5more'
p10155
ag59
aS'big'
p10156
aS'high'
p10157
aS'vgood'
p10158
aa(lp10159
S'low'
p10160
aS'low'
p10161
aS'5more'
p10162
aS'more'
p10163
aS'small'
p10164
aS'low'
p10165
aS'unacc'
p10166
aa(lp10167
S'low'
p10168
aS'low'
p10169
aS'5more'
p10170
aS'more'
p10171
aS'small'
p10172
aS'med'
p10173
aS'acc'
p10174
aa(lp10175
S'low'
p10176
aS'low'
p10177
aS'5more'
p10178
aS'more'
p10179
aS'small'
p10180
aS'high'
p10181
aS'good'
p10182
aa(lp10183
S'low'
p10184
aS'low'
p10185
aS'5more'
p10186
aS'more'
p10187
aS'med'
p10188
aS'low'
p10189
aS'unacc'
p10190
aa(lp10191
S'low'
p10192
aS'low'
p10193
aS'5more'
p10194
aS'more'
p10195
aS'med'
p10196
aS'med'
p10197
aS'good'
p10198
aa(lp10199
S'low'
p10200
aS'low'
p10201
aS'5more'
p10202
aS'more'
p10203
aS'med'
p10204
aS'high'
p10205
aS'vgood'
p10206
aa(lp10207
S'low'
p10208
aS'low'
p10209
aS'5more'
p10210
aS'more'
p10211
aS'big'
p10212
aS'low'
p10213
aS'unacc'
p10214
aa(lp10215
S'low'
p10216
aS'low'
p10217
aS'5more'
p10218
aS'more'
p10219
aS'big'
p10220
aS'med'
p10221
aS'good'
p10222
aa(lp10223
S'low'
p10224
aS'low'
p10225
aS'5more'
p10226
aS'more'
p10227
aS'big'
p10228
aS'high'
p10229
aS'vgood'
p10230
aa.