(lp0
(lp1
S'vhigh'
p2
aS'high'
p3
aS'2'
p4
aS'4'
p5
aS'med'
p6
aS'med'
p7
aS'unacc'
p8
aa(lp9
S'vhigh'
p10
aS'high'
p11
ag4
ag5
aS'med'
p12
aS'high'
p13
aS'unacc'
p14
aa(lp15
S'vhigh'
p16
aS'high'
p17
ag4
ag5
aS'big'
p18
aS'low'
p19
aS'unacc'
p20
aa(lp21
S'vhigh'
p22
aS'high'
p23
ag4
ag5
aS'big'
p24
aS'med'
p25
aS'unacc'
p26
aa(lp27
S'vhigh'
p28
aS'high'
p29
ag4
ag5
aS'big'
p30
aS'high'
p31
aS'unacc'
p32
aa(lp33
S'vhigh'
p34
aS'high'
p35
ag4
aS'more'
p36
aS'small'
p37
aS'low'
p38
aS'unacc'
p39
aa(lp40
S'vhigh'
p41
aS'high'
p42
ag4
aS'more'
p43
aS'small'
p44
aS'med'
p45
aS'unacc'
p46
aa(lp47
S'vhigh'
p48
aS'high'
p49
ag4
aS'more'
p50
aS'small'
p51
aS'high'
p52
aS'unacc'
p53
aa(lp54
S'vhigh'
p55
aS'high'
p56
ag4
aS'more'
p57
aS'med'
p58
aS'low'
p59
aS'unacc'
p60
aa(lp61
S'vhigh'
p62
aS'high'
p63
ag4
aS'more'
p64
aS'med'
p65
aS'med'
p66
aS'unacc'
p67
aa(lp68
S'vhigh'
p69
aS'high'
p70
ag4
aS'more'
p71
aS'med'
p72
aS'high'
p73
aS'unacc'
p74
aa(lp75
S'vhigh'
p76
aS'high'
p77
ag4
aS'more'
p78
aS'big'
p79
aS'low'
p80
aS'unacc'
p81
aa(lp82
S'vhigh'
p83
aS'high'
p84
ag4
aS'more'
p85
aS'big'
p86
aS'med'
p87
aS'unacc'
p88
aa(lp89
S'vhigh'
p90
aS'high'
p91
ag4
aS'more'
p92
aS'big'
p93
aS'high'
p94
aS'unacc'
p95
aa(lp96
S'vhigh'
p97
aS'high'
p98
aS'3'
p99
ag4
aS'small'
p100
aS'low'
p101
aS'unacc'
p102
aa(lp103
S'vhigh'
p104
aS'high'
p105
ag99
ag4
aS'small'
p106
aS'med'
p107
aS'unacc'
p108
aa(lp109
S'vhigh'
p110
aS'high'
p111
ag99
ag4
aS'small'
p112
aS'high'
p113
aS'unacc'
p114
aa(lp115
S'vhigh'
p116
aS'high'
p117
ag99
ag4
aS'med'
p118
aS'low'
p119
aS'unacc'
p120
aa(lp121
S'vhigh'
p122
aS'high'
p123
ag99
ag4
aS'med'
p124
aS'med'
p125
aS'unacc'
p126
aa(lp127
S'vhigh'
p128
aS'high'
p129
ag99
ag4
aS'med'
p130
aS'high'
p131
aS'unacc'
p132
aa(lp133
S'vhigh'
p134
aS'high'
p135
ag99
ag4
aS'big'
p136
aS'low'
p137
aS'unacc'
p138
aa(lp139
S'vhigh'
p140
aS'high'
p141
ag99
ag4
aS'big'
p142
aS'med'
p143
aS'unacc'
p144
aa(lp145
S'vhigh'
p146
aS'high'
p147
ag99
ag4
aS'big'
p148
aS'high'
p149
aS'unacc'
p150
aa(lp151
S'vhigh'
p152
aS'high'
p153
ag99
ag5
aS'small'
p154
aS'low'
p155
aS'unacc'
p156
aa(lp157
S'vhigh'
p158
aS'high'
p159
ag99
ag5
aS'small'
p160
aS'med'
p161
aS'unacc'
p162
aa(lp163
S'vhigh'
p164
aS'high'
p165
ag99
ag5
aS'small'
p166
aS'high'
p167
aS'unacc'
p168
aa(lp169
S'vhigh'
p170
aS'high'
p171
ag99
ag5
aS'med'
p172
aS'low'
p173
aS'unacc'
p174
aa(lp175
S'vhigh'
p176
aS'high'
p177
ag99
ag5
aS'med'
p178
aS'med'
p179
aS'unacc'
p180
aa(lp181
S'vhigh'
p182
aS'high'
p183
ag99
ag5
aS'med'
p184
aS'high'
p185
aS'unacc'
p186
aa(lp187
S'vhigh'
p188
aS'high'
p189
ag99
ag5
aS'big'
p190
aS'low'
p191
aS'unacc'
p192
aa(lp193
S'vhigh'
p194
aS'high'
p195
ag99
ag5
aS'big'
p196
aS'med'
p197
aS'unacc'
p198
aa(lp199
S'vhigh'
p200
aS'high'
p201
ag99
ag5
aS'big'
p202
aS'high'
p203
aS'unacc'
p204
aa(lp205
S'vhigh'
p206
aS'high'
p207
ag99
aS'more'
p208
aS'small'
p209
aS'low'
p210
aS'unacc'
p211
aa(lp212
S'vhigh'
p213
aS'high'
p214
ag99
aS'more'
p215
aS'small'
p216
aS'med'
p217
aS'unacc'
p218
aa(lp219
S'vhigh'
p220
aS'high'
p221
ag99
aS'more'
p222
aS'small'
p223
aS'high'
p224
aS'unacc'
p225
aa(lp226
S'vhigh'
p227
aS'high'
p228
ag99
aS'more'
p229
aS'med'
p230
aS'low'
p231
aS'unacc'
p232
aa(lp233
S'vhigh'
p234
aS'high'
p235
ag99
aS'more'
p236
aS'med'
p237
aS'med'
p238
aS'unacc'
p239
aa(lp240
S'vhigh'
p241
aS'high'
p242
ag99
aS'more'
p243
aS'med'
p244
aS'high'
p245
aS'unacc'
p246
aa(lp247
S'vhigh'
p248
aS'high'
p249
ag99
aS'more'
p250
aS'big'
p251
aS'low'
p252
aS'unacc'
p253
aa(lp254
S'vhigh'
p255
aS'high'
p256
ag99
aS'more'
p257
aS'big'
p258
aS'med'
p259
aS'unacc'
p260
aa(lp261
S'vhigh'
p262
aS'high'
p263
ag99
aS'more'
p264
aS'big'
p265
aS'high'
p266
aS'unacc'
p267
aa(lp268
S'vhigh'
p269
aS'high'
p270
ag5
ag4
aS'small'
p271
aS'low'
p272
aS'unacc'
p273
aa(lp274
S'vhigh'
p275
aS'high'
p276
ag5
ag4
aS'small'
p277
aS'med'
p278
aS'unacc'
p279
aa(lp280
S'vhigh'
p281
aS'high'
p282
ag5
ag4
aS'small'
p283
aS'high'
p284
aS'unacc'
p285
aa(lp286
S'vhigh'
p287
aS'high'
p288
ag5
ag4
aS'med'
p289
aS'low'
p290
aS'unacc'
p291
aa(lp292
S'vhigh'
p293
aS'high'
p294
ag5
ag4
aS'med'
p295
aS'med'
p296
aS'unacc'
p297
aa(lp298
S'vhigh'
p299
aS'high'
p300
ag5
ag4
aS'med'
p301
aS'high'
p302
aS'unacc'
p303
aa(lp304
S'vhigh'
p305
aS'high'
p306
ag5
ag4
aS'big'
p307
aS'low'
p308
aS'unacc'
p309
aa(lp310
S'vhigh'
p311
aS'high'
p312
ag5
ag4
aS'big'
p313
aS'med'
p314
aS'unacc'
p315
aa(lp316
S'vhigh'
p317
aS'high'
p318
ag5
ag4
aS'big'
p319
aS'high'
p320
aS'unacc'
p321
aa(lp322
S'vhigh'
p323
aS'high'
p324
ag5
ag5
aS'small'
p325
aS'low'
p326
aS'unacc'
p327
aa(lp328
S'vhigh'
p329
aS'high'
p330
ag5
ag5
aS'small'
p331
aS'med'
p332
aS'unacc'
p333
aa(lp334
S'vhigh'
p335
aS'high'
p336
ag5
ag5
aS'small'
p337
aS'high'
p338
aS'unacc'
p339
aa(lp340
S'vhigh'
p341
aS'high'
p342
ag5
ag5
aS'med'
p343
aS'low'
p344
aS'unacc'
p345
aa(lp346
S'vhigh'
p347
aS'high'
p348
ag5
ag5
aS'med'
p349
aS'med'
p350
aS'unacc'
p351
aa(lp352
S'vhigh'
p353
aS'high'
p354
ag5
ag5
aS'med'
p355
aS'high'
p356
aS'unacc'
p357
aa(lp358
S'vhigh'
p359
aS'high'
p360
ag5
ag5
aS'big'
p361
aS'low'
p362
aS'unacc'
p363
aa(lp364
S'vhigh'
p365
aS'high'
p366
ag5
ag5
aS'big'
p367
aS'med'
p368
aS'unacc'
p369
aa(lp370
S'vhigh'
p371
aS'high'
p372
ag5
ag5
aS'big'
p373
aS'high'
p374
aS'unacc'
p375
aa(lp376
S'vhigh'
p377
aS'high'
p378
ag5
aS'more'
p379
aS'small'
p380
aS'low'
p381
aS'unacc'
p382
aa(lp383
S'vhigh'
p384
aS'high'
p385
ag5
aS'more'
p386
aS'small'
p387
aS'med'
p388
aS'unacc'
p389
aa(lp390
S'vhigh'
p391
aS'high'
p392
ag5
aS'more'
p393
aS'small'
p394
aS'high'
p395
aS'unacc'
p396
aa(lp397
S'vhigh'
p398
aS'high'
p399
ag5
aS'more'
p400
aS'med'
p401
aS'low'
p402
aS'unacc'
p403
aa(lp404
S'vhigh'
p405
aS'high'
p406
ag5
aS'more'
p407
aS'med'
p408
aS'med'
p409
aS'unacc'
p410
aa(lp411
S'vhigh'
p412
aS'high'
p413
ag5
aS'more'
p414
aS'med'
p415
aS'high'
p416
aS'unacc'
p417
aa(lp418
S'vhigh'
p419
aS'high'
p420
ag5
aS'more'
p421
aS'big'
p422
aS'low'
p423
aS'unacc'
p424
aa(lp425
S'vhigh'
p426
aS'high'
p427
ag5
aS'more'
p428
aS'big'
p429
aS'med'
p430
aS'unacc'
p431
aa(lp432
S'vhigh'
p433
aS'high'
p434
ag5
aS'more'
p435
aS'big'
p436
aS'high'
p437
aS'unacc'
p438
aa(lp439
S'vhigh'
p440
aS'high'
p441
aS'5more'
p442
ag4
aS'small'
p443
aS'low'
p444
aS'unacc'
p445
aa(lp446
S'vhigh'
p447
aS'high'
p448
aS'5more'
p449
ag4
aS'small'
p450
aS'med'
p451
aS'unacc'
p452
aa(lp453
S'vhigh'
p454
aS'high'
p455
aS'5more'
p456
ag4
aS'small'
p457
aS'high'
p458
aS'unacc'
p459
aa(lp460
S'vhigh'
p461
aS'high'
p462
aS'5more'
p463
ag4
aS'med'
p464
aS'low'
p465
aS'unacc'
p466
aa(lp467
S'vhigh'
p468
aS'high'
p469
aS'5more'
p470
ag4
aS'med'
p471
aS'med'
p472
aS'unacc'
p473
aa(lp474
S'vhigh'
p475
aS'high'
p476
aS'5more'
p477
ag4
aS'med'
p478
aS'high'
p479
aS'unacc'
p480
aa(lp481
S'vhigh'
p482
aS'high'
p483
aS'5more'
p484
ag4
aS'big'
p485
aS'low'
p486
aS'unacc'
p487
aa(lp488
S'vhigh'
p489
aS'high'
p490
aS'5more'
p491
ag4
aS'big'
p492
aS'med'
p493
aS'unacc'
p494
aa(lp495
S'vhigh'
p496
aS'high'
p497
aS'5more'
p498
ag4
aS'big'
p499
aS'high'
p500
aS'unacc'
p501
aa(lp502
S'vhigh'
p503
aS'high'
p504
aS'5more'
p505
ag5
aS'small'
p506
aS'low'
p507
aS'unacc'
p508
aa(lp509
S'vhigh'
p510
aS'high'
p511
aS'5more'
p512
ag5
aS'small'
p513
aS'med'
p514
aS'unacc'
p515
aa(lp516
S'vhigh'
p517
aS'high'
p518
aS'5more'
p519
ag5
aS'small'
p520
aS'high'
p521
aS'unacc'
p522
aa(lp523
S'vhigh'
p524
aS'high'
p525
aS'5more'
p526
ag5
aS'med'
p527
aS'low'
p528
aS'unacc'
p529
aa(lp530
S'vhigh'
p531
aS'high'
p532
aS'5more'
p533
ag5
aS'med'
p534
aS'med'
p535
aS'unacc'
p536
aa(lp537
S'vhigh'
p538
aS'high'
p539
aS'5more'
p540
ag5
aS'med'
p541
aS'high'
p542
aS'unacc'
p543
aa(lp544
S'vhigh'
p545
aS'high'
p546
aS'5more'
p547
ag5
aS'big'
p548
aS'low'
p549
aS'unacc'
p550
aa(lp551
S'vhigh'
p552
aS'high'
p553
aS'5more'
p554
ag5
aS'big'
p555
aS'med'
p556
aS'unacc'
p557
aa(lp558
S'vhigh'
p559
aS'high'
p560
aS'5more'
p561
ag5
aS'big'
p562
aS'high'
p563
aS'unacc'
p564
aa(lp565
S'vhigh'
p566
aS'high'
p567
aS'5more'
p568
aS'more'
p569
aS'small'
p570
aS'low'
p571
aS'unacc'
p572
aa(lp573
S'vhigh'
p574
aS'high'
p575
aS'5more'
p576
aS'more'
p577
aS'small'
p578
aS'med'
p579
aS'unacc'
p580
aa(lp581
S'vhigh'
p582
aS'high'
p583
aS'5more'
p584
aS'more'
p585
aS'small'
p586
aS'high'
p587
aS'unacc'
p588
aa(lp589
S'vhigh'
p590
aS'high'
p591
aS'5more'
p592
aS'more'
p593
aS'med'
p594
aS'low'
p595
aS'unacc'
p596
aa(lp597
S'vhigh'
p598
aS'high'
p599
aS'5more'
p600
aS'more'
p601
aS'med'
p602
aS'med'
p603
aS'unacc'
p604
aa(lp605
S'vhigh'
p606
aS'high'
p607
aS'5more'
p608
aS'more'
p609
aS'med'
p610
aS'high'
p611
aS'unacc'
p612
aa(lp613
S'vhigh'
p614
aS'high'
p615
aS'5more'
p616
aS'more'
p617
aS'big'
p618
aS'low'
p619
aS'unacc'
p620
aa(lp621
S'vhigh'
p622
aS'high'
p623
aS'5more'
p624
aS'more'
p625
aS'big'
p626
aS'med'
p627
aS'unacc'
p628
aa(lp629
S'vhigh'
p630
aS'high'
p631
aS'5more'
p632
aS'more'
p633
aS'big'
p634
aS'high'
p635
aS'unacc'
p636
aa(lp637
S'vhigh'
p638
aS'med'
p639
ag4
ag4
aS'small'
p640
aS'low'
p641
aS'unacc'
p642
aa(lp643
S'vhigh'
p644
aS'med'
p645
ag4
ag4
aS'small'
p646
aS'med'
p647
aS'unacc'
p648
aa(lp649
S'vhigh'
p650
aS'med'
p651
ag4
ag4
aS'small'
p652
aS'high'
p653
aS'unacc'
p654
aa(lp655
S'vhigh'
p656
aS'med'
p657
ag4
ag4
aS'med'
p658
aS'low'
p659
aS'unacc'
p660
aa(lp661
S'vhigh'
p662
aS'med'
p663
ag4
ag4
aS'med'
p664
aS'med'
p665
aS'unacc'
p666
aa(lp667
S'vhigh'
p668
aS'med'
p669
ag4
ag4
aS'med'
p670
aS'high'
p671
aS'unacc'
p672
aa(lp673
S'vhigh'
p674
aS'med'
p675
ag4
ag4
aS'big'
p676
aS'low'
p677
aS'unacc'
p678
aa(lp679
S'vhigh'
p680
aS'med'
p681
ag4
ag4
aS'big'
p682
aS'med'
p683
aS'unacc'
p684
aa(lp685
S'vhigh'
p686
aS'med'
p687
ag4
ag4
aS'big'
p688
aS'high'
p689
aS'unacc'
p690
aa(lp691
S'vhigh'
p692
aS'med'
p693
ag4
ag5
aS'small'
p694
aS'low'
p695
aS'unacc'
p696
aa(lp697
S'vhigh'
p698
aS'med'
p699
ag4
ag5
aS'small'
p700
aS'med'
p701
aS'unacc'
p702
aa(lp703
S'vhigh'
p704
aS'med'
p705
ag4
ag5
aS'med'
p706
aS'low'
p707
aS'unacc'
p708
aa(lp709
S'vhigh'
p710
aS'med'
p711
ag4
ag5
aS'med'
p712
aS'med'
p713
aS'unacc'
p714
aa(lp715
S'vhigh'
p716
aS'med'
p717
ag4
ag5
aS'big'
p718
aS'low'
p719
aS'unacc'
p720
aa(lp721
S'vhigh'
p722
aS'med'
p723
ag4
aS'more'
p724
aS'small'
p725
aS'low'
p726
aS'unacc'
p727
aa(lp728
S'vhigh'
p729
aS'med'
p730
ag4
aS'more'
p731
aS'small'
p732
aS'med'
p733
aS'unacc'
p734
aa(lp735
S'vhigh'
p736
aS'med'
p737
ag4
aS'more'
p738
aS'small'
p739
aS'high'
p740
aS'unacc'
p741
aa(lp742
S'vhigh'
p743
aS'med'
p744
ag4
aS'more'
p745
aS'med'
p746
aS'low'
p747
aS'unacc'
p748
aa(lp749
S'vhigh'
p750
aS'med'
p751
ag4
aS'more'
p752
aS'med'
p753
aS'med'
p754
aS'unacc'
p755
aa(lp756
S'vhigh'
p757
aS'med'
p758
ag4
aS'more'
p759
aS'big'
p760
aS'low'
p761
aS'unacc'
p762
aa(lp763
S'vhigh'
p764
aS'med'
p765
ag99
ag4
aS'small'
p766
aS'low'
p767
aS'unacc'
p768
aa(lp769
S'vhigh'
p770
aS'med'
p771
ag99
ag4
aS'small'
p772
aS'med'
p773
aS'unacc'
p774
aa(lp775
S'vhigh'
p776
aS'med'
p777
ag99
ag4
aS'small'
p778
aS'high'
p779
aS'unacc'
p780
aa(lp781
S'vhigh'
p782
aS'med'
p783
ag99
ag4
aS'med'
p784
aS'low'
p785
aS'unacc'
p786
aa(lp787
S'vhigh'
p788
aS'med'
p789
ag99
ag4
aS'med'
p790
aS'med'
p791
aS'unacc'
p792
aa(lp793
S'vhigh'
p794
aS'med'
p795
ag99
ag4
aS'med'
p796
aS'high'
p797
aS'unacc'
p798
aa(lp799
S'vhigh'
p800
aS'med'
p801
ag99
ag4
aS'big'
p802
aS'low'
p803
aS'unacc'
p804
aa(lp805
S'vhigh'
p806
aS'med'
p807
ag99
ag4
aS'big'
p808
aS'med'
p809
aS'unacc'
p810
aa(lp811
S'vhigh'
p812
aS'med'
p813
ag99
ag4
aS'big'
p814
aS'high'
p815
aS'unacc'
p816
aa(lp817
S'vhigh'
p818
aS'med'
p819
ag99
ag5
aS'small'
p820
aS'low'
p821
aS'unacc'
p822
aa(lp823
S'vhigh'
p824
aS'med'
p825
ag99
ag5
aS'small'
p826
aS'med'
p827
aS'unacc'
p828
aa(lp829
S'vhigh'
p830
aS'med'
p831
ag99
ag5
aS'med'
p832
aS'low'
p833
aS'unacc'
p834
aa(lp835
S'vhigh'
p836
aS'med'
p837
ag99
ag5
aS'med'
p838
aS'med'
p839
aS'unacc'
p840
aa(lp841
S'vhigh'
p842
aS'med'
p843
ag99
ag5
aS'big'
p844
aS'low'
p845
aS'unacc'
p846
aa(lp847
S'vhigh'
p848
aS'med'
p849
ag99
aS'more'
p850
aS'small'
p851
aS'low'
p852
aS'unacc'
p853
aa(lp854
S'vhigh'
p855
aS'med'
p856
ag99
aS'more'
p857
aS'small'
p858
aS'med'
p859
aS'unacc'
p860
aa(lp861
S'vhigh'
p862
aS'med'
p863
ag99
aS'more'
p864
aS'med'
p865
aS'low'
p866
aS'unacc'
p867
aa(lp868
S'vhigh'
p869
aS'med'
p870
ag99
aS'more'
p871
aS'big'
p872
aS'low'
p873
aS'unacc'
p874
aa(lp875
S'vhigh'
p876
aS'med'
p877
ag5
ag4
aS'small'
p878
aS'low'
p879
aS'unacc'
p880
aa(lp881
S'vhigh'
p882
aS'med'
p883
ag5
ag4
aS'small'
p884
aS'med'
p885
aS'unacc'
p886
aa(lp887
S'vhigh'
p888
aS'med'
p889
ag5
ag4
aS'small'
p890
aS'high'
p891
aS'unacc'
p892
aa(lp893
S'vhigh'
p894
aS'med'
p895
ag5
ag4
aS'med'
p896
aS'low'
p897
aS'unacc'
p898
aa(lp899
S'vhigh'
p900
aS'med'
p901
ag5
ag4
aS'med'
p902
aS'med'
p903
aS'unacc'
p904
aa(lp905
S'vhigh'
p906
aS'med'
p907
ag5
ag4
aS'med'
p908
aS'high'
p909
aS'unacc'
p910
aa(lp911
S'vhigh'
p912
aS'med'
p913
ag5
ag4
aS'big'
p914
aS'low'
p915
aS'unacc'
p916
aa(lp917
S'vhigh'
p918
aS'med'
p919
ag5
ag4
aS'big'
p920
aS'med'
p921
aS'unacc'
p922
aa(lp923
S'vhigh'
p924
aS'med'
p925
ag5
ag4
aS'big'
p926
aS'high'
p927
aS'unacc'
p928
aa(lp929
S'vhigh'
p930
aS'med'
p931
ag5
ag5
aS'small'
p932
aS'low'
p933
aS'unacc'
p934
aa(lp935
S'vhigh'
p936
aS'med'
p937
ag5
ag5
aS'small'
p938
aS'med'
p939
aS'unacc'
p940
aa(lp941
S'vhigh'
p942
aS'med'
p943
ag5
ag5
aS'med'
p944
aS'low'
p945
aS'unacc'
p946
aa(lp947
S'vhigh'
p948
aS'med'
p949
ag5
ag5
aS'big'
p950
aS'low'
p951
aS'unacc'
p952
aa(lp953
S'vhigh'
p954
aS'med'
p955
ag5
aS'more'
p956
aS'small'
p957
aS'low'
p958
aS'unacc'
p959
aa(lp960
S'vhigh'
p961
aS'med'
p962
ag5
aS'more'
p963
aS'small'
p964
aS'med'
p965
aS'unacc'
p966
aa(lp967
S'vhigh'
p968
aS'med'
p969
ag5
aS'more'
p970
aS'med'
p971
aS'low'
p972
aS'unacc'
p973
aa(lp974
S'vhigh'
p975
aS'med'
p976
ag5
aS'more'
p977
aS'big'
p978
aS'low'
p979
aS'unacc'
p980
aa(lp981
S'vhigh'
p982
aS'med'
p983
aS'5more'
p984
ag4
aS'small'
p985
aS'low'
p986
aS'unacc'
p987
aa(lp988
S'vhigh'
p989
aS'med'
p990
aS'5more'
p991
ag4
aS'small'
p992
aS'med'
p993
aS'unacc'
p994
aa(lp995
S'vhigh'
p996
aS'med'
p997
aS'5more'
p998
ag4
aS'small'
p999
aS'high'
p1000
aS'unacc'
p1001
aa(lp1002
S'vhigh'
p1003
aS'med'
p1004
aS'5more'
p1005
ag4
aS'med'
p1006
aS'low'
p1007
aS'unacc'
p1008
aa(lp1009
S'vhigh'
p1010
aS'med'
p1011
aS'5more'
p1012
ag4
aS'med'
p1013
aS'med'
p1014
aS'unacc'
p1015
aa(lp1016
S'vhigh'
p1017
aS'med'
p1018
aS'5more'
p1019
ag4
aS'med'
p1020
aS'high'
p1021
aS'unacc'
p1022
aa(lp1023
S'vhigh'
p1024
aS'med'
p1025
aS'5more'
p1026
ag4
aS'big'
p1027
aS'low'
p1028
aS'unacc'
p1029
aa(lp1030
S'vhigh'
p1031
aS'med'
p1032
aS'5more'
p1033
ag4
aS'big'
p1034
aS'med'
p1035
aS'unacc'
p1036
aa(lp1037
S'vhigh'
p1038
aS'med'
p1039
aS'5more'
p1040
ag4
aS'big'
p1041
aS'high'
p1042
aS'unacc'
p1043
aa(lp1044
S'vhigh'
p1045
aS'med'
p1046
aS'5more'
p1047
ag5
aS'small'
p1048
aS'low'
p1049
aS'unacc'
p1050
aa(lp1051
S'vhigh'
p1052
aS'med'
p1053
aS'5more'
p1054
ag5
aS'small'
p1055
aS'med'
p1056
aS'unacc'
p1057
aa(lp1058
S'vhigh'
p1059
aS'med'
p1060
aS'5more'
p1061
ag5
aS'med'
p1062
aS'low'
p1063
aS'unacc'
p1064
aa(lp1065
S'vhigh'
p1066
aS'med'
p1067
aS'5more'
p1068
ag5
aS'big'
p1069
aS'low'
p1070
aS'unacc'
p1071
aa(lp1072
S'vhigh'
p1073
aS'med'
p1074
aS'5more'
p1075
aS'more'
p1076
aS'small'
p1077
aS'low'
p1078
aS'unacc'
p1079
aa(lp1080
S'vhigh'
p1081
aS'med'
p1082
aS'5more'
p1083
aS'more'
p1084
aS'small'
p1085
aS'med'
p1086
aS'unacc'
p1087
aa(lp1088
S'vhigh'
p1089
aS'med'
p1090
aS'5more'
p1091
aS'more'
p1092
aS'med'
p1093
aS'low'
p1094
aS'unacc'
p1095
aa(lp1096
S'vhigh'
p1097
aS'med'
p1098
aS'5more'
p1099
aS'more'
p1100
aS'big'
p1101
aS'low'
p1102
aS'unacc'
p1103
aa(lp1104
S'vhigh'
p1105
aS'low'
p1106
ag4
ag4
aS'small'
p1107
aS'low'
p1108
aS'unacc'
p1109
aa(lp1110
S'vhigh'
p1111
aS'low'
p1112
ag4
ag4
aS'small'
p1113
aS'med'
p1114
aS'unacc'
p1115
aa(lp1116
S'vhigh'
p1117
aS'low'
p1118
ag4
ag4
aS'small'
p1119
aS'high'
p1120
aS'unacc'
p1121
aa(lp1122
S'vhigh'
p1123
aS'low'
p1124
ag4
ag4
aS'med'
p1125
aS'low'
p1126
aS'unacc'
p1127
aa(lp1128
S'vhigh'
p1129
aS'low'
p1130
ag4
ag4
aS'med'
p1131
aS'med'
p1132
aS'unacc'
p1133
aa(lp1134
S'vhigh'
p1135
aS'low'
p1136
ag4
ag4
aS'med'
p1137
aS'high'
p1138
aS'unacc'
p1139
aa(lp1140
S'vhigh'
p1141
aS'low'
p1142
ag4
ag4
aS'big'
p1143
aS'low'
p1144
aS'unacc'
p1145
aa(lp1146
S'vhigh'
p1147
aS'low'
p1148
ag4
ag4
aS'big'
p1149
aS'med'
p1150
aS'unacc'
p1151
aa(lp1152
S'vhigh'
p1153
aS'low'
p1154
ag4
ag4
aS'big'
p1155
aS'high'
p1156
aS'unacc'
p1157
aa(lp1158
S'vhigh'
p1159
aS'low'
p1160
ag4
ag5
aS'small'
p1161
aS'low'
p1162
aS'unacc'
p1163
aa(lp1164
S'vhigh'
p1165
aS'low'
p1166
ag4
ag5
aS'small'
p1167
aS'med'
p1168
aS'unacc'
p1169
aa(lp1170
S'vhigh'
p1171
aS'low'
p1172
ag4
ag5
aS'med'
p1173
aS'low'
p1174
aS'unacc'
p1175
aa(lp1176
S'vhigh'
p1177
aS'low'
p1178
ag4
ag5
aS'med'
p1179
aS'med'
p1180
aS'unacc'
p1181
aa(lp1182
S'vhigh'
p1183
aS'low'
p1184
ag4
ag5
aS'big'
p1185
aS'low'
p1186
aS'unacc'
p1187
aa(lp1188
S'vhigh'
p1189
aS'low'
p1190
ag4
ag5
aS'big'
p1191
aS'high'
p1192
aS'acc'
p1193
aa(lp1194
S'vhigh'
p1195
aS'low'
p1196
ag4
aS'more'
p1197
aS'small'
p1198
aS'low'
p1199
aS'unacc'
p1200
aa(lp1201
S'vhigh'
p1202
aS'low'
p1203
ag4
aS'more'
p1204
aS'small'
p1205
aS'med'
p1206
aS'unacc'
p1207
aa(lp1208
S'vhigh'
p1209
aS'low'
p1210
ag4
aS'more'
p1211
aS'small'
p1212
aS'high'
p1213
aS'unacc'
p1214
aa(lp1215
S'vhigh'
p1216
aS'low'
p1217
ag4
aS'more'
p1218
aS'med'
p1219
aS'low'
p1220
aS'unacc'
p1221
aa(lp1222
S'vhigh'
p1223
aS'low'
p1224
ag4
aS'more'
p1225
aS'med'
p1226
aS'med'
p1227
aS'unacc'
p1228
aa(lp1229
S'vhigh'
p1230
aS'low'
p1231
ag4
aS'more'
p1232
aS'med'
p1233
aS'high'
p1234
aS'acc'
p1235
aa(lp1236
S'vhigh'
p1237
aS'low'
p1238
ag4
aS'more'
p1239
aS'big'
p1240
aS'low'
p1241
aS'unacc'
p1242
aa(lp1243
S'vhigh'
p1244
aS'low'
p1245
ag4
aS'more'
p1246
aS'big'
p1247
aS'med'
p1248
aS'acc'
p1249
aa(lp1250
S'vhigh'
p1251
aS'low'
p1252
ag4
aS'more'
p1253
aS'big'
p1254
aS'high'
p1255
aS'acc'
p1256
aa(lp1257
S'vhigh'
p1258
aS'low'
p1259
ag99
ag4
aS'small'
p1260
aS'low'
p1261
aS'unacc'
p1262
aa(lp1263
S'vhigh'
p1264
aS'low'
p1265
ag99
ag4
aS'small'
p1266
aS'med'
p1267
aS'unacc'
p1268
aa(lp1269
S'vhigh'
p1270
aS'low'
p1271
ag99
ag4
aS'small'
p1272
aS'high'
p1273
aS'unacc'
p1274
aa(lp1275
S'vhigh'
p1276
aS'low'
p1277
ag99
ag4
aS'med'
p1278
aS'low'
p1279
aS'unacc'
p1280
aa(lp1281
S'vhigh'
p1282
aS'low'
p1283
ag99
ag4
aS'med'
p1284
aS'med'
p1285
aS'unacc'
p1286
aa(lp1287
S'vhigh'
p1288
aS'low'
p1289
ag99
ag4
aS'med'
p1290
aS'high'
p1291
aS'unacc'
p1292
aa(lp1293
S'vhigh'
p1294
aS'low'
p1295
ag99
ag4
aS'big'
p1296
aS'low'
p1297
aS'unacc'
p1298
aa(lp1299
S'vhigh'
p1300
aS'low'
p1301
ag99
ag4
aS'big'
p1302
aS'med'
p1303
aS'unacc'
p1304
aa(lp1305
S'vhigh'
p1306
aS'low'
p1307
ag99
ag4
aS'big'
p1308
aS'high'
p1309
aS'unacc'
p1310
aa(lp1311
S'vhigh'
p1312
aS'low'
p1313
ag99
ag5
aS'small'
p1314
aS'low'
p1315
aS'unacc'
p1316
aa(lp1317
S'vhigh'
p1318
aS'low'
p1319
ag99
ag5
aS'small'
p1320
aS'med'
p1321
aS'unacc'
p1322
aa(lp1323
S'vhigh'
p1324
aS'low'
p1325
ag99
ag5
aS'small'
p1326
aS'high'
p1327
aS'acc'
p1328
aa(lp1329
S'vhigh'
p1330
aS'low'
p1331
ag99
ag5
aS'med'
p1332
aS'low'
p1333
aS'unacc'
p1334
aa(lp1335
S'vhigh'
p1336
aS'low'
p1337
ag99
ag5
aS'med'
p1338
aS'med'
p1339
aS'unacc'
p1340
aa(lp1341
S'vhigh'
p1342
aS'low'
p1343
ag99
ag5
aS'med'
p1344
aS'high'
p1345
aS'acc'
p1346
aa(lp1347
S'vhigh'
p1348
aS'low'
p1349
ag99
ag5
aS'big'
p1350
aS'low'
p1351
aS'unacc'
p1352
aa(lp1353
S'vhigh'
p1354
aS'low'
p1355
ag99
ag5
aS'big'
p1356
aS'med'
p1357
aS'acc'
p1358
aa(lp1359
S'vhigh'
p1360
aS'low'
p1361
ag99
ag5
aS'big'
p1362
aS'high'
p1363
aS'acc'
p1364
aa(lp1365
S'vhigh'
p1366
aS'low'
p1367
ag99
aS'more'
p1368
aS'small'
p1369
aS'low'
p1370
aS'unacc'
p1371
aa(lp1372
S'vhigh'
p1373
aS'low'
p1374
ag99
aS'more'
p1375
aS'small'
p1376
aS'med'
p1377
aS'unacc'
p1378
aa(lp1379
S'vhigh'
p1380
aS'low'
p1381
ag99
aS'more'
p1382
aS'small'
p1383
aS'high'
p1384
aS'acc'
p1385
aa(lp1386
S'vhigh'
p1387
aS'low'
p1388
ag99
aS'more'
p1389
aS'med'
p1390
aS'low'
p1391
aS'unacc'
p1392
aa(lp1393
S'vhigh'
p1394
aS'low'
p1395
ag99
aS'more'
p1396
aS'med'
p1397
aS'med'
p1398
aS'acc'
p1399
aa(lp1400
S'vhigh'
p1401
aS'low'
p1402
ag99
aS'more'
p1403
aS'med'
p1404
aS'high'
p1405
aS'acc'
p1406
aa(lp1407
S'vhigh'
p1408
aS'low'
p1409
ag99
aS'more'
p1410
aS'big'
p1411
aS'low'
p1412
aS'unacc'
p1413
aa(lp1414
S'vhigh'
p1415
aS'low'
p1416
ag99
aS'more'
p1417
aS'big'
p1418
aS'med'
p1419
aS'acc'
p1420
aa(lp1421
S'vhigh'
p1422
aS'low'
p1423
ag99
aS'more'
p1424
aS'big'
p1425
aS'high'
p1426
aS'acc'
p1427
aa(lp1428
S'vhigh'
p1429
aS'low'
p1430
ag5
ag4
aS'small'
p1431
aS'low'
p1432
aS'unacc'
p1433
aa(lp1434
S'vhigh'
p1435
aS'low'
p1436
ag5
ag4
aS'small'
p1437
aS'med'
p1438
aS'unacc'
p1439
aa(lp1440
S'vhigh'
p1441
aS'low'
p1442
ag5
ag4
aS'small'
p1443
aS'high'
p1444
aS'unacc'
p1445
aa(lp1446
S'vhigh'
p1447
aS'low'
p1448
ag5
ag4
aS'med'
p1449
aS'low'
p1450
aS'unacc'
p1451
aa(lp1452
S'vhigh'
p1453
aS'low'
p1454
ag5
ag4
aS'med'
p1455
aS'med'
p1456
aS'unacc'
p1457
aa(lp1458
S'vhigh'
p1459
aS'low'
p1460
ag5
ag4
aS'med'
p1461
aS'high'
p1462
aS'unacc'
p1463
aa(lp1464
S'vhigh'
p1465
aS'low'
p1466
ag5
ag4
aS'big'
p1467
aS'low'
p1468
aS'unacc'
p1469
aa(lp1470
S'vhigh'
p1471
aS'low'
p1472
ag5
ag4
aS'big'
p1473
aS'med'
p1474
aS'unacc'
p1475
aa(lp1476
S'vhigh'
p1477
aS'low'
p1478
ag5
ag4
aS'big'
p1479
aS'high'
p1480
aS'unacc'
p1481
aa(lp1482
S'vhigh'
p1483
aS'low'
p1484
ag5
ag5
aS'small'
p1485
aS'low'
p1486
aS'unacc'
p1487
aa(lp1488
S'vhigh'
p1489
aS'low'
p1490
ag5
ag5
aS'small'
p1491
aS'med'
p1492
aS'unacc'
p1493
aa(lp1494
S'vhigh'
p1495
aS'low'
p1496
ag5
ag5
aS'small'
p1497
aS'high'
p1498
aS'acc'
p1499
aa(lp1500
S'vhigh'
p1501
aS'low'
p1502
ag5
ag5
aS'med'
p1503
aS'low'
p1504
aS'unacc'
p1505
aa(lp1506
S'vhigh'
p1507
aS'low'
p1508
ag5
ag5
aS'med'
p1509
aS'med'
p1510
aS'acc'
p1511
aa(lp1512
S'vhigh'
p1513
aS'low'
p1514
ag5
ag5
aS'med'
p1515
aS'high'
p1516
aS'acc'
p1517
aa(lp1518
S'vhigh'
p1519
aS'low'
p1520
ag5
ag5
aS'big'
p1521
aS'low'
p1522
aS'unacc'
p1523
aa(lp1524
S'vhigh'
p1525
aS'low'
p1526
ag5
ag5
aS'big'
p1527
aS'med'
p1528
aS'acc'
p1529
aa(lp1530
S'vhigh'
p1531
aS'low'
p1532
ag5
ag5
aS'big'
p1533
aS'high'
p1534
aS'acc'
p1535
aa(lp1536
S'vhigh'
p1537
aS'low'
p1538
ag5
aS'more'
p1539
aS'small'
p1540
aS'low'
p1541
aS'unacc'
p1542
aa(lp1543
S'vhigh'
p1544
aS'low'
p1545
ag5
aS'more'
p1546
aS'small'
p1547
aS'med'
p1548
aS'unacc'
p1549
aa(lp1550
S'vhigh'
p1551
aS'low'
p1552
ag5
aS'more'
p1553
aS'small'
p1554
aS'high'
p1555
aS'acc'
p1556
aa(lp1557
S'vhigh'
p1558
aS'low'
p1559
ag5
aS'more'
p1560
aS'med'
p1561
aS'low'
p1562
aS'unacc'
p1563
aa(lp1564
S'vhigh'
p1565
aS'low'
p1566
ag5
aS'more'
p1567
aS'med'
p1568
aS'med'
p1569
aS'acc'
p1570
aa(lp1571
S'vhigh'
p1572
aS'low'
p1573
ag5
aS'more'
p1574
aS'med'
p1575
aS'high'
p1576
aS'acc'
p1577
aa(lp1578
S'vhigh'
p1579
aS'low'
p1580
ag5
aS'more'
p1581
aS'big'
p1582
aS'low'
p1583
aS'unacc'
p1584
aa(lp1585
S'vhigh'
p1586
aS'low'
p1587
ag5
aS'more'
p1588
aS'big'
p1589
aS'med'
p1590
aS'acc'
p1591
aa(lp1592
S'vhigh'
p1593
aS'low'
p1594
ag5
aS'more'
p1595
aS'big'
p1596
aS'high'
p1597
aS'acc'
p1598
aa(lp1599
S'vhigh'
p1600
aS'low'
p1601
aS'5more'
p1602
ag4
aS'small'
p1603
aS'low'
p1604
aS'unacc'
p1605
aa(lp1606
S'vhigh'
p1607
aS'low'
p1608
aS'5more'
p1609
ag4
aS'small'
p1610
aS'med'
p1611
aS'unacc'
p1612
aa(lp1613
S'vhigh'
p1614
aS'low'
p1615
aS'5more'
p1616
ag4
aS'small'
p1617
aS'high'
p1618
aS'unacc'
p1619
aa(lp1620
S'vhigh'
p1621
aS'low'
p1622
aS'5more'
p1623
ag4
aS'med'
p1624
aS'low'
p1625
aS'unacc'
p1626
aa(lp1627
S'vhigh'
p1628
aS'low'
p1629
aS'5more'
p1630
ag4
aS'med'
p1631
aS'med'
p1632
aS'unacc'
p1633
aa(lp1634
S'vhigh'
p1635
aS'low'
p1636
aS'5more'
p1637
ag4
aS'med'
p1638
aS'high'
p1639
aS'unacc'
p1640
aa(lp1641
S'vhigh'
p1642
aS'low'
p1643
aS'5more'
p1644
ag4
aS'big'
p1645
aS'low'
p1646
aS'unacc'
p1647
aa(lp1648
S'vhigh'
p1649
aS'low'
p1650
aS'5more'
p1651
ag4
aS'big'
p1652
aS'med'
p1653
aS'unacc'
p1654
aa(lp1655
S'vhigh'
p1656
aS'low'
p1657
aS'5more'
p1658
ag4
aS'big'
p1659
aS'high'
p1660
aS'unacc'
p1661
aa(lp1662
S'vhigh'
p1663
aS'low'
p1664
aS'5more'
p1665
ag5
aS'small'
p1666
aS'low'
p1667
aS'unacc'
p1668
aa(lp1669
S'vhigh'
p1670
aS'low'
p1671
aS'5more'
p1672
ag5
aS'small'
p1673
aS'med'
p1674
aS'unacc'
p1675
aa(lp1676
S'vhigh'
p1677
aS'low'
p1678
aS'5more'
p1679
ag5
aS'small'
p1680
aS'high'
p1681
aS'acc'
p1682
aa(lp1683
S'vhigh'
p1684
aS'low'
p1685
aS'5more'
p1686
ag5
aS'med'
p1687
aS'low'
p1688
aS'unacc'
p1689
aa(lp1690
S'vhigh'
p1691
aS'low'
p1692
aS'5more'
p1693
ag5
aS'med'
p1694
aS'med'
p1695
aS'acc'
p1696
aa(lp1697
S'vhigh'
p1698
aS'low'
p1699
aS'5more'
p1700
ag5
aS'med'
p1701
aS'high'
p1702
aS'acc'
p1703
aa(lp1704
S'vhigh'
p1705
aS'low'
p1706
aS'5more'
p1707
ag5
aS'big'
p1708
aS'low'
p1709
aS'unacc'
p1710
aa(lp1711
S'vhigh'
p1712
aS'low'
p1713
aS'5more'
p1714
ag5
aS'big'
p1715
aS'med'
p1716
aS'acc'
p1717
aa(lp1718
S'vhigh'
p1719
aS'low'
p1720
aS'5more'
p1721
ag5
aS'big'
p1722
aS'high'
p1723
aS'acc'
p1724
aa(lp1725
S'vhigh'
p1726
aS'low'
p1727
aS'5more'
p1728
aS'more'
p1729
aS'small'
p1730
aS'low'
p1731
aS'unacc'
p1732
aa(lp1733
S'vhigh'
p1734
aS'low'
p1735
aS'5more'
p1736
aS'more'
p1737
aS'small'
p1738
aS'med'
p1739
aS'unacc'
p1740
aa(lp1741
S'vhigh'
p1742
aS'low'
p1743
aS'5more'
p1744
aS'more'
p1745
aS'small'
p1746
aS'high'
p1747
aS'acc'
p1748
aa(lp1749
S'vhigh'
p1750
aS'low'
p1751
aS'5more'
p1752
aS'more'
p1753
aS'med'
p1754
aS'low'
p1755
aS'unacc'
p1756
aa(lp1757
S'vhigh'
p1758
aS'low'
p1759
aS'5more'
p1760
aS'more'
p1761
aS'med'
p1762
aS'med'
p1763
aS'acc'
p1764
aa(lp1765
S'vhigh'
p1766
aS'low'
p1767
aS'5more'
p1768
aS'more'
p1769
aS'med'
p1770
aS'high'
p1771
aS'acc'
p1772
aa(lp1773
S'vhigh'
p1774
aS'low'
p1775
aS'5more'
p1776
aS'more'
p1777
aS'big'
p1778
aS'low'
p1779
aS'unacc'
p1780
aa(lp1781
S'vhigh'
p1782
aS'low'
p1783
aS'5more'
p1784
aS'more'
p1785
aS'big'
p1786
aS'med'
p1787
aS'acc'
p1788
aa(lp1789
S'vhigh'
p1790
aS'low'
p1791
aS'5more'
p1792
aS'more'
p1793
aS'big'
p1794
aS'high'
p1795
aS'acc'
p1796
aa(lp1797
S'high'
p1798
aS'vhigh'
p1799
ag4
ag4
aS'small'
p1800
aS'low'
p1801
aS'unacc'
p1802
aa(lp1803
S'high'
p1804
aS'vhigh'
p1805
ag4
ag4
aS'small'
p1806
aS'med'
p1807
aS'unacc'
p1808
aa(lp1809
S'high'
p1810
aS'vhigh'
p1811
ag4
ag4
aS'small'
p1812
aS'high'
p1813
aS'unacc'
p1814
aa(lp1815
S'high'
p1816
aS'vhigh'
p1817
ag4
ag4
aS'med'
p1818
aS'low'
p1819
aS'unacc'
p1820
aa(lp1821
S'high'
p1822
aS'vhigh'
p1823
ag4
ag4
aS'med'
p1824
aS'med'
p1825
aS'unacc'
p1826
aa(lp1827
S'high'
p1828
aS'vhigh'
p1829
ag4
ag4
aS'med'
p1830
aS'high'
p1831
aS'unacc'
p1832
aa(lp1833
S'high'
p1834
aS'vhigh'
p1835
ag4
ag4
aS'big'
p1836
aS'low'
p1837
aS'unacc'
p1838
aa(lp1839
S'high'
p1840
aS'vhigh'
p1841
ag4
ag4
aS'big'
p1842
aS'med'
p1843
aS'unacc'
p1844
aa(lp1845
S'high'
p1846
aS'vhigh'
p1847
ag4
ag4
aS'big'
p1848
aS'high'
p1849
aS'unacc'
p1850
aa(lp1851
S'high'
p1852
aS'vhigh'
p1853
ag4
ag5
aS'small'
p1854
aS'low'
p1855
aS'unacc'
p1856
aa(lp1857
S'high'
p1858
aS'vhigh'
p1859
ag4
ag5
aS'small'
p1860
aS'med'
p1861
aS'unacc'
p1862
aa(lp1863
S'high'
p1864
aS'vhigh'
p1865
ag4
ag5
aS'small'
p1866
aS'high'
p1867
aS'unacc'
p1868
aa(lp1869
S'high'
p1870
aS'vhigh'
p1871
ag4
ag5
aS'med'
p1872
aS'low'
p1873
aS'unacc'
p1874
aa(lp1875
S'high'
p1876
aS'vhigh'
p1877
ag4
ag5
aS'med'
p1878
aS'med'
p1879
aS'unacc'
p1880
aa(lp1881
S'high'
p1882
aS'vhigh'
p1883
ag4
ag5
aS'med'
p1884
aS'high'
p1885
aS'unacc'
p1886
aa(lp1887
S'high'
p1888
aS'vhigh'
p1889
ag4
ag5
aS'big'
p1890
aS'low'
p1891
aS'unacc'
p1892
aa(lp1893
S'high'
p1894
aS'vhigh'
p1895
ag4
ag5
aS'big'
p1896
aS'med'
p1897
aS'unacc'
p1898
aa(lp1899
S'high'
p1900
aS'vhigh'
p1901
ag4
ag5
aS'big'
p1902
aS'high'
p1903
aS'unacc'
p1904
aa(lp1905
S'high'
p1906
aS'vhigh'
p1907
ag4
aS'more'
p1908
aS'small'
p1909
aS'low'
p1910
aS'unacc'
p1911
aa(lp1912
S'high'
p1913
aS'vhigh'
p1914
ag4
aS'more'
p1915
aS'small'
p1916
aS'med'
p1917
aS'unacc'
p1918
aa(lp1919
S'high'
p1920
aS'vhigh'
p1921
ag4
aS'more'
p1922
aS'small'
p1923
aS'high'
p1924
aS'unacc'
p1925
aa(lp1926
S'high'
p1927
aS'vhigh'
p1928
ag4
aS'more'
p1929
aS'med'
p1930
aS'low'
p1931
aS'unacc'
p1932
aa(lp1933
S'high'
p1934
aS'vhigh'
p1935
ag4
aS'more'
p1936
aS'med'
p1937
aS'med'
p1938
aS'unacc'
p1939
aa(lp1940
S'high'
p1941
aS'vhigh'
p1942
ag4
aS'more'
p1943
aS'med'
p1944
aS'high'
p1945
aS'unacc'
p1946
aa(lp1947
S'high'
p1948
aS'vhigh'
p1949
ag4
aS'more'
p1950
aS'big'
p1951
aS'low'
p1952
aS'unacc'
p1953
aa(lp1954
S'high'
p1955
aS'vhigh'
p1956
ag4
aS'more'
p1957
aS'big'
p1958
aS'med'
p1959
aS'unacc'
p1960
aa(lp1961
S'high'
p1962
aS'vhigh'
p1963
ag4
aS'more'
p1964
aS'big'
p1965
aS'high'
p1966
aS'unacc'
p1967
aa(lp1968
S'high'
p1969
aS'vhigh'
p1970
ag99
ag4
aS'small'
p1971
aS'low'
p1972
aS'unacc'
p1973
aa(lp1974
S'high'
p1975
aS'vhigh'
p1976
ag99
ag4
aS'small'
p1977
aS'med'
p1978
aS'unacc'
p1979
aa(lp1980
S'high'
p1981
aS'vhigh'
p1982
ag99
ag4
aS'small'
p1983
aS'high'
p1984
aS'unacc'
p1985
aa(lp1986
S'high'
p1987
aS'vhigh'
p1988
ag99
ag4
aS'med'
p1989
aS'low'
p1990
aS'unacc'
p1991
aa(lp1992
S'high'
p1993
aS'vhigh'
p1994
ag99
ag4
aS'med'
p1995
aS'med'
p1996
aS'unacc'
p1997
aa(lp1998
S'high'
p1999
aS'vhigh'
p2000
ag99
ag4
aS'med'
p2001
aS'high'
p2002
aS'unacc'
p2003
aa(lp2004
S'high'
p2005
aS'vhigh'
p2006
ag99
ag4
aS'big'
p2007
aS'low'
p2008
aS'unacc'
p2009
aa(lp2010
S'high'
p2011
aS'vhigh'
p2012
ag99
ag4
aS'big'
p2013
aS'med'
p2014
aS'unacc'
p2015
aa(lp2016
S'high'
p2017
aS'vhigh'
p2018
ag99
ag4
aS'big'
p2019
aS'high'
p2020
aS'unacc'
p2021
aa(lp2022
S'high'
p2023
aS'vhigh'
p2024
ag99
ag5
aS'small'
p2025
aS'low'
p2026
aS'unacc'
p2027
aa(lp2028
S'high'
p2029
aS'vhigh'
p2030
ag99
ag5
aS'small'
p2031
aS'med'
p2032
aS'unacc'
p2033
aa(lp2034
S'high'
p2035
aS'vhigh'
p2036
ag99
ag5
aS'small'
p2037
aS'high'
p2038
aS'unacc'
p2039
aa(lp2040
S'high'
p2041
aS'vhigh'
p2042
ag99
ag5
aS'med'
p2043
aS'low'
p2044
aS'unacc'
p2045
aa(lp2046
S'high'
p2047
aS'vhigh'
p2048
ag99
ag5
aS'med'
p2049
aS'med'
p2050
aS'unacc'
p2051
aa(lp2052
S'high'
p2053
aS'vhigh'
p2054
ag99
ag5
aS'med'
p2055
aS'high'
p2056
aS'unacc'
p2057
aa(lp2058
S'high'
p2059
aS'vhigh'
p2060
ag99
ag5
aS'big'
p2061
aS'low'
p2062
aS'unacc'
p2063
aa(lp2064
S'high'
p2065
aS'vhigh'
p2066
ag99
ag5
aS'big'
p2067
aS'med'
p2068
aS'unacc'
p2069
aa(lp2070
S'high'
p2071
aS'vhigh'
p2072
ag99
ag5
aS'big'
p2073
aS'high'
p2074
aS'unacc'
p2075
aa(lp2076
S'high'
p2077
aS'vhigh'
p2078
ag99
aS'more'
p2079
aS'small'
p2080
aS'low'
p2081
aS'unacc'
p2082
aa(lp2083
S'high'
p2084
aS'vhigh'
p2085
ag99
aS'more'
p2086
aS'small'
p2087
aS'med'
p2088
aS'unacc'
p2089
aa(lp2090
S'high'
p2091
aS'vhigh'
p2092
ag99
aS'more'
p2093
aS'small'
p2094
aS'high'
p2095
aS'unacc'
p2096
aa(lp2097
S'high'
p2098
aS'vhigh'
p2099
ag99
aS'more'
p2100
aS'med'
p2101
aS'low'
p2102
aS'unacc'
p2103
aa(lp2104
S'high'
p2105
aS'vhigh'
p2106
ag99
aS'more'
p2107
aS'med'
p2108
aS'med'
p2109
aS'unacc'
p2110
aa(lp2111
S'high'
p2112
aS'vhigh'
p2113
ag99
aS'more'
p2114
aS'med'
p2115
aS'high'
p2116
aS'unacc'
p2117
aa(lp2118
S'high'
p2119
aS'vhigh'
p2120
ag99
aS'more'
p2121
aS'big'
p2122
aS'low'
p2123
aS'unacc'
p2124
aa(lp2125
S'high'
p2126
aS'vhigh'
p2127
ag99
aS'more'
p2128
aS'big'
p2129
aS'med'
p2130
aS'unacc'
p2131
aa(lp2132
S'high'
p2133
aS'vhigh'
p2134
ag99
aS'more'
p2135
aS'big'
p2136
aS'high'
p2137
aS'unacc'
p2138
aa(lp2139
S'high'
p2140
aS'vhigh'
p2141
ag5
ag4
aS'small'
p2142
aS'low'
p2143
aS'unacc'
p2144
aa(lp2145
S'high'
p2146
aS'vhigh'
p2147
ag5
ag4
aS'small'
p2148
aS'med'
p2149
aS'unacc'
p2150
aa(lp2151
S'high'
p2152
aS'vhigh'
p2153
ag5
ag4
aS'small'
p2154
aS'high'
p2155
aS'unacc'
p2156
aa(lp2157
S'high'
p2158
aS'vhigh'
p2159
ag5
ag4
aS'med'
p2160
aS'low'
p2161
aS'unacc'
p2162
aa(lp2163
S'high'
p2164
aS'vhigh'
p2165
ag5
ag4
aS'med'
p2166
aS'med'
p2167
aS'unacc'
p2168
aa(lp2169
S'high'
p2170
aS'vhigh'
p2171
ag5
ag4
aS'med'
p2172
aS'high'
p2173
aS'unacc'
p2174
aa(lp2175
S'high'
p2176
aS'vhigh'
p2177
ag5
ag4
aS'big'
p2178
aS'low'
p2179
aS'unacc'
p2180
aa(lp2181
S'high'
p2182
aS'vhigh'
p2183
ag5
ag4
aS'big'
p2184
aS'med'
p2185
aS'unacc'
p2186
aa(lp2187
S'high'
p2188
aS'vhigh'
p2189
ag5
ag4
aS'big'
p2190
aS'high'
p2191
aS'unacc'
p2192
aa(lp2193
S'high'
p2194
aS'vhigh'
p2195
ag5
ag5
aS'small'
p2196
aS'low'
p2197
aS'unacc'
p2198
aa(lp2199
S'high'
p2200
aS'vhigh'
p2201
ag5
ag5
aS'small'
p2202
aS'med'
p2203
aS'unacc'
p2204
aa(lp2205
S'high'
p2206
aS'vhigh'
p2207
ag5
ag5
aS'small'
p2208
aS'high'
p2209
aS'unacc'
p2210
aa(lp2211
S'high'
p2212
aS'vhigh'
p2213
ag5
ag5
aS'med'
p2214
aS'low'
p2215
aS'unacc'
p2216
aa(lp2217
S'high'
p2218
aS'vhigh'
p2219
ag5
ag5
aS'med'
p2220
aS'med'
p2221
aS'unacc'
p2222
aa(lp2223
S'high'
p2224
aS'vhigh'
p2225
ag5
ag5
aS'med'
p2226
aS'high'
p2227
aS'unacc'
p2228
aa(lp2229
S'high'
p2230
aS'vhigh'
p2231
ag5
ag5
aS'big'
p2232
aS'low'
p2233
aS'unacc'
p2234
aa(lp2235
S'high'
p2236
aS'vhigh'
p2237
ag5
ag5
aS'big'
p2238
aS'med'
p2239
aS'unacc'
p2240
aa(lp2241
S'high'
p2242
aS'vhigh'
p2243
ag5
ag5
aS'big'
p2244
aS'high'
p2245
aS'unacc'
p2246
aa(lp2247
S'high'
p2248
aS'vhigh'
p2249
ag5
aS'more'
p2250
aS'small'
p2251
aS'low'
p2252
aS'unacc'
p2253
aa(lp2254
S'high'
p2255
aS'vhigh'
p2256
ag5
aS'more'
p2257
aS'small'
p2258
aS'med'
p2259
aS'unacc'
p2260
aa(lp2261
S'high'
p2262
aS'vhigh'
p2263
ag5
aS'more'
p2264
aS'small'
p2265
aS'high'
p2266
aS'unacc'
p2267
aa(lp2268
S'high'
p2269
aS'vhigh'
p2270
ag5
aS'more'
p2271
aS'med'
p2272
aS'low'
p2273
aS'unacc'
p2274
aa(lp2275
S'high'
p2276
aS'vhigh'
p2277
ag5
aS'more'
p2278
aS'med'
p2279
aS'med'
p2280
aS'unacc'
p2281
aa(lp2282
S'high'
p2283
aS'vhigh'
p2284
ag5
aS'more'
p2285
aS'med'
p2286
aS'high'
p2287
aS'unacc'
p2288
aa(lp2289
S'high'
p2290
aS'vhigh'
p2291
ag5
aS'more'
p2292
aS'big'
p2293
aS'low'
p2294
aS'unacc'
p2295
aa(lp2296
S'high'
p2297
aS'vhigh'
p2298
ag5
aS'more'
p2299
aS'big'
p2300
aS'med'
p2301
aS'unacc'
p2302
aa(lp2303
S'high'
p2304
aS'vhigh'
p2305
ag5
aS'more'
p2306
aS'big'
p2307
aS'high'
p2308
aS'unacc'
p2309
aa(lp2310
S'high'
p2311
aS'vhigh'
p2312
aS'5more'
p2313
ag4
aS'small'
p2314
aS'low'
p2315
aS'unacc'
p2316
aa(lp2317
S'high'
p2318
aS'vhigh'
p2319
aS'5more'
p2320
ag4
aS'small'
p2321
aS'med'
p2322
aS'unacc'
p2323
aa(lp2324
S'high'
p2325
aS'vhigh'
p2326
aS'5more'
p2327
ag4
aS'small'
p2328
aS'high'
p2329
aS'unacc'
p2330
aa(lp2331
S'high'
p2332
aS'vhigh'
p2333
aS'5more'
p2334
ag4
aS'med'
p2335
aS'low'
p2336
aS'unacc'
p2337
aa(lp2338
S'high'
p2339
aS'vhigh'
p2340
aS'5more'
p2341
ag4
aS'med'
p2342
aS'med'
p2343
aS'unacc'
p2344
aa(lp2345
S'high'
p2346
aS'vhigh'
p2347
aS'5more'
p2348
ag4
aS'med'
p2349
aS'high'
p2350
aS'unacc'
p2351
aa(lp2352
S'high'
p2353
aS'vhigh'
p2354
aS'5more'
p2355
ag4
aS'big'
p2356
aS'low'
p2357
aS'unacc'
p2358
aa(lp2359
S'high'
p2360
aS'vhigh'
p2361
aS'5more'
p2362
ag4
aS'big'
p2363
aS'med'
p2364
aS'unacc'
p2365
aa(lp2366
S'high'
p2367
aS'vhigh'
p2368
aS'5more'
p2369
ag4
aS'big'
p2370
aS'high'
p2371
aS'unacc'
p2372
aa(lp2373
S'high'
p2374
aS'vhigh'
p2375
aS'5more'
p2376
ag5
aS'small'
p2377
aS'low'
p2378
aS'unacc'
p2379
aa(lp2380
S'high'
p2381
aS'vhigh'
p2382
aS'5more'
p2383
ag5
aS'small'
p2384
aS'med'
p2385
aS'unacc'
p2386
aa(lp2387
S'high'
p2388
aS'vhigh'
p2389
aS'5more'
p2390
ag5
aS'small'
p2391
aS'high'
p2392
aS'unacc'
p2393
aa(lp2394
S'high'
p2395
aS'vhigh'
p2396
aS'5more'
p2397
ag5
aS'med'
p2398
aS'low'
p2399
aS'unacc'
p2400
aa(lp2401
S'high'
p2402
aS'vhigh'
p2403
aS'5more'
p2404
ag5
aS'med'
p2405
aS'med'
p2406
aS'unacc'
p2407
aa(lp2408
S'high'
p2409
aS'vhigh'
p2410
aS'5more'
p2411
ag5
aS'med'
p2412
aS'high'
p2413
aS'unacc'
p2414
aa(lp2415
S'high'
p2416
aS'vhigh'
p2417
aS'5more'
p2418
ag5
aS'big'
p2419
aS'low'
p2420
aS'unacc'
p2421
aa(lp2422
S'high'
p2423
aS'vhigh'
p2424
aS'5more'
p2425
ag5
aS'big'
p2426
aS'med'
p2427
aS'unacc'
p2428
aa(lp2429
S'high'
p2430
aS'vhigh'
p2431
aS'5more'
p2432
ag5
aS'big'
p2433
aS'high'
p2434
aS'unacc'
p2435
aa(lp2436
S'high'
p2437
aS'vhigh'
p2438
aS'5more'
p2439
aS'more'
p2440
aS'small'
p2441
aS'low'
p2442
aS'unacc'
p2443
aa(lp2444
S'high'
p2445
aS'vhigh'
p2446
aS'5more'
p2447
aS'more'
p2448
aS'small'
p2449
aS'med'
p2450
aS'unacc'
p2451
aa(lp2452
S'high'
p2453
aS'vhigh'
p2454
aS'5more'
p2455
aS'more'
p2456
aS'small'
p2457
aS'high'
p2458
aS'unacc'
p2459
aa(lp2460
S'high'
p2461
aS'vhigh'
p2462
aS'5more'
p2463
aS'more'
p2464
aS'med'
p2465
aS'low'
p2466
aS'unacc'
p2467
aa(lp2468
S'high'
p2469
aS'vhigh'
p2470
aS'5more'
p2471
aS'more'
p2472
aS'med'
p2473
aS'med'
p2474
aS'unacc'
p2475
aa(lp2476
S'high'
p2477
aS'vhigh'
p2478
aS'5more'
p2479
aS'more'
p2480
aS'med'
p2481
aS'high'
p2482
aS'unacc'
p2483
aa(lp2484
S'high'
p2485
aS'vhigh'
p2486
aS'5more'
p2487
aS'more'
p2488
aS'big'
p2489
aS'low'
p2490
aS'unacc'
p2491
aa(lp2492
S'high'
p2493
aS'vhigh'
p2494
aS'5more'
p2495
aS'more'
p2496
aS'big'
p2497
aS'med'
p2498
aS'unacc'
p2499
aa(lp2500
S'high'
p2501
aS'vhigh'
p2502
aS'5more'
p2503
aS'more'
p2504
aS'big'
p2505
aS'high'
p2506
aS'unacc'
p2507
aa(lp2508
S'high'
p2509
aS'high'
p2510
ag4
ag4
aS'small'
p2511
aS'low'
p2512
aS'unacc'
p2513
aa(lp2514
S'high'
p2515
aS'high'
p2516
ag4
ag4
aS'small'
p2517
aS'med'
p2518
aS'unacc'
p2519
aa(lp2520
S'high'
p2521
aS'high'
p2522
ag4
ag4
aS'small'
p2523
aS'high'
p2524
aS'unacc'
p2525
aa(lp2526
S'high'
p2527
aS'high'
p2528
ag4
ag4
aS'med'
p2529
aS'low'
p2530
aS'unacc'
p2531
aa(lp2532
S'high'
p2533
aS'high'
p2534
ag4
ag4
aS'med'
p2535
aS'med'
p2536
aS'unacc'
p2537
aa(lp2538
S'high'
p2539
aS'high'
p2540
ag4
ag4
aS'med'
p2541
aS'high'
p2542
aS'unacc'
p2543
aa(lp2544
S'high'
p2545
aS'high'
p2546
ag4
ag4
aS'big'
p2547
aS'low'
p2548
aS'unacc'
p2549
aa(lp2550
S'high'
p2551
aS'high'
p2552
ag4
ag4
aS'big'
p2553
aS'med'
p2554
aS'unacc'
p2555
aa(lp2556
S'high'
p2557
aS'high'
p2558
ag4
ag4
aS'big'
p2559
aS'high'
p2560
aS'unacc'
p2561
aa(lp2562
S'high'
p2563
aS'high'
p2564
ag4
ag5
aS'small'
p2565
aS'low'
p2566
aS'unacc'
p2567
aa(lp2568
S'high'
p2569
aS'high'
p2570
ag4
ag5
aS'small'
p2571
aS'med'
p2572
aS'unacc'
p2573
aa(lp2574
S'high'
p2575
aS'high'
p2576
ag4
ag5
aS'small'
p2577
aS'high'
p2578
aS'acc'
p2579
aa(lp2580
S'high'
p2581
aS'high'
p2582
ag4
ag5
aS'med'
p2583
aS'low'
p2584
aS'unacc'
p2585
aa(lp2586
S'high'
p2587
aS'high'
p2588
ag4
ag5
aS'med'
p2589
aS'med'
p2590
aS'unacc'
p2591
aa(lp2592
S'high'
p2593
aS'high'
p2594
ag4
ag5
aS'med'
p2595
aS'high'
p2596
aS'acc'
p2597
aa(lp2598
S'high'
p2599
aS'high'
p2600
ag4
ag5
aS'big'
p2601
aS'low'
p2602
aS'unacc'
p2603
aa(lp2604
S'high'
p2605
aS'high'
p2606
ag4
ag5
aS'big'
p2607
aS'med'
p2608
aS'acc'
p2609
aa(lp2610
S'high'
p2611
aS'high'
p2612
ag4
ag5
aS'big'
p2613
aS'high'
p2614
aS'acc'
p2615
aa(lp2616
S'high'
p2617
aS'high'
p2618
ag4
aS'more'
p2619
aS'small'
p2620
aS'low'
p2621
aS'unacc'
p2622
aa(lp2623
S'high'
p2624
aS'high'
p2625
ag4
aS'more'
p2626
aS'small'
p2627
aS'med'
p2628
aS'unacc'
p2629
aa(lp2630
S'high'
p2631
aS'high'
p2632
ag4
aS'more'
p2633
aS'small'
p2634
aS'high'
p2635
aS'unacc'
p2636
aa(lp2637
S'high'
p2638
aS'high'
p2639
ag4
aS'more'
p2640
aS'med'
p2641
aS'low'
p2642
aS'unacc'
p2643
aa(lp2644
S'high'
p2645
aS'high'
p2646
ag4
aS'more'
p2647
aS'med'
p2648
aS'med'
p2649
aS'unacc'
p2650
aa(lp2651
S'high'
p2652
aS'high'
p2653
ag4
aS'more'
p2654
aS'med'
p2655
aS'high'
p2656
aS'acc'
p2657
aa(lp2658
S'high'
p2659
aS'high'
p2660
ag4
aS'more'
p2661
aS'big'
p2662
aS'low'
p2663
aS'unacc'
p2664
aa(lp2665
S'high'
p2666
aS'high'
p2667
ag4
aS'more'
p2668
aS'big'
p2669
aS'med'
p2670
aS'acc'
p2671
aa(lp2672
S'high'
p2673
aS'high'
p2674
ag4
aS'more'
p2675
aS'big'
p2676
aS'high'
p2677
aS'acc'
p2678
aa(lp2679
S'high'
p2680
aS'high'
p2681
ag99
ag4
aS'small'
p2682
aS'low'
p2683
aS'unacc'
p2684
aa(lp2685
S'high'
p2686
aS'high'
p2687
ag99
ag4
aS'small'
p2688
aS'med'
p2689
aS'unacc'
p2690
aa(lp2691
S'high'
p2692
aS'high'
p2693
ag99
ag4
aS'small'
p2694
aS'high'
p2695
aS'unacc'
p2696
aa(lp2697
S'high'
p2698
aS'high'
p2699
ag99
ag4
aS'med'
p2700
aS'low'
p2701
aS'unacc'
p2702
aa(lp2703
S'high'
p2704
aS'high'
p2705
ag99
ag4
aS'med'
p2706
aS'med'
p2707
aS'unacc'
p2708
aa(lp2709
S'high'
p2710
aS'high'
p2711
ag99
ag4
aS'med'
p2712
aS'high'
p2713
aS'unacc'
p2714
aa(lp2715
S'high'
p2716
aS'high'
p2717
ag99
ag4
aS'big'
p2718
aS'low'
p2719
aS'unacc'
p2720
aa(lp2721
S'high'
p2722
aS'high'
p2723
ag99
ag4
aS'big'
p2724
aS'med'
p2725
aS'unacc'
p2726
aa(lp2727
S'high'
p2728
aS'high'
p2729
ag99
ag4
aS'big'
p2730
aS'high'
p2731
aS'unacc'
p2732
aa(lp2733
S'high'
p2734
aS'high'
p2735
ag99
ag5
aS'small'
p2736
aS'low'
p2737
aS'unacc'
p2738
aa(lp2739
S'high'
p2740
aS'high'
p2741
ag99
ag5
aS'small'
p2742
aS'med'
p2743
aS'unacc'
p2744
aa(lp2745
S'high'
p2746
aS'high'
p2747
ag99
ag5
aS'small'
p2748
aS'high'
p2749
aS'acc'
p2750
aa(lp2751
S'high'
p2752
aS'high'
p2753
ag99
ag5
aS'med'
p2754
aS'low'
p2755
aS'unacc'
p2756
aa(lp2757
S'high'
p2758
aS'high'
p2759
ag99
ag5
aS'med'
p2760
aS'med'
p2761
aS'unacc'
p2762
aa(lp2763
S'high'
p2764
aS'high'
p2765
ag99
ag5
aS'med'
p2766
aS'high'
p2767
aS'acc'
p2768
aa(lp2769
S'high'
p2770
aS'high'
p2771
ag99
ag5
aS'big'
p2772
aS'low'
p2773
aS'unacc'
p2774
aa(lp2775
S'high'
p2776
aS'high'
p2777
ag99
ag5
aS'big'
p2778
aS'med'
p2779
aS'acc'
p2780
aa(lp2781
S'high'
p2782
aS'high'
p2783
ag99
ag5
aS'big'
p2784
aS'high'
p2785
aS'acc'
p2786
aa(lp2787
S'high'
p2788
aS'high'
p2789
ag99
aS'more'
p2790
aS'small'
p2791
aS'low'
p2792
aS'unacc'
p2793
aa(lp2794
S'high'
p2795
aS'high'
p2796
ag99
aS'more'
p2797
aS'small'
p2798
aS'med'
p2799
aS'unacc'
p2800
aa(lp2801
S'high'
p2802
aS'high'
p2803
ag99
aS'more'
p2804
aS'small'
p2805
aS'high'
p2806
aS'acc'
p2807
aa(lp2808
S'high'
p2809
aS'high'
p2810
ag99
aS'more'
p2811
aS'med'
p2812
aS'low'
p2813
aS'unacc'
p2814
aa(lp2815
S'high'
p2816
aS'high'
p2817
ag99
aS'more'
p2818
aS'med'
p2819
aS'med'
p2820
aS'acc'
p2821
aa(lp2822
S'high'
p2823
aS'high'
p2824
ag99
aS'more'
p2825
aS'med'
p2826
aS'high'
p2827
aS'acc'
p2828
aa(lp2829
S'high'
p2830
aS'high'
p2831
ag99
aS'more'
p2832
aS'big'
p2833
aS'low'
p2834
aS'unacc'
p2835
aa(lp2836
S'high'
p2837
aS'high'
p2838
ag99
aS'more'
p2839
aS'big'
p2840
aS'med'
p2841
aS'acc'
p2842
aa(lp2843
S'high'
p2844
aS'high'
p2845
ag99
aS'more'
p2846
aS'big'
p2847
aS'high'
p2848
aS'acc'
p2849
aa(lp2850
S'high'
p2851
aS'high'
p2852
ag5
ag4
aS'small'
p2853
aS'low'
p2854
aS'unacc'
p2855
aa(lp2856
S'high'
p2857
aS'high'
p2858
ag5
ag4
aS'small'
p2859
aS'med'
p2860
aS'unacc'
p2861
aa(lp2862
S'high'
p2863
aS'high'
p2864
ag5
ag4
aS'small'
p2865
aS'high'
p2866
aS'unacc'
p2867
aa(lp2868
S'high'
p2869
aS'high'
p2870
ag5
ag4
aS'med'
p2871
aS'low'
p2872
aS'unacc'
p2873
aa(lp2874
S'high'
p2875
aS'high'
p2876
ag5
ag4
aS'med'
p2877
aS'med'
p2878
aS'unacc'
p2879
aa(lp2880
S'high'
p2881
aS'high'
p2882
ag5
ag4
aS'med'
p2883
aS'high'
p2884
aS'unacc'
p2885
aa(lp2886
S'high'
p2887
aS'high'
p2888
ag5
ag4
aS'big'
p2889
aS'low'
p2890
aS'unacc'
p2891
aa(lp2892
S'high'
p2893
aS'high'
p2894
ag5
ag4
aS'big'
p2895
aS'med'
p2896
aS'unacc'
p2897
aa(lp2898
S'high'
p2899
aS'high'
p2900
ag5
ag4
aS'big'
p2901
aS'high'
p2902
aS'unacc'
p2903
aa(lp2904
S'high'
p2905
aS'high'
p2906
ag5
ag5
aS'small'
p2907
aS'low'
p2908
aS'unacc'
p2909
aa(lp2910
S'high'
p2911
aS'high'
p2912
ag5
ag5
aS'small'
p2913
aS'med'
p2914
aS'unacc'
p2915
aa(lp2916
S'high'
p2917
aS'high'
p2918
ag5
ag5
aS'small'
p2919
aS'high'
p2920
aS'acc'
p2921
aa(lp2922
S'high'
p2923
aS'high'
p2924
ag5
ag5
aS'med'
p2925
aS'low'
p2926
aS'unacc'
p2927
aa(lp2928
S'high'
p2929
aS'high'
p2930
ag5
ag5
aS'med'
p2931
aS'med'
p2932
aS'acc'
p2933
aa(lp2934
S'high'
p2935
aS'high'
p2936
ag5
ag5
aS'med'
p2937
aS'high'
p2938
aS'acc'
p2939
aa(lp2940
S'high'
p2941
aS'high'
p2942
ag5
ag5
aS'big'
p2943
aS'low'
p2944
aS'unacc'
p2945
aa(lp2946
S'high'
p2947
aS'high'
p2948
ag5
ag5
aS'big'
p2949
aS'med'
p2950
aS'acc'
p2951
aa(lp2952
S'high'
p2953
aS'high'
p2954
ag5
ag5
aS'big'
p2955
aS'high'
p2956
aS'acc'
p2957
aa(lp2958
S'high'
p2959
aS'high'
p2960
ag5
aS'more'
p2961
aS'small'
p2962
aS'low'
p2963
aS'unacc'
p2964
aa(lp2965
S'high'
p2966
aS'high'
p2967
ag5
aS'more'
p2968
aS'small'
p2969
aS'med'
p2970
aS'unacc'
p2971
aa(lp2972
S'high'
p2973
aS'high'
p2974
ag5
aS'more'
p2975
aS'small'
p2976
aS'high'
p2977
aS'acc'
p2978
aa(lp2979
S'high'
p2980
aS'high'
p2981
ag5
aS'more'
p2982
aS'med'
p2983
aS'low'
p2984
aS'unacc'
p2985
aa(lp2986
S'high'
p2987
aS'high'
p2988
ag5
aS'more'
p2989
aS'med'
p2990
aS'med'
p2991
aS'acc'
p2992
aa(lp2993
S'high'
p2994
aS'high'
p2995
ag5
aS'more'
p2996
aS'med'
p2997
aS'high'
p2998
aS'acc'
p2999
aa(lp3000
S'high'
p3001
aS'high'
p3002
ag5
aS'more'
p3003
aS'big'
p3004
aS'low'
p3005
aS'unacc'
p3006
aa(lp3007
S'high'
p3008
aS'high'
p3009
ag5
aS'more'
p3010
aS'big'
p3011
aS'med'
p3012
aS'acc'
p3013
aa(lp3014
S'high'
p3015
aS'high'
p3016
ag5
aS'more'
p3017
aS'big'
p3018
aS'high'
p3019
aS'acc'
p3020
aa(lp3021
S'high'
p3022
aS'high'
p3023
aS'5more'
p3024
ag4
aS'small'
p3025
aS'low'
p3026
aS'unacc'
p3027
aa(lp3028
S'high'
p3029
aS'high'
p3030
aS'5more'
p3031
ag4
aS'small'
p3032
aS'med'
p3033
aS'unacc'
p3034
aa(lp3035
S'high'
p3036
aS'high'
p3037
aS'5more'
p3038
ag4
aS'small'
p3039
aS'high'
p3040
aS'unacc'
p3041
aa(lp3042
S'high'
p3043
aS'high'
p3044
aS'5more'
p3045
ag4
aS'med'
p3046
aS'low'
p3047
aS'unacc'
p3048
aa(lp3049
S'high'
p3050
aS'high'
p3051
aS'5more'
p3052
ag4
aS'med'
p3053
aS'med'
p3054
aS'unacc'
p3055
aa(lp3056
S'high'
p3057
aS'high'
p3058
aS'5more'
p3059
ag4
aS'med'
p3060
aS'high'
p3061
aS'unacc'
p3062
aa(lp3063
S'high'
p3064
aS'high'
p3065
aS'5more'
p3066
ag4
aS'big'
p3067
aS'low'
p3068
aS'unacc'
p3069
aa(lp3070
S'high'
p3071
aS'high'
p3072
aS'5more'
p3073
ag4
aS'big'
p3074
aS'med'
p3075
aS'unacc'
p3076
aa(lp3077
S'high'
p3078
aS'high'
p3079
aS'5more'
p3080
ag4
aS'big'
p3081
aS'high'
p3082
aS'unacc'
p3083
aa(lp3084
S'high'
p3085
aS'high'
p3086
aS'5more'
p3087
ag5
aS'small'
p3088
aS'low'
p3089
aS'unacc'
p3090
aa(lp3091
S'high'
p3092
aS'high'
p3093
aS'5more'
p3094
ag5
aS'small'
p3095
aS'med'
p3096
aS'unacc'
p3097
aa(lp3098
S'high'
p3099
aS'high'
p3100
aS'5more'
p3101
ag5
aS'small'
p3102
aS'high'
p3103
aS'acc'
p3104
aa(lp3105
S'high'
p3106
aS'high'
p3107
aS'5more'
p3108
ag5
aS'med'
p3109
aS'low'
p3110
aS'unacc'
p3111
aa(lp3112
S'high'
p3113
aS'high'
p3114
aS'5more'
p3115
ag5
aS'med'
p3116
aS'med'
p3117
aS'acc'
p3118
aa(lp3119
S'high'
p3120
aS'high'
p3121
aS'5more'
p3122
ag5
aS'med'
p3123
aS'high'
p3124
aS'acc'
p3125
aa(lp3126
S'high'
p3127
aS'high'
p3128
aS'5more'
p3129
ag5
aS'big'
p3130
aS'low'
p3131
aS'unacc'
p3132
aa(lp3133
S'high'
p3134
aS'high'
p3135
aS'5more'
p3136
ag5
aS'big'
p3137
aS'med'
p3138
aS'acc'
p3139
aa(lp3140
S'high'
p3141
aS'high'
p3142
aS'5more'
p3143
ag5
aS'big'
p3144
aS'high'
p3145
aS'acc'
p3146
aa(lp3147
S'high'
p3148
aS'high'
p3149
aS'5more'
p3150
aS'more'
p3151
aS'small'
p3152
aS'low'
p3153
aS'unacc'
p3154
aa(lp3155
S'high'
p3156
aS'high'
p3157
aS'5more'
p3158
aS'more'
p3159
aS'small'
p3160
aS'med'
p3161
aS'unacc'
p3162
aa(lp3163
S'high'
p3164
aS'high'
p3165
aS'5more'
p3166
aS'more'
p3167
aS'small'
p3168
aS'high'
p3169
aS'acc'
p3170
aa(lp3171
S'high'
p3172
aS'high'
p3173
aS'5more'
p3174
aS'more'
p3175
aS'med'
p3176
aS'low'
p3177
aS'unacc'
p3178
aa(lp3179
S'high'
p3180
aS'high'
p3181
aS'5more'
p3182
aS'more'
p3183
aS'med'
p3184
aS'med'
p3185
aS'acc'
p3186
aa(lp3187
S'high'
p3188
aS'high'
p3189
aS'5more'
p3190
aS'more'
p3191
aS'med'
p3192
aS'high'
p3193
aS'acc'
p3194
aa(lp3195
S'high'
p3196
aS'high'
p3197
aS'5more'
p3198
aS'more'
p3199
aS'big'
p3200
aS'low'
p3201
aS'unacc'
p3202
aa(lp3203
S'high'
p3204
aS'high'
p3205
aS'5more'
p3206
aS'more'
p3207
aS'big'
p3208
aS'med'
p3209
aS'acc'
p3210
aa(lp3211
S'high'
p3212
aS'high'
p3213
aS'5more'
p3214
aS'more'
p3215
aS'big'
p3216
aS'high'
p3217
aS'acc'
p3218
aa(lp3219
S'high'
p3220
aS'med'
p3221
ag4
ag4
aS'small'
p3222
aS'low'
p3223
aS'unacc'
p3224
aa(lp3225
S'high'
p3226
aS'med'
p3227
ag4
ag4
aS'small'
p3228
aS'med'
p3229
aS'unacc'
p3230
aa(lp3231
S'high'
p3232
aS'med'
p3233
ag4
ag4
aS'small'
p3234
aS'high'
p3235
aS'unacc'
p3236
aa(lp3237
S'high'
p3238
aS'med'
p3239
ag4
ag4
aS'med'
p3240
aS'low'
p3241
aS'unacc'
p3242
aa(lp3243
S'high'
p3244
aS'med'
p3245
ag4
ag4
aS'med'
p3246
aS'med'
p3247
aS'unacc'
p3248
aa(lp3249
S'high'
p3250
aS'med'
p3251
ag4
ag4
aS'med'
p3252
aS'high'
p3253
aS'unacc'
p3254
aa(lp3255
S'high'
p3256
aS'med'
p3257
ag4
ag4
aS'big'
p3258
aS'low'
p3259
aS'unacc'
p3260
aa(lp3261
S'high'
p3262
aS'med'
p3263
ag4
ag4
aS'big'
p3264
aS'med'
p3265
aS'unacc'
p3266
aa(lp3267
S'high'
p3268
aS'med'
p3269
ag4
ag4
aS'big'
p3270
aS'high'
p3271
aS'unacc'
p3272
aa(lp3273
S'high'
p3274
aS'med'
p3275
ag4
ag5
aS'small'
p3276
aS'low'
p3277
aS'unacc'
p3278
aa(lp3279
S'high'
p3280
aS'med'
p3281
ag4
ag5
aS'small'
p3282
aS'med'
p3283
aS'unacc'
p3284
aa(lp3285
S'high'
p3286
aS'med'
p3287
ag4
ag5
aS'small'
p3288
aS'high'
p3289
aS'acc'
p3290
aa(lp3291
S'high'
p3292
aS'med'
p3293
ag4
ag5
aS'med'
p3294
aS'low'
p3295
aS'unacc'
p3296
aa(lp3297
S'high'
p3298
aS'med'
p3299
ag4
ag5
aS'med'
p3300
aS'med'
p3301
aS'unacc'
p3302
aa(lp3303
S'high'
p3304
aS'med'
p3305
ag4
ag5
aS'med'
p3306
aS'high'
p3307
aS'acc'
p3308
aa(lp3309
S'high'
p3310
aS'med'
p3311
ag4
ag5
aS'big'
p3312
aS'low'
p3313
aS'unacc'
p3314
aa(lp3315
S'high'
p3316
aS'med'
p3317
ag4
ag5
aS'big'
p3318
aS'med'
p3319
aS'acc'
p3320
aa(lp3321
S'high'
p3322
aS'med'
p3323
ag4
ag5
aS'big'
p3324
aS'high'
p3325
aS'acc'
p3326
aa(lp3327
S'high'
p3328
aS'med'
p3329
ag4
aS'more'
p3330
aS'small'
p3331
aS'low'
p3332
aS'unacc'
p3333
aa(lp3334
S'high'
p3335
aS'med'
p3336
ag4
aS'more'
p3337
aS'small'
p3338
aS'med'
p3339
aS'unacc'
p3340
aa(lp3341
S'high'
p3342
aS'med'
p3343
ag4
aS'more'
p3344
aS'small'
p3345
aS'high'
p3346
aS'unacc'
p3347
aa(lp3348
S'high'
p3349
aS'med'
p3350
ag4
aS'more'
p3351
aS'med'
p3352
aS'low'
p3353
aS'unacc'
p3354
aa(lp3355
S'high'
p3356
aS'med'
p3357
ag4
aS'more'
p3358
aS'med'
p3359
aS'med'
p3360
aS'unacc'
p3361
aa(lp3362
S'high'
p3363
aS'med'
p3364
ag4
aS'more'
p3365
aS'med'
p3366
aS'high'
p3367
aS'acc'
p3368
aa(lp3369
S'high'
p3370
aS'med'
p3371
ag4
aS'more'
p3372
aS'big'
p3373
aS'low'
p3374
aS'unacc'
p3375
aa(lp3376
S'high'
p3377
aS'med'
p3378
ag4
aS'more'
p3379
aS'big'
p3380
aS'med'
p3381
aS'acc'
p3382
aa(lp3383
S'high'
p3384
aS'med'
p3385
ag4
aS'more'
p3386
aS'big'
p3387
aS'high'
p3388
aS'acc'
p3389
aa(lp3390
S'high'
p3391
aS'med'
p3392
ag99
ag4
aS'small'
p3393
aS'low'
p3394
aS'unacc'
p3395
aa(lp3396
S'high'
p3397
aS'med'
p3398
ag99
ag4
aS'small'
p3399
aS'med'
p3400
aS'unacc'
p3401
aa(lp3402
S'high'
p3403
aS'med'
p3404
ag99
ag4
aS'small'
p3405
aS'high'
p3406
aS'unacc'
p3407
aa(lp3408
S'high'
p3409
aS'med'
p3410
ag99
ag4
aS'med'
p3411
aS'low'
p3412
aS'unacc'
p3413
aa(lp3414
S'high'
p3415
aS'med'
p3416
ag99
ag4
aS'med'
p3417
aS'med'
p3418
aS'unacc'
p3419
aa(lp3420
S'high'
p3421
aS'med'
p3422
ag99
ag4
aS'med'
p3423
aS'high'
p3424
aS'unacc'
p3425
aa(lp3426
S'high'
p3427
aS'med'
p3428
ag99
ag4
aS'big'
p3429
aS'low'
p3430
aS'unacc'
p3431
aa(lp3432
S'high'
p3433
aS'med'
p3434
ag99
ag4
aS'big'
p3435
aS'med'
p3436
aS'unacc'
p3437
aa(lp3438
S'high'
p3439
aS'med'
p3440
ag99
ag4
aS'big'
p3441
aS'high'
p3442
aS'unacc'
p3443
aa(lp3444
S'high'
p3445
aS'med'
p3446
ag99
ag5
aS'small'
p3447
aS'low'
p3448
aS'unacc'
p3449
aa(lp3450
S'high'
p3451
aS'med'
p3452
ag99
ag5
aS'small'
p3453
aS'med'
p3454
aS'unacc'
p3455
aa(lp3456
S'high'
p3457
aS'med'
p3458
ag99
ag5
aS'small'
p3459
aS'high'
p3460
aS'acc'
p3461
aa(lp3462
S'high'
p3463
aS'med'
p3464
ag99
ag5
aS'med'
p3465
aS'low'
p3466
aS'unacc'
p3467
aa(lp3468
S'high'
p3469
aS'med'
p3470
ag99
ag5
aS'med'
p3471
aS'med'
p3472
aS'unacc'
p3473
aa(lp3474
S'high'
p3475
aS'med'
p3476
ag99
ag5
aS'med'
p3477
aS'high'
p3478
aS'acc'
p3479
aa(lp3480
S'high'
p3481
aS'med'
p3482
ag99
ag5
aS'big'
p3483
aS'low'
p3484
aS'unacc'
p3485
aa(lp3486
S'high'
p3487
aS'med'
p3488
ag99
ag5
aS'big'
p3489
aS'med'
p3490
aS'acc'
p3491
aa(lp3492
S'high'
p3493
aS'med'
p3494
ag99
ag5
aS'big'
p3495
aS'high'
p3496
aS'acc'
p3497
aa(lp3498
S'high'
p3499
aS'med'
p3500
ag99
aS'more'
p3501
aS'small'
p3502
aS'low'
p3503
aS'unacc'
p3504
aa(lp3505
S'high'
p3506
aS'med'
p3507
ag99
aS'more'
p3508
aS'small'
p3509
aS'med'
p3510
aS'unacc'
p3511
aa(lp3512
S'high'
p3513
aS'med'
p3514
ag99
aS'more'
p3515
aS'small'
p3516
aS'high'
p3517
aS'acc'
p3518
aa(lp3519
S'high'
p3520
aS'med'
p3521
ag99
aS'more'
p3522
aS'med'
p3523
aS'low'
p3524
aS'unacc'
p3525
aa(lp3526
S'high'
p3527
aS'med'
p3528
ag99
aS'more'
p3529
aS'med'
p3530
aS'med'
p3531
aS'acc'
p3532
aa(lp3533
S'high'
p3534
aS'med'
p3535
ag99
aS'more'
p3536
aS'med'
p3537
aS'high'
p3538
aS'acc'
p3539
aa(lp3540
S'high'
p3541
aS'med'
p3542
ag99
aS'more'
p3543
aS'big'
p3544
aS'low'
p3545
aS'unacc'
p3546
aa(lp3547
S'high'
p3548
aS'med'
p3549
ag99
aS'more'
p3550
aS'big'
p3551
aS'med'
p3552
aS'acc'
p3553
aa(lp3554
S'high'
p3555
aS'med'
p3556
ag99
aS'more'
p3557
aS'big'
p3558
aS'high'
p3559
aS'acc'
p3560
aa(lp3561
S'high'
p3562
aS'med'
p3563
ag5
ag4
aS'small'
p3564
aS'low'
p3565
aS'unacc'
p3566
aa(lp3567
S'high'
p3568
aS'med'
p3569
ag5
ag4
aS'small'
p3570
aS'med'
p3571
aS'unacc'
p3572
aa(lp3573
S'high'
p3574
aS'med'
p3575
ag5
ag4
aS'small'
p3576
aS'high'
p3577
aS'unacc'
p3578
aa(lp3579
S'high'
p3580
aS'med'
p3581
ag5
ag4
aS'med'
p3582
aS'low'
p3583
aS'unacc'
p3584
aa(lp3585
S'high'
p3586
aS'med'
p3587
ag5
ag4
aS'med'
p3588
aS'med'
p3589
aS'unacc'
p3590
aa(lp3591
S'high'
p3592
aS'med'
p3593
ag5
ag4
aS'med'
p3594
aS'high'
p3595
aS'unacc'
p3596
aa(lp3597
S'high'
p3598
aS'med'
p3599
ag5
ag4
aS'big'
p3600
aS'low'
p3601
aS'unacc'
p3602
aa(lp3603
S'high'
p3604
aS'med'
p3605
ag5
ag4
aS'big'
p3606
aS'med'
p3607
aS'unacc'
p3608
aa(lp3609
S'high'
p3610
aS'med'
p3611
ag5
ag4
aS'big'
p3612
aS'high'
p3613
aS'unacc'
p3614
aa(lp3615
S'high'
p3616
aS'med'
p3617
ag5
ag5
aS'small'
p3618
aS'low'
p3619
aS'unacc'
p3620
aa(lp3621
S'high'
p3622
aS'med'
p3623
ag5
ag5
aS'small'
p3624
aS'med'
p3625
aS'unacc'
p3626
aa(lp3627
S'high'
p3628
aS'med'
p3629
ag5
ag5
aS'small'
p3630
aS'high'
p3631
aS'acc'
p3632
aa(lp3633
S'high'
p3634
aS'med'
p3635
ag5
ag5
aS'med'
p3636
aS'low'
p3637
aS'unacc'
p3638
aa(lp3639
S'high'
p3640
aS'med'
p3641
ag5
ag5
aS'med'
p3642
aS'med'
p3643
aS'acc'
p3644
aa(lp3645
S'high'
p3646
aS'med'
p3647
ag5
ag5
aS'med'
p3648
aS'high'
p3649
aS'acc'
p3650
aa(lp3651
S'high'
p3652
aS'med'
p3653
ag5
ag5
aS'big'
p3654
aS'low'
p3655
aS'unacc'
p3656
aa(lp3657
S'high'
p3658
aS'med'
p3659
ag5
ag5
aS'big'
p3660
aS'med'
p3661
aS'acc'
p3662
aa(lp3663
S'high'
p3664
aS'med'
p3665
ag5
ag5
aS'big'
p3666
aS'high'
p3667
aS'acc'
p3668
aa(lp3669
S'high'
p3670
aS'med'
p3671
ag5
aS'more'
p3672
aS'small'
p3673
aS'low'
p3674
aS'unacc'
p3675
aa(lp3676
S'high'
p3677
aS'med'
p3678
ag5
aS'more'
p3679
aS'small'
p3680
aS'med'
p3681
aS'unacc'
p3682
aa(lp3683
S'high'
p3684
aS'med'
p3685
ag5
aS'more'
p3686
aS'small'
p3687
aS'high'
p3688
aS'acc'
p3689
aa(lp3690
S'high'
p3691
aS'med'
p3692
ag5
aS'more'
p3693
aS'med'
p3694
aS'low'
p3695
aS'unacc'
p3696
aa(lp3697
S'high'
p3698
aS'med'
p3699
ag5
aS'more'
p3700
aS'med'
p3701
aS'med'
p3702
aS'acc'
p3703
aa(lp3704
S'high'
p3705
aS'med'
p3706
ag5
aS'more'
p3707
aS'med'
p3708
aS'high'
p3709
aS'acc'
p3710
aa(lp3711
S'high'
p3712
aS'med'
p3713
ag5
aS'more'
p3714
aS'big'
p3715
aS'low'
p3716
aS'unacc'
p3717
aa(lp3718
S'high'
p3719
aS'med'
p3720
ag5
aS'more'
p3721
aS'big'
p3722
aS'med'
p3723
aS'acc'
p3724
aa(lp3725
S'high'
p3726
aS'med'
p3727
ag5
aS'more'
p3728
aS'big'
p3729
aS'high'
p3730
aS'acc'
p3731
aa(lp3732
S'high'
p3733
aS'med'
p3734
aS'5more'
p3735
ag4
aS'small'
p3736
aS'low'
p3737
aS'unacc'
p3738
aa(lp3739
S'high'
p3740
aS'med'
p3741
aS'5more'
p3742
ag4
aS'small'
p3743
aS'med'
p3744
aS'unacc'
p3745
aa(lp3746
S'high'
p3747
aS'med'
p3748
aS'5more'
p3749
ag4
aS'small'
p3750
aS'high'
p3751
aS'unacc'
p3752
aa(lp3753
S'high'
p3754
aS'med'
p3755
aS'5more'
p3756
ag4
aS'med'
p3757
aS'low'
p3758
aS'unacc'
p3759
aa(lp3760
S'high'
p3761
aS'med'
p3762
aS'5more'
p3763
ag4
aS'med'
p3764
aS'med'
p3765
aS'unacc'
p3766
aa(lp3767
S'high'
p3768
aS'med'
p3769
aS'5more'
p3770
ag4
aS'med'
p3771
aS'high'
p3772
aS'unacc'
p3773
aa(lp3774
S'high'
p3775
aS'med'
p3776
aS'5more'
p3777
ag4
aS'big'
p3778
aS'low'
p3779
aS'unacc'
p3780
aa(lp3781
S'high'
p3782
aS'med'
p3783
aS'5more'
p3784
ag4
aS'big'
p3785
aS'med'
p3786
aS'unacc'
p3787
aa(lp3788
S'high'
p3789
aS'med'
p3790
aS'5more'
p3791
ag4
aS'big'
p3792
aS'high'
p3793
aS'unacc'
p3794
aa(lp3795
S'high'
p3796
aS'med'
p3797
aS'5more'
p3798
ag5
aS'small'
p3799
aS'low'
p3800
aS'unacc'
p3801
aa(lp3802
S'high'
p3803
aS'med'
p3804
aS'5more'
p3805
ag5
aS'small'
p3806
aS'med'
p3807
aS'unacc'
p3808
aa(lp3809
S'high'
p3810
aS'med'
p3811
aS'5more'
p3812
ag5
aS'small'
p3813
aS'high'
p3814
aS'acc'
p3815
aa(lp3816
S'high'
p3817
aS'med'
p3818
aS'5more'
p3819
ag5
aS'med'
p3820
aS'low'
p3821
aS'unacc'
p3822
aa(lp3823
S'high'
p3824
aS'med'
p3825
aS'5more'
p3826
ag5
aS'med'
p3827
aS'med'
p3828
aS'acc'
p3829
aa(lp3830
S'high'
p3831
aS'med'
p3832
aS'5more'
p3833
ag5
aS'med'
p3834
aS'high'
p3835
aS'acc'
p3836
aa(lp3837
S'high'
p3838
aS'med'
p3839
aS'5more'
p3840
ag5
aS'big'
p3841
aS'low'
p3842
aS'unacc'
p3843
aa(lp3844
S'high'
p3845
aS'med'
p3846
aS'5more'
p3847
ag5
aS'big'
p3848
aS'med'
p3849
aS'acc'
p3850
aa(lp3851
S'high'
p3852
aS'med'
p3853
aS'5more'
p3854
ag5
aS'big'
p3855
aS'high'
p3856
aS'acc'
p3857
aa(lp3858
S'high'
p3859
aS'med'
p3860
aS'5more'
p3861
aS'more'
p3862
aS'small'
p3863
aS'low'
p3864
aS'unacc'
p3865
aa(lp3866
S'high'
p3867
aS'med'
p3868
aS'5more'
p3869
aS'more'
p3870
aS'small'
p3871
aS'med'
p3872
aS'unacc'
p3873
aa(lp3874
S'high'
p3875
aS'med'
p3876
aS'5more'
p3877
aS'more'
p3878
aS'small'
p3879
aS'high'
p3880
aS'acc'
p3881
aa(lp3882
S'high'
p3883
aS'med'
p3884
aS'5more'
p3885
aS'more'
p3886
aS'med'
p3887
aS'low'
p3888
aS'unacc'
p3889
aa(lp3890
S'high'
p3891
aS'med'
p3892
aS'5more'
p3893
aS'more'
p3894
aS'med'
p3895
aS'med'
p3896
aS'acc'
p3897
aa(lp3898
S'high'
p3899
aS'med'
p3900
aS'5more'
p3901
aS'more'
p3902
aS'med'
p3903
aS'high'
p3904
aS'acc'
p3905
aa(lp3906
S'high'
p3907
aS'med'
p3908
aS'5more'
p3909
aS'more'
p3910
aS'big'
p3911
aS'low'
p3912
aS'unacc'
p3913
aa(lp3914
S'high'
p3915
aS'med'
p3916
aS'5more'
p3917
aS'more'
p3918
aS'big'
p3919
aS'med'
p3920
aS'acc'
p3921
aa(lp3922
S'high'
p3923
aS'med'
p3924
aS'5more'
p3925
aS'more'
p3926
aS'big'
p3927
aS'high'
p3928
aS'acc'
p3929
aa(lp3930
S'high'
p3931
aS'low'
p3932
ag4
ag4
aS'small'
p3933
aS'low'
p3934
aS'unacc'
p3935
aa(lp3936
S'high'
p3937
aS'low'
p3938
ag4
ag4
aS'small'
p3939
aS'med'
p3940
aS'unacc'
p3941
aa(lp3942
S'high'
p3943
aS'low'
p3944
ag4
ag4
aS'small'
p3945
aS'high'
p3946
aS'unacc'
p3947
aa(lp3948
S'high'
p3949
aS'low'
p3950
ag4
ag4
aS'med'
p3951
aS'low'
p3952
aS'unacc'
p3953
aa(lp3954
S'high'
p3955
aS'low'
p3956
ag4
ag4
aS'med'
p3957
aS'med'
p3958
aS'unacc'
p3959
aa(lp3960
S'high'
p3961
aS'low'
p3962
ag4
ag4
aS'med'
p3963
aS'high'
p3964
aS'unacc'
p3965
aa(lp3966
S'high'
p3967
aS'low'
p3968
ag4
ag4
aS'big'
p3969
aS'low'
p3970
aS'unacc'
p3971
aa(lp3972
S'high'
p3973
aS'low'
p3974
ag4
ag4
aS'big'
p3975
aS'med'
p3976
aS'unacc'
p3977
aa(lp3978
S'high'
p3979
aS'low'
p3980
ag4
ag4
aS'big'
p3981
aS'high'
p3982
aS'unacc'
p3983
aa(lp3984
S'high'
p3985
aS'low'
p3986
ag4
ag5
aS'small'
p3987
aS'low'
p3988
aS'unacc'
p3989
aa(lp3990
S'high'
p3991
aS'low'
p3992
ag4
ag5
aS'small'
p3993
aS'med'
p3994
aS'unacc'
p3995
aa(lp3996
S'high'
p3997
aS'low'
p3998
ag4
ag5
aS'small'
p3999
aS'high'
p4000
aS'acc'
p4001
aa(lp4002
S'high'
p4003
aS'low'
p4004
ag4
ag5
aS'med'
p4005
aS'low'
p4006
aS'unacc'
p4007
aa(lp4008
S'high'
p4009
aS'low'
p4010
ag4
ag5
aS'med'
p4011
aS'med'
p4012
aS'unacc'
p4013
aa(lp4014
S'high'
p4015
aS'low'
p4016
ag4
ag5
aS'med'
p4017
aS'high'
p4018
aS'acc'
p4019
aa(lp4020
S'high'
p4021
aS'low'
p4022
ag4
ag5
aS'big'
p4023
aS'low'
p4024
aS'unacc'
p4025
aa(lp4026
S'high'
p4027
aS'low'
p4028
ag4
ag5
aS'big'
p4029
aS'med'
p4030
aS'acc'
p4031
aa(lp4032
S'high'
p4033
aS'low'
p4034
ag4
ag5
aS'big'
p4035
aS'high'
p4036
aS'acc'
p4037
aa(lp4038
S'high'
p4039
aS'low'
p4040
ag4
aS'more'
p4041
aS'small'
p4042
aS'low'
p4043
aS'unacc'
p4044
aa(lp4045
S'high'
p4046
aS'low'
p4047
ag4
aS'more'
p4048
aS'small'
p4049
aS'med'
p4050
aS'unacc'
p4051
aa(lp4052
S'high'
p4053
aS'low'
p4054
ag4
aS'more'
p4055
aS'small'
p4056
aS'high'
p4057
aS'unacc'
p4058
aa(lp4059
S'high'
p4060
aS'low'
p4061
ag4
aS'more'
p4062
aS'med'
p4063
aS'low'
p4064
aS'unacc'
p4065
aa(lp4066
S'high'
p4067
aS'low'
p4068
ag4
aS'more'
p4069
aS'med'
p4070
aS'med'
p4071
aS'unacc'
p4072
aa(lp4073
S'high'
p4074
aS'low'
p4075
ag4
aS'more'
p4076
aS'med'
p4077
aS'high'
p4078
aS'acc'
p4079
aa(lp4080
S'high'
p4081
aS'low'
p4082
ag4
aS'more'
p4083
aS'big'
p4084
aS'low'
p4085
aS'unacc'
p4086
aa(lp4087
S'high'
p4088
aS'low'
p4089
ag4
aS'more'
p4090
aS'big'
p4091
aS'med'
p4092
aS'acc'
p4093
aa(lp4094
S'high'
p4095
aS'low'
p4096
ag4
aS'more'
p4097
aS'big'
p4098
aS'high'
p4099
aS'acc'
p4100
aa(lp4101
S'high'
p4102
aS'low'
p4103
ag99
ag4
aS'small'
p4104
aS'low'
p4105
aS'unacc'
p4106
aa(lp4107
S'high'
p4108
aS'low'
p4109
ag99
ag4
aS'small'
p4110
aS'med'
p4111
aS'unacc'
p4112
aa(lp4113
S'high'
p4114
aS'low'
p4115
ag99
ag4
aS'small'
p4116
aS'high'
p4117
aS'unacc'
p4118
aa(lp4119
S'high'
p4120
aS'low'
p4121
ag99
ag4
aS'med'
p4122
aS'low'
p4123
aS'unacc'
p4124
aa(lp4125
S'high'
p4126
aS'low'
p4127
ag99
ag4
aS'med'
p4128
aS'med'
p4129
aS'unacc'
p4130
aa(lp4131
S'high'
p4132
aS'low'
p4133
ag99
ag4
aS'med'
p4134
aS'high'
p4135
aS'unacc'
p4136
aa(lp4137
S'high'
p4138
aS'low'
p4139
ag99
ag4
aS'big'
p4140
aS'low'
p4141
aS'unacc'
p4142
aa(lp4143
S'high'
p4144
aS'low'
p4145
ag99
ag4
aS'big'
p4146
aS'med'
p4147
aS'unacc'
p4148
aa(lp4149
S'high'
p4150
aS'low'
p4151
ag99
ag4
aS'big'
p4152
aS'high'
p4153
aS'unacc'
p4154
aa(lp4155
S'high'
p4156
aS'low'
p4157
ag99
ag5
aS'small'
p4158
aS'low'
p4159
aS'unacc'
p4160
aa(lp4161
S'high'
p4162
aS'low'
p4163
ag99
ag5
aS'small'
p4164
aS'med'
p4165
aS'unacc'
p4166
aa(lp4167
S'high'
p4168
aS'low'
p4169
ag99
ag5
aS'small'
p4170
aS'high'
p4171
aS'acc'
p4172
aa(lp4173
S'high'
p4174
aS'low'
p4175
ag99
ag5
aS'med'
p4176
aS'low'
p4177
aS'unacc'
p4178
aa(lp4179
S'high'
p4180
aS'low'
p4181
ag99
ag5
aS'med'
p4182
aS'med'
p4183
aS'unacc'
p4184
aa(lp4185
S'high'
p4186
aS'low'
p4187
ag99
ag5
aS'med'
p4188
aS'high'
p4189
aS'acc'
p4190
aa(lp4191
S'high'
p4192
aS'low'
p4193
ag99
ag5
aS'big'
p4194
aS'low'
p4195
aS'unacc'
p4196
aa(lp4197
S'high'
p4198
aS'low'
p4199
ag99
ag5
aS'big'
p4200
aS'med'
p4201
aS'acc'
p4202
aa(lp4203
S'high'
p4204
aS'low'
p4205
ag99
ag5
aS'big'
p4206
aS'high'
p4207
aS'acc'
p4208
aa(lp4209
S'high'
p4210
aS'low'
p4211
ag99
aS'more'
p4212
aS'small'
p4213
aS'low'
p4214
aS'unacc'
p4215
aa(lp4216
S'high'
p4217
aS'low'
p4218
ag99
aS'more'
p4219
aS'small'
p4220
aS'med'
p4221
aS'unacc'
p4222
aa(lp4223
S'high'
p4224
aS'low'
p4225
ag99
aS'more'
p4226
aS'small'
p4227
aS'high'
p4228
aS'acc'
p4229
aa(lp4230
S'high'
p4231
aS'low'
p4232
ag99
aS'more'
p4233
aS'med'
p4234
aS'low'
p4235
aS'unacc'
p4236
aa(lp4237
S'high'
p4238
aS'low'
p4239
ag99
aS'more'
p4240
aS'med'
p4241
aS'med'
p4242
aS'acc'
p4243
aa(lp4244
S'high'
p4245
aS'low'
p4246
ag99
aS'more'
p4247
aS'med'
p4248
aS'high'
p4249
aS'acc'
p4250
aa(lp4251
S'high'
p4252
aS'low'
p4253
ag99
aS'more'
p4254
aS'big'
p4255
aS'low'
p4256
aS'unacc'
p4257
aa(lp4258
S'high'
p4259
aS'low'
p4260
ag99
aS'more'
p4261
aS'big'
p4262
aS'med'
p4263
aS'acc'
p4264
aa(lp4265
S'high'
p4266
aS'low'
p4267
ag99
aS'more'
p4268
aS'big'
p4269
aS'high'
p4270
aS'acc'
p4271
aa(lp4272
S'high'
p4273
aS'low'
p4274
ag5
ag4
aS'small'
p4275
aS'low'
p4276
aS'unacc'
p4277
aa(lp4278
S'high'
p4279
aS'low'
p4280
ag5
ag4
aS'small'
p4281
aS'med'
p4282
aS'unacc'
p4283
aa(lp4284
S'high'
p4285
aS'low'
p4286
ag5
ag4
aS'small'
p4287
aS'high'
p4288
aS'unacc'
p4289
aa(lp4290
S'high'
p4291
aS'low'
p4292
ag5
ag4
aS'med'
p4293
aS'low'
p4294
aS'unacc'
p4295
aa(lp4296
S'high'
p4297
aS'low'
p4298
ag5
ag4
aS'med'
p4299
aS'med'
p4300
aS'unacc'
p4301
aa(lp4302
S'high'
p4303
aS'low'
p4304
ag5
ag4
aS'med'
p4305
aS'high'
p4306
aS'unacc'
p4307
aa(lp4308
S'high'
p4309
aS'low'
p4310
ag5
ag4
aS'big'
p4311
aS'low'
p4312
aS'unacc'
p4313
aa(lp4314
S'high'
p4315
aS'low'
p4316
ag5
ag4
aS'big'
p4317
aS'med'
p4318
aS'unacc'
p4319
aa(lp4320
S'high'
p4321
aS'low'
p4322
ag5
ag4
aS'big'
p4323
aS'high'
p4324
aS'unacc'
p4325
aa(lp4326
S'high'
p4327
aS'low'
p4328
ag5
ag5
aS'small'
p4329
aS'low'
p4330
aS'unacc'
p4331
aa(lp4332
S'high'
p4333
aS'low'
p4334
ag5
ag5
aS'small'
p4335
aS'med'
p4336
aS'unacc'
p4337
aa(lp4338
S'high'
p4339
aS'low'
p4340
ag5
ag5
aS'small'
p4341
aS'high'
p4342
aS'acc'
p4343
aa(lp4344
S'high'
p4345
aS'low'
p4346
ag5
ag5
aS'med'
p4347
aS'low'
p4348
aS'unacc'
p4349
aa(lp4350
S'high'
p4351
aS'low'
p4352
ag5
ag5
aS'med'
p4353
aS'med'
p4354
aS'acc'
p4355
aa(lp4356
S'high'
p4357
aS'low'
p4358
ag5
ag5
aS'med'
p4359
aS'high'
p4360
aS'acc'
p4361
aa(lp4362
S'high'
p4363
aS'low'
p4364
ag5
ag5
aS'big'
p4365
aS'low'
p4366
aS'unacc'
p4367
aa(lp4368
S'high'
p4369
aS'low'
p4370
ag5
ag5
aS'big'
p4371
aS'med'
p4372
aS'acc'
p4373
aa(lp4374
S'high'
p4375
aS'low'
p4376
ag5
ag5
aS'big'
p4377
aS'high'
p4378
aS'acc'
p4379
aa(lp4380
S'high'
p4381
aS'low'
p4382
ag5
aS'more'
p4383
aS'small'
p4384
aS'low'
p4385
aS'unacc'
p4386
aa(lp4387
S'high'
p4388
aS'low'
p4389
ag5
aS'more'
p4390
aS'small'
p4391
aS'med'
p4392
aS'unacc'
p4393
aa(lp4394
S'high'
p4395
aS'low'
p4396
ag5
aS'more'
p4397
aS'small'
p4398
aS'high'
p4399
aS'acc'
p4400
aa(lp4401
S'high'
p4402
aS'low'
p4403
ag5
aS'more'
p4404
aS'med'
p4405
aS'low'
p4406
aS'unacc'
p4407
aa(lp4408
S'high'
p4409
aS'low'
p4410
ag5
aS'more'
p4411
aS'med'
p4412
aS'med'
p4413
aS'acc'
p4414
aa(lp4415
S'high'
p4416
aS'low'
p4417
ag5
aS'more'
p4418
aS'med'
p4419
aS'high'
p4420
aS'acc'
p4421
aa(lp4422
S'high'
p4423
aS'low'
p4424
ag5
aS'more'
p4425
aS'big'
p4426
aS'low'
p4427
aS'unacc'
p4428
aa(lp4429
S'high'
p4430
aS'low'
p4431
ag5
aS'more'
p4432
aS'big'
p4433
aS'med'
p4434
aS'acc'
p4435
aa(lp4436
S'high'
p4437
aS'low'
p4438
ag5
aS'more'
p4439
aS'big'
p4440
aS'high'
p4441
aS'acc'
p4442
aa(lp4443
S'high'
p4444
aS'low'
p4445
aS'5more'
p4446
ag4
aS'small'
p4447
aS'low'
p4448
aS'unacc'
p4449
aa(lp4450
S'high'
p4451
aS'low'
p4452
aS'5more'
p4453
ag4
aS'small'
p4454
aS'med'
p4455
aS'unacc'
p4456
aa(lp4457
S'high'
p4458
aS'low'
p4459
aS'5more'
p4460
ag4
aS'small'
p4461
aS'high'
p4462
aS'unacc'
p4463
aa(lp4464
S'high'
p4465
aS'low'
p4466
aS'5more'
p4467
ag4
aS'med'
p4468
aS'low'
p4469
aS'unacc'
p4470
aa(lp4471
S'high'
p4472
aS'low'
p4473
aS'5more'
p4474
ag4
aS'med'
p4475
aS'med'
p4476
aS'unacc'
p4477
aa(lp4478
S'high'
p4479
aS'low'
p4480
aS'5more'
p4481
ag4
aS'med'
p4482
aS'high'
p4483
aS'unacc'
p4484
aa(lp4485
S'high'
p4486
aS'low'
p4487
aS'5more'
p4488
ag4
aS'big'
p4489
aS'low'
p4490
aS'unacc'
p4491
aa(lp4492
S'high'
p4493
aS'low'
p4494
aS'5more'
p4495
ag4
aS'big'
p4496
aS'med'
p4497
aS'unacc'
p4498
aa(lp4499
S'high'
p4500
aS'low'
p4501
aS'5more'
p4502
ag4
aS'big'
p4503
aS'high'
p4504
aS'unacc'
p4505
aa(lp4506
S'high'
p4507
aS'low'
p4508
aS'5more'
p4509
ag5
aS'small'
p4510
aS'low'
p4511
aS'unacc'
p4512
aa(lp4513
S'high'
p4514
aS'low'
p4515
aS'5more'
p4516
ag5
aS'small'
p4517
aS'med'
p4518
aS'unacc'
p4519
aa(lp4520
S'high'
p4521
aS'low'
p4522
aS'5more'
p4523
ag5
aS'small'
p4524
aS'high'
p4525
aS'acc'
p4526
aa(lp4527
S'high'
p4528
aS'low'
p4529
aS'5more'
p4530
ag5
aS'med'
p4531
aS'low'
p4532
aS'unacc'
p4533
aa(lp4534
S'high'
p4535
aS'low'
p4536
aS'5more'
p4537
ag5
aS'med'
p4538
aS'med'
p4539
aS'acc'
p4540
aa(lp4541
S'high'
p4542
aS'low'
p4543
aS'5more'
p4544
ag5
aS'med'
p4545
aS'high'
p4546
aS'acc'
p4547
aa(lp4548
S'high'
p4549
aS'low'
p4550
aS'5more'
p4551
ag5
aS'big'
p4552
aS'low'
p4553
aS'unacc'
p4554
aa(lp4555
S'high'
p4556
aS'low'
p4557
aS'5more'
p4558
ag5
aS'big'
p4559
aS'med'
p4560
aS'acc'
p4561
aa(lp4562
S'high'
p4563
aS'low'
p4564
aS'5more'
p4565
ag5
aS'big'
p4566
aS'high'
p4567
aS'acc'
p4568
aa(lp4569
S'high'
p4570
aS'low'
p4571
aS'5more'
p4572
aS'more'
p4573
aS'small'
p4574
aS'low'
p4575
aS'unacc'
p4576
aa(lp4577
S'high'
p4578
aS'low'
p4579
aS'5more'
p4580
aS'more'
p4581
aS'small'
p4582
aS'med'
p4583
aS'unacc'
p4584
aa(lp4585
S'high'
p4586
aS'low'
p4587
aS'5more'
p4588
aS'more'
p4589
aS'small'
p4590
aS'high'
p4591
aS'acc'
p4592
aa(lp4593
S'high'
p4594
aS'low'
p4595
aS'5more'
p4596
aS'more'
p4597
aS'med'
p4598
aS'low'
p4599
aS'unacc'
p4600
aa(lp4601
S'high'
p4602
aS'low'
p4603
aS'5more'
p4604
aS'more'
p4605
aS'med'
p4606
aS'med'
p4607
aS'acc'
p4608
aa(lp4609
S'high'
p4610
aS'low'
p4611
aS'5more'
p4612
aS'more'
p4613
aS'med'
p4614
aS'high'
p4615
aS'acc'
p4616
aa(lp4617
S'high'
p4618
aS'low'
p4619
aS'5more'
p4620
aS'more'
p4621
aS'big'
p4622
aS'low'
p4623
aS'unacc'
p4624
aa(lp4625
S'high'
p4626
aS'low'
p4627
aS'5more'
p4628
aS'more'
p4629
aS'big'
p4630
aS'med'
p4631
aS'acc'
p4632
aa(lp4633
S'high'
p4634
aS'low'
p4635
aS'5more'
p4636
aS'more'
p4637
aS'big'
p4638
aS'high'
p4639
aS'acc'
p4640
aa(lp4641
S'med'
p4642
aS'vhigh'
p4643
ag4
ag4
aS'small'
p4644
aS'low'
p4645
aS'unacc'
p4646
aa(lp4647
S'med'
p4648
aS'vhigh'
p4649
ag4
ag4
aS'small'
p4650
aS'med'
p4651
aS'unacc'
p4652
aa(lp4653
S'med'
p4654
aS'vhigh'
p4655
ag4
ag4
aS'small'
p4656
aS'high'
p4657
aS'unacc'
p4658
aa(lp4659
S'med'
p4660
aS'vhigh'
p4661
ag4
ag4
aS'med'
p4662
aS'low'
p4663
aS'unacc'
p4664
aa(lp4665
S'med'
p4666
aS'vhigh'
p4667
ag4
ag4
aS'med'
p4668
aS'med'
p4669
aS'unacc'
p4670
aa(lp4671
S'med'
p4672
aS'vhigh'
p4673
ag4
ag4
aS'med'
p4674
aS'high'
p4675
aS'unacc'
p4676
aa(lp4677
S'med'
p4678
aS'vhigh'
p4679
ag4
ag4
aS'big'
p4680
aS'low'
p4681
aS'unacc'
p4682
aa(lp4683
S'med'
p4684
aS'vhigh'
p4685
ag4
ag4
aS'big'
p4686
aS'med'
p4687
aS'unacc'
p4688
aa(lp4689
S'med'
p4690
aS'vhigh'
p4691
ag4
ag4
aS'big'
p4692
aS'high'
p4693
aS'unacc'
p4694
aa(lp4695
S'med'
p4696
aS'vhigh'
p4697
ag4
ag5
aS'small'
p4698
aS'low'
p4699
aS'unacc'
p4700
aa(lp4701
S'med'
p4702
aS'vhigh'
p4703
ag4
ag5
aS'small'
p4704
aS'med'
p4705
aS'unacc'
p4706
aa(lp4707
S'med'
p4708
aS'vhigh'
p4709
ag4
ag5
aS'small'
p4710
aS'high'
p4711
aS'acc'
p4712
aa(lp4713
S'med'
p4714
aS'vhigh'
p4715
ag4
ag5
aS'med'
p4716
aS'low'
p4717
aS'unacc'
p4718
aa(lp4719
S'med'
p4720
aS'vhigh'
p4721
ag4
ag5
aS'med'
p4722
aS'med'
p4723
aS'unacc'
p4724
aa(lp4725
S'med'
p4726
aS'vhigh'
p4727
ag4
ag5
aS'med'
p4728
aS'high'
p4729
aS'acc'
p4730
aa(lp4731
S'med'
p4732
aS'vhigh'
p4733
ag4
ag5
aS'big'
p4734
aS'low'
p4735
aS'unacc'
p4736
aa(lp4737
S'med'
p4738
aS'vhigh'
p4739
ag4
ag5
aS'big'
p4740
aS'med'
p4741
aS'acc'
p4742
aa(lp4743
S'med'
p4744
aS'vhigh'
p4745
ag4
ag5
aS'big'
p4746
aS'high'
p4747
aS'acc'
p4748
aa(lp4749
S'med'
p4750
aS'vhigh'
p4751
ag4
aS'more'
p4752
aS'small'
p4753
aS'low'
p4754
aS'unacc'
p4755
aa(lp4756
S'med'
p4757
aS'vhigh'
p4758
ag4
aS'more'
p4759
aS'small'
p4760
aS'med'
p4761
aS'unacc'
p4762
aa(lp4763
S'med'
p4764
aS'vhigh'
p4765
ag4
aS'more'
p4766
aS'small'
p4767
aS'high'
p4768
aS'unacc'
p4769
aa(lp4770
S'med'
p4771
aS'vhigh'
p4772
ag4
aS'more'
p4773
aS'med'
p4774
aS'low'
p4775
aS'unacc'
p4776
aa(lp4777
S'med'
p4778
aS'vhigh'
p4779
ag4
aS'more'
p4780
aS'med'
p4781
aS'med'
p4782
aS'unacc'
p4783
aa(lp4784
S'med'
p4785
aS'vhigh'
p4786
ag4
aS'more'
p4787
aS'med'
p4788
aS'high'
p4789
aS'acc'
p4790
aa(lp4791
S'med'
p4792
aS'vhigh'
p4793
ag4
aS'more'
p4794
aS'big'
p4795
aS'low'
p4796
aS'unacc'
p4797
aa(lp4798
S'med'
p4799
aS'vhigh'
p4800
ag4
aS'more'
p4801
aS'big'
p4802
aS'med'
p4803
aS'acc'
p4804
aa(lp4805
S'med'
p4806
aS'vhigh'
p4807
ag4
aS'more'
p4808
aS'big'
p4809
aS'high'
p4810
aS'acc'
p4811
aa(lp4812
S'med'
p4813
aS'vhigh'
p4814
ag99
ag4
aS'small'
p4815
aS'low'
p4816
aS'unacc'
p4817
aa(lp4818
S'med'
p4819
aS'vhigh'
p4820
ag99
ag4
aS'small'
p4821
aS'med'
p4822
aS'unacc'
p4823
aa(lp4824
S'med'
p4825
aS'vhigh'
p4826
ag99
ag4
aS'small'
p4827
aS'high'
p4828
aS'unacc'
p4829
aa(lp4830
S'med'
p4831
aS'vhigh'
p4832
ag99
ag4
aS'med'
p4833
aS'low'
p4834
aS'unacc'
p4835
aa(lp4836
S'med'
p4837
aS'vhigh'
p4838
ag99
ag4
aS'med'
p4839
aS'med'
p4840
aS'unacc'
p4841
aa(lp4842
S'med'
p4843
aS'vhigh'
p4844
ag99
ag4
aS'med'
p4845
aS'high'
p4846
aS'unacc'
p4847
aa(lp4848
S'med'
p4849
aS'vhigh'
p4850
ag99
ag4
aS'big'
p4851
aS'low'
p4852
aS'unacc'
p4853
aa(lp4854
S'med'
p4855
aS'vhigh'
p4856
ag99
ag4
aS'big'
p4857
aS'med'
p4858
aS'unacc'
p4859
aa(lp4860
S'med'
p4861
aS'vhigh'
p4862
ag99
ag4
aS'big'
p4863
aS'high'
p4864
aS'unacc'
p4865
aa(lp4866
S'med'
p4867
aS'vhigh'
p4868
ag99
ag5
aS'small'
p4869
aS'low'
p4870
aS'unacc'
p4871
aa(lp4872
S'med'
p4873
aS'vhigh'
p4874
ag99
ag5
aS'small'
p4875
aS'med'
p4876
aS'unacc'
p4877
aa(lp4878
S'med'
p4879
aS'vhigh'
p4880
ag99
ag5
aS'small'
p4881
aS'high'
p4882
aS'acc'
p4883
aa(lp4884
S'med'
p4885
aS'vhigh'
p4886
ag99
ag5
aS'med'
p4887
aS'low'
p4888
aS'unacc'
p4889
aa(lp4890
S'med'
p4891
aS'vhigh'
p4892
ag99
ag5
aS'med'
p4893
aS'med'
p4894
aS'unacc'
p4895
aa(lp4896
S'med'
p4897
aS'vhigh'
p4898
ag99
ag5
aS'med'
p4899
aS'high'
p4900
aS'acc'
p4901
aa(lp4902
S'med'
p4903
aS'vhigh'
p4904
ag99
ag5
aS'big'
p4905
aS'low'
p4906
aS'unacc'
p4907
aa(lp4908
S'med'
p4909
aS'vhigh'
p4910
ag99
ag5
aS'big'
p4911
aS'med'
p4912
aS'acc'
p4913
aa(lp4914
S'med'
p4915
aS'vhigh'
p4916
ag99
ag5
aS'big'
p4917
aS'high'
p4918
aS'acc'
p4919
aa(lp4920
S'med'
p4921
aS'vhigh'
p4922
ag99
aS'more'
p4923
aS'small'
p4924
aS'low'
p4925
aS'unacc'
p4926
aa(lp4927
S'med'
p4928
aS'vhigh'
p4929
ag99
aS'more'
p4930
aS'small'
p4931
aS'med'
p4932
aS'unacc'
p4933
aa(lp4934
S'med'
p4935
aS'vhigh'
p4936
ag99
aS'more'
p4937
aS'small'
p4938
aS'high'
p4939
aS'acc'
p4940
aa(lp4941
S'med'
p4942
aS'vhigh'
p4943
ag99
aS'more'
p4944
aS'med'
p4945
aS'low'
p4946
aS'unacc'
p4947
aa(lp4948
S'med'
p4949
aS'vhigh'
p4950
ag99
aS'more'
p4951
aS'med'
p4952
aS'med'
p4953
aS'acc'
p4954
aa(lp4955
S'med'
p4956
aS'vhigh'
p4957
ag99
aS'more'
p4958
aS'med'
p4959
aS'high'
p4960
aS'acc'
p4961
aa(lp4962
S'med'
p4963
aS'vhigh'
p4964
ag99
aS'more'
p4965
aS'big'
p4966
aS'low'
p4967
aS'unacc'
p4968
aa(lp4969
S'med'
p4970
aS'vhigh'
p4971
ag99
aS'more'
p4972
aS'big'
p4973
aS'med'
p4974
aS'acc'
p4975
aa(lp4976
S'med'
p4977
aS'vhigh'
p4978
ag99
aS'more'
p4979
aS'big'
p4980
aS'high'
p4981
aS'acc'
p4982
aa(lp4983
S'med'
p4984
aS'vhigh'
p4985
ag5
ag4
aS'small'
p4986
aS'low'
p4987
aS'unacc'
p4988
aa(lp4989
S'med'
p4990
aS'vhigh'
p4991
ag5
ag4
aS'small'
p4992
aS'med'
p4993
aS'unacc'
p4994
aa(lp4995
S'med'
p4996
aS'vhigh'
p4997
ag5
ag4
aS'small'
p4998
aS'high'
p4999
aS'unacc'
p5000
aa(lp5001
S'med'
p5002
aS'vhigh'
p5003
ag5
ag4
aS'med'
p5004
aS'low'
p5005
aS'unacc'
p5006
aa(lp5007
S'med'
p5008
aS'vhigh'
p5009
ag5
ag4
aS'med'
p5010
aS'med'
p5011
aS'unacc'
p5012
aa(lp5013
S'med'
p5014
aS'vhigh'
p5015
ag5
ag4
aS'med'
p5016
aS'high'
p5017
aS'unacc'
p5018
aa(lp5019
S'med'
p5020
aS'vhigh'
p5021
ag5
ag4
aS'big'
p5022
aS'low'
p5023
aS'unacc'
p5024
aa(lp5025
S'med'
p5026
aS'vhigh'
p5027
ag5
ag4
aS'big'
p5028
aS'med'
p5029
aS'unacc'
p5030
aa(lp5031
S'med'
p5032
aS'vhigh'
p5033
ag5
ag4
aS'big'
p5034
aS'high'
p5035
aS'unacc'
p5036
aa(lp5037
S'med'
p5038
aS'vhigh'
p5039
ag5
ag5
aS'small'
p5040
aS'low'
p5041
aS'unacc'
p5042
aa(lp5043
S'med'
p5044
aS'vhigh'
p5045
ag5
ag5
aS'small'
p5046
aS'med'
p5047
aS'unacc'
p5048
aa(lp5049
S'med'
p5050
aS'vhigh'
p5051
ag5
ag5
aS'small'
p5052
aS'high'
p5053
aS'acc'
p5054
aa(lp5055
S'med'
p5056
aS'vhigh'
p5057
ag5
ag5
aS'med'
p5058
aS'low'
p5059
aS'unacc'
p5060
aa(lp5061
S'med'
p5062
aS'vhigh'
p5063
ag5
ag5
aS'med'
p5064
aS'med'
p5065
aS'acc'
p5066
aa(lp5067
S'med'
p5068
aS'vhigh'
p5069
ag5
ag5
aS'med'
p5070
aS'high'
p5071
aS'acc'
p5072
aa(lp5073
S'med'
p5074
aS'vhigh'
p5075
ag5
ag5
aS'big'
p5076
aS'low'
p5077
aS'unacc'
p5078
aa(lp5079
S'med'
p5080
aS'vhigh'
p5081
ag5
ag5
aS'big'
p5082
aS'med'
p5083
aS'acc'
p5084
aa(lp5085
S'med'
p5086
aS'vhigh'
p5087
ag5
ag5
aS'big'
p5088
aS'high'
p5089
aS'acc'
p5090
aa(lp5091
S'med'
p5092
aS'vhigh'
p5093
ag5
aS'more'
p5094
aS'small'
p5095
aS'low'
p5096
aS'unacc'
p5097
aa(lp5098
S'med'
p5099
aS'vhigh'
p5100
ag5
aS'more'
p5101
aS'small'
p5102
aS'med'
p5103
aS'unacc'
p5104
aa(lp5105
S'med'
p5106
aS'vhigh'
p5107
ag5
aS'more'
p5108
aS'small'
p5109
aS'high'
p5110
aS'acc'
p5111
aa(lp5112
S'med'
p5113
aS'vhigh'
p5114
ag5
aS'more'
p5115
aS'med'
p5116
aS'low'
p5117
aS'unacc'
p5118
aa(lp5119
S'med'
p5120
aS'vhigh'
p5121
ag5
aS'more'
p5122
aS'med'
p5123
aS'med'
p5124
aS'acc'
p5125
aa(lp5126
S'med'
p5127
aS'vhigh'
p5128
ag5
aS'more'
p5129
aS'med'
p5130
aS'high'
p5131
aS'acc'
p5132
aa(lp5133
S'med'
p5134
aS'vhigh'
p5135
ag5
aS'more'
p5136
aS'big'
p5137
aS'low'
p5138
aS'unacc'
p5139
aa(lp5140
S'med'
p5141
aS'vhigh'
p5142
ag5
aS'more'
p5143
aS'big'
p5144
aS'med'
p5145
aS'acc'
p5146
aa(lp5147
S'med'
p5148
aS'vhigh'
p5149
ag5
aS'more'
p5150
aS'big'
p5151
aS'high'
p5152
aS'acc'
p5153
aa(lp5154
S'med'
p5155
aS'vhigh'
p5156
aS'5more'
p5157
ag4
aS'small'
p5158
aS'low'
p5159
aS'unacc'
p5160
aa(lp5161
S'med'
p5162
aS'vhigh'
p5163
aS'5more'
p5164
ag4
aS'small'
p5165
aS'med'
p5166
aS'unacc'
p5167
aa(lp5168
S'med'
p5169
aS'vhigh'
p5170
aS'5more'
p5171
ag4
aS'small'
p5172
aS'high'
p5173
aS'unacc'
p5174
aa(lp5175
S'med'
p5176
aS'vhigh'
p5177
aS'5more'
p5178
ag4
aS'med'
p5179
aS'low'
p5180
aS'unacc'
p5181
aa(lp5182
S'med'
p5183
aS'vhigh'
p5184
aS'5more'
p5185
ag4
aS'med'
p5186
aS'med'
p5187
aS'unacc'
p5188
aa(lp5189
S'med'
p5190
aS'vhigh'
p5191
aS'5more'
p5192
ag4
aS'med'
p5193
aS'high'
p5194
aS'unacc'
p5195
aa(lp5196
S'med'
p5197
aS'vhigh'
p5198
aS'5more'
p5199
ag4
aS'big'
p5200
aS'low'
p5201
aS'unacc'
p5202
aa(lp5203
S'med'
p5204
aS'vhigh'
p5205
aS'5more'
p5206
ag4
aS'big'
p5207
aS'med'
p5208
aS'unacc'
p5209
aa(lp5210
S'med'
p5211
aS'vhigh'
p5212
aS'5more'
p5213
ag4
aS'big'
p5214
aS'high'
p5215
aS'unacc'
p5216
aa(lp5217
S'med'
p5218
aS'vhigh'
p5219
aS'5more'
p5220
ag5
aS'small'
p5221
aS'low'
p5222
aS'unacc'
p5223
aa(lp5224
S'med'
p5225
aS'vhigh'
p5226
aS'5more'
p5227
ag5
aS'small'
p5228
aS'med'
p5229
aS'unacc'
p5230
aa(lp5231
S'med'
p5232
aS'vhigh'
p5233
aS'5more'
p5234
ag5
aS'small'
p5235
aS'high'
p5236
aS'acc'
p5237
aa(lp5238
S'med'
p5239
aS'vhigh'
p5240
aS'5more'
p5241
ag5
aS'med'
p5242
aS'low'
p5243
aS'unacc'
p5244
aa(lp5245
S'med'
p5246
aS'vhigh'
p5247
aS'5more'
p5248
ag5
aS'med'
p5249
aS'med'
p5250
aS'acc'
p5251
aa(lp5252
S'med'
p5253
aS'vhigh'
p5254
aS'5more'
p5255
ag5
aS'med'
p5256
aS'high'
p5257
aS'acc'
p5258
aa(lp5259
S'med'
p5260
aS'vhigh'
p5261
aS'5more'
p5262
ag5
aS'big'
p5263
aS'low'
p5264
aS'unacc'
p5265
aa(lp5266
S'med'
p5267
aS'vhigh'
p5268
aS'5more'
p5269
ag5
aS'big'
p5270
aS'med'
p5271
aS'acc'
p5272
aa(lp5273
S'med'
p5274
aS'vhigh'
p5275
aS'5more'
p5276
ag5
aS'big'
p5277
aS'high'
p5278
aS'acc'
p5279
aa(lp5280
S'med'
p5281
aS'vhigh'
p5282
aS'5more'
p5283
aS'more'
p5284
aS'small'
p5285
aS'low'
p5286
aS'unacc'
p5287
aa(lp5288
S'med'
p5289
aS'vhigh'
p5290
aS'5more'
p5291
aS'more'
p5292
aS'small'
p5293
aS'med'
p5294
aS'unacc'
p5295
aa(lp5296
S'med'
p5297
aS'vhigh'
p5298
aS'5more'
p5299
aS'more'
p5300
aS'small'
p5301
aS'high'
p5302
aS'acc'
p5303
aa(lp5304
S'med'
p5305
aS'vhigh'
p5306
aS'5more'
p5307
aS'more'
p5308
aS'med'
p5309
aS'low'
p5310
aS'unacc'
p5311
aa(lp5312
S'med'
p5313
aS'vhigh'
p5314
aS'5more'
p5315
aS'more'
p5316
aS'med'
p5317
aS'med'
p5318
aS'acc'
p5319
aa(lp5320
S'med'
p5321
aS'vhigh'
p5322
aS'5more'
p5323
aS'more'
p5324
aS'med'
p5325
aS'high'
p5326
aS'acc'
p5327
aa(lp5328
S'med'
p5329
aS'vhigh'
p5330
aS'5more'
p5331
aS'more'
p5332
aS'big'
p5333
aS'low'
p5334
aS'unacc'
p5335
aa(lp5336
S'med'
p5337
aS'vhigh'
p5338
aS'5more'
p5339
aS'more'
p5340
aS'big'
p5341
aS'med'
p5342
aS'acc'
p5343
aa(lp5344
S'med'
p5345
aS'vhigh'
p5346
aS'5more'
p5347
aS'more'
p5348
aS'big'
p5349
aS'high'
p5350
aS'acc'
p5351
aa(lp5352
S'med'
p5353
aS'high'
p5354
ag4
ag4
aS'small'
p5355
aS'low'
p5356
aS'unacc'
p5357
aa(lp5358
S'med'
p5359
aS'high'
p5360
ag4
ag4
aS'small'
p5361
aS'med'
p5362
aS'unacc'
p5363
aa(lp5364
S'med'
p5365
aS'high'
p5366
ag4
ag4
aS'small'
p5367
aS'high'
p5368
aS'unacc'
p5369
aa(lp5370
S'med'
p5371
aS'high'
p5372
ag4
ag4
aS'med'
p5373
aS'low'
p5374
aS'unacc'
p5375
aa(lp5376
S'med'
p5377
aS'high'
p5378
ag4
ag4
aS'med'
p5379
aS'med'
p5380
aS'unacc'
p5381
aa(lp5382
S'med'
p5383
aS'high'
p5384
ag4
ag4
aS'med'
p5385
aS'high'
p5386
aS'unacc'
p5387
aa(lp5388
S'med'
p5389
aS'high'
p5390
ag4
ag4
aS'big'
p5391
aS'low'
p5392
aS'unacc'
p5393
aa(lp5394
S'med'
p5395
aS'high'
p5396
ag4
ag4
aS'big'
p5397
aS'med'
p5398
aS'unacc'
p5399
aa(lp5400
S'med'
p5401
aS'high'
p5402
ag4
ag4
aS'big'
p5403
aS'high'
p5404
aS'unacc'
p5405
aa(lp5406
S'med'
p5407
aS'high'
p5408
ag4
ag5
aS'small'
p5409
aS'low'
p5410
aS'unacc'
p5411
aa(lp5412
S'med'
p5413
aS'high'
p5414
ag4
ag5
aS'small'
p5415
aS'med'
p5416
aS'unacc'
p5417
aa(lp5418
S'med'
p5419
aS'high'
p5420
ag4
ag5
aS'small'
p5421
aS'high'
p5422
aS'acc'
p5423
aa(lp5424
S'med'
p5425
aS'high'
p5426
ag4
ag5
aS'med'
p5427
aS'low'
p5428
aS'unacc'
p5429
aa(lp5430
S'med'
p5431
aS'high'
p5432
ag4
ag5
aS'med'
p5433
aS'med'
p5434
aS'unacc'
p5435
aa(lp5436
S'med'
p5437
aS'high'
p5438
ag4
ag5
aS'med'
p5439
aS'high'
p5440
aS'acc'
p5441
aa(lp5442
S'med'
p5443
aS'high'
p5444
ag4
ag5
aS'big'
p5445
aS'low'
p5446
aS'unacc'
p5447
aa(lp5448
S'med'
p5449
aS'high'
p5450
ag4
ag5
aS'big'
p5451
aS'med'
p5452
aS'acc'
p5453
aa(lp5454
S'med'
p5455
aS'high'
p5456
ag4
ag5
aS'big'
p5457
aS'high'
p5458
aS'acc'
p5459
aa(lp5460
S'med'
p5461
aS'high'
p5462
ag4
aS'more'
p5463
aS'small'
p5464
aS'low'
p5465
aS'unacc'
p5466
aa(lp5467
S'med'
p5468
aS'high'
p5469
ag4
aS'more'
p5470
aS'small'
p5471
aS'med'
p5472
aS'unacc'
p5473
aa(lp5474
S'med'
p5475
aS'high'
p5476
ag4
aS'more'
p5477
aS'small'
p5478
aS'high'
p5479
aS'unacc'
p5480
aa(lp5481
S'med'
p5482
aS'high'
p5483
ag4
aS'more'
p5484
aS'med'
p5485
aS'low'
p5486
aS'unacc'
p5487
aa(lp5488
S'med'
p5489
aS'high'
p5490
ag4
aS'more'
p5491
aS'med'
p5492
aS'med'
p5493
aS'unacc'
p5494
aa(lp5495
S'med'
p5496
aS'high'
p5497
ag4
aS'more'
p5498
aS'med'
p5499
aS'high'
p5500
aS'acc'
p5501
aa(lp5502
S'med'
p5503
aS'high'
p5504
ag4
aS'more'
p5505
aS'big'
p5506
aS'low'
p5507
aS'unacc'
p5508
aa(lp5509
S'med'
p5510
aS'high'
p5511
ag4
aS'more'
p5512
aS'big'
p5513
aS'med'
p5514
aS'acc'
p5515
aa(lp5516
S'med'
p5517
aS'high'
p5518
ag4
aS'more'
p5519
aS'big'
p5520
aS'high'
p5521
aS'acc'
p5522
aa(lp5523
S'med'
p5524
aS'high'
p5525
ag99
ag4
aS'small'
p5526
aS'low'
p5527
aS'unacc'
p5528
aa(lp5529
S'med'
p5530
aS'high'
p5531
ag99
ag4
aS'small'
p5532
aS'med'
p5533
aS'unacc'
p5534
aa(lp5535
S'med'
p5536
aS'high'
p5537
ag99
ag4
aS'small'
p5538
aS'high'
p5539
aS'unacc'
p5540
aa(lp5541
S'med'
p5542
aS'high'
p5543
ag99
ag4
aS'med'
p5544
aS'low'
p5545
aS'unacc'
p5546
aa(lp5547
S'med'
p5548
aS'high'
p5549
ag99
ag4
aS'med'
p5550
aS'med'
p5551
aS'unacc'
p5552
aa(lp5553
S'med'
p5554
aS'high'
p5555
ag99
ag4
aS'med'
p5556
aS'high'
p5557
aS'unacc'
p5558
aa(lp5559
S'med'
p5560
aS'high'
p5561
ag99
ag4
aS'big'
p5562
aS'low'
p5563
aS'unacc'
p5564
aa(lp5565
S'med'
p5566
aS'high'
p5567
ag99
ag4
aS'big'
p5568
aS'med'
p5569
aS'unacc'
p5570
aa(lp5571
S'med'
p5572
aS'high'
p5573
ag99
ag4
aS'big'
p5574
aS'high'
p5575
aS'unacc'
p5576
aa(lp5577
S'med'
p5578
aS'high'
p5579
ag99
ag5
aS'small'
p5580
aS'low'
p5581
aS'unacc'
p5582
aa(lp5583
S'med'
p5584
aS'high'
p5585
ag99
ag5
aS'small'
p5586
aS'med'
p5587
aS'unacc'
p5588
aa(lp5589
S'med'
p5590
aS'high'
p5591
ag99
ag5
aS'small'
p5592
aS'high'
p5593
aS'acc'
p5594
aa(lp5595
S'med'
p5596
aS'high'
p5597
ag99
ag5
aS'med'
p5598
aS'low'
p5599
aS'unacc'
p5600
aa(lp5601
S'med'
p5602
aS'high'
p5603
ag99
ag5
aS'med'
p5604
aS'med'
p5605
aS'unacc'
p5606
aa(lp5607
S'med'
p5608
aS'high'
p5609
ag99
ag5
aS'med'
p5610
aS'high'
p5611
aS'acc'
p5612
aa(lp5613
S'med'
p5614
aS'high'
p5615
ag99
ag5
aS'big'
p5616
aS'low'
p5617
aS'unacc'
p5618
aa(lp5619
S'med'
p5620
aS'high'
p5621
ag99
ag5
aS'big'
p5622
aS'med'
p5623
aS'acc'
p5624
aa(lp5625
S'med'
p5626
aS'high'
p5627
ag99
ag5
aS'big'
p5628
aS'high'
p5629
aS'acc'
p5630
aa(lp5631
S'med'
p5632
aS'high'
p5633
ag99
aS'more'
p5634
aS'small'
p5635
aS'low'
p5636
aS'unacc'
p5637
aa(lp5638
S'med'
p5639
aS'high'
p5640
ag99
aS'more'
p5641
aS'small'
p5642
aS'med'
p5643
aS'unacc'
p5644
aa(lp5645
S'med'
p5646
aS'high'
p5647
ag99
aS'more'
p5648
aS'small'
p5649
aS'high'
p5650
aS'acc'
p5651
aa(lp5652
S'med'
p5653
aS'high'
p5654
ag99
aS'more'
p5655
aS'med'
p5656
aS'low'
p5657
aS'unacc'
p5658
aa(lp5659
S'med'
p5660
aS'high'
p5661
ag99
aS'more'
p5662
aS'med'
p5663
aS'med'
p5664
aS'acc'
p5665
aa(lp5666
S'med'
p5667
aS'high'
p5668
ag99
aS'more'
p5669
aS'med'
p5670
aS'high'
p5671
aS'acc'
p5672
aa(lp5673
S'med'
p5674
aS'high'
p5675
ag99
aS'more'
p5676
aS'big'
p5677
aS'low'
p5678
aS'unacc'
p5679
aa(lp5680
S'med'
p5681
aS'high'
p5682
ag99
aS'more'
p5683
aS'big'
p5684
aS'med'
p5685
aS'acc'
p5686
aa(lp5687
S'med'
p5688
aS'high'
p5689
ag99
aS'more'
p5690
aS'big'
p5691
aS'high'
p5692
aS'acc'
p5693
aa(lp5694
S'med'
p5695
aS'high'
p5696
ag5
ag4
aS'small'
p5697
aS'low'
p5698
aS'unacc'
p5699
aa(lp5700
S'med'
p5701
aS'high'
p5702
ag5
ag4
aS'small'
p5703
aS'med'
p5704
aS'unacc'
p5705
aa(lp5706
S'med'
p5707
aS'high'
p5708
ag5
ag4
aS'small'
p5709
aS'high'
p5710
aS'unacc'
p5711
aa(lp5712
S'med'
p5713
aS'high'
p5714
ag5
ag4
aS'med'
p5715
aS'low'
p5716
aS'unacc'
p5717
aa(lp5718
S'med'
p5719
aS'high'
p5720
ag5
ag4
aS'med'
p5721
aS'med'
p5722
aS'unacc'
p5723
aa(lp5724
S'med'
p5725
aS'high'
p5726
ag5
ag4
aS'med'
p5727
aS'high'
p5728
aS'unacc'
p5729
aa(lp5730
S'med'
p5731
aS'high'
p5732
ag5
ag4
aS'big'
p5733
aS'low'
p5734
aS'unacc'
p5735
aa(lp5736
S'med'
p5737
aS'high'
p5738
ag5
ag4
aS'big'
p5739
aS'med'
p5740
aS'unacc'
p5741
aa(lp5742
S'med'
p5743
aS'high'
p5744
ag5
ag4
aS'big'
p5745
aS'high'
p5746
aS'unacc'
p5747
aa(lp5748
S'med'
p5749
aS'high'
p5750
ag5
ag5
aS'small'
p5751
aS'low'
p5752
aS'unacc'
p5753
aa(lp5754
S'med'
p5755
aS'high'
p5756
ag5
ag5
aS'small'
p5757
aS'med'
p5758
aS'unacc'
p5759
aa(lp5760
S'med'
p5761
aS'high'
p5762
ag5
ag5
aS'small'
p5763
aS'high'
p5764
aS'acc'
p5765
aa(lp5766
S'med'
p5767
aS'high'
p5768
ag5
ag5
aS'med'
p5769
aS'low'
p5770
aS'unacc'
p5771
aa(lp5772
S'med'
p5773
aS'high'
p5774
ag5
ag5
aS'med'
p5775
aS'med'
p5776
aS'acc'
p5777
aa(lp5778
S'med'
p5779
aS'high'
p5780
ag5
ag5
aS'med'
p5781
aS'high'
p5782
aS'acc'
p5783
aa(lp5784
S'med'
p5785
aS'high'
p5786
ag5
ag5
aS'big'
p5787
aS'low'
p5788
aS'unacc'
p5789
aa(lp5790
S'med'
p5791
aS'high'
p5792
ag5
ag5
aS'big'
p5793
aS'med'
p5794
aS'acc'
p5795
aa(lp5796
S'med'
p5797
aS'high'
p5798
ag5
ag5
aS'big'
p5799
aS'high'
p5800
aS'acc'
p5801
aa(lp5802
S'med'
p5803
aS'high'
p5804
ag5
aS'more'
p5805
aS'small'
p5806
aS'low'
p5807
aS'unacc'
p5808
aa(lp5809
S'med'
p5810
aS'high'
p5811
ag5
aS'more'
p5812
aS'small'
p5813
aS'med'
p5814
aS'unacc'
p5815
aa(lp5816
S'med'
p5817
aS'high'
p5818
ag5
aS'more'
p5819
aS'small'
p5820
aS'high'
p5821
aS'acc'
p5822
aa(lp5823
S'med'
p5824
aS'high'
p5825
ag5
aS'more'
p5826
aS'med'
p5827
aS'low'
p5828
aS'unacc'
p5829
aa(lp5830
S'med'
p5831
aS'high'
p5832
ag5
aS'more'
p5833
aS'med'
p5834
aS'med'
p5835
aS'acc'
p5836
aa(lp5837
S'med'
p5838
aS'high'
p5839
ag5
aS'more'
p5840
aS'med'
p5841
aS'high'
p5842
aS'acc'
p5843
aa(lp5844
S'med'
p5845
aS'high'
p5846
ag5
aS'more'
p5847
aS'big'
p5848
aS'low'
p5849
aS'unacc'
p5850
aa(lp5851
S'med'
p5852
aS'high'
p5853
ag5
aS'more'
p5854
aS'big'
p5855
aS'med'
p5856
aS'acc'
p5857
aa(lp5858
S'med'
p5859
aS'high'
p5860
ag5
aS'more'
p5861
aS'big'
p5862
aS'high'
p5863
aS'acc'
p5864
aa(lp5865
S'med'
p5866
aS'high'
p5867
aS'5more'
p5868
ag4
aS'small'
p5869
aS'low'
p5870
aS'unacc'
p5871
aa(lp5872
S'med'
p5873
aS'high'
p5874
aS'5more'
p5875
ag4
aS'small'
p5876
aS'med'
p5877
aS'unacc'
p5878
aa(lp5879
S'med'
p5880
aS'high'
p5881
aS'5more'
p5882
ag4
aS'small'
p5883
aS'high'
p5884
aS'unacc'
p5885
aa(lp5886
S'med'
p5887
aS'high'
p5888
aS'5more'
p5889
ag4
aS'med'
p5890
aS'low'
p5891
aS'unacc'
p5892
aa(lp5893
S'med'
p5894
aS'high'
p5895
aS'5more'
p5896
ag4
aS'med'
p5897
aS'med'
p5898
aS'unacc'
p5899
aa(lp5900
S'med'
p5901
aS'high'
p5902
aS'5more'
p5903
ag4
aS'med'
p5904
aS'high'
p5905
aS'unacc'
p5906
aa(lp5907
S'med'
p5908
aS'high'
p5909
aS'5more'
p5910
ag4
aS'big'
p5911
aS'low'
p5912
aS'unacc'
p5913
aa(lp5914
S'med'
p5915
aS'high'
p5916
aS'5more'
p5917
ag4
aS'big'
p5918
aS'med'
p5919
aS'unacc'
p5920
aa(lp5921
S'med'
p5922
aS'high'
p5923
aS'5more'
p5924
ag4
aS'big'
p5925
aS'high'
p5926
aS'unacc'
p5927
aa(lp5928
S'med'
p5929
aS'high'
p5930
aS'5more'
p5931
ag5
aS'small'
p5932
aS'low'
p5933
aS'unacc'
p5934
aa(lp5935
S'med'
p5936
aS'high'
p5937
aS'5more'
p5938
ag5
aS'small'
p5939
aS'med'
p5940
aS'unacc'
p5941
aa(lp5942
S'med'
p5943
aS'high'
p5944
aS'5more'
p5945
ag5
aS'small'
p5946
aS'high'
p5947
aS'acc'
p5948
aa(lp5949
S'med'
p5950
aS'high'
p5951
aS'5more'
p5952
ag5
aS'med'
p5953
aS'low'
p5954
aS'unacc'
p5955
aa(lp5956
S'med'
p5957
aS'high'
p5958
aS'5more'
p5959
ag5
aS'med'
p5960
aS'med'
p5961
aS'acc'
p5962
aa(lp5963
S'med'
p5964
aS'high'
p5965
aS'5more'
p5966
ag5
aS'med'
p5967
aS'high'
p5968
aS'acc'
p5969
aa(lp5970
S'med'
p5971
aS'high'
p5972
aS'5more'
p5973
ag5
aS'big'
p5974
aS'low'
p5975
aS'unacc'
p5976
aa(lp5977
S'med'
p5978
aS'high'
p5979
aS'5more'
p5980
ag5
aS'big'
p5981
aS'med'
p5982
aS'acc'
p5983
aa(lp5984
S'med'
p5985
aS'high'
p5986
aS'5more'
p5987
ag5
aS'big'
p5988
aS'high'
p5989
aS'acc'
p5990
aa(lp5991
S'med'
p5992
aS'high'
p5993
aS'5more'
p5994
aS'more'
p5995
aS'small'
p5996
aS'low'
p5997
aS'unacc'
p5998
aa(lp5999
S'med'
p6000
aS'high'
p6001
aS'5more'
p6002
aS'more'
p6003
aS'small'
p6004
aS'med'
p6005
aS'unacc'
p6006
aa(lp6007
S'med'
p6008
aS'high'
p6009
aS'5more'
p6010
aS'more'
p6011
aS'small'
p6012
aS'high'
p6013
aS'acc'
p6014
aa(lp6015
S'med'
p6016
aS'high'
p6017
aS'5more'
p6018
aS'more'
p6019
aS'med'
p6020
aS'low'
p6021
aS'unacc'
p6022
aa(lp6023
S'med'
p6024
aS'high'
p6025
aS'5more'
p6026
aS'more'
p6027
aS'med'
p6028
aS'med'
p6029
aS'acc'
p6030
aa(lp6031
S'med'
p6032
aS'high'
p6033
aS'5more'
p6034
aS'more'
p6035
aS'med'
p6036
aS'high'
p6037
aS'acc'
p6038
aa(lp6039
S'med'
p6040
aS'high'
p6041
aS'5more'
p6042
aS'more'
p6043
aS'big'
p6044
aS'low'
p6045
aS'unacc'
p6046
aa(lp6047
S'med'
p6048
aS'high'
p6049
aS'5more'
p6050
aS'more'
p6051
aS'big'
p6052
aS'med'
p6053
aS'acc'
p6054
aa(lp6055
S'med'
p6056
aS'high'
p6057
aS'5more'
p6058
aS'more'
p6059
aS'big'
p6060
aS'high'
p6061
aS'acc'
p6062
aa(lp6063
S'med'
p6064
aS'med'
p6065
ag4
ag4
aS'small'
p6066
aS'low'
p6067
aS'unacc'
p6068
aa(lp6069
S'med'
p6070
aS'med'
p6071
ag4
ag4
aS'small'
p6072
aS'med'
p6073
aS'unacc'
p6074
aa(lp6075
S'med'
p6076
aS'med'
p6077
ag4
ag4
aS'small'
p6078
aS'high'
p6079
aS'unacc'
p6080
aa(lp6081
S'med'
p6082
aS'med'
p6083
ag4
ag4
aS'med'
p6084
aS'low'
p6085
aS'unacc'
p6086
aa(lp6087
S'med'
p6088
aS'med'
p6089
ag4
ag4
aS'med'
p6090
aS'med'
p6091
aS'unacc'
p6092
aa(lp6093
S'med'
p6094
aS'med'
p6095
ag4
ag4
aS'med'
p6096
aS'high'
p6097
aS'unacc'
p6098
aa(lp6099
S'med'
p6100
aS'med'
p6101
ag4
ag4
aS'big'
p6102
aS'low'
p6103
aS'unacc'
p6104
aa(lp6105
S'med'
p6106
aS'med'
p6107
ag4
ag4
aS'big'
p6108
aS'med'
p6109
aS'unacc'
p6110
aa(lp6111
S'med'
p6112
aS'med'
p6113
ag4
ag4
aS'big'
p6114
aS'high'
p6115
aS'unacc'
p6116
aa(lp6117
S'med'
p6118
aS'med'
p6119
ag4
ag5
aS'small'
p6120
aS'low'
p6121
aS'unacc'
p6122
aa(lp6123
S'med'
p6124
aS'med'
p6125
ag4
ag5
aS'small'
p6126
aS'med'
p6127
aS'acc'
p6128
aa(lp6129
S'med'
p6130
aS'med'
p6131
ag4
ag5
aS'small'
p6132
aS'high'
p6133
aS'acc'
p6134
aa(lp6135
S'med'
p6136
aS'med'
p6137
ag4
ag5
aS'med'
p6138
aS'low'
p6139
aS'unacc'
p6140
aa(lp6141
S'med'
p6142
aS'med'
p6143
ag4
ag5
aS'med'
p6144
aS'med'
p6145
aS'acc'
p6146
aa(lp6147
S'med'
p6148
aS'med'
p6149
ag4
ag5
aS'med'
p6150
aS'high'
p6151
aS'acc'
p6152
aa(lp6153
S'med'
p6154
aS'med'
p6155
ag4
ag5
aS'big'
p6156
aS'low'
p6157
aS'unacc'
p6158
aa(lp6159
S'med'
p6160
aS'med'
p6161
ag4
ag5
aS'big'
p6162
aS'med'
p6163
aS'acc'
p6164
aa(lp6165
S'med'
p6166
aS'med'
p6167
ag4
aS'more'
p6168
aS'small'
p6169
aS'low'
p6170
aS'unacc'
p6171
aa(lp6172
S'med'
p6173
aS'med'
p6174
ag4
aS'more'
p6175
aS'small'
p6176
aS'med'
p6177
aS'unacc'
p6178
aa(lp6179
S'med'
p6180
aS'med'
p6181
ag4
aS'more'
p6182
aS'small'
p6183
aS'high'
p6184
aS'unacc'
p6185
aa(lp6186
S'med'
p6187
aS'med'
p6188
ag4
aS'more'
p6189
aS'med'
p6190
aS'low'
p6191
aS'unacc'
p6192
aa(lp6193
S'med'
p6194
aS'med'
p6195
ag4
aS'more'
p6196
aS'med'
p6197
aS'med'
p6198
aS'acc'
p6199
aa(lp6200
S'med'
p6201
aS'med'
p6202
ag4
aS'more'
p6203
aS'med'
p6204
aS'high'
p6205
aS'acc'
p6206
aa(lp6207
S'med'
p6208
aS'med'
p6209
ag4
aS'more'
p6210
aS'big'
p6211
aS'low'
p6212
aS'unacc'
p6213
aa(lp6214
S'med'
p6215
aS'med'
p6216
ag4
aS'more'
p6217
aS'big'
p6218
aS'med'
p6219
aS'acc'
p6220
aa(lp6221
S'med'
p6222
aS'med'
p6223
ag99
ag4
aS'small'
p6224
aS'low'
p6225
aS'unacc'
p6226
aa(lp6227
S'med'
p6228
aS'med'
p6229
ag99
ag4
aS'small'
p6230
aS'med'
p6231
aS'unacc'
p6232
aa(lp6233
S'med'
p6234
aS'med'
p6235
ag99
ag4
aS'small'
p6236
aS'high'
p6237
aS'unacc'
p6238
aa(lp6239
S'med'
p6240
aS'med'
p6241
ag99
ag4
aS'med'
p6242
aS'low'
p6243
aS'unacc'
p6244
aa(lp6245
S'med'
p6246
aS'med'
p6247
ag99
ag4
aS'med'
p6248
aS'med'
p6249
aS'unacc'
p6250
aa(lp6251
S'med'
p6252
aS'med'
p6253
ag99
ag4
aS'med'
p6254
aS'high'
p6255
aS'unacc'
p6256
aa(lp6257
S'med'
p6258
aS'med'
p6259
ag99
ag4
aS'big'
p6260
aS'low'
p6261
aS'unacc'
p6262
aa(lp6263
S'med'
p6264
aS'med'
p6265
ag99
ag4
aS'big'
p6266
aS'med'
p6267
aS'unacc'
p6268
aa(lp6269
S'med'
p6270
aS'med'
p6271
ag99
ag4
aS'big'
p6272
aS'high'
p6273
aS'unacc'
p6274
aa(lp6275
S'med'
p6276
aS'med'
p6277
ag99
ag5
aS'small'
p6278
aS'low'
p6279
aS'unacc'
p6280
aa(lp6281
S'med'
p6282
aS'med'
p6283
ag99
ag5
aS'small'
p6284
aS'med'
p6285
aS'acc'
p6286
aa(lp6287
S'med'
p6288
aS'med'
p6289
ag99
ag5
aS'small'
p6290
aS'high'
p6291
aS'acc'
p6292
aa(lp6293
S'med'
p6294
aS'med'
p6295
ag99
ag5
aS'med'
p6296
aS'low'
p6297
aS'unacc'
p6298
aa(lp6299
S'med'
p6300
aS'med'
p6301
ag99
ag5
aS'med'
p6302
aS'med'
p6303
aS'acc'
p6304
aa(lp6305
S'med'
p6306
aS'med'
p6307
ag99
ag5
aS'med'
p6308
aS'high'
p6309
aS'acc'
p6310
aa(lp6311
S'med'
p6312
aS'med'
p6313
ag99
ag5
aS'big'
p6314
aS'low'
p6315
aS'unacc'
p6316
aa(lp6317
S'med'
p6318
aS'med'
p6319
ag99
ag5
aS'big'
p6320
aS'med'
p6321
aS'acc'
p6322
aa(lp6323
S'med'
p6324
aS'med'
p6325
ag99
aS'more'
p6326
aS'small'
p6327
aS'low'
p6328
aS'unacc'
p6329
aa(lp6330
S'med'
p6331
aS'med'
p6332
ag99
aS'more'
p6333
aS'small'
p6334
aS'med'
p6335
aS'acc'
p6336
aa(lp6337
S'med'
p6338
aS'med'
p6339
ag99
aS'more'
p6340
aS'small'
p6341
aS'high'
p6342
aS'acc'
p6343
aa(lp6344
S'med'
p6345
aS'med'
p6346
ag99
aS'more'
p6347
aS'med'
p6348
aS'low'
p6349
aS'unacc'
p6350
aa(lp6351
S'med'
p6352
aS'med'
p6353
ag99
aS'more'
p6354
aS'med'
p6355
aS'med'
p6356
aS'acc'
p6357
aa(lp6358
S'med'
p6359
aS'med'
p6360
ag99
aS'more'
p6361
aS'big'
p6362
aS'low'
p6363
aS'unacc'
p6364
aa(lp6365
S'med'
p6366
aS'med'
p6367
ag99
aS'more'
p6368
aS'big'
p6369
aS'med'
p6370
aS'acc'
p6371
aa(lp6372
S'med'
p6373
aS'med'
p6374
ag5
ag4
aS'small'
p6375
aS'low'
p6376
aS'unacc'
p6377
aa(lp6378
S'med'
p6379
aS'med'
p6380
ag5
ag4
aS'small'
p6381
aS'med'
p6382
aS'unacc'
p6383
aa(lp6384
S'med'
p6385
aS'med'
p6386
ag5
ag4
aS'small'
p6387
aS'high'
p6388
aS'unacc'
p6389
aa(lp6390
S'med'
p6391
aS'med'
p6392
ag5
ag4
aS'med'
p6393
aS'low'
p6394
aS'unacc'
p6395
aa(lp6396
S'med'
p6397
aS'med'
p6398
ag5
ag4
aS'med'
p6399
aS'med'
p6400
aS'unacc'
p6401
aa(lp6402
S'med'
p6403
aS'med'
p6404
ag5
ag4
aS'med'
p6405
aS'high'
p6406
aS'unacc'
p6407
aa(lp6408
S'med'
p6409
aS'med'
p6410
ag5
ag4
aS'big'
p6411
aS'low'
p6412
aS'unacc'
p6413
aa(lp6414
S'med'
p6415
aS'med'
p6416
ag5
ag4
aS'big'
p6417
aS'med'
p6418
aS'unacc'
p6419
aa(lp6420
S'med'
p6421
aS'med'
p6422
ag5
ag4
aS'big'
p6423
aS'high'
p6424
aS'unacc'
p6425
aa(lp6426
S'med'
p6427
aS'med'
p6428
ag5
ag5
aS'small'
p6429
aS'low'
p6430
aS'unacc'
p6431
aa(lp6432
S'med'
p6433
aS'med'
p6434
ag5
ag5
aS'small'
p6435
aS'med'
p6436
aS'acc'
p6437
aa(lp6438
S'med'
p6439
aS'med'
p6440
ag5
ag5
aS'small'
p6441
aS'high'
p6442
aS'acc'
p6443
aa(lp6444
S'med'
p6445
aS'med'
p6446
ag5
ag5
aS'med'
p6447
aS'low'
p6448
aS'unacc'
p6449
aa(lp6450
S'med'
p6451
aS'med'
p6452
ag5
ag5
aS'med'
p6453
aS'med'
p6454
aS'acc'
p6455
aa(lp6456
S'med'
p6457
aS'med'
p6458
ag5
ag5
aS'big'
p6459
aS'low'
p6460
aS'unacc'
p6461
aa(lp6462
S'med'
p6463
aS'med'
p6464
ag5
ag5
aS'big'
p6465
aS'med'
p6466
aS'acc'
p6467
aa(lp6468
S'med'
p6469
aS'med'
p6470
ag5
aS'more'
p6471
aS'small'
p6472
aS'low'
p6473
aS'unacc'
p6474
aa(lp6475
S'med'
p6476
aS'med'
p6477
ag5
aS'more'
p6478
aS'small'
p6479
aS'med'
p6480
aS'acc'
p6481
aa(lp6482
S'med'
p6483
aS'med'
p6484
ag5
aS'more'
p6485
aS'small'
p6486
aS'high'
p6487
aS'acc'
p6488
aa(lp6489
S'med'
p6490
aS'med'
p6491
ag5
aS'more'
p6492
aS'med'
p6493
aS'low'
p6494
aS'unacc'
p6495
aa(lp6496
S'med'
p6497
aS'med'
p6498
ag5
aS'more'
p6499
aS'med'
p6500
aS'med'
p6501
aS'acc'
p6502
aa(lp6503
S'med'
p6504
aS'med'
p6505
ag5
aS'more'
p6506
aS'med'
p6507
aS'high'
p6508
aS'vgood'
p6509
aa(lp6510
S'med'
p6511
aS'med'
p6512
ag5
aS'more'
p6513
aS'big'
p6514
aS'low'
p6515
aS'unacc'
p6516
aa(lp6517
S'med'
p6518
aS'med'
p6519
ag5
aS'more'
p6520
aS'big'
p6521
aS'med'
p6522
aS'acc'
p6523
aa(lp6524
S'med'
p6525
aS'med'
p6526
ag5
aS'more'
p6527
aS'big'
p6528
aS'high'
p6529
aS'vgood'
p6530
aa(lp6531
S'med'
p6532
aS'med'
p6533
aS'5more'
p6534
ag4
aS'small'
p6535
aS'low'
p6536
aS'unacc'
p6537
aa(lp6538
S'med'
p6539
aS'med'
p6540
aS'5more'
p6541
ag4
aS'small'
p6542
aS'med'
p6543
aS'unacc'
p6544
aa(lp6545
S'med'
p6546
aS'med'
p6547
aS'5more'
p6548
ag4
aS'small'
p6549
aS'high'
p6550
aS'unacc'
p6551
aa(lp6552
S'med'
p6553
aS'med'
p6554
aS'5more'
p6555
ag4
aS'med'
p6556
aS'low'
p6557
aS'unacc'
p6558
aa(lp6559
S'med'
p6560
aS'med'
p6561
aS'5more'
p6562
ag4
aS'med'
p6563
aS'med'
p6564
aS'unacc'
p6565
aa(lp6566
S'med'
p6567
aS'med'
p6568
aS'5more'
p6569
ag4
aS'med'
p6570
aS'high'
p6571
aS'unacc'
p6572
aa(lp6573
S'med'
p6574
aS'med'
p6575
aS'5more'
p6576
ag4
aS'big'
p6577
aS'low'
p6578
aS'unacc'
p6579
aa(lp6580
S'med'
p6581
aS'med'
p6582
aS'5more'
p6583
ag4
aS'big'
p6584
aS'med'
p6585
aS'unacc'
p6586
aa(lp6587
S'med'
p6588
aS'med'
p6589
aS'5more'
p6590
ag4
aS'big'
p6591
aS'high'
p6592
aS'unacc'
p6593
aa(lp6594
S'med'
p6595
aS'med'
p6596
aS'5more'
p6597
ag5
aS'small'
p6598
aS'low'
p6599
aS'unacc'
p6600
aa(lp6601
S'med'
p6602
aS'med'
p6603
aS'5more'
p6604
ag5
aS'small'
p6605
aS'med'
p6606
aS'acc'
p6607
aa(lp6608
S'med'
p6609
aS'med'
p6610
aS'5more'
p6611
ag5
aS'small'
p6612
aS'high'
p6613
aS'acc'
p6614
aa(lp6615
S'med'
p6616
aS'med'
p6617
aS'5more'
p6618
ag5
aS'med'
p6619
aS'low'
p6620
aS'unacc'
p6621
aa(lp6622
S'med'
p6623
aS'med'
p6624
aS'5more'
p6625
ag5
aS'med'
p6626
aS'med'
p6627
aS'acc'
p6628
aa(lp6629
S'med'
p6630
aS'med'
p6631
aS'5more'
p6632
ag5
aS'med'
p6633
aS'high'
p6634
aS'vgood'
p6635
aa(lp6636
S'med'
p6637
aS'med'
p6638
aS'5more'
p6639
ag5
aS'big'
p6640
aS'low'
p6641
aS'unacc'
p6642
aa(lp6643
S'med'
p6644
aS'med'
p6645
aS'5more'
p6646
ag5
aS'big'
p6647
aS'med'
p6648
aS'acc'
p6649
aa(lp6650
S'med'
p6651
aS'med'
p6652
aS'5more'
p6653
ag5
aS'big'
p6654
aS'high'
p6655
aS'vgood'
p6656
aa(lp6657
S'med'
p6658
aS'med'
p6659
aS'5more'
p6660
aS'more'
p6661
aS'small'
p6662
aS'low'
p6663
aS'unacc'
p6664
aa(lp6665
S'med'
p6666
aS'med'
p6667
aS'5more'
p6668
aS'more'
p6669
aS'small'
p6670
aS'med'
p6671
aS'acc'
p6672
aa(lp6673
S'med'
p6674
aS'med'
p6675
aS'5more'
p6676
aS'more'
p6677
aS'small'
p6678
aS'high'
p6679
aS'acc'
p6680
aa(lp6681
S'med'
p6682
aS'med'
p6683
aS'5more'
p6684
aS'more'
p6685
aS'med'
p6686
aS'low'
p6687
aS'unacc'
p6688
aa(lp6689
S'med'
p6690
aS'med'
p6691
aS'5more'
p6692
aS'more'
p6693
aS'med'
p6694
aS'med'
p6695
aS'acc'
p6696
aa(lp6697
S'med'
p6698
aS'med'
p6699
aS'5more'
p6700
aS'more'
p6701
aS'med'
p6702
aS'high'
p6703
aS'vgood'
p6704
aa(lp6705
S'med'
p6706
aS'med'
p6707
aS'5more'
p6708
aS'more'
p6709
aS'big'
p6710
aS'low'
p6711
aS'unacc'
p6712
aa(lp6713
S'med'
p6714
aS'med'
p6715
aS'5more'
p6716
aS'more'
p6717
aS'big'
p6718
aS'med'
p6719
aS'acc'
p6720
aa(lp6721
S'med'
p6722
aS'med'
p6723
aS'5more'
p6724
aS'more'
p6725
aS'big'
p6726
aS'high'
p6727
aS'vgood'
p6728
aa(lp6729
S'med'
p6730
aS'low'
p6731
ag4
ag4
aS'small'
p6732
aS'low'
p6733
aS'unacc'
p6734
aa(lp6735
S'med'
p6736
aS'low'
p6737
ag4
ag4
aS'small'
p6738
aS'med'
p6739
aS'unacc'
p6740
aa(lp6741
S'med'
p6742
aS'low'
p6743
ag4
ag4
aS'small'
p6744
aS'high'
p6745
aS'unacc'
p6746
aa(lp6747
S'med'
p6748
aS'low'
p6749
ag4
ag4
aS'med'
p6750
aS'low'
p6751
aS'unacc'
p6752
aa(lp6753
S'med'
p6754
aS'low'
p6755
ag4
ag4
aS'med'
p6756
aS'med'
p6757
aS'unacc'
p6758
aa(lp6759
S'med'
p6760
aS'low'
p6761
ag4
ag4
aS'med'
p6762
aS'high'
p6763
aS'unacc'
p6764
aa(lp6765
S'med'
p6766
aS'low'
p6767
ag4
ag4
aS'big'
p6768
aS'low'
p6769
aS'unacc'
p6770
aa(lp6771
S'med'
p6772
aS'low'
p6773
ag4
ag4
aS'big'
p6774
aS'med'
p6775
aS'unacc'
p6776
aa(lp6777
S'med'
p6778
aS'low'
p6779
ag4
ag4
aS'big'
p6780
aS'high'
p6781
aS'unacc'
p6782
aa(lp6783
S'med'
p6784
aS'low'
p6785
ag4
ag5
aS'small'
p6786
aS'low'
p6787
aS'unacc'
p6788
aa(lp6789
S'med'
p6790
aS'low'
p6791
ag4
ag5
aS'small'
p6792
aS'med'
p6793
aS'acc'
p6794
aa(lp6795
S'med'
p6796
aS'low'
p6797
ag4
ag5
aS'med'
p6798
aS'low'
p6799
aS'unacc'
p6800
aa(lp6801
S'med'
p6802
aS'low'
p6803
ag4
ag5
aS'med'
p6804
aS'med'
p6805
aS'acc'
p6806
aa(lp6807
S'med'
p6808
aS'low'
p6809
ag4
ag5
aS'big'
p6810
aS'low'
p6811
aS'unacc'
p6812
aa(lp6813
S'med'
p6814
aS'low'
p6815
ag4
ag5
aS'big'
p6816
aS'high'
p6817
aS'vgood'
p6818
aa(lp6819
S'med'
p6820
aS'low'
p6821
ag4
aS'more'
p6822
aS'small'
p6823
aS'low'
p6824
aS'unacc'
p6825
aa(lp6826
S'med'
p6827
aS'low'
p6828
ag4
aS'more'
p6829
aS'small'
p6830
aS'med'
p6831
aS'unacc'
p6832
aa(lp6833
S'med'
p6834
aS'low'
p6835
ag4
aS'more'
p6836
aS'small'
p6837
aS'high'
p6838
aS'unacc'
p6839
aa(lp6840
S'med'
p6841
aS'low'
p6842
ag4
aS'more'
p6843
aS'med'
p6844
aS'low'
p6845
aS'unacc'
p6846
aa(lp6847
S'med'
p6848
aS'low'
p6849
ag4
aS'more'
p6850
aS'med'
p6851
aS'med'
p6852
aS'acc'
p6853
aa(lp6854
S'med'
p6855
aS'low'
p6856
ag4
aS'more'
p6857
aS'big'
p6858
aS'low'
p6859
aS'unacc'
p6860
aa(lp6861
S'med'
p6862
aS'low'
p6863
ag4
aS'more'
p6864
aS'big'
p6865
aS'high'
p6866
aS'vgood'
p6867
aa(lp6868
S'med'
p6869
aS'low'
p6870
ag99
ag4
aS'small'
p6871
aS'low'
p6872
aS'unacc'
p6873
aa(lp6874
S'med'
p6875
aS'low'
p6876
ag99
ag4
aS'small'
p6877
aS'med'
p6878
aS'unacc'
p6879
aa(lp6880
S'med'
p6881
aS'low'
p6882
ag99
ag4
aS'small'
p6883
aS'high'
p6884
aS'unacc'
p6885
aa(lp6886
S'med'
p6887
aS'low'
p6888
ag99
ag4
aS'med'
p6889
aS'low'
p6890
aS'unacc'
p6891
aa(lp6892
S'med'
p6893
aS'low'
p6894
ag99
ag4
aS'med'
p6895
aS'med'
p6896
aS'unacc'
p6897
aa(lp6898
S'med'
p6899
aS'low'
p6900
ag99
ag4
aS'med'
p6901
aS'high'
p6902
aS'unacc'
p6903
aa(lp6904
S'med'
p6905
aS'low'
p6906
ag99
ag4
aS'big'
p6907
aS'low'
p6908
aS'unacc'
p6909
aa(lp6910
S'med'
p6911
aS'low'
p6912
ag99
ag4
aS'big'
p6913
aS'med'
p6914
aS'unacc'
p6915
aa(lp6916
S'med'
p6917
aS'low'
p6918
ag99
ag4
aS'big'
p6919
aS'high'
p6920
aS'unacc'
p6921
aa(lp6922
S'med'
p6923
aS'low'
p6924
ag99
ag5
aS'small'
p6925
aS'low'
p6926
aS'unacc'
p6927
aa(lp6928
S'med'
p6929
aS'low'
p6930
ag99
ag5
aS'small'
p6931
aS'med'
p6932
aS'acc'
p6933
aa(lp6934
S'med'
p6935
aS'low'
p6936
ag99
ag5
aS'med'
p6937
aS'low'
p6938
aS'unacc'
p6939
aa(lp6940
S'med'
p6941
aS'low'
p6942
ag99
ag5
aS'med'
p6943
aS'med'
p6944
aS'acc'
p6945
aa(lp6946
S'med'
p6947
aS'low'
p6948
ag99
ag5
aS'big'
p6949
aS'low'
p6950
aS'unacc'
p6951
aa(lp6952
S'med'
p6953
aS'low'
p6954
ag99
ag5
aS'big'
p6955
aS'med'
p6956
aS'good'
p6957
aa(lp6958
S'med'
p6959
aS'low'
p6960
ag99
ag5
aS'big'
p6961
aS'high'
p6962
aS'vgood'
p6963
aa(lp6964
S'med'
p6965
aS'low'
p6966
ag99
aS'more'
p6967
aS'small'
p6968
aS'low'
p6969
aS'unacc'
p6970
aa(lp6971
S'med'
p6972
aS'low'
p6973
ag99
aS'more'
p6974
aS'small'
p6975
aS'med'
p6976
aS'acc'
p6977
aa(lp6978
S'med'
p6979
aS'low'
p6980
ag99
aS'more'
p6981
aS'small'
p6982
aS'high'
p6983
aS'good'
p6984
aa(lp6985
S'med'
p6986
aS'low'
p6987
ag99
aS'more'
p6988
aS'med'
p6989
aS'low'
p6990
aS'unacc'
p6991
aa(lp6992
S'med'
p6993
aS'low'
p6994
ag99
aS'more'
p6995
aS'med'
p6996
aS'med'
p6997
aS'good'
p6998
aa(lp6999
S'med'
p7000
aS'low'
p7001
ag99
aS'more'
p7002
aS'med'
p7003
aS'high'
p7004
aS'vgood'
p7005
aa(lp7006
S'med'
p7007
aS'low'
p7008
ag99
aS'more'
p7009
aS'big'
p7010
aS'low'
p7011
aS'unacc'
p7012
aa(lp7013
S'med'
p7014
aS'low'
p7015
ag99
aS'more'
p7016
aS'big'
p7017
aS'med'
p7018
aS'good'
p7019
aa(lp7020
S'med'
p7021
aS'low'
p7022
ag99
aS'more'
p7023
aS'big'
p7024
aS'high'
p7025
aS'vgood'
p7026
aa(lp7027
S'med'
p7028
aS'low'
p7029
ag5
ag4
aS'small'
p7030
aS'low'
p7031
aS'unacc'
p7032
aa(lp7033
S'med'
p7034
aS'low'
p7035
ag5
ag4
aS'small'
p7036
aS'med'
p7037
aS'unacc'
p7038
aa(lp7039
S'med'
p7040
aS'low'
p7041
ag5
ag4
aS'small'
p7042
aS'high'
p7043
aS'unacc'
p7044
aa(lp7045
S'med'
p7046
aS'low'
p7047
ag5
ag4
aS'med'
p7048
aS'low'
p7049
aS'unacc'
p7050
aa(lp7051
S'med'
p7052
aS'low'
p7053
ag5
ag4
aS'med'
p7054
aS'med'
p7055
aS'unacc'
p7056
aa(lp7057
S'med'
p7058
aS'low'
p7059
ag5
ag4
aS'med'
p7060
aS'high'
p7061
aS'unacc'
p7062
aa(lp7063
S'med'
p7064
aS'low'
p7065
ag5
ag4
aS'big'
p7066
aS'low'
p7067
aS'unacc'
p7068
aa(lp7069
S'med'
p7070
aS'low'
p7071
ag5
ag4
aS'big'
p7072
aS'med'
p7073
aS'unacc'
p7074
aa(lp7075
S'med'
p7076
aS'low'
p7077
ag5
ag4
aS'big'
p7078
aS'high'
p7079
aS'unacc'
p7080
aa(lp7081
S'med'
p7082
aS'low'
p7083
ag5
ag5
aS'small'
p7084
aS'low'
p7085
aS'unacc'
p7086
aa(lp7087
S'med'
p7088
aS'low'
p7089
ag5
ag5
aS'small'
p7090
aS'med'
p7091
aS'acc'
p7092
aa(lp7093
S'med'
p7094
aS'low'
p7095
ag5
ag5
aS'small'
p7096
aS'high'
p7097
aS'good'
p7098
aa(lp7099
S'med'
p7100
aS'low'
p7101
ag5
ag5
aS'med'
p7102
aS'low'
p7103
aS'unacc'
p7104
aa(lp7105
S'med'
p7106
aS'low'
p7107
ag5
ag5
aS'med'
p7108
aS'med'
p7109
aS'good'
p7110
aa(lp7111
S'med'
p7112
aS'low'
p7113
ag5
ag5
aS'med'
p7114
aS'high'
p7115
aS'vgood'
p7116
aa(lp7117
S'med'
p7118
aS'low'
p7119
ag5
ag5
aS'big'
p7120
aS'low'
p7121
aS'unacc'
p7122
aa(lp7123
S'med'
p7124
aS'low'
p7125
ag5
ag5
aS'big'
p7126
aS'med'
p7127
aS'good'
p7128
aa(lp7129
S'med'
p7130
aS'low'
p7131
ag5
ag5
aS'big'
p7132
aS'high'
p7133
aS'vgood'
p7134
aa(lp7135
S'med'
p7136
aS'low'
p7137
ag5
aS'more'
p7138
aS'small'
p7139
aS'low'
p7140
aS'unacc'
p7141
aa(lp7142
S'med'
p7143
aS'low'
p7144
ag5
aS'more'
p7145
aS'small'
p7146
aS'med'
p7147
aS'acc'
p7148
aa(lp7149
S'med'
p7150
aS'low'
p7151
ag5
aS'more'
p7152
aS'small'
p7153
aS'high'
p7154
aS'good'
p7155
aa(lp7156
S'med'
p7157
aS'low'
p7158
ag5
aS'more'
p7159
aS'med'
p7160
aS'low'
p7161
aS'unacc'
p7162
aa(lp7163
S'med'
p7164
aS'low'
p7165
ag5
aS'more'
p7166
aS'med'
p7167
aS'med'
p7168
aS'good'
p7169
aa(lp7170
S'med'
p7171
aS'low'
p7172
ag5
aS'more'
p7173
aS'med'
p7174
aS'high'
p7175
aS'vgood'
p7176
aa(lp7177
S'med'
p7178
aS'low'
p7179
ag5
aS'more'
p7180
aS'big'
p7181
aS'low'
p7182
aS'unacc'
p7183
aa(lp7184
S'med'
p7185
aS'low'
p7186
ag5
aS'more'
p7187
aS'big'
p7188
aS'med'
p7189
aS'good'
p7190
aa(lp7191
S'med'
p7192
aS'low'
p7193
ag5
aS'more'
p7194
aS'big'
p7195
aS'high'
p7196
aS'vgood'
p7197
aa(lp7198
S'med'
p7199
aS'low'
p7200
aS'5more'
p7201
ag4
aS'small'
p7202
aS'low'
p7203
aS'unacc'
p7204
aa(lp7205
S'med'
p7206
aS'low'
p7207
aS'5more'
p7208
ag4
aS'small'
p7209
aS'med'
p7210
aS'unacc'
p7211
aa(lp7212
S'med'
p7213
aS'low'
p7214
aS'5more'
p7215
ag4
aS'small'
p7216
aS'high'
p7217
aS'unacc'
p7218
aa(lp7219
S'med'
p7220
aS'low'
p7221
aS'5more'
p7222
ag4
aS'med'
p7223
aS'low'
p7224
aS'unacc'
p7225
aa(lp7226
S'med'
p7227
aS'low'
p7228
aS'5more'
p7229
ag4
aS'med'
p7230
aS'med'
p7231
aS'unacc'
p7232
aa(lp7233
S'med'
p7234
aS'low'
p7235
aS'5more'
p7236
ag4
aS'med'
p7237
aS'high'
p7238
aS'unacc'
p7239
aa(lp7240
S'med'
p7241
aS'low'
p7242
aS'5more'
p7243
ag4
aS'big'
p7244
aS'low'
p7245
aS'unacc'
p7246
aa(lp7247
S'med'
p7248
aS'low'
p7249
aS'5more'
p7250
ag4
aS'big'
p7251
aS'med'
p7252
aS'unacc'
p7253
aa(lp7254
S'med'
p7255
aS'low'
p7256
aS'5more'
p7257
ag4
aS'big'
p7258
aS'high'
p7259
aS'unacc'
p7260
aa(lp7261
S'med'
p7262
aS'low'
p7263
aS'5more'
p7264
ag5
aS'small'
p7265
aS'low'
p7266
aS'unacc'
p7267
aa(lp7268
S'med'
p7269
aS'low'
p7270
aS'5more'
p7271
ag5
aS'small'
p7272
aS'med'
p7273
aS'acc'
p7274
aa(lp7275
S'med'
p7276
aS'low'
p7277
aS'5more'
p7278
ag5
aS'small'
p7279
aS'high'
p7280
aS'good'
p7281
aa(lp7282
S'med'
p7283
aS'low'
p7284
aS'5more'
p7285
ag5
aS'med'
p7286
aS'low'
p7287
aS'unacc'
p7288
aa(lp7289
S'med'
p7290
aS'low'
p7291
aS'5more'
p7292
ag5
aS'med'
p7293
aS'med'
p7294
aS'good'
p7295
aa(lp7296
S'med'
p7297
aS'low'
p7298
aS'5more'
p7299
ag5
aS'med'
p7300
aS'high'
p7301
aS'vgood'
p7302
aa(lp7303
S'med'
p7304
aS'low'
p7305
aS'5more'
p7306
ag5
aS'big'
p7307
aS'low'
p7308
aS'unacc'
p7309
aa(lp7310
S'med'
p7311
aS'low'
p7312
aS'5more'
p7313
ag5
aS'big'
p7314
aS'med'
p7315
aS'good'
p7316
aa(lp7317
S'med'
p7318
aS'low'
p7319
aS'5more'
p7320
ag5
aS'big'
p7321
aS'high'
p7322
aS'vgood'
p7323
aa(lp7324
S'med'
p7325
aS'low'
p7326
aS'5more'
p7327
aS'more'
p7328
aS'small'
p7329
aS'low'
p7330
aS'unacc'
p7331
aa(lp7332
S'med'
p7333
aS'low'
p7334
aS'5more'
p7335
aS'more'
p7336
aS'small'
p7337
aS'med'
p7338
aS'acc'
p7339
aa(lp7340
S'med'
p7341
aS'low'
p7342
aS'5more'
p7343
aS'more'
p7344
aS'small'
p7345
aS'high'
p7346
aS'good'
p7347
aa(lp7348
S'med'
p7349
aS'low'
p7350
aS'5more'
p7351
aS'more'
p7352
aS'med'
p7353
aS'low'
p7354
aS'unacc'
p7355
aa(lp7356
S'med'
p7357
aS'low'
p7358
aS'5more'
p7359
aS'more'
p7360
aS'med'
p7361
aS'med'
p7362
aS'good'
p7363
aa(lp7364
S'med'
p7365
aS'low'
p7366
aS'5more'
p7367
aS'more'
p7368
aS'med'
p7369
aS'high'
p7370
aS'vgood'
p7371
aa(lp7372
S'med'
p7373
aS'low'
p7374
aS'5more'
p7375
aS'more'
p7376
aS'big'
p7377
aS'low'
p7378
aS'unacc'
p7379
aa(lp7380
S'med'
p7381
aS'low'
p7382
aS'5more'
p7383
aS'more'
p7384
aS'big'
p7385
aS'med'
p7386
aS'good'
p7387
aa(lp7388
S'med'
p7389
aS'low'
p7390
aS'5more'
p7391
aS'more'
p7392
aS'big'
p7393
aS'high'
p7394
aS'vgood'
p7395
aa(lp7396
S'low'
p7397
aS'vhigh'
p7398
ag4
ag4
aS'small'
p7399
aS'low'
p7400
aS'unacc'
p7401
aa(lp7402
S'low'
p7403
aS'vhigh'
p7404
ag4
ag4
aS'small'
p7405
aS'med'
p7406
aS'unacc'
p7407
aa(lp7408
S'low'
p7409
aS'vhigh'
p7410
ag4
ag4
aS'small'
p7411
aS'high'
p7412
aS'unacc'
p7413
aa(lp7414
S'low'
p7415
aS'vhigh'
p7416
ag4
ag4
aS'med'
p7417
aS'low'
p7418
aS'unacc'
p7419
aa(lp7420
S'low'
p7421
aS'vhigh'
p7422
ag4
ag4
aS'med'
p7423
aS'med'
p7424
aS'unacc'
p7425
aa(lp7426
S'low'
p7427
aS'vhigh'
p7428
ag4
ag4
aS'med'
p7429
aS'high'
p7430
aS'unacc'
p7431
aa(lp7432
S'low'
p7433
aS'vhigh'
p7434
ag4
ag4
aS'big'
p7435
aS'low'
p7436
aS'unacc'
p7437
aa(lp7438
S'low'
p7439
aS'vhigh'
p7440
ag4
ag4
aS'big'
p7441
aS'med'
p7442
aS'unacc'
p7443
aa(lp7444
S'low'
p7445
aS'vhigh'
p7446
ag4
ag4
aS'big'
p7447
aS'high'
p7448
aS'unacc'
p7449
aa(lp7450
S'low'
p7451
aS'vhigh'
p7452
ag4
ag5
aS'small'
p7453
aS'low'
p7454
aS'unacc'
p7455
aa(lp7456
S'low'
p7457
aS'vhigh'
p7458
ag4
ag5
aS'small'
p7459
aS'med'
p7460
aS'unacc'
p7461
aa(lp7462
S'low'
p7463
aS'vhigh'
p7464
ag4
ag5
aS'small'
p7465
aS'high'
p7466
aS'acc'
p7467
aa(lp7468
S'low'
p7469
aS'vhigh'
p7470
ag4
ag5
aS'med'
p7471
aS'low'
p7472
aS'unacc'
p7473
aa(lp7474
S'low'
p7475
aS'vhigh'
p7476
ag4
ag5
aS'med'
p7477
aS'med'
p7478
aS'unacc'
p7479
aa(lp7480
S'low'
p7481
aS'vhigh'
p7482
ag4
ag5
aS'med'
p7483
aS'high'
p7484
aS'acc'
p7485
aa(lp7486
S'low'
p7487
aS'vhigh'
p7488
ag4
ag5
aS'big'
p7489
aS'low'
p7490
aS'unacc'
p7491
aa(lp7492
S'low'
p7493
aS'vhigh'
p7494
ag4
ag5
aS'big'
p7495
aS'med'
p7496
aS'acc'
p7497
aa(lp7498
S'low'
p7499
aS'vhigh'
p7500
ag4
ag5
aS'big'
p7501
aS'high'
p7502
aS'acc'
p7503
aa(lp7504
S'low'
p7505
aS'vhigh'
p7506
ag4
aS'more'
p7507
aS'small'
p7508
aS'low'
p7509
aS'unacc'
p7510
aa(lp7511
S'low'
p7512
aS'vhigh'
p7513
ag4
aS'more'
p7514
aS'small'
p7515
aS'med'
p7516
aS'unacc'
p7517
aa(lp7518
S'low'
p7519
aS'vhigh'
p7520
ag4
aS'more'
p7521
aS'small'
p7522
aS'high'
p7523
aS'unacc'
p7524
aa(lp7525
S'low'
p7526
aS'vhigh'
p7527
ag4
aS'more'
p7528
aS'med'
p7529
aS'low'
p7530
aS'unacc'
p7531
aa(lp7532
S'low'
p7533
aS'vhigh'
p7534
ag4
aS'more'
p7535
aS'med'
p7536
aS'med'
p7537
aS'unacc'
p7538
aa(lp7539
S'low'
p7540
aS'vhigh'
p7541
ag4
aS'more'
p7542
aS'med'
p7543
aS'high'
p7544
aS'acc'
p7545
aa(lp7546
S'low'
p7547
aS'vhigh'
p7548
ag4
aS'more'
p7549
aS'big'
p7550
aS'low'
p7551
aS'unacc'
p7552
aa(lp7553
S'low'
p7554
aS'vhigh'
p7555
ag4
aS'more'
p7556
aS'big'
p7557
aS'med'
p7558
aS'acc'
p7559
aa(lp7560
S'low'
p7561
aS'vhigh'
p7562
ag4
aS'more'
p7563
aS'big'
p7564
aS'high'
p7565
aS'acc'
p7566
aa(lp7567
S'low'
p7568
aS'vhigh'
p7569
ag99
ag4
aS'small'
p7570
aS'low'
p7571
aS'unacc'
p7572
aa(lp7573
S'low'
p7574
aS'vhigh'
p7575
ag99
ag4
aS'small'
p7576
aS'med'
p7577
aS'unacc'
p7578
aa(lp7579
S'low'
p7580
aS'vhigh'
p7581
ag99
ag4
aS'small'
p7582
aS'high'
p7583
aS'unacc'
p7584
aa(lp7585
S'low'
p7586
aS'vhigh'
p7587
ag99
ag4
aS'med'
p7588
aS'low'
p7589
aS'unacc'
p7590
aa(lp7591
S'low'
p7592
aS'vhigh'
p7593
ag99
ag4
aS'med'
p7594
aS'med'
p7595
aS'unacc'
p7596
aa(lp7597
S'low'
p7598
aS'vhigh'
p7599
ag99
ag4
aS'med'
p7600
aS'high'
p7601
aS'unacc'
p7602
aa(lp7603
S'low'
p7604
aS'vhigh'
p7605
ag99
ag4
aS'big'
p7606
aS'low'
p7607
aS'unacc'
p7608
aa(lp7609
S'low'
p7610
aS'vhigh'
p7611
ag99
ag4
aS'big'
p7612
aS'med'
p7613
aS'unacc'
p7614
aa(lp7615
S'low'
p7616
aS'vhigh'
p7617
ag99
ag4
aS'big'
p7618
aS'high'
p7619
aS'unacc'
p7620
aa(lp7621
S'low'
p7622
aS'vhigh'
p7623
ag99
ag5
aS'small'
p7624
aS'low'
p7625
aS'unacc'
p7626
aa(lp7627
S'low'
p7628
aS'vhigh'
p7629
ag99
ag5
aS'small'
p7630
aS'med'
p7631
aS'unacc'
p7632
aa(lp7633
S'low'
p7634
aS'vhigh'
p7635
ag99
ag5
aS'small'
p7636
aS'high'
p7637
aS'acc'
p7638
aa(lp7639
S'low'
p7640
aS'vhigh'
p7641
ag99
ag5
aS'med'
p7642
aS'low'
p7643
aS'unacc'
p7644
aa(lp7645
S'low'
p7646
aS'vhigh'
p7647
ag99
ag5
aS'med'
p7648
aS'med'
p7649
aS'unacc'
p7650
aa(lp7651
S'low'
p7652
aS'vhigh'
p7653
ag99
ag5
aS'med'
p7654
aS'high'
p7655
aS'acc'
p7656
aa(lp7657
S'low'
p7658
aS'vhigh'
p7659
ag99
ag5
aS'big'
p7660
aS'low'
p7661
aS'unacc'
p7662
aa(lp7663
S'low'
p7664
aS'vhigh'
p7665
ag99
ag5
aS'big'
p7666
aS'med'
p7667
aS'acc'
p7668
aa(lp7669
S'low'
p7670
aS'vhigh'
p7671
ag99
ag5
aS'big'
p7672
aS'high'
p7673
aS'acc'
p7674
aa(lp7675
S'low'
p7676
aS'vhigh'
p7677
ag99
aS'more'
p7678
aS'small'
p7679
aS'low'
p7680
aS'unacc'
p7681
aa(lp7682
S'low'
p7683
aS'vhigh'
p7684
ag99
aS'more'
p7685
aS'small'
p7686
aS'med'
p7687
aS'unacc'
p7688
aa(lp7689
S'low'
p7690
aS'vhigh'
p7691
ag99
aS'more'
p7692
aS'small'
p7693
aS'high'
p7694
aS'acc'
p7695
aa(lp7696
S'low'
p7697
aS'vhigh'
p7698
ag99
aS'more'
p7699
aS'med'
p7700
aS'low'
p7701
aS'unacc'
p7702
aa(lp7703
S'low'
p7704
aS'vhigh'
p7705
ag99
aS'more'
p7706
aS'med'
p7707
aS'med'
p7708
aS'acc'
p7709
aa(lp7710
S'low'
p7711
aS'vhigh'
p7712
ag99
aS'more'
p7713
aS'med'
p7714
aS'high'
p7715
aS'acc'
p7716
aa(lp7717
S'low'
p7718
aS'vhigh'
p7719
ag99
aS'more'
p7720
aS'big'
p7721
aS'low'
p7722
aS'unacc'
p7723
aa(lp7724
S'low'
p7725
aS'vhigh'
p7726
ag99
aS'more'
p7727
aS'big'
p7728
aS'med'
p7729
aS'acc'
p7730
aa(lp7731
S'low'
p7732
aS'vhigh'
p7733
ag99
aS'more'
p7734
aS'big'
p7735
aS'high'
p7736
aS'acc'
p7737
aa(lp7738
S'low'
p7739
aS'vhigh'
p7740
ag5
ag4
aS'small'
p7741
aS'low'
p7742
aS'unacc'
p7743
aa(lp7744
S'low'
p7745
aS'vhigh'
p7746
ag5
ag4
aS'small'
p7747
aS'med'
p7748
aS'unacc'
p7749
aa(lp7750
S'low'
p7751
aS'vhigh'
p7752
ag5
ag4
aS'small'
p7753
aS'high'
p7754
aS'unacc'
p7755
aa(lp7756
S'low'
p7757
aS'vhigh'
p7758
ag5
ag4
aS'med'
p7759
aS'low'
p7760
aS'unacc'
p7761
aa(lp7762
S'low'
p7763
aS'vhigh'
p7764
ag5
ag4
aS'med'
p7765
aS'med'
p7766
aS'unacc'
p7767
aa(lp7768
S'low'
p7769
aS'vhigh'
p7770
ag5
ag4
aS'med'
p7771
aS'high'
p7772
aS'unacc'
p7773
aa(lp7774
S'low'
p7775
aS'vhigh'
p7776
ag5
ag4
aS'big'
p7777
aS'low'
p7778
aS'unacc'
p7779
aa(lp7780
S'low'
p7781
aS'vhigh'
p7782
ag5
ag4
aS'big'
p7783
aS'med'
p7784
aS'unacc'
p7785
aa(lp7786
S'low'
p7787
aS'vhigh'
p7788
ag5
ag4
aS'big'
p7789
aS'high'
p7790
aS'unacc'
p7791
aa(lp7792
S'low'
p7793
aS'vhigh'
p7794
ag5
ag5
aS'small'
p7795
aS'low'
p7796
aS'unacc'
p7797
aa(lp7798
S'low'
p7799
aS'vhigh'
p7800
ag5
ag5
aS'small'
p7801
aS'med'
p7802
aS'unacc'
p7803
aa(lp7804
S'low'
p7805
aS'vhigh'
p7806
ag5
ag5
aS'small'
p7807
aS'high'
p7808
aS'acc'
p7809
aa(lp7810
S'low'
p7811
aS'vhigh'
p7812
ag5
ag5
aS'med'
p7813
aS'low'
p7814
aS'unacc'
p7815
aa(lp7816
S'low'
p7817
aS'vhigh'
p7818
ag5
ag5
aS'med'
p7819
aS'med'
p7820
aS'acc'
p7821
aa(lp7822
S'low'
p7823
aS'vhigh'
p7824
ag5
ag5
aS'med'
p7825
aS'high'
p7826
aS'acc'
p7827
aa(lp7828
S'low'
p7829
aS'vhigh'
p7830
ag5
ag5
aS'big'
p7831
aS'low'
p7832
aS'unacc'
p7833
aa(lp7834
S'low'
p7835
aS'vhigh'
p7836
ag5
ag5
aS'big'
p7837
aS'med'
p7838
aS'acc'
p7839
aa(lp7840
S'low'
p7841
aS'vhigh'
p7842
ag5
ag5
aS'big'
p7843
aS'high'
p7844
aS'acc'
p7845
aa(lp7846
S'low'
p7847
aS'vhigh'
p7848
ag5
aS'more'
p7849
aS'small'
p7850
aS'low'
p7851
aS'unacc'
p7852
aa(lp7853
S'low'
p7854
aS'vhigh'
p7855
ag5
aS'more'
p7856
aS'small'
p7857
aS'med'
p7858
aS'unacc'
p7859
aa(lp7860
S'low'
p7861
aS'vhigh'
p7862
ag5
aS'more'
p7863
aS'small'
p7864
aS'high'
p7865
aS'acc'
p7866
aa(lp7867
S'low'
p7868
aS'vhigh'
p7869
ag5
aS'more'
p7870
aS'med'
p7871
aS'low'
p7872
aS'unacc'
p7873
aa(lp7874
S'low'
p7875
aS'vhigh'
p7876
ag5
aS'more'
p7877
aS'med'
p7878
aS'med'
p7879
aS'acc'
p7880
aa(lp7881
S'low'
p7882
aS'vhigh'
p7883
ag5
aS'more'
p7884
aS'med'
p7885
aS'high'
p7886
aS'acc'
p7887
aa(lp7888
S'low'
p7889
aS'vhigh'
p7890
ag5
aS'more'
p7891
aS'big'
p7892
aS'low'
p7893
aS'unacc'
p7894
aa(lp7895
S'low'
p7896
aS'vhigh'
p7897
ag5
aS'more'
p7898
aS'big'
p7899
aS'med'
p7900
aS'acc'
p7901
aa(lp7902
S'low'
p7903
aS'vhigh'
p7904
ag5
aS'more'
p7905
aS'big'
p7906
aS'high'
p7907
aS'acc'
p7908
aa(lp7909
S'low'
p7910
aS'vhigh'
p7911
aS'5more'
p7912
ag4
aS'small'
p7913
aS'low'
p7914
aS'unacc'
p7915
aa(lp7916
S'low'
p7917
aS'vhigh'
p7918
aS'5more'
p7919
ag4
aS'small'
p7920
aS'med'
p7921
aS'unacc'
p7922
aa(lp7923
S'low'
p7924
aS'vhigh'
p7925
aS'5more'
p7926
ag4
aS'small'
p7927
aS'high'
p7928
aS'unacc'
p7929
aa(lp7930
S'low'
p7931
aS'vhigh'
p7932
aS'5more'
p7933
ag4
aS'med'
p7934
aS'low'
p7935
aS'unacc'
p7936
aa(lp7937
S'low'
p7938
aS'vhigh'
p7939
aS'5more'
p7940
ag4
aS'med'
p7941
aS'med'
p7942
aS'unacc'
p7943
aa(lp7944
S'low'
p7945
aS'vhigh'
p7946
aS'5more'
p7947
ag4
aS'med'
p7948
aS'high'
p7949
aS'unacc'
p7950
aa(lp7951
S'low'
p7952
aS'vhigh'
p7953
aS'5more'
p7954
ag4
aS'big'
p7955
aS'low'
p7956
aS'unacc'
p7957
aa(lp7958
S'low'
p7959
aS'vhigh'
p7960
aS'5more'
p7961
ag4
aS'big'
p7962
aS'med'
p7963
aS'unacc'
p7964
aa(lp7965
S'low'
p7966
aS'vhigh'
p7967
aS'5more'
p7968
ag4
aS'big'
p7969
aS'high'
p7970
aS'unacc'
p7971
aa(lp7972
S'low'
p7973
aS'vhigh'
p7974
aS'5more'
p7975
ag5
aS'small'
p7976
aS'low'
p7977
aS'unacc'
p7978
aa(lp7979
S'low'
p7980
aS'vhigh'
p7981
aS'5more'
p7982
ag5
aS'small'
p7983
aS'med'
p7984
aS'unacc'
p7985
aa(lp7986
S'low'
p7987
aS'vhigh'
p7988
aS'5more'
p7989
ag5
aS'small'
p7990
aS'high'
p7991
aS'acc'
p7992
aa(lp7993
S'low'
p7994
aS'vhigh'
p7995
aS'5more'
p7996
ag5
aS'med'
p7997
aS'low'
p7998
aS'unacc'
p7999
aa(lp8000
S'low'
p8001
aS'vhigh'
p8002
aS'5more'
p8003
ag5
aS'med'
p8004
aS'med'
p8005
aS'acc'
p8006
aa(lp8007
S'low'
p8008
aS'vhigh'
p8009
aS'5more'
p8010
ag5
aS'med'
p8011
aS'high'
p8012
aS'acc'
p8013
aa(lp8014
S'low'
p8015
aS'vhigh'
p8016
aS'5more'
p8017
ag5
aS'big'
p8018
aS'low'
p8019
aS'unacc'
p8020
aa(lp8021
S'low'
p8022
aS'vhigh'
p8023
aS'5more'
p8024
ag5
aS'big'
p8025
aS'med'
p8026
aS'acc'
p8027
aa(lp8028
S'low'
p8029
aS'vhigh'
p8030
aS'5more'
p8031
ag5
aS'big'
p8032
aS'high'
p8033
aS'acc'
p8034
aa(lp8035
S'low'
p8036
aS'vhigh'
p8037
aS'5more'
p8038
aS'more'
p8039
aS'small'
p8040
aS'low'
p8041
aS'unacc'
p8042
aa(lp8043
S'low'
p8044
aS'vhigh'
p8045
aS'5more'
p8046
aS'more'
p8047
aS'small'
p8048
aS'med'
p8049
aS'unacc'
p8050
aa(lp8051
S'low'
p8052
aS'vhigh'
p8053
aS'5more'
p8054
aS'more'
p8055
aS'small'
p8056
aS'high'
p8057
aS'acc'
p8058
aa(lp8059
S'low'
p8060
aS'vhigh'
p8061
aS'5more'
p8062
aS'more'
p8063
aS'med'
p8064
aS'low'
p8065
aS'unacc'
p8066
aa(lp8067
S'low'
p8068
aS'vhigh'
p8069
aS'5more'
p8070
aS'more'
p8071
aS'med'
p8072
aS'med'
p8073
aS'acc'
p8074
aa(lp8075
S'low'
p8076
aS'vhigh'
p8077
aS'5more'
p8078
aS'more'
p8079
aS'med'
p8080
aS'high'
p8081
aS'acc'
p8082
aa(lp8083
S'low'
p8084
aS'vhigh'
p8085
aS'5more'
p8086
aS'more'
p8087
aS'big'
p8088
aS'low'
p8089
aS'unacc'
p8090
aa(lp8091
S'low'
p8092
aS'vhigh'
p8093
aS'5more'
p8094
aS'more'
p8095
aS'big'
p8096
aS'med'
p8097
aS'acc'
p8098
aa(lp8099
S'low'
p8100
aS'vhigh'
p8101
aS'5more'
p8102
aS'more'
p8103
aS'big'
p8104
aS'high'
p8105
aS'acc'
p8106
aa(lp8107
S'low'
p8108
aS'high'
p8109
ag4
ag4
aS'small'
p8110
aS'low'
p8111
aS'unacc'
p8112
aa(lp8113
S'low'
p8114
aS'high'
p8115
ag4
ag4
aS'small'
p8116
aS'med'
p8117
aS'unacc'
p8118
aa(lp8119
S'low'
p8120
aS'high'
p8121
ag4
ag4
aS'small'
p8122
aS'high'
p8123
aS'unacc'
p8124
aa(lp8125
S'low'
p8126
aS'high'
p8127
ag4
ag4
aS'med'
p8128
aS'low'
p8129
aS'unacc'
p8130
aa(lp8131
S'low'
p8132
aS'high'
p8133
ag4
ag4
aS'med'
p8134
aS'med'
p8135
aS'unacc'
p8136
aa(lp8137
S'low'
p8138
aS'high'
p8139
ag4
ag4
aS'med'
p8140
aS'high'
p8141
aS'unacc'
p8142
aa(lp8143
S'low'
p8144
aS'high'
p8145
ag4
ag4
aS'big'
p8146
aS'low'
p8147
aS'unacc'
p8148
aa(lp8149
S'low'
p8150
aS'high'
p8151
ag4
ag4
aS'big'
p8152
aS'med'
p8153
aS'unacc'
p8154
aa(lp8155
S'low'
p8156
aS'high'
p8157
ag4
ag4
aS'big'
p8158
aS'high'
p8159
aS'unacc'
p8160
aa(lp8161
S'low'
p8162
aS'high'
p8163
ag4
ag5
aS'small'
p8164
aS'low'
p8165
aS'unacc'
p8166
aa(lp8167
S'low'
p8168
aS'high'
p8169
ag4
ag5
aS'small'
p8170
aS'med'
p8171
aS'acc'
p8172
aa(lp8173
S'low'
p8174
aS'high'
p8175
ag4
ag5
aS'small'
p8176
aS'high'
p8177
aS'acc'
p8178
aa(lp8179
S'low'
p8180
aS'high'
p8181
ag4
ag5
aS'med'
p8182
aS'low'
p8183
aS'unacc'
p8184
aa(lp8185
S'low'
p8186
aS'high'
p8187
ag4
ag5
aS'med'
p8188
aS'med'
p8189
aS'acc'
p8190
aa(lp8191
S'low'
p8192
aS'high'
p8193
ag4
ag5
aS'med'
p8194
aS'high'
p8195
aS'acc'
p8196
aa(lp8197
S'low'
p8198
aS'high'
p8199
ag4
ag5
aS'big'
p8200
aS'low'
p8201
aS'unacc'
p8202
aa(lp8203
S'low'
p8204
aS'high'
p8205
ag4
ag5
aS'big'
p8206
aS'med'
p8207
aS'acc'
p8208
aa(lp8209
S'low'
p8210
aS'high'
p8211
ag4
ag5
aS'big'
p8212
aS'high'
p8213
aS'vgood'
p8214
aa(lp8215
S'low'
p8216
aS'high'
p8217
ag4
aS'more'
p8218
aS'small'
p8219
aS'low'
p8220
aS'unacc'
p8221
aa(lp8222
S'low'
p8223
aS'high'
p8224
ag4
aS'more'
p8225
aS'small'
p8226
aS'med'
p8227
aS'unacc'
p8228
aa(lp8229
S'low'
p8230
aS'high'
p8231
ag4
aS'more'
p8232
aS'small'
p8233
aS'high'
p8234
aS'unacc'
p8235
aa(lp8236
S'low'
p8237
aS'high'
p8238
ag4
aS'more'
p8239
aS'med'
p8240
aS'low'
p8241
aS'unacc'
p8242
aa(lp8243
S'low'
p8244
aS'high'
p8245
ag4
aS'more'
p8246
aS'med'
p8247
aS'med'
p8248
aS'acc'
p8249
aa(lp8250
S'low'
p8251
aS'high'
p8252
ag4
aS'more'
p8253
aS'med'
p8254
aS'high'
p8255
aS'acc'
p8256
aa(lp8257
S'low'
p8258
aS'high'
p8259
ag4
aS'more'
p8260
aS'big'
p8261
aS'low'
p8262
aS'unacc'
p8263
aa(lp8264
S'low'
p8265
aS'high'
p8266
ag4
aS'more'
p8267
aS'big'
p8268
aS'med'
p8269
aS'acc'
p8270
aa(lp8271
S'low'
p8272
aS'high'
p8273
ag4
aS'more'
p8274
aS'big'
p8275
aS'high'
p8276
aS'vgood'
p8277
aa(lp8278
S'low'
p8279
aS'high'
p8280
ag99
ag4
aS'small'
p8281
aS'low'
p8282
aS'unacc'
p8283
aa(lp8284
S'low'
p8285
aS'high'
p8286
ag99
ag4
aS'small'
p8287
aS'med'
p8288
aS'unacc'
p8289
aa(lp8290
S'low'
p8291
aS'high'
p8292
ag99
ag4
aS'small'
p8293
aS'high'
p8294
aS'unacc'
p8295
aa(lp8296
S'low'
p8297
aS'high'
p8298
ag99
ag4
aS'med'
p8299
aS'low'
p8300
aS'unacc'
p8301
aa(lp8302
S'low'
p8303
aS'high'
p8304
ag99
ag4
aS'med'
p8305
aS'med'
p8306
aS'unacc'
p8307
aa(lp8308
S'low'
p8309
aS'high'
p8310
ag99
ag4
aS'med'
p8311
aS'high'
p8312
aS'unacc'
p8313
aa(lp8314
S'low'
p8315
aS'high'
p8316
ag99
ag4
aS'big'
p8317
aS'low'
p8318
aS'unacc'
p8319
aa(lp8320
S'low'
p8321
aS'high'
p8322
ag99
ag4
aS'big'
p8323
aS'med'
p8324
aS'unacc'
p8325
aa(lp8326
S'low'
p8327
aS'high'
p8328
ag99
ag4
aS'big'
p8329
aS'high'
p8330
aS'unacc'
p8331
aa(lp8332
S'low'
p8333
aS'high'
p8334
ag99
ag5
aS'small'
p8335
aS'low'
p8336
aS'unacc'
p8337
aa(lp8338
S'low'
p8339
aS'high'
p8340
ag99
ag5
aS'small'
p8341
aS'med'
p8342
aS'acc'
p8343
aa(lp8344
S'low'
p8345
aS'high'
p8346
ag99
ag5
aS'small'
p8347
aS'high'
p8348
aS'acc'
p8349
aa(lp8350
S'low'
p8351
aS'high'
p8352
ag99
ag5
aS'med'
p8353
aS'low'
p8354
aS'unacc'
p8355
aa(lp8356
S'low'
p8357
aS'high'
p8358
ag99
ag5
aS'med'
p8359
aS'med'
p8360
aS'acc'
p8361
aa(lp8362
S'low'
p8363
aS'high'
p8364
ag99
ag5
aS'med'
p8365
aS'high'
p8366
aS'acc'
p8367
aa(lp8368
S'low'
p8369
aS'high'
p8370
ag99
ag5
aS'big'
p8371
aS'low'
p8372
aS'unacc'
p8373
aa(lp8374
S'low'
p8375
aS'high'
p8376
ag99
ag5
aS'big'
p8377
aS'med'
p8378
aS'acc'
p8379
aa(lp8380
S'low'
p8381
aS'high'
p8382
ag99
ag5
aS'big'
p8383
aS'high'
p8384
aS'vgood'
p8385
aa(lp8386
S'low'
p8387
aS'high'
p8388
ag99
aS'more'
p8389
aS'small'
p8390
aS'low'
p8391
aS'unacc'
p8392
aa(lp8393
S'low'
p8394
aS'high'
p8395
ag99
aS'more'
p8396
aS'small'
p8397
aS'med'
p8398
aS'acc'
p8399
aa(lp8400
S'low'
p8401
aS'high'
p8402
ag99
aS'more'
p8403
aS'small'
p8404
aS'high'
p8405
aS'acc'
p8406
aa(lp8407
S'low'
p8408
aS'high'
p8409
ag99
aS'more'
p8410
aS'med'
p8411
aS'low'
p8412
aS'unacc'
p8413
aa(lp8414
S'low'
p8415
aS'high'
p8416
ag99
aS'more'
p8417
aS'med'
p8418
aS'med'
p8419
aS'acc'
p8420
aa(lp8421
S'low'
p8422
aS'high'
p8423
ag99
aS'more'
p8424
aS'med'
p8425
aS'high'
p8426
aS'vgood'
p8427
aa(lp8428
S'low'
p8429
aS'high'
p8430
ag99
aS'more'
p8431
aS'big'
p8432
aS'low'
p8433
aS'unacc'
p8434
aa(lp8435
S'low'
p8436
aS'high'
p8437
ag99
aS'more'
p8438
aS'big'
p8439
aS'med'
p8440
aS'acc'
p8441
aa(lp8442
S'low'
p8443
aS'high'
p8444
ag99
aS'more'
p8445
aS'big'
p8446
aS'high'
p8447
aS'vgood'
p8448
aa(lp8449
S'low'
p8450
aS'high'
p8451
ag5
ag4
aS'small'
p8452
aS'low'
p8453
aS'unacc'
p8454
aa(lp8455
S'low'
p8456
aS'high'
p8457
ag5
ag4
aS'small'
p8458
aS'med'
p8459
aS'unacc'
p8460
aa(lp8461
S'low'
p8462
aS'high'
p8463
ag5
ag4
aS'small'
p8464
aS'high'
p8465
aS'unacc'
p8466
aa(lp8467
S'low'
p8468
aS'high'
p8469
ag5
ag4
aS'med'
p8470
aS'low'
p8471
aS'unacc'
p8472
aa(lp8473
S'low'
p8474
aS'high'
p8475
ag5
ag4
aS'med'
p8476
aS'med'
p8477
aS'unacc'
p8478
aa(lp8479
S'low'
p8480
aS'high'
p8481
ag5
ag4
aS'med'
p8482
aS'high'
p8483
aS'unacc'
p8484
aa(lp8485
S'low'
p8486
aS'high'
p8487
ag5
ag4
aS'big'
p8488
aS'low'
p8489
aS'unacc'
p8490
aa(lp8491
S'low'
p8492
aS'high'
p8493
ag5
ag4
aS'big'
p8494
aS'med'
p8495
aS'unacc'
p8496
aa(lp8497
S'low'
p8498
aS'high'
p8499
ag5
ag4
aS'big'
p8500
aS'high'
p8501
aS'unacc'
p8502
aa(lp8503
S'low'
p8504
aS'high'
p8505
ag5
ag5
aS'small'
p8506
aS'low'
p8507
aS'unacc'
p8508
aa(lp8509
S'low'
p8510
aS'high'
p8511
ag5
ag5
aS'small'
p8512
aS'med'
p8513
aS'acc'
p8514
aa(lp8515
S'low'
p8516
aS'high'
p8517
ag5
ag5
aS'small'
p8518
aS'high'
p8519
aS'acc'
p8520
aa(lp8521
S'low'
p8522
aS'high'
p8523
ag5
ag5
aS'med'
p8524
aS'low'
p8525
aS'unacc'
p8526
aa(lp8527
S'low'
p8528
aS'high'
p8529
ag5
ag5
aS'med'
p8530
aS'med'
p8531
aS'acc'
p8532
aa(lp8533
S'low'
p8534
aS'high'
p8535
ag5
ag5
aS'med'
p8536
aS'high'
p8537
aS'vgood'
p8538
aa(lp8539
S'low'
p8540
aS'high'
p8541
ag5
ag5
aS'big'
p8542
aS'low'
p8543
aS'unacc'
p8544
aa(lp8545
S'low'
p8546
aS'high'
p8547
ag5
ag5
aS'big'
p8548
aS'med'
p8549
aS'acc'
p8550
aa(lp8551
S'low'
p8552
aS'high'
p8553
ag5
ag5
aS'big'
p8554
aS'high'
p8555
aS'vgood'
p8556
aa(lp8557
S'low'
p8558
aS'high'
p8559
ag5
aS'more'
p8560
aS'small'
p8561
aS'low'
p8562
aS'unacc'
p8563
aa(lp8564
S'low'
p8565
aS'high'
p8566
ag5
aS'more'
p8567
aS'small'
p8568
aS'med'
p8569
aS'acc'
p8570
aa(lp8571
S'low'
p8572
aS'high'
p8573
ag5
aS'more'
p8574
aS'small'
p8575
aS'high'
p8576
aS'acc'
p8577
aa(lp8578
S'low'
p8579
aS'high'
p8580
ag5
aS'more'
p8581
aS'med'
p8582
aS'low'
p8583
aS'unacc'
p8584
aa(lp8585
S'low'
p8586
aS'high'
p8587
ag5
aS'more'
p8588
aS'med'
p8589
aS'med'
p8590
aS'acc'
p8591
aa(lp8592
S'low'
p8593
aS'high'
p8594
ag5
aS'more'
p8595
aS'med'
p8596
aS'high'
p8597
aS'vgood'
p8598
aa(lp8599
S'low'
p8600
aS'high'
p8601
ag5
aS'more'
p8602
aS'big'
p8603
aS'low'
p8604
aS'unacc'
p8605
aa(lp8606
S'low'
p8607
aS'high'
p8608
ag5
aS'more'
p8609
aS'big'
p8610
aS'med'
p8611
aS'acc'
p8612
aa(lp8613
S'low'
p8614
aS'high'
p8615
ag5
aS'more'
p8616
aS'big'
p8617
aS'high'
p8618
aS'vgood'
p8619
aa(lp8620
S'low'
p8621
aS'high'
p8622
aS'5more'
p8623
ag4
aS'small'
p8624
aS'low'
p8625
aS'unacc'
p8626
aa(lp8627
S'low'
p8628
aS'high'
p8629
aS'5more'
p8630
ag4
aS'small'
p8631
aS'med'
p8632
aS'unacc'
p8633
aa(lp8634
S'low'
p8635
aS'high'
p8636
aS'5more'
p8637
ag4
aS'small'
p8638
aS'high'
p8639
aS'unacc'
p8640
aa(lp8641
S'low'
p8642
aS'high'
p8643
aS'5more'
p8644
ag4
aS'med'
p8645
aS'low'
p8646
aS'unacc'
p8647
aa(lp8648
S'low'
p8649
aS'high'
p8650
aS'5more'
p8651
ag4
aS'med'
p8652
aS'med'
p8653
aS'unacc'
p8654
aa(lp8655
S'low'
p8656
aS'high'
p8657
aS'5more'
p8658
ag4
aS'med'
p8659
aS'high'
p8660
aS'unacc'
p8661
aa(lp8662
S'low'
p8663
aS'high'
p8664
aS'5more'
p8665
ag4
aS'big'
p8666
aS'low'
p8667
aS'unacc'
p8668
aa(lp8669
S'low'
p8670
aS'high'
p8671
aS'5more'
p8672
ag4
aS'big'
p8673
aS'med'
p8674
aS'unacc'
p8675
aa(lp8676
S'low'
p8677
aS'high'
p8678
aS'5more'
p8679
ag4
aS'big'
p8680
aS'high'
p8681
aS'unacc'
p8682
aa(lp8683
S'low'
p8684
aS'high'
p8685
aS'5more'
p8686
ag5
aS'small'
p8687
aS'low'
p8688
aS'unacc'
p8689
aa(lp8690
S'low'
p8691
aS'high'
p8692
aS'5more'
p8693
ag5
aS'small'
p8694
aS'med'
p8695
aS'acc'
p8696
aa(lp8697
S'low'
p8698
aS'high'
p8699
aS'5more'
p8700
ag5
aS'small'
p8701
aS'high'
p8702
aS'acc'
p8703
aa(lp8704
S'low'
p8705
aS'high'
p8706
aS'5more'
p8707
ag5
aS'med'
p8708
aS'low'
p8709
aS'unacc'
p8710
aa(lp8711
S'low'
p8712
aS'high'
p8713
aS'5more'
p8714
ag5
aS'med'
p8715
aS'med'
p8716
aS'acc'
p8717
aa(lp8718
S'low'
p8719
aS'high'
p8720
aS'5more'
p8721
ag5
aS'med'
p8722
aS'high'
p8723
aS'vgood'
p8724
aa(lp8725
S'low'
p8726
aS'high'
p8727
aS'5more'
p8728
ag5
aS'big'
p8729
aS'low'
p8730
aS'unacc'
p8731
aa(lp8732
S'low'
p8733
aS'high'
p8734
aS'5more'
p8735
ag5
aS'big'
p8736
aS'med'
p8737
aS'acc'
p8738
aa(lp8739
S'low'
p8740
aS'high'
p8741
aS'5more'
p8742
ag5
aS'big'
p8743
aS'high'
p8744
aS'vgood'
p8745
aa(lp8746
S'low'
p8747
aS'high'
p8748
aS'5more'
p8749
aS'more'
p8750
aS'small'
p8751
aS'low'
p8752
aS'unacc'
p8753
aa(lp8754
S'low'
p8755
aS'high'
p8756
aS'5more'
p8757
aS'more'
p8758
aS'small'
p8759
aS'med'
p8760
aS'acc'
p8761
aa(lp8762
S'low'
p8763
aS'high'
p8764
aS'5more'
p8765
aS'more'
p8766
aS'small'
p8767
aS'high'
p8768
aS'acc'
p8769
aa(lp8770
S'low'
p8771
aS'high'
p8772
aS'5more'
p8773
aS'more'
p8774
aS'med'
p8775
aS'low'
p8776
aS'unacc'
p8777
aa(lp8778
S'low'
p8779
aS'high'
p8780
aS'5more'
p8781
aS'more'
p8782
aS'med'
p8783
aS'med'
p8784
aS'acc'
p8785
aa(lp8786
S'low'
p8787
aS'high'
p8788
aS'5more'
p8789
aS'more'
p8790
aS'med'
p8791
aS'high'
p8792
aS'vgood'
p8793
aa(lp8794
S'low'
p8795
aS'high'
p8796
aS'5more'
p8797
aS'more'
p8798
aS'big'
p8799
aS'low'
p8800
aS'unacc'
p8801
aa(lp8802
S'low'
p8803
aS'high'
p8804
aS'5more'
p8805
aS'more'
p8806
aS'big'
p8807
aS'med'
p8808
aS'acc'
p8809
aa(lp8810
S'low'
p8811
aS'high'
p8812
aS'5more'
p8813
aS'more'
p8814
aS'big'
p8815
aS'high'
p8816
aS'vgood'
p8817
aa(lp8818
S'low'
p8819
aS'med'
p8820
ag4
ag4
aS'small'
p8821
aS'low'
p8822
aS'unacc'
p8823
aa(lp8824
S'low'
p8825
aS'med'
p8826
ag4
ag4
aS'small'
p8827
aS'med'
p8828
aS'unacc'
p8829
aa(lp8830
S'low'
p8831
aS'med'
p8832
ag4
ag4
aS'small'
p8833
aS'high'
p8834
aS'unacc'
p8835
aa(lp8836
S'low'
p8837
aS'med'
p8838
ag4
ag4
aS'med'
p8839
aS'low'
p8840
aS'unacc'
p8841
aa(lp8842
S'low'
p8843
aS'med'
p8844
ag4
ag4
aS'med'
p8845
aS'med'
p8846
aS'unacc'
p8847
aa(lp8848
S'low'
p8849
aS'med'
p8850
ag4
ag4
aS'med'
p8851
aS'high'
p8852
aS'unacc'
p8853
aa(lp8854
S'low'
p8855
aS'med'
p8856
ag4
ag4
aS'big'
p8857
aS'low'
p8858
aS'unacc'
p8859
aa(lp8860
S'low'
p8861
aS'med'
p8862
ag4
ag4
aS'big'
p8863
aS'med'
p8864
aS'unacc'
p8865
aa(lp8866
S'low'
p8867
aS'med'
p8868
ag4
ag4
aS'big'
p8869
aS'high'
p8870
aS'unacc'
p8871
aa(lp8872
S'low'
p8873
aS'med'
p8874
ag4
ag5
aS'small'
p8875
aS'low'
p8876
aS'unacc'
p8877
aa(lp8878
S'low'
p8879
aS'med'
p8880
ag4
ag5
aS'small'
p8881
aS'med'
p8882
aS'acc'
p8883
aa(lp8884
S'low'
p8885
aS'med'
p8886
ag4
ag5
aS'small'
p8887
aS'high'
p8888
aS'good'
p8889
aa(lp8890
S'low'
p8891
aS'med'
p8892
ag4
ag5
aS'med'
p8893
aS'low'
p8894
aS'unacc'
p8895
aa(lp8896
S'low'
p8897
aS'med'
p8898
ag4
ag5
aS'med'
p8899
aS'med'
p8900
aS'acc'
p8901
aa(lp8902
S'low'
p8903
aS'med'
p8904
ag4
ag5
aS'med'
p8905
aS'high'
p8906
aS'good'
p8907
aa(lp8908
S'low'
p8909
aS'med'
p8910
ag4
ag5
aS'big'
p8911
aS'low'
p8912
aS'unacc'
p8913
aa(lp8914
S'low'
p8915
aS'med'
p8916
ag4
ag5
aS'big'
p8917
aS'med'
p8918
aS'good'
p8919
aa(lp8920
S'low'
p8921
aS'med'
p8922
ag4
ag5
aS'big'
p8923
aS'high'
p8924
aS'vgood'
p8925
aa(lp8926
S'low'
p8927
aS'med'
p8928
ag4
aS'more'
p8929
aS'small'
p8930
aS'low'
p8931
aS'unacc'
p8932
aa(lp8933
S'low'
p8934
aS'med'
p8935
ag4
aS'more'
p8936
aS'small'
p8937
aS'med'
p8938
aS'unacc'
p8939
aa(lp8940
S'low'
p8941
aS'med'
p8942
ag4
aS'more'
p8943
aS'small'
p8944
aS'high'
p8945
aS'unacc'
p8946
aa(lp8947
S'low'
p8948
aS'med'
p8949
ag4
aS'more'
p8950
aS'med'
p8951
aS'low'
p8952
aS'unacc'
p8953
aa(lp8954
S'low'
p8955
aS'med'
p8956
ag4
aS'more'
p8957
aS'med'
p8958
aS'med'
p8959
aS'acc'
p8960
aa(lp8961
S'low'
p8962
aS'med'
p8963
ag4
aS'more'
p8964
aS'med'
p8965
aS'high'
p8966
aS'good'
p8967
aa(lp8968
S'low'
p8969
aS'med'
p8970
ag4
aS'more'
p8971
aS'big'
p8972
aS'low'
p8973
aS'unacc'
p8974
aa(lp8975
S'low'
p8976
aS'med'
p8977
ag4
aS'more'
p8978
aS'big'
p8979
aS'med'
p8980
aS'good'
p8981
aa(lp8982
S'low'
p8983
aS'med'
p8984
ag4
aS'more'
p8985
aS'big'
p8986
aS'high'
p8987
aS'vgood'
p8988
aa(lp8989
S'low'
p8990
aS'med'
p8991
ag99
ag4
aS'small'
p8992
aS'low'
p8993
aS'unacc'
p8994
aa(lp8995
S'low'
p8996
aS'med'
p8997
ag99
ag4
aS'small'
p8998
aS'med'
p8999
aS'unacc'
p9000
aa(lp9001
S'low'
p9002
aS'med'
p9003
ag99
ag4
aS'small'
p9004
aS'high'
p9005
aS'unacc'
p9006
aa(lp9007
S'low'
p9008
aS'med'
p9009
ag99
ag4
aS'med'
p9010
aS'low'
p9011
aS'unacc'
p9012
aa(lp9013
S'low'
p9014
aS'med'
p9015
ag99
ag4
aS'med'
p9016
aS'med'
p9017
aS'unacc'
p9018
aa(lp9019
S'low'
p9020
aS'med'
p9021
ag99
ag4
aS'med'
p9022
aS'high'
p9023
aS'unacc'
p9024
aa(lp9025
S'low'
p9026
aS'med'
p9027
ag99
ag4
aS'big'
p9028
aS'low'
p9029
aS'unacc'
p9030
aa(lp9031
S'low'
p9032
aS'med'
p9033
ag99
ag4
aS'big'
p9034
aS'med'
p9035
aS'unacc'
p9036
aa(lp9037
S'low'
p9038
aS'med'
p9039
ag99
ag4
aS'big'
p9040
aS'high'
p9041
aS'unacc'
p9042
aa(lp9043
S'low'
p9044
aS'med'
p9045
ag99
ag5
aS'small'
p9046
aS'low'
p9047
aS'unacc'
p9048
aa(lp9049
S'low'
p9050
aS'med'
p9051
ag99
ag5
aS'small'
p9052
aS'med'
p9053
aS'acc'
p9054
aa(lp9055
S'low'
p9056
aS'med'
p9057
ag99
ag5
aS'small'
p9058
aS'high'
p9059
aS'good'
p9060
aa(lp9061
S'low'
p9062
aS'med'
p9063
ag99
ag5
aS'med'
p9064
aS'low'
p9065
aS'unacc'
p9066
aa(lp9067
S'low'
p9068
aS'med'
p9069
ag99
ag5
aS'med'
p9070
aS'med'
p9071
aS'acc'
p9072
aa(lp9073
S'low'
p9074
aS'med'
p9075
ag99
ag5
aS'med'
p9076
aS'high'
p9077
aS'good'
p9078
aa(lp9079
S'low'
p9080
aS'med'
p9081
ag99
ag5
aS'big'
p9082
aS'low'
p9083
aS'unacc'
p9084
aa(lp9085
S'low'
p9086
aS'med'
p9087
ag99
ag5
aS'big'
p9088
aS'med'
p9089
aS'good'
p9090
aa(lp9091
S'low'
p9092
aS'med'
p9093
ag99
ag5
aS'big'
p9094
aS'high'
p9095
aS'vgood'
p9096
aa(lp9097
S'low'
p9098
aS'med'
p9099
ag99
aS'more'
p9100
aS'small'
p9101
aS'low'
p9102
aS'unacc'
p9103
aa(lp9104
S'low'
p9105
aS'med'
p9106
ag99
aS'more'
p9107
aS'small'
p9108
aS'med'
p9109
aS'acc'
p9110
aa(lp9111
S'low'
p9112
aS'med'
p9113
ag99
aS'more'
p9114
aS'small'
p9115
aS'high'
p9116
aS'good'
p9117
aa(lp9118
S'low'
p9119
aS'med'
p9120
ag99
aS'more'
p9121
aS'med'
p9122
aS'low'
p9123
aS'unacc'
p9124
aa(lp9125
S'low'
p9126
aS'med'
p9127
ag99
aS'more'
p9128
aS'med'
p9129
aS'med'
p9130
aS'good'
p9131
aa(lp9132
S'low'
p9133
aS'med'
p9134
ag99
aS'more'
p9135
aS'med'
p9136
aS'high'
p9137
aS'vgood'
p9138
aa(lp9139
S'low'
p9140
aS'med'
p9141
ag99
aS'more'
p9142
aS'big'
p9143
aS'low'
p9144
aS'unacc'
p9145
aa(lp9146
S'low'
p9147
aS'med'
p9148
ag99
aS'more'
p9149
aS'big'
p9150
aS'med'
p9151
aS'good'
p9152
aa(lp9153
S'low'
p9154
aS'med'
p9155
ag99
aS'more'
p9156
aS'big'
p9157
aS'high'
p9158
aS'vgood'
p9159
aa(lp9160
S'low'
p9161
aS'med'
p9162
ag5
ag4
aS'small'
p9163
aS'low'
p9164
aS'unacc'
p9165
aa(lp9166
S'low'
p9167
aS'med'
p9168
ag5
ag4
aS'small'
p9169
aS'med'
p9170
aS'unacc'
p9171
aa(lp9172
S'low'
p9173
aS'med'
p9174
ag5
ag4
aS'small'
p9175
aS'high'
p9176
aS'unacc'
p9177
aa(lp9178
S'low'
p9179
aS'med'
p9180
ag5
ag4
aS'med'
p9181
aS'low'
p9182
aS'unacc'
p9183
aa(lp9184
S'low'
p9185
aS'med'
p9186
ag5
ag4
aS'med'
p9187
aS'med'
p9188
aS'unacc'
p9189
aa(lp9190
S'low'
p9191
aS'med'
p9192
ag5
ag4
aS'med'
p9193
aS'high'
p9194
aS'unacc'
p9195
aa(lp9196
S'low'
p9197
aS'med'
p9198
ag5
ag4
aS'big'
p9199
aS'low'
p9200
aS'unacc'
p9201
aa(lp9202
S'low'
p9203
aS'med'
p9204
ag5
ag4
aS'big'
p9205
aS'med'
p9206
aS'unacc'
p9207
aa(lp9208
S'low'
p9209
aS'med'
p9210
ag5
ag4
aS'big'
p9211
aS'high'
p9212
aS'unacc'
p9213
aa(lp9214
S'low'
p9215
aS'med'
p9216
ag5
ag5
aS'small'
p9217
aS'low'
p9218
aS'unacc'
p9219
aa(lp9220
S'low'
p9221
aS'med'
p9222
ag5
ag5
aS'small'
p9223
aS'med'
p9224
aS'acc'
p9225
aa(lp9226
S'low'
p9227
aS'med'
p9228
ag5
ag5
aS'small'
p9229
aS'high'
p9230
aS'good'
p9231
aa(lp9232
S'low'
p9233
aS'med'
p9234
ag5
ag5
aS'med'
p9235
aS'low'
p9236
aS'unacc'
p9237
aa(lp9238
S'low'
p9239
aS'med'
p9240
ag5
ag5
aS'med'
p9241
aS'med'
p9242
aS'good'
p9243
aa(lp9244
S'low'
p9245
aS'med'
p9246
ag5
ag5
aS'med'
p9247
aS'high'
p9248
aS'vgood'
p9249
aa(lp9250
S'low'
p9251
aS'med'
p9252
ag5
ag5
aS'big'
p9253
aS'low'
p9254
aS'unacc'
p9255
aa(lp9256
S'low'
p9257
aS'med'
p9258
ag5
ag5
aS'big'
p9259
aS'med'
p9260
aS'good'
p9261
aa(lp9262
S'low'
p9263
aS'med'
p9264
ag5
ag5
aS'big'
p9265
aS'high'
p9266
aS'vgood'
p9267
aa(lp9268
S'low'
p9269
aS'med'
p9270
ag5
aS'more'
p9271
aS'small'
p9272
aS'low'
p9273
aS'unacc'
p9274
aa(lp9275
S'low'
p9276
aS'med'
p9277
ag5
aS'more'
p9278
aS'small'
p9279
aS'med'
p9280
aS'acc'
p9281
aa(lp9282
S'low'
p9283
aS'med'
p9284
ag5
aS'more'
p9285
aS'small'
p9286
aS'high'
p9287
aS'good'
p9288
aa(lp9289
S'low'
p9290
aS'med'
p9291
ag5
aS'more'
p9292
aS'med'
p9293
aS'low'
p9294
aS'unacc'
p9295
aa(lp9296
S'low'
p9297
aS'med'
p9298
ag5
aS'more'
p9299
aS'med'
p9300
aS'med'
p9301
aS'good'
p9302
aa(lp9303
S'low'
p9304
aS'med'
p9305
ag5
aS'more'
p9306
aS'med'
p9307
aS'high'
p9308
aS'vgood'
p9309
aa(lp9310
S'low'
p9311
aS'med'
p9312
ag5
aS'more'
p9313
aS'big'
p9314
aS'low'
p9315
aS'unacc'
p9316
aa(lp9317
S'low'
p9318
aS'med'
p9319
ag5
aS'more'
p9320
aS'big'
p9321
aS'med'
p9322
aS'good'
p9323
aa(lp9324
S'low'
p9325
aS'med'
p9326
ag5
aS'more'
p9327
aS'big'
p9328
aS'high'
p9329
aS'vgood'
p9330
aa(lp9331
S'low'
p9332
aS'med'
p9333
aS'5more'
p9334
ag4
aS'small'
p9335
aS'low'
p9336
aS'unacc'
p9337
aa(lp9338
S'low'
p9339
aS'med'
p9340
aS'5more'
p9341
ag4
aS'small'
p9342
aS'med'
p9343
aS'unacc'
p9344
aa(lp9345
S'low'
p9346
aS'med'
p9347
aS'5more'
p9348
ag4
aS'small'
p9349
aS'high'
p9350
aS'unacc'
p9351
aa(lp9352
S'low'
p9353
aS'med'
p9354
aS'5more'
p9355
ag4
aS'med'
p9356
aS'low'
p9357
aS'unacc'
p9358
aa(lp9359
S'low'
p9360
aS'med'
p9361
aS'5more'
p9362
ag4
aS'med'
p9363
aS'med'
p9364
aS'unacc'
p9365
aa(lp9366
S'low'
p9367
aS'med'
p9368
aS'5more'
p9369
ag4
aS'med'
p9370
aS'high'
p9371
aS'unacc'
p9372
aa(lp9373
S'low'
p9374
aS'med'
p9375
aS'5more'
p9376
ag4
aS'big'
p9377
aS'low'
p9378
aS'unacc'
p9379
aa(lp9380
S'low'
p9381
aS'med'
p9382
aS'5more'
p9383
ag4
aS'big'
p9384
aS'med'
p9385
aS'unacc'
p9386
aa(lp9387
S'low'
p9388
aS'med'
p9389
aS'5more'
p9390
ag4
aS'big'
p9391
aS'high'
p9392
aS'unacc'
p9393
aa(lp9394
S'low'
p9395
aS'med'
p9396
aS'5more'
p9397
ag5
aS'small'
p9398
aS'low'
p9399
aS'unacc'
p9400
aa(lp9401
S'low'
p9402
aS'med'
p9403
aS'5more'
p9404
ag5
aS'small'
p9405
aS'med'
p9406
aS'acc'
p9407
aa(lp9408
S'low'
p9409
aS'med'
p9410
aS'5more'
p9411
ag5
aS'small'
p9412
aS'high'
p9413
aS'good'
p9414
aa(lp9415
S'low'
p9416
aS'med'
p9417
aS'5more'
p9418
ag5
aS'med'
p9419
aS'low'
p9420
aS'unacc'
p9421
aa(lp9422
S'low'
p9423
aS'med'
p9424
aS'5more'
p9425
ag5
aS'med'
p9426
aS'med'
p9427
aS'good'
p9428
aa(lp9429
S'low'
p9430
aS'med'
p9431
aS'5more'
p9432
ag5
aS'med'
p9433
aS'high'
p9434
aS'vgood'
p9435
aa(lp9436
S'low'
p9437
aS'med'
p9438
aS'5more'
p9439
ag5
aS'big'
p9440
aS'low'
p9441
aS'unacc'
p9442
aa(lp9443
S'low'
p9444
aS'med'
p9445
aS'5more'
p9446
ag5
aS'big'
p9447
aS'med'
p9448
aS'good'
p9449
aa(lp9450
S'low'
p9451
aS'med'
p9452
aS'5more'
p9453
ag5
aS'big'
p9454
aS'high'
p9455
aS'vgood'
p9456
aa(lp9457
S'low'
p9458
aS'med'
p9459
aS'5more'
p9460
aS'more'
p9461
aS'small'
p9462
aS'low'
p9463
aS'unacc'
p9464
aa(lp9465
S'low'
p9466
aS'med'
p9467
aS'5more'
p9468
aS'more'
p9469
aS'small'
p9470
aS'med'
p9471
aS'acc'
p9472
aa(lp9473
S'low'
p9474
aS'med'
p9475
aS'5more'
p9476
aS'more'
p9477
aS'small'
p9478
aS'high'
p9479
aS'good'
p9480
aa(lp9481
S'low'
p9482
aS'med'
p9483
aS'5more'
p9484
aS'more'
p9485
aS'med'
p9486
aS'low'
p9487
aS'unacc'
p9488
aa(lp9489
S'low'
p9490
aS'med'
p9491
aS'5more'
p9492
aS'more'
p9493
aS'med'
p9494
aS'med'
p9495
aS'good'
p9496
aa(lp9497
S'low'
p9498
aS'med'
p9499
aS'5more'
p9500
aS'more'
p9501
aS'med'
p9502
aS'high'
p9503
aS'vgood'
p9504
aa(lp9505
S'low'
p9506
aS'med'
p9507
aS'5more'
p9508
aS'more'
p9509
aS'big'
p9510
aS'low'
p9511
aS'unacc'
p9512
aa(lp9513
S'low'
p9514
aS'med'
p9515
aS'5more'
p9516
aS'more'
p9517
aS'big'
p9518
aS'med'
p9519
aS'good'
p9520
aa(lp9521
S'low'
p9522
aS'med'
p9523
aS'5more'
p9524
aS'more'
p9525
aS'big'
p9526
aS'high'
p9527
aS'vgood'
p9528
aa(lp9529
S'low'
p9530
aS'low'
p9531
ag4
ag4
aS'small'
p9532
aS'low'
p9533
aS'unacc'
p9534
aa(lp9535
S'low'
p9536
aS'low'
p9537
ag4
ag4
aS'small'
p9538
aS'med'
p9539
aS'unacc'
p9540
aa(lp9541
S'low'
p9542
aS'low'
p9543
ag4
ag4
aS'small'
p9544
aS'high'
p9545
aS'unacc'
p9546
aa(lp9547
S'low'
p9548
aS'low'
p9549
ag4
ag4
aS'med'
p9550
aS'low'
p9551
aS'unacc'
p9552
aa(lp9553
S'low'
p9554
aS'low'
p9555
ag4
ag4
aS'med'
p9556
aS'med'
p9557
aS'unacc'
p9558
aa(lp9559
S'low'
p9560
aS'low'
p9561
ag4
ag4
aS'med'
p9562
aS'high'
p9563
aS'unacc'
p9564
aa(lp9565
S'low'
p9566
aS'low'
p9567
ag4
ag4
aS'big'
p9568
aS'low'
p9569
aS'unacc'
p9570
aa(lp9571
S'low'
p9572
aS'low'
p9573
ag4
ag4
aS'big'
p9574
aS'med'
p9575
aS'unacc'
p9576
aa(lp9577
S'low'
p9578
aS'low'
p9579
ag4
ag4
aS'big'
p9580
aS'high'
p9581
aS'unacc'
p9582
aa(lp9583
S'low'
p9584
aS'low'
p9585
ag4
ag5
aS'small'
p9586
aS'low'
p9587
aS'unacc'
p9588
aa(lp9589
S'low'
p9590
aS'low'
p9591
ag4
ag5
aS'small'
p9592
aS'med'
p9593
aS'acc'
p9594
aa(lp9595
S'low'
p9596
aS'low'
p9597
ag4
ag5
aS'small'
p9598
aS'high'
p9599
aS'good'
p9600
aa(lp9601
S'low'
p9602
aS'low'
p9603
ag4
ag5
aS'med'
p9604
aS'low'
p9605
aS'unacc'
p9606
aa(lp9607
S'low'
p9608
aS'low'
p9609
ag4
ag5
aS'med'
p9610
aS'med'
p9611
aS'acc'
p9612
aa(lp9613
S'low'
p9614
aS'low'
p9615
ag4
ag5
aS'med'
p9616
aS'high'
p9617
aS'good'
p9618
aa(lp9619
S'low'
p9620
aS'low'
p9621
ag4
ag5
aS'big'
p9622
aS'low'
p9623
aS'unacc'
p9624
aa(lp9625
S'low'
p9626
aS'low'
p9627
ag4
ag5
aS'big'
p9628
aS'med'
p9629
aS'good'
p9630
aa(lp9631
S'low'
p9632
aS'low'
p9633
ag4
ag5
aS'big'
p9634
aS'high'
p9635
aS'vgood'
p9636
aa(lp9637
S'low'
p9638
aS'low'
p9639
ag4
aS'more'
p9640
aS'small'
p9641
aS'low'
p9642
aS'unacc'
p9643
aa(lp9644
S'low'
p9645
aS'low'
p9646
ag4
aS'more'
p9647
aS'small'
p9648
aS'med'
p9649
aS'unacc'
p9650
aa(lp9651
S'low'
p9652
aS'low'
p9653
ag4
aS'more'
p9654
aS'small'
p9655
aS'high'
p9656
aS'unacc'
p9657
aa(lp9658
S'low'
p9659
aS'low'
p9660
ag4
aS'more'
p9661
aS'med'
p9662
aS'low'
p9663
aS'unacc'
p9664
aa(lp9665
S'low'
p9666
aS'low'
p9667
ag4
aS'more'
p9668
aS'med'
p9669
aS'med'
p9670
aS'acc'
p9671
aa(lp9672
S'low'
p9673
aS'low'
p9674
ag4
aS'more'
p9675
aS'med'
p9676
aS'high'
p9677
aS'good'
p9678
aa(lp9679
S'low'
p9680
aS'low'
p9681
ag4
aS'more'
p9682
aS'big'
p9683
aS'low'
p9684
aS'unacc'
p9685
aa(lp9686
S'low'
p9687
aS'low'
p9688
ag4
aS'more'
p9689
aS'big'
p9690
aS'med'
p9691
aS'good'
p9692
aa(lp9693
S'low'
p9694
aS'low'
p9695
ag4
aS'more'
p9696
aS'big'
p9697
aS'high'
p9698
aS'vgood'
p9699
aa(lp9700
S'low'
p9701
aS'low'
p9702
ag99
ag4
aS'small'
p9703
aS'low'
p9704
aS'unacc'
p9705
aa(lp9706
S'low'
p9707
aS'low'
p9708
ag99
ag4
aS'small'
p9709
aS'med'
p9710
aS'unacc'
p9711
aa(lp9712
S'low'
p9713
aS'low'
p9714
ag99
ag4
aS'small'
p9715
aS'high'
p9716
aS'unacc'
p9717
aa(lp9718
S'low'
p9719
aS'low'
p9720
ag99
ag4
aS'med'
p9721
aS'low'
p9722
aS'unacc'
p9723
aa(lp9724
S'low'
p9725
aS'low'
p9726
ag99
ag4
aS'med'
p9727
aS'med'
p9728
aS'unacc'
p9729
aa(lp9730
S'low'
p9731
aS'low'
p9732
ag99
ag4
aS'med'
p9733
aS'high'
p9734
aS'unacc'
p9735
aa(lp9736
S'low'
p9737
aS'low'
p9738
ag99
ag4
aS'big'
p9739
aS'low'
p9740
aS'unacc'
p9741
aa(lp9742
S'low'
p9743
aS'low'
p9744
ag99
ag4
aS'big'
p9745
aS'med'
p9746
aS'unacc'
p9747
aa(lp9748
S'low'
p9749
aS'low'
p9750
ag99
ag4
aS'big'
p9751
aS'high'
p9752
aS'unacc'
p9753
aa(lp9754
S'low'
p9755
aS'low'
p9756
ag99
ag5
aS'small'
p9757
aS'low'
p9758
aS'unacc'
p9759
aa(lp9760
S'low'
p9761
aS'low'
p9762
ag99
ag5
aS'small'
p9763
aS'med'
p9764
aS'acc'
p9765
aa(lp9766
S'low'
p9767
aS'low'
p9768
ag99
ag5
aS'small'
p9769
aS'high'
p9770
aS'good'
p9771
aa(lp9772
S'low'
p9773
aS'low'
p9774
ag99
ag5
aS'med'
p9775
aS'low'
p9776
aS'unacc'
p9777
aa(lp9778
S'low'
p9779
aS'low'
p9780
ag99
ag5
aS'med'
p9781
aS'med'
p9782
aS'acc'
p9783
aa(lp9784
S'low'
p9785
aS'low'
p9786
ag99
ag5
aS'med'
p9787
aS'high'
p9788
aS'good'
p9789
aa(lp9790
S'low'
p9791
aS'low'
p9792
ag99
ag5
aS'big'
p9793
aS'low'
p9794
aS'unacc'
p9795
aa(lp9796
S'low'
p9797
aS'low'
p9798
ag99
ag5
aS'big'
p9799
aS'med'
p9800
aS'good'
p9801
aa(lp9802
S'low'
p9803
aS'low'
p9804
ag99
ag5
aS'big'
p9805
aS'high'
p9806
aS'vgood'
p9807
aa(lp9808
S'low'
p9809
aS'low'
p9810
ag99
aS'more'
p9811
aS'small'
p9812
aS'low'
p9813
aS'unacc'
p9814
aa(lp9815
S'low'
p9816
aS'low'
p9817
ag99
aS'more'
p9818
aS'small'
p9819
aS'med'
p9820
aS'acc'
p9821
aa(lp9822
S'low'
p9823
aS'low'
p9824
ag99
aS'more'
p9825
aS'small'
p9826
aS'high'
p9827
aS'good'
p9828
aa(lp9829
S'low'
p9830
aS'low'
p9831
ag99
aS'more'
p9832
aS'med'
p9833
aS'low'
p9834
aS'unacc'
p9835
aa(lp9836
S'low'
p9837
aS'low'
p9838
ag99
aS'more'
p9839
aS'med'
p9840
aS'med'
p9841
aS'good'
p9842
aa(lp9843
S'low'
p9844
aS'low'
p9845
ag99
aS'more'
p9846
aS'med'
p9847
aS'high'
p9848
aS'vgood'
p9849
aa(lp9850
S'low'
p9851
aS'low'
p9852
ag99
aS'more'
p9853
aS'big'
p9854
aS'low'
p9855
aS'unacc'
p9856
aa(lp9857
S'low'
p9858
aS'low'
p9859
ag99
aS'more'
p9860
aS'big'
p9861
aS'med'
p9862
aS'good'
p9863
aa(lp9864
S'low'
p9865
aS'low'
p9866
ag99
aS'more'
p9867
aS'big'
p9868
aS'high'
p9869
aS'vgood'
p9870
aa(lp9871
S'low'
p9872
aS'low'
p9873
ag5
ag4
aS'small'
p9874
aS'low'
p9875
aS'unacc'
p9876
aa(lp9877
S'low'
p9878
aS'low'
p9879
ag5
ag4
aS'small'
p9880
aS'med'
p9881
aS'unacc'
p9882
aa(lp9883
S'low'
p9884
aS'low'
p9885
ag5
ag4
aS'small'
p9886
aS'high'
p9887
aS'unacc'
p9888
aa(lp9889
S'low'
p9890
aS'low'
p9891
ag5
ag4
aS'med'
p9892
aS'low'
p9893
aS'unacc'
p9894
aa(lp9895
S'low'
p9896
aS'low'
p9897
ag5
ag4
aS'med'
p9898
aS'med'
p9899
aS'unacc'
p9900
aa(lp9901
S'low'
p9902
aS'low'
p9903
ag5
ag4
aS'med'
p9904
aS'high'
p9905
aS'unacc'
p9906
aa(lp9907
S'low'
p9908
aS'low'
p9909
ag5
ag4
aS'big'
p9910
aS'low'
p9911
aS'unacc'
p9912
aa(lp9913
S'low'
p9914
aS'low'
p9915
ag5
ag4
aS'big'
p9916
aS'med'
p9917
aS'unacc'
p9918
aa(lp9919
S'low'
p9920
aS'low'
p9921
ag5
ag4
aS'big'
p9922
aS'high'
p9923
aS'unacc'
p9924
aa(lp9925
S'low'
p9926
aS'low'
p9927
ag5
ag5
aS'small'
p9928
aS'low'
p9929
aS'unacc'
p9930
aa(lp9931
S'low'
p9932
aS'low'
p9933
ag5
ag5
aS'small'
p9934
aS'med'
p9935
aS'acc'
p9936
aa(lp9937
S'low'
p9938
aS'low'
p9939
ag5
ag5
aS'small'
p9940
aS'high'
p9941
aS'good'
p9942
aa(lp9943
S'low'
p9944
aS'low'
p9945
ag5
ag5
aS'med'
p9946
aS'low'
p9947
aS'unacc'
p9948
aa(lp9949
S'low'
p9950
aS'low'
p9951
ag5
ag5
aS'med'
p9952
aS'med'
p9953
aS'good'
p9954
aa(lp9955
S'low'
p9956
aS'low'
p9957
ag5
ag5
aS'med'
p9958
aS'high'
p9959
aS'vgood'
p9960
aa(lp9961
S'low'
p9962
aS'low'
p9963
ag5
ag5
aS'big'
p9964
aS'low'
p9965
aS'unacc'
p9966
aa(lp9967
S'low'
p9968
aS'low'
p9969
ag5
ag5
aS'big'
p9970
aS'med'
p9971
aS'good'
p9972
aa(lp9973
S'low'
p9974
aS'low'
p9975
ag5
ag5
aS'big'
p9976
aS'high'
p9977
aS'vgood'
p9978
aa(lp9979
S'low'
p9980
aS'low'
p9981
ag5
aS'more'
p9982
aS'small'
p9983
aS'low'
p9984
aS'unacc'
p9985
aa(lp9986
S'low'
p9987
aS'low'
p9988
ag5
aS'more'
p9989
aS'small'
p9990
aS'med'
p9991
aS'acc'
p9992
aa(lp9993
S'low'
p9994
aS'low'
p9995
ag5
aS'more'
p9996
aS'small'
p9997
aS'high'
p9998
aS'good'
p9999
aa(lp10000
S'low'
p10001
aS'low'
p10002
ag5
aS'more'
p10003
aS'med'
p10004
aS'low'
p10005
aS'unacc'
p10006
aa(lp10007
S'low'
p10008
aS'low'
p10009
ag5
aS'more'
p10010
aS'med'
p10011
aS'med'
p10012
aS'good'
p10013
aa(lp10014
S'low'
p10015
aS'low'
p10016
ag5
aS'more'
p10017
aS'med'
p10018
aS'high'
p10019
aS'vgood'
p10020
aa(lp10021
S'low'
p10022
aS'low'
p10023
ag5
aS'more'
p10024
aS'big'
p10025
aS'low'
p10026
aS'unacc'
p10027
aa(lp10028
S'low'
p10029
aS'low'
p10030
ag5
aS'more'
p10031
aS'big'
p10032
aS'med'
p10033
aS'good'
p10034
aa(lp10035
S'low'
p10036
aS'low'
p10037
ag5
aS'more'
p10038
aS'big'
p10039
aS'high'
p10040
aS'vgood'
p10041
aa(lp10042
S'low'
p10043
aS'low'
p10044
aS'5more'
p10045
ag4
aS'small'
p10046
aS'low'
p10047
aS'unacc'
p10048
aa(lp10049
S'low'
p10050
aS'low'
p10051
aS'5more'
p10052
ag4
aS'small'
p10053
aS'med'
p10054
aS'unacc'
p10055
aa(lp10056
S'low'
p10057
aS'low'
p10058
aS'5more'
p10059
ag4
aS'small'
p10060
aS'high'
p10061
aS'unacc'
p10062
aa(lp10063
S'low'
p10064
aS'low'
p10065
aS'5more'
p10066
ag4
aS'med'
p10067
aS'low'
p10068
aS'unacc'
p10069
aa(lp10070
S'low'
p10071
aS'low'
p10072
aS'5more'
p10073
ag4
aS'med'
p10074
aS'med'
p10075
aS'unacc'
p10076
aa(lp10077
S'low'
p10078
aS'low'
p10079
aS'5more'
p10080
ag4
aS'med'
p10081
aS'high'
p10082
aS'unacc'
p10083
aa(lp10084
S'low'
p10085
aS'low'
p10086
aS'5more'
p10087
ag4
aS'big'
p10088
aS'low'
p10089
aS'unacc'
p10090
aa(lp10091
S'low'
p10092
aS'low'
p10093
aS'5more'
p10094
ag4
aS'big'
p10095
aS'med'
p10096
aS'unacc'
p10097
aa(lp10098
S'low'
p10099
aS'low'
p10100
aS'5more'
p10101
ag4
aS'big'
p10102
aS'high'
p10103
aS'unacc'
p10104
aa(lp10105
S'low'
p10106
aS'low'
p10107
aS'5more'
p10108
ag5
aS'small'
p10109
aS'low'
p10110
aS'unacc'
p10111
aa(lp10112
S'low'
p10113
aS'low'
p10114
aS'5more'
p10115
ag5
aS'small'
p10116
aS'med'
p10117
aS'acc'
p10118
aa(lp10119
S'low'
p10120
aS'low'
p10121
aS'5more'
p10122
ag5
aS'small'
p10123
aS'high'
p10124
aS'good'
p10125
aa(lp10126
S'low'
p10127
aS'low'
p10128
aS'5more'
p10129
ag5
aS'med'
p10130
aS'low'
p10131
aS'unacc'
p10132
aa(lp10133
S'low'
p10134
aS'low'
p10135
aS'5more'
p10136
ag5
aS'med'
p10137
aS'med'
p10138
aS'good'
p10139
aa(lp10140
S'low'
p10141
aS'low'
p10142
aS'5more'
p10143
ag5
aS'med'
p10144
aS'high'
p10145
aS'vgood'
p10146
aa(lp10147
S'low'
p10148
aS'low'
p10149
aS'5more'
p10150
ag5
aS'big'
p10151
aS'low'
p10152
aS'unacc'
p10153
aa(lp10154
S'low'
p10155
aS'low'
p10156
aS'5more'
p10157
ag5
aS'big'
p10158
aS'med'
p10159
aS'good'
p10160
aa(lp10161
S'low'
p10162
aS'low'
p10163
aS'5more'
p10164
ag5
aS'big'
p10165
aS'high'
p10166
aS'vgood'
p10167
aa(lp10168
S'low'
p10169
aS'low'
p10170
aS'5more'
p10171
aS'more'
p10172
aS'small'
p10173
aS'low'
p10174
aS'unacc'
p10175
aa(lp10176
S'low'
p10177
aS'low'
p10178
aS'5more'
p10179
aS'more'
p10180
aS'small'
p10181
aS'med'
p10182
aS'acc'
p10183
aa(lp10184
S'low'
p10185
aS'low'
p10186
aS'5more'
p10187
aS'more'
p10188
aS'small'
p10189
aS'high'
p10190
aS'good'
p10191
aa(lp10192
S'low'
p10193
aS'low'
p10194
aS'5more'
p10195
aS'more'
p10196
aS'med'
p10197
aS'low'
p10198
aS'unacc'
p10199
aa(lp10200
S'low'
p10201
aS'low'
p10202
aS'5more'
p10203
aS'more'
p10204
aS'med'
p10205
aS'med'
p10206
aS'good'
p10207
aa(lp10208
S'low'
p10209
aS'low'
p10210
aS'5more'
p10211
aS'more'
p10212
aS'med'
p10213
aS'high'
p10214
aS'vgood'
p10215
aa(lp10216
S'low'
p10217
aS'low'
p10218
aS'5more'
p10219
aS'more'
p10220
aS'big'
p10221
aS'low'
p10222
aS'unacc'
p10223
aa(lp10224
S'low'
p10225
aS'low'
p10226
aS'5more'
p10227
aS'more'
p10228
aS'big'
p10229
aS'med'
p10230
aS'good'
p10231
aa(lp10232
S'low'
p10233
aS'low'
p10234
aS'5more'
p10235
aS'more'
p10236
aS'big'
p10237
aS'high'
p10238
aS'vgood'
p10239
aa.