(lp0
(lp1
S'vhigh'
p2
aS'vhigh'
p3
aS'2'
p4
ag4
aS'small'
p5
aS'low'
p6
aS'unacc'
p7
aa(lp8
S'vhigh'
p9
aS'vhigh'
p10
ag4
ag4
aS'small'
p11
aS'med'
p12
aS'unacc'
p13
aa(lp14
S'vhigh'
p15
aS'vhigh'
p16
ag4
ag4
aS'small'
p17
aS'high'
p18
aS'unacc'
p19
aa(lp20
S'vhigh'
p21
aS'vhigh'
p22
ag4
ag4
aS'med'
p23
aS'low'
p24
aS'unacc'
p25
aa(lp26
S'vhigh'
p27
aS'vhigh'
p28
ag4
ag4
aS'med'
p29
aS'med'
p30
aS'unacc'
p31
aa(lp32
S'vhigh'
p33
aS'vhigh'
p34
ag4
ag4
aS'med'
p35
aS'high'
p36
aS'unacc'
p37
aa(lp38
S'vhigh'
p39
aS'vhigh'
p40
ag4
ag4
aS'big'
p41
aS'low'
p42
aS'unacc'
p43
aa(lp44
S'vhigh'
p45
aS'vhigh'
p46
ag4
ag4
aS'big'
p47
aS'med'
p48
aS'unacc'
p49
aa(lp50
S'vhigh'
p51
aS'vhigh'
p52
ag4
ag4
aS'big'
p53
aS'high'
p54
aS'unacc'
p55
aa(lp56
S'vhigh'
p57
aS'vhigh'
p58
ag4
aS'4'
p59
aS'small'
p60
aS'low'
p61
aS'unacc'
p62
aa(lp63
S'vhigh'
p64
aS'vhigh'
p65
ag4
ag59
aS'small'
p66
aS'med'
p67
aS'unacc'
p68
aa(lp69
S'vhigh'
p70
aS'vhigh'
p71
ag4
ag59
aS'small'
p72
aS'high'
p73
aS'unacc'
p74
aa(lp75
S'vhigh'
p76
aS'vhigh'
p77
ag4
ag59
aS'med'
p78
aS'low'
p79
aS'unacc'
p80
aa(lp81
S'vhigh'
p82
aS'vhigh'
p83
ag4
ag59
aS'med'
p84
aS'med'
p85
aS'unacc'
p86
aa(lp87
S'vhigh'
p88
aS'vhigh'
p89
ag4
ag59
aS'med'
p90
aS'high'
p91
aS'unacc'
p92
aa(lp93
S'vhigh'
p94
aS'vhigh'
p95
ag4
ag59
aS'big'
p96
aS'low'
p97
aS'unacc'
p98
aa(lp99
S'vhigh'
p100
aS'vhigh'
p101
ag4
ag59
aS'big'
p102
aS'med'
p103
aS'unacc'
p104
aa(lp105
S'vhigh'
p106
aS'vhigh'
p107
ag4
ag59
aS'big'
p108
aS'high'
p109
aS'unacc'
p110
aa(lp111
S'vhigh'
p112
aS'vhigh'
p113
ag4
aS'more'
p114
aS'small'
p115
aS'low'
p116
aS'unacc'
p117
aa(lp118
S'vhigh'
p119
aS'vhigh'
p120
ag4
aS'more'
p121
aS'small'
p122
aS'med'
p123
aS'unacc'
p124
aa(lp125
S'vhigh'
p126
aS'vhigh'
p127
ag4
aS'more'
p128
aS'small'
p129
aS'high'
p130
aS'unacc'
p131
aa(lp132
S'vhigh'
p133
aS'vhigh'
p134
ag4
aS'more'
p135
aS'med'
p136
aS'low'
p137
aS'unacc'
p138
aa(lp139
S'vhigh'
p140
aS'vhigh'
p141
ag4
aS'more'
p142
aS'med'
p143
aS'med'
p144
aS'unacc'
p145
aa(lp146
S'vhigh'
p147
aS'vhigh'
p148
ag4
aS'more'
p149
aS'med'
p150
aS'high'
p151
aS'unacc'
p152
aa(lp153
S'vhigh'
p154
aS'vhigh'
p155
ag4
aS'more'
p156
aS'big'
p157
aS'low'
p158
aS'unacc'
p159
aa(lp160
S'vhigh'
p161
aS'vhigh'
p162
ag4
aS'more'
p163
aS'big'
p164
aS'med'
p165
aS'unacc'
p166
aa(lp167
S'vhigh'
p168
aS'vhigh'
p169
ag4
aS'more'
p170
aS'big'
p171
aS'high'
p172
aS'unacc'
p173
aa(lp174
S'vhigh'
p175
aS'vhigh'
p176
aS'3'
p177
ag4
aS'small'
p178
aS'low'
p179
aS'unacc'
p180
aa(lp181
S'vhigh'
p182
aS'vhigh'
p183
ag177
ag4
aS'small'
p184
aS'med'
p185
aS'unacc'
p186
aa(lp187
S'vhigh'
p188
aS'vhigh'
p189
ag177
ag4
aS'small'
p190
aS'high'
p191
aS'unacc'
p192
aa(lp193
S'vhigh'
p194
aS'vhigh'
p195
ag177
ag4
aS'med'
p196
aS'low'
p197
aS'unacc'
p198
aa(lp199
S'vhigh'
p200
aS'vhigh'
p201
ag177
ag4
aS'med'
p202
aS'med'
p203
aS'unacc'
p204
aa(lp205
S'vhigh'
p206
aS'vhigh'
p207
ag177
ag4
aS'med'
p208
aS'high'
p209
aS'unacc'
p210
aa(lp211
S'vhigh'
p212
aS'vhigh'
p213
ag177
ag4
aS'big'
p214
aS'low'
p215
aS'unacc'
p216
aa(lp217
S'vhigh'
p218
aS'vhigh'
p219
ag177
ag4
aS'big'
p220
aS'med'
p221
aS'unacc'
p222
aa(lp223
S'vhigh'
p224
aS'vhigh'
p225
ag177
ag4
aS'big'
p226
aS'high'
p227
aS'unacc'
p228
aa(lp229
S'vhigh'
p230
aS'vhigh'
p231
ag177
ag59
aS'small'
p232
aS'low'
p233
aS'unacc'
p234
aa(lp235
S'vhigh'
p236
aS'vhigh'
p237
ag177
ag59
aS'small'
p238
aS'med'
p239
aS'unacc'
p240
aa(lp241
S'vhigh'
p242
aS'vhigh'
p243
ag177
ag59
aS'small'
p244
aS'high'
p245
aS'unacc'
p246
aa(lp247
S'vhigh'
p248
aS'vhigh'
p249
ag177
ag59
aS'med'
p250
aS'low'
p251
aS'unacc'
p252
aa(lp253
S'vhigh'
p254
aS'vhigh'
p255
ag177
ag59
aS'med'
p256
aS'med'
p257
aS'unacc'
p258
aa(lp259
S'vhigh'
p260
aS'vhigh'
p261
ag177
ag59
aS'med'
p262
aS'high'
p263
aS'unacc'
p264
aa(lp265
S'vhigh'
p266
aS'vhigh'
p267
ag177
ag59
aS'big'
p268
aS'low'
p269
aS'unacc'
p270
aa(lp271
S'vhigh'
p272
aS'vhigh'
p273
ag177
ag59
aS'big'
p274
aS'med'
p275
aS'unacc'
p276
aa(lp277
S'vhigh'
p278
aS'vhigh'
p279
ag177
ag59
aS'big'
p280
aS'high'
p281
aS'unacc'
p282
aa(lp283
S'vhigh'
p284
aS'vhigh'
p285
ag177
aS'more'
p286
aS'small'
p287
aS'low'
p288
aS'unacc'
p289
aa(lp290
S'vhigh'
p291
aS'vhigh'
p292
ag177
aS'more'
p293
aS'small'
p294
aS'med'
p295
aS'unacc'
p296
aa(lp297
S'vhigh'
p298
aS'vhigh'
p299
ag177
aS'more'
p300
aS'small'
p301
aS'high'
p302
aS'unacc'
p303
aa(lp304
S'vhigh'
p305
aS'vhigh'
p306
ag177
aS'more'
p307
aS'med'
p308
aS'low'
p309
aS'unacc'
p310
aa(lp311
S'vhigh'
p312
aS'vhigh'
p313
ag177
aS'more'
p314
aS'med'
p315
aS'med'
p316
aS'unacc'
p317
aa(lp318
S'vhigh'
p319
aS'vhigh'
p320
ag177
aS'more'
p321
aS'med'
p322
aS'high'
p323
aS'unacc'
p324
aa(lp325
S'vhigh'
p326
aS'vhigh'
p327
ag177
aS'more'
p328
aS'big'
p329
aS'low'
p330
aS'unacc'
p331
aa(lp332
S'vhigh'
p333
aS'vhigh'
p334
ag177
aS'more'
p335
aS'big'
p336
aS'med'
p337
aS'unacc'
p338
aa(lp339
S'vhigh'
p340
aS'vhigh'
p341
ag177
aS'more'
p342
aS'big'
p343
aS'high'
p344
aS'unacc'
p345
aa(lp346
S'vhigh'
p347
aS'vhigh'
p348
ag59
ag4
aS'small'
p349
aS'low'
p350
aS'unacc'
p351
aa(lp352
S'vhigh'
p353
aS'vhigh'
p354
ag59
ag4
aS'small'
p355
aS'med'
p356
aS'unacc'
p357
aa(lp358
S'vhigh'
p359
aS'vhigh'
p360
ag59
ag4
aS'small'
p361
aS'high'
p362
aS'unacc'
p363
aa(lp364
S'vhigh'
p365
aS'vhigh'
p366
ag59
ag4
aS'med'
p367
aS'low'
p368
aS'unacc'
p369
aa(lp370
S'vhigh'
p371
aS'vhigh'
p372
ag59
ag4
aS'med'
p373
aS'med'
p374
aS'unacc'
p375
aa(lp376
S'vhigh'
p377
aS'vhigh'
p378
ag59
ag4
aS'med'
p379
aS'high'
p380
aS'unacc'
p381
aa(lp382
S'vhigh'
p383
aS'vhigh'
p384
ag59
ag4
aS'big'
p385
aS'low'
p386
aS'unacc'
p387
aa(lp388
S'vhigh'
p389
aS'vhigh'
p390
ag59
ag4
aS'big'
p391
aS'med'
p392
aS'unacc'
p393
aa(lp394
S'vhigh'
p395
aS'vhigh'
p396
ag59
ag4
aS'big'
p397
aS'high'
p398
aS'unacc'
p399
aa(lp400
S'vhigh'
p401
aS'vhigh'
p402
ag59
ag59
aS'small'
p403
aS'low'
p404
aS'unacc'
p405
aa(lp406
S'vhigh'
p407
aS'vhigh'
p408
ag59
ag59
aS'small'
p409
aS'med'
p410
aS'unacc'
p411
aa(lp412
S'vhigh'
p413
aS'vhigh'
p414
ag59
ag59
aS'small'
p415
aS'high'
p416
aS'unacc'
p417
aa(lp418
S'vhigh'
p419
aS'vhigh'
p420
ag59
ag59
aS'med'
p421
aS'low'
p422
aS'unacc'
p423
aa(lp424
S'vhigh'
p425
aS'vhigh'
p426
ag59
ag59
aS'med'
p427
aS'med'
p428
aS'unacc'
p429
aa(lp430
S'vhigh'
p431
aS'vhigh'
p432
ag59
ag59
aS'med'
p433
aS'high'
p434
aS'unacc'
p435
aa(lp436
S'vhigh'
p437
aS'vhigh'
p438
ag59
ag59
aS'big'
p439
aS'low'
p440
aS'unacc'
p441
aa(lp442
S'vhigh'
p443
aS'vhigh'
p444
ag59
ag59
aS'big'
p445
aS'med'
p446
aS'unacc'
p447
aa(lp448
S'vhigh'
p449
aS'vhigh'
p450
ag59
ag59
aS'big'
p451
aS'high'
p452
aS'unacc'
p453
aa(lp454
S'vhigh'
p455
aS'vhigh'
p456
ag59
aS'more'
p457
aS'small'
p458
aS'low'
p459
aS'unacc'
p460
aa(lp461
S'vhigh'
p462
aS'vhigh'
p463
ag59
aS'more'
p464
aS'small'
p465
aS'med'
p466
aS'unacc'
p467
aa(lp468
S'vhigh'
p469
aS'vhigh'
p470
ag59
aS'more'
p471
aS'small'
p472
aS'high'
p473
aS'unacc'
p474
aa(lp475
S'vhigh'
p476
aS'vhigh'
p477
ag59
aS'more'
p478
aS'med'
p479
aS'low'
p480
aS'unacc'
p481
aa(lp482
S'vhigh'
p483
aS'vhigh'
p484
ag59
aS'more'
p485
aS'med'
p486
aS'med'
p487
aS'unacc'
p488
aa(lp489
S'vhigh'
p490
aS'vhigh'
p491
ag59
aS'more'
p492
aS'med'
p493
aS'high'
p494
aS'unacc'
p495
aa(lp496
S'vhigh'
p497
aS'vhigh'
p498
ag59
aS'more'
p499
aS'big'
p500
aS'low'
p501
aS'unacc'
p502
aa(lp503
S'vhigh'
p504
aS'vhigh'
p505
ag59
aS'more'
p506
aS'big'
p507
aS'med'
p508
aS'unacc'
p509
aa(lp510
S'vhigh'
p511
aS'vhigh'
p512
ag59
aS'more'
p513
aS'big'
p514
aS'high'
p515
aS'unacc'
p516
aa(lp517
S'vhigh'
p518
aS'vhigh'
p519
aS'5more'
p520
ag4
aS'small'
p521
aS'low'
p522
aS'unacc'
p523
aa(lp524
S'vhigh'
p525
aS'vhigh'
p526
aS'5more'
p527
ag4
aS'small'
p528
aS'med'
p529
aS'unacc'
p530
aa(lp531
S'vhigh'
p532
aS'vhigh'
p533
aS'5more'
p534
ag4
aS'small'
p535
aS'high'
p536
aS'unacc'
p537
aa(lp538
S'vhigh'
p539
aS'vhigh'
p540
aS'5more'
p541
ag4
aS'med'
p542
aS'low'
p543
aS'unacc'
p544
aa(lp545
S'vhigh'
p546
aS'vhigh'
p547
aS'5more'
p548
ag4
aS'med'
p549
aS'med'
p550
aS'unacc'
p551
aa(lp552
S'vhigh'
p553
aS'vhigh'
p554
aS'5more'
p555
ag4
aS'med'
p556
aS'high'
p557
aS'unacc'
p558
aa(lp559
S'vhigh'
p560
aS'vhigh'
p561
aS'5more'
p562
ag4
aS'big'
p563
aS'low'
p564
aS'unacc'
p565
aa(lp566
S'vhigh'
p567
aS'vhigh'
p568
aS'5more'
p569
ag4
aS'big'
p570
aS'med'
p571
aS'unacc'
p572
aa(lp573
S'vhigh'
p574
aS'vhigh'
p575
aS'5more'
p576
ag4
aS'big'
p577
aS'high'
p578
aS'unacc'
p579
aa(lp580
S'vhigh'
p581
aS'vhigh'
p582
aS'5more'
p583
ag59
aS'small'
p584
aS'low'
p585
aS'unacc'
p586
aa(lp587
S'vhigh'
p588
aS'vhigh'
p589
aS'5more'
p590
ag59
aS'small'
p591
aS'med'
p592
aS'unacc'
p593
aa(lp594
S'vhigh'
p595
aS'vhigh'
p596
aS'5more'
p597
ag59
aS'small'
p598
aS'high'
p599
aS'unacc'
p600
aa(lp601
S'vhigh'
p602
aS'vhigh'
p603
aS'5more'
p604
ag59
aS'med'
p605
aS'low'
p606
aS'unacc'
p607
aa(lp608
S'vhigh'
p609
aS'vhigh'
p610
aS'5more'
p611
ag59
aS'med'
p612
aS'med'
p613
aS'unacc'
p614
aa(lp615
S'vhigh'
p616
aS'vhigh'
p617
aS'5more'
p618
ag59
aS'med'
p619
aS'high'
p620
aS'unacc'
p621
aa(lp622
S'vhigh'
p623
aS'vhigh'
p624
aS'5more'
p625
ag59
aS'big'
p626
aS'low'
p627
aS'unacc'
p628
aa(lp629
S'vhigh'
p630
aS'vhigh'
p631
aS'5more'
p632
ag59
aS'big'
p633
aS'med'
p634
aS'unacc'
p635
aa(lp636
S'vhigh'
p637
aS'vhigh'
p638
aS'5more'
p639
ag59
aS'big'
p640
aS'high'
p641
aS'unacc'
p642
aa(lp643
S'vhigh'
p644
aS'vhigh'
p645
aS'5more'
p646
aS'more'
p647
aS'small'
p648
aS'low'
p649
aS'unacc'
p650
aa(lp651
S'vhigh'
p652
aS'vhigh'
p653
aS'5more'
p654
aS'more'
p655
aS'small'
p656
aS'med'
p657
aS'unacc'
p658
aa(lp659
S'vhigh'
p660
aS'vhigh'
p661
aS'5more'
p662
aS'more'
p663
aS'small'
p664
aS'high'
p665
aS'unacc'
p666
aa(lp667
S'vhigh'
p668
aS'vhigh'
p669
aS'5more'
p670
aS'more'
p671
aS'med'
p672
aS'low'
p673
aS'unacc'
p674
aa(lp675
S'vhigh'
p676
aS'vhigh'
p677
aS'5more'
p678
aS'more'
p679
aS'med'
p680
aS'med'
p681
aS'unacc'
p682
aa(lp683
S'vhigh'
p684
aS'vhigh'
p685
aS'5more'
p686
aS'more'
p687
aS'med'
p688
aS'high'
p689
aS'unacc'
p690
aa(lp691
S'vhigh'
p692
aS'vhigh'
p693
aS'5more'
p694
aS'more'
p695
aS'big'
p696
aS'low'
p697
aS'unacc'
p698
aa(lp699
S'vhigh'
p700
aS'vhigh'
p701
aS'5more'
p702
aS'more'
p703
aS'big'
p704
aS'med'
p705
aS'unacc'
p706
aa(lp707
S'vhigh'
p708
aS'vhigh'
p709
aS'5more'
p710
aS'more'
p711
aS'big'
p712
aS'high'
p713
aS'unacc'
p714
aa(lp715
S'vhigh'
p716
aS'high'
p717
ag4
ag4
aS'small'
p718
aS'low'
p719
aS'unacc'
p720
aa(lp721
S'vhigh'
p722
aS'high'
p723
ag4
ag4
aS'small'
p724
aS'med'
p725
aS'unacc'
p726
aa(lp727
S'vhigh'
p728
aS'high'
p729
ag4
ag4
aS'small'
p730
aS'high'
p731
aS'unacc'
p732
aa(lp733
S'vhigh'
p734
aS'high'
p735
ag4
ag4
aS'med'
p736
aS'low'
p737
aS'unacc'
p738
aa(lp739
S'vhigh'
p740
aS'high'
p741
ag4
ag4
aS'med'
p742
aS'med'
p743
aS'unacc'
p744
aa(lp745
S'vhigh'
p746
aS'high'
p747
ag4
ag4
aS'med'
p748
aS'high'
p749
aS'unacc'
p750
aa(lp751
S'vhigh'
p752
aS'high'
p753
ag4
ag4
aS'big'
p754
aS'low'
p755
aS'unacc'
p756
aa(lp757
S'vhigh'
p758
aS'high'
p759
ag4
ag4
aS'big'
p760
aS'med'
p761
aS'unacc'
p762
aa(lp763
S'vhigh'
p764
aS'high'
p765
ag4
ag4
aS'big'
p766
aS'high'
p767
aS'unacc'
p768
aa(lp769
S'vhigh'
p770
aS'high'
p771
ag4
ag59
aS'small'
p772
aS'low'
p773
aS'unacc'
p774
aa(lp775
S'vhigh'
p776
aS'high'
p777
ag4
ag59
aS'small'
p778
aS'med'
p779
aS'unacc'
p780
aa(lp781
S'vhigh'
p782
aS'high'
p783
ag4
ag59
aS'small'
p784
aS'high'
p785
aS'unacc'
p786
aa(lp787
S'vhigh'
p788
aS'high'
p789
ag4
ag59
aS'med'
p790
aS'low'
p791
aS'unacc'
p792
aa(lp793
S'vhigh'
p794
aS'high'
p795
ag4
ag59
aS'med'
p796
aS'med'
p797
aS'unacc'
p798
aa(lp799
S'vhigh'
p800
aS'high'
p801
ag4
ag59
aS'med'
p802
aS'high'
p803
aS'unacc'
p804
aa(lp805
S'vhigh'
p806
aS'high'
p807
ag4
ag59
aS'big'
p808
aS'low'
p809
aS'unacc'
p810
aa(lp811
S'vhigh'
p812
aS'high'
p813
ag4
ag59
aS'big'
p814
aS'med'
p815
aS'unacc'
p816
aa(lp817
S'vhigh'
p818
aS'high'
p819
ag4
ag59
aS'big'
p820
aS'high'
p821
aS'unacc'
p822
aa(lp823
S'vhigh'
p824
aS'high'
p825
ag4
aS'more'
p826
aS'small'
p827
aS'low'
p828
aS'unacc'
p829
aa(lp830
S'vhigh'
p831
aS'high'
p832
ag4
aS'more'
p833
aS'small'
p834
aS'med'
p835
aS'unacc'
p836
aa(lp837
S'vhigh'
p838
aS'high'
p839
ag4
aS'more'
p840
aS'small'
p841
aS'high'
p842
aS'unacc'
p843
aa(lp844
S'vhigh'
p845
aS'high'
p846
ag4
aS'more'
p847
aS'med'
p848
aS'low'
p849
aS'unacc'
p850
aa(lp851
S'vhigh'
p852
aS'high'
p853
ag4
aS'more'
p854
aS'med'
p855
aS'med'
p856
aS'unacc'
p857
aa(lp858
S'vhigh'
p859
aS'high'
p860
ag4
aS'more'
p861
aS'med'
p862
aS'high'
p863
aS'unacc'
p864
aa(lp865
S'vhigh'
p866
aS'high'
p867
ag4
aS'more'
p868
aS'big'
p869
aS'low'
p870
aS'unacc'
p871
aa(lp872
S'vhigh'
p873
aS'high'
p874
ag4
aS'more'
p875
aS'big'
p876
aS'med'
p877
aS'unacc'
p878
aa(lp879
S'vhigh'
p880
aS'high'
p881
ag4
aS'more'
p882
aS'big'
p883
aS'high'
p884
aS'unacc'
p885
aa(lp886
S'vhigh'
p887
aS'high'
p888
ag177
ag4
aS'small'
p889
aS'low'
p890
aS'unacc'
p891
aa(lp892
S'vhigh'
p893
aS'high'
p894
ag177
ag4
aS'small'
p895
aS'med'
p896
aS'unacc'
p897
aa(lp898
S'vhigh'
p899
aS'high'
p900
ag177
ag4
aS'small'
p901
aS'high'
p902
aS'unacc'
p903
aa(lp904
S'vhigh'
p905
aS'high'
p906
ag177
ag4
aS'med'
p907
aS'low'
p908
aS'unacc'
p909
aa(lp910
S'vhigh'
p911
aS'high'
p912
ag177
ag4
aS'med'
p913
aS'med'
p914
aS'unacc'
p915
aa(lp916
S'vhigh'
p917
aS'high'
p918
ag177
ag4
aS'med'
p919
aS'high'
p920
aS'unacc'
p921
aa(lp922
S'vhigh'
p923
aS'high'
p924
ag177
ag4
aS'big'
p925
aS'low'
p926
aS'unacc'
p927
aa(lp928
S'vhigh'
p929
aS'high'
p930
ag177
ag4
aS'big'
p931
aS'med'
p932
aS'unacc'
p933
aa(lp934
S'vhigh'
p935
aS'high'
p936
ag177
ag4
aS'big'
p937
aS'high'
p938
aS'unacc'
p939
aa(lp940
S'vhigh'
p941
aS'high'
p942
ag177
ag59
aS'small'
p943
aS'low'
p944
aS'unacc'
p945
aa(lp946
S'vhigh'
p947
aS'high'
p948
ag177
ag59
aS'small'
p949
aS'med'
p950
aS'unacc'
p951
aa(lp952
S'vhigh'
p953
aS'high'
p954
ag177
ag59
aS'small'
p955
aS'high'
p956
aS'unacc'
p957
aa(lp958
S'vhigh'
p959
aS'high'
p960
ag177
ag59
aS'med'
p961
aS'low'
p962
aS'unacc'
p963
aa(lp964
S'vhigh'
p965
aS'high'
p966
ag177
ag59
aS'med'
p967
aS'med'
p968
aS'unacc'
p969
aa(lp970
S'vhigh'
p971
aS'high'
p972
ag177
ag59
aS'med'
p973
aS'high'
p974
aS'unacc'
p975
aa(lp976
S'vhigh'
p977
aS'high'
p978
ag177
ag59
aS'big'
p979
aS'low'
p980
aS'unacc'
p981
aa(lp982
S'vhigh'
p983
aS'high'
p984
ag177
ag59
aS'big'
p985
aS'med'
p986
aS'unacc'
p987
aa(lp988
S'vhigh'
p989
aS'high'
p990
ag177
ag59
aS'big'
p991
aS'high'
p992
aS'unacc'
p993
aa(lp994
S'vhigh'
p995
aS'high'
p996
ag177
aS'more'
p997
aS'small'
p998
aS'low'
p999
aS'unacc'
p1000
aa(lp1001
S'vhigh'
p1002
aS'high'
p1003
ag177
aS'more'
p1004
aS'small'
p1005
aS'med'
p1006
aS'unacc'
p1007
aa(lp1008
S'vhigh'
p1009
aS'high'
p1010
ag177
aS'more'
p1011
aS'small'
p1012
aS'high'
p1013
aS'unacc'
p1014
aa(lp1015
S'vhigh'
p1016
aS'high'
p1017
ag177
aS'more'
p1018
aS'med'
p1019
aS'low'
p1020
aS'unacc'
p1021
aa(lp1022
S'vhigh'
p1023
aS'high'
p1024
ag177
aS'more'
p1025
aS'med'
p1026
aS'med'
p1027
aS'unacc'
p1028
aa(lp1029
S'vhigh'
p1030
aS'high'
p1031
ag177
aS'more'
p1032
aS'med'
p1033
aS'high'
p1034
aS'unacc'
p1035
aa(lp1036
S'vhigh'
p1037
aS'high'
p1038
ag177
aS'more'
p1039
aS'big'
p1040
aS'low'
p1041
aS'unacc'
p1042
aa(lp1043
S'vhigh'
p1044
aS'high'
p1045
ag177
aS'more'
p1046
aS'big'
p1047
aS'med'
p1048
aS'unacc'
p1049
aa(lp1050
S'vhigh'
p1051
aS'high'
p1052
ag177
aS'more'
p1053
aS'big'
p1054
aS'high'
p1055
aS'unacc'
p1056
aa(lp1057
S'vhigh'
p1058
aS'high'
p1059
ag59
ag4
aS'small'
p1060
aS'low'
p1061
aS'unacc'
p1062
aa(lp1063
S'vhigh'
p1064
aS'high'
p1065
ag59
ag4
aS'small'
p1066
aS'med'
p1067
aS'unacc'
p1068
aa(lp1069
S'vhigh'
p1070
aS'high'
p1071
ag59
ag4
aS'small'
p1072
aS'high'
p1073
aS'unacc'
p1074
aa(lp1075
S'vhigh'
p1076
aS'high'
p1077
ag59
ag4
aS'med'
p1078
aS'low'
p1079
aS'unacc'
p1080
aa(lp1081
S'vhigh'
p1082
aS'high'
p1083
ag59
ag4
aS'med'
p1084
aS'med'
p1085
aS'unacc'
p1086
aa(lp1087
S'vhigh'
p1088
aS'high'
p1089
ag59
ag4
aS'med'
p1090
aS'high'
p1091
aS'unacc'
p1092
aa(lp1093
S'vhigh'
p1094
aS'high'
p1095
ag59
ag4
aS'big'
p1096
aS'low'
p1097
aS'unacc'
p1098
aa(lp1099
S'vhigh'
p1100
aS'high'
p1101
ag59
ag4
aS'big'
p1102
aS'med'
p1103
aS'unacc'
p1104
aa(lp1105
S'vhigh'
p1106
aS'high'
p1107
ag59
ag4
aS'big'
p1108
aS'high'
p1109
aS'unacc'
p1110
aa(lp1111
S'vhigh'
p1112
aS'high'
p1113
ag59
ag59
aS'small'
p1114
aS'low'
p1115
aS'unacc'
p1116
aa(lp1117
S'vhigh'
p1118
aS'high'
p1119
ag59
ag59
aS'small'
p1120
aS'med'
p1121
aS'unacc'
p1122
aa(lp1123
S'vhigh'
p1124
aS'high'
p1125
ag59
ag59
aS'small'
p1126
aS'high'
p1127
aS'unacc'
p1128
aa(lp1129
S'vhigh'
p1130
aS'high'
p1131
ag59
ag59
aS'med'
p1132
aS'low'
p1133
aS'unacc'
p1134
aa(lp1135
S'vhigh'
p1136
aS'high'
p1137
ag59
ag59
aS'med'
p1138
aS'med'
p1139
aS'unacc'
p1140
aa(lp1141
S'vhigh'
p1142
aS'high'
p1143
ag59
ag59
aS'med'
p1144
aS'high'
p1145
aS'unacc'
p1146
aa(lp1147
S'vhigh'
p1148
aS'high'
p1149
ag59
ag59
aS'big'
p1150
aS'low'
p1151
aS'unacc'
p1152
aa(lp1153
S'vhigh'
p1154
aS'high'
p1155
ag59
ag59
aS'big'
p1156
aS'med'
p1157
aS'unacc'
p1158
aa(lp1159
S'vhigh'
p1160
aS'high'
p1161
ag59
ag59
aS'big'
p1162
aS'high'
p1163
aS'unacc'
p1164
aa(lp1165
S'vhigh'
p1166
aS'high'
p1167
ag59
aS'more'
p1168
aS'small'
p1169
aS'low'
p1170
aS'unacc'
p1171
aa(lp1172
S'vhigh'
p1173
aS'high'
p1174
ag59
aS'more'
p1175
aS'small'
p1176
aS'med'
p1177
aS'unacc'
p1178
aa(lp1179
S'vhigh'
p1180
aS'high'
p1181
ag59
aS'more'
p1182
aS'small'
p1183
aS'high'
p1184
aS'unacc'
p1185
aa(lp1186
S'vhigh'
p1187
aS'high'
p1188
ag59
aS'more'
p1189
aS'med'
p1190
aS'low'
p1191
aS'unacc'
p1192
aa(lp1193
S'vhigh'
p1194
aS'high'
p1195
ag59
aS'more'
p1196
aS'med'
p1197
aS'med'
p1198
aS'unacc'
p1199
aa(lp1200
S'vhigh'
p1201
aS'high'
p1202
ag59
aS'more'
p1203
aS'med'
p1204
aS'high'
p1205
aS'unacc'
p1206
aa(lp1207
S'vhigh'
p1208
aS'high'
p1209
ag59
aS'more'
p1210
aS'big'
p1211
aS'low'
p1212
aS'unacc'
p1213
aa(lp1214
S'vhigh'
p1215
aS'high'
p1216
ag59
aS'more'
p1217
aS'big'
p1218
aS'med'
p1219
aS'unacc'
p1220
aa(lp1221
S'vhigh'
p1222
aS'high'
p1223
ag59
aS'more'
p1224
aS'big'
p1225
aS'high'
p1226
aS'unacc'
p1227
aa(lp1228
S'vhigh'
p1229
aS'high'
p1230
aS'5more'
p1231
ag4
aS'small'
p1232
aS'low'
p1233
aS'unacc'
p1234
aa(lp1235
S'vhigh'
p1236
aS'high'
p1237
aS'5more'
p1238
ag4
aS'small'
p1239
aS'med'
p1240
aS'unacc'
p1241
aa(lp1242
S'vhigh'
p1243
aS'high'
p1244
aS'5more'
p1245
ag4
aS'small'
p1246
aS'high'
p1247
aS'unacc'
p1248
aa(lp1249
S'vhigh'
p1250
aS'high'
p1251
aS'5more'
p1252
ag4
aS'med'
p1253
aS'low'
p1254
aS'unacc'
p1255
aa(lp1256
S'vhigh'
p1257
aS'high'
p1258
aS'5more'
p1259
ag4
aS'med'
p1260
aS'med'
p1261
aS'unacc'
p1262
aa(lp1263
S'vhigh'
p1264
aS'high'
p1265
aS'5more'
p1266
ag4
aS'med'
p1267
aS'high'
p1268
aS'unacc'
p1269
aa(lp1270
S'vhigh'
p1271
aS'high'
p1272
aS'5more'
p1273
ag4
aS'big'
p1274
aS'low'
p1275
aS'unacc'
p1276
aa(lp1277
S'vhigh'
p1278
aS'high'
p1279
aS'5more'
p1280
ag4
aS'big'
p1281
aS'med'
p1282
aS'unacc'
p1283
aa(lp1284
S'vhigh'
p1285
aS'high'
p1286
aS'5more'
p1287
ag4
aS'big'
p1288
aS'high'
p1289
aS'unacc'
p1290
aa(lp1291
S'vhigh'
p1292
aS'high'
p1293
aS'5more'
p1294
ag59
aS'small'
p1295
aS'low'
p1296
aS'unacc'
p1297
aa(lp1298
S'vhigh'
p1299
aS'high'
p1300
aS'5more'
p1301
ag59
aS'small'
p1302
aS'med'
p1303
aS'unacc'
p1304
aa(lp1305
S'vhigh'
p1306
aS'high'
p1307
aS'5more'
p1308
ag59
aS'small'
p1309
aS'high'
p1310
aS'unacc'
p1311
aa(lp1312
S'vhigh'
p1313
aS'high'
p1314
aS'5more'
p1315
ag59
aS'med'
p1316
aS'low'
p1317
aS'unacc'
p1318
aa(lp1319
S'vhigh'
p1320
aS'high'
p1321
aS'5more'
p1322
ag59
aS'med'
p1323
aS'med'
p1324
aS'unacc'
p1325
aa(lp1326
S'vhigh'
p1327
aS'high'
p1328
aS'5more'
p1329
ag59
aS'med'
p1330
aS'high'
p1331
aS'unacc'
p1332
aa(lp1333
S'vhigh'
p1334
aS'high'
p1335
aS'5more'
p1336
ag59
aS'big'
p1337
aS'low'
p1338
aS'unacc'
p1339
aa(lp1340
S'vhigh'
p1341
aS'high'
p1342
aS'5more'
p1343
ag59
aS'big'
p1344
aS'med'
p1345
aS'unacc'
p1346
aa(lp1347
S'vhigh'
p1348
aS'high'
p1349
aS'5more'
p1350
ag59
aS'big'
p1351
aS'high'
p1352
aS'unacc'
p1353
aa(lp1354
S'vhigh'
p1355
aS'high'
p1356
aS'5more'
p1357
aS'more'
p1358
aS'small'
p1359
aS'low'
p1360
aS'unacc'
p1361
aa(lp1362
S'vhigh'
p1363
aS'high'
p1364
aS'5more'
p1365
aS'more'
p1366
aS'small'
p1367
aS'med'
p1368
aS'unacc'
p1369
aa(lp1370
S'vhigh'
p1371
aS'high'
p1372
aS'5more'
p1373
aS'more'
p1374
aS'small'
p1375
aS'high'
p1376
aS'unacc'
p1377
aa(lp1378
S'vhigh'
p1379
aS'high'
p1380
aS'5more'
p1381
aS'more'
p1382
aS'med'
p1383
aS'low'
p1384
aS'unacc'
p1385
aa(lp1386
S'vhigh'
p1387
aS'high'
p1388
aS'5more'
p1389
aS'more'
p1390
aS'med'
p1391
aS'med'
p1392
aS'unacc'
p1393
aa(lp1394
S'vhigh'
p1395
aS'high'
p1396
aS'5more'
p1397
aS'more'
p1398
aS'med'
p1399
aS'high'
p1400
aS'unacc'
p1401
aa(lp1402
S'vhigh'
p1403
aS'high'
p1404
aS'5more'
p1405
aS'more'
p1406
aS'big'
p1407
aS'low'
p1408
aS'unacc'
p1409
aa(lp1410
S'vhigh'
p1411
aS'high'
p1412
aS'5more'
p1413
aS'more'
p1414
aS'big'
p1415
aS'med'
p1416
aS'unacc'
p1417
aa(lp1418
S'vhigh'
p1419
aS'high'
p1420
aS'5more'
p1421
aS'more'
p1422
aS'big'
p1423
aS'high'
p1424
aS'unacc'
p1425
aa(lp1426
S'vhigh'
p1427
aS'med'
p1428
ag4
ag4
aS'small'
p1429
aS'low'
p1430
aS'unacc'
p1431
aa(lp1432
S'vhigh'
p1433
aS'med'
p1434
ag4
ag4
aS'small'
p1435
aS'med'
p1436
aS'unacc'
p1437
aa(lp1438
S'vhigh'
p1439
aS'med'
p1440
ag4
ag4
aS'small'
p1441
aS'high'
p1442
aS'unacc'
p1443
aa(lp1444
S'vhigh'
p1445
aS'med'
p1446
ag4
ag4
aS'med'
p1447
aS'low'
p1448
aS'unacc'
p1449
aa(lp1450
S'vhigh'
p1451
aS'med'
p1452
ag4
ag4
aS'med'
p1453
aS'med'
p1454
aS'unacc'
p1455
aa(lp1456
S'vhigh'
p1457
aS'med'
p1458
ag4
ag4
aS'med'
p1459
aS'high'
p1460
aS'unacc'
p1461
aa(lp1462
S'vhigh'
p1463
aS'med'
p1464
ag4
ag4
aS'big'
p1465
aS'low'
p1466
aS'unacc'
p1467
aa(lp1468
S'vhigh'
p1469
aS'med'
p1470
ag4
ag4
aS'big'
p1471
aS'med'
p1472
aS'unacc'
p1473
aa(lp1474
S'vhigh'
p1475
aS'med'
p1476
ag4
ag4
aS'big'
p1477
aS'high'
p1478
aS'unacc'
p1479
aa(lp1480
S'vhigh'
p1481
aS'med'
p1482
ag4
ag59
aS'small'
p1483
aS'low'
p1484
aS'unacc'
p1485
aa(lp1486
S'vhigh'
p1487
aS'med'
p1488
ag4
ag59
aS'small'
p1489
aS'med'
p1490
aS'unacc'
p1491
aa(lp1492
S'vhigh'
p1493
aS'med'
p1494
ag4
ag59
aS'small'
p1495
aS'high'
p1496
aS'acc'
p1497
aa(lp1498
S'vhigh'
p1499
aS'med'
p1500
ag4
ag59
aS'med'
p1501
aS'low'
p1502
aS'unacc'
p1503
aa(lp1504
S'vhigh'
p1505
aS'med'
p1506
ag4
ag59
aS'med'
p1507
aS'med'
p1508
aS'unacc'
p1509
aa(lp1510
S'vhigh'
p1511
aS'med'
p1512
ag4
ag59
aS'med'
p1513
aS'high'
p1514
aS'acc'
p1515
aa(lp1516
S'vhigh'
p1517
aS'med'
p1518
ag4
ag59
aS'big'
p1519
aS'low'
p1520
aS'unacc'
p1521
aa(lp1522
S'vhigh'
p1523
aS'med'
p1524
ag4
ag59
aS'big'
p1525
aS'med'
p1526
aS'acc'
p1527
aa(lp1528
S'vhigh'
p1529
aS'med'
p1530
ag4
ag59
aS'big'
p1531
aS'high'
p1532
aS'acc'
p1533
aa(lp1534
S'vhigh'
p1535
aS'med'
p1536
ag4
aS'more'
p1537
aS'small'
p1538
aS'low'
p1539
aS'unacc'
p1540
aa(lp1541
S'vhigh'
p1542
aS'med'
p1543
ag4
aS'more'
p1544
aS'small'
p1545
aS'med'
p1546
aS'unacc'
p1547
aa(lp1548
S'vhigh'
p1549
aS'med'
p1550
ag4
aS'more'
p1551
aS'small'
p1552
aS'high'
p1553
aS'unacc'
p1554
aa(lp1555
S'vhigh'
p1556
aS'med'
p1557
ag4
aS'more'
p1558
aS'med'
p1559
aS'low'
p1560
aS'unacc'
p1561
aa(lp1562
S'vhigh'
p1563
aS'med'
p1564
ag4
aS'more'
p1565
aS'med'
p1566
aS'med'
p1567
aS'unacc'
p1568
aa(lp1569
S'vhigh'
p1570
aS'med'
p1571
ag4
aS'more'
p1572
aS'med'
p1573
aS'high'
p1574
aS'acc'
p1575
aa(lp1576
S'vhigh'
p1577
aS'med'
p1578
ag4
aS'more'
p1579
aS'big'
p1580
aS'low'
p1581
aS'unacc'
p1582
aa(lp1583
S'vhigh'
p1584
aS'med'
p1585
ag4
aS'more'
p1586
aS'big'
p1587
aS'med'
p1588
aS'acc'
p1589
aa(lp1590
S'vhigh'
p1591
aS'med'
p1592
ag4
aS'more'
p1593
aS'big'
p1594
aS'high'
p1595
aS'acc'
p1596
aa(lp1597
S'vhigh'
p1598
aS'med'
p1599
ag177
ag4
aS'small'
p1600
aS'low'
p1601
aS'unacc'
p1602
aa(lp1603
S'vhigh'
p1604
aS'med'
p1605
ag177
ag4
aS'small'
p1606
aS'med'
p1607
aS'unacc'
p1608
aa(lp1609
S'vhigh'
p1610
aS'med'
p1611
ag177
ag4
aS'small'
p1612
aS'high'
p1613
aS'unacc'
p1614
aa(lp1615
S'vhigh'
p1616
aS'med'
p1617
ag177
ag4
aS'med'
p1618
aS'low'
p1619
aS'unacc'
p1620
aa(lp1621
S'vhigh'
p1622
aS'med'
p1623
ag177
ag4
aS'med'
p1624
aS'med'
p1625
aS'unacc'
p1626
aa(lp1627
S'vhigh'
p1628
aS'med'
p1629
ag177
ag4
aS'med'
p1630
aS'high'
p1631
aS'unacc'
p1632
aa(lp1633
S'vhigh'
p1634
aS'med'
p1635
ag177
ag4
aS'big'
p1636
aS'low'
p1637
aS'unacc'
p1638
aa(lp1639
S'vhigh'
p1640
aS'med'
p1641
ag177
ag4
aS'big'
p1642
aS'med'
p1643
aS'unacc'
p1644
aa(lp1645
S'vhigh'
p1646
aS'med'
p1647
ag177
ag4
aS'big'
p1648
aS'high'
p1649
aS'unacc'
p1650
aa(lp1651
S'vhigh'
p1652
aS'med'
p1653
ag177
ag59
aS'small'
p1654
aS'low'
p1655
aS'unacc'
p1656
aa(lp1657
S'vhigh'
p1658
aS'med'
p1659
ag177
ag59
aS'small'
p1660
aS'med'
p1661
aS'unacc'
p1662
aa(lp1663
S'vhigh'
p1664
aS'med'
p1665
ag177
ag59
aS'small'
p1666
aS'high'
p1667
aS'acc'
p1668
aa(lp1669
S'vhigh'
p1670
aS'med'
p1671
ag177
ag59
aS'med'
p1672
aS'low'
p1673
aS'unacc'
p1674
aa(lp1675
S'vhigh'
p1676
aS'med'
p1677
ag177
ag59
aS'med'
p1678
aS'med'
p1679
aS'unacc'
p1680
aa(lp1681
S'vhigh'
p1682
aS'med'
p1683
ag177
ag59
aS'med'
p1684
aS'high'
p1685
aS'acc'
p1686
aa(lp1687
S'vhigh'
p1688
aS'med'
p1689
ag177
ag59
aS'big'
p1690
aS'low'
p1691
aS'unacc'
p1692
aa(lp1693
S'vhigh'
p1694
aS'med'
p1695
ag177
ag59
aS'big'
p1696
aS'med'
p1697
aS'acc'
p1698
aa(lp1699
S'vhigh'
p1700
aS'med'
p1701
ag177
ag59
aS'big'
p1702
aS'high'
p1703
aS'acc'
p1704
aa(lp1705
S'vhigh'
p1706
aS'med'
p1707
ag177
aS'more'
p1708
aS'small'
p1709
aS'low'
p1710
aS'unacc'
p1711
aa(lp1712
S'vhigh'
p1713
aS'med'
p1714
ag177
aS'more'
p1715
aS'small'
p1716
aS'med'
p1717
aS'unacc'
p1718
aa(lp1719
S'vhigh'
p1720
aS'med'
p1721
ag177
aS'more'
p1722
aS'small'
p1723
aS'high'
p1724
aS'acc'
p1725
aa(lp1726
S'vhigh'
p1727
aS'med'
p1728
ag177
aS'more'
p1729
aS'med'
p1730
aS'low'
p1731
aS'unacc'
p1732
aa(lp1733
S'vhigh'
p1734
aS'med'
p1735
ag177
aS'more'
p1736
aS'med'
p1737
aS'med'
p1738
aS'acc'
p1739
aa(lp1740
S'vhigh'
p1741
aS'med'
p1742
ag177
aS'more'
p1743
aS'med'
p1744
aS'high'
p1745
aS'acc'
p1746
aa(lp1747
S'vhigh'
p1748
aS'med'
p1749
ag177
aS'more'
p1750
aS'big'
p1751
aS'low'
p1752
aS'unacc'
p1753
aa(lp1754
S'vhigh'
p1755
aS'med'
p1756
ag177
aS'more'
p1757
aS'big'
p1758
aS'med'
p1759
aS'acc'
p1760
aa(lp1761
S'vhigh'
p1762
aS'med'
p1763
ag177
aS'more'
p1764
aS'big'
p1765
aS'high'
p1766
aS'acc'
p1767
aa(lp1768
S'vhigh'
p1769
aS'med'
p1770
ag59
ag4
aS'small'
p1771
aS'low'
p1772
aS'unacc'
p1773
aa(lp1774
S'vhigh'
p1775
aS'med'
p1776
ag59
ag4
aS'small'
p1777
aS'med'
p1778
aS'unacc'
p1779
aa(lp1780
S'vhigh'
p1781
aS'med'
p1782
ag59
ag4
aS'small'
p1783
aS'high'
p1784
aS'unacc'
p1785
aa(lp1786
S'vhigh'
p1787
aS'med'
p1788
ag59
ag4
aS'med'
p1789
aS'low'
p1790
aS'unacc'
p1791
aa(lp1792
S'vhigh'
p1793
aS'med'
p1794
ag59
ag4
aS'med'
p1795
aS'med'
p1796
aS'unacc'
p1797
aa(lp1798
S'vhigh'
p1799
aS'med'
p1800
ag59
ag4
aS'med'
p1801
aS'high'
p1802
aS'unacc'
p1803
aa(lp1804
S'vhigh'
p1805
aS'med'
p1806
ag59
ag4
aS'big'
p1807
aS'low'
p1808
aS'unacc'
p1809
aa(lp1810
S'vhigh'
p1811
aS'med'
p1812
ag59
ag4
aS'big'
p1813
aS'med'
p1814
aS'unacc'
p1815
aa(lp1816
S'vhigh'
p1817
aS'med'
p1818
ag59
ag4
aS'big'
p1819
aS'high'
p1820
aS'unacc'
p1821
aa(lp1822
S'vhigh'
p1823
aS'med'
p1824
ag59
ag59
aS'small'
p1825
aS'low'
p1826
aS'unacc'
p1827
aa(lp1828
S'vhigh'
p1829
aS'med'
p1830
ag59
ag59
aS'small'
p1831
aS'med'
p1832
aS'unacc'
p1833
aa(lp1834
S'vhigh'
p1835
aS'med'
p1836
ag59
ag59
aS'small'
p1837
aS'high'
p1838
aS'acc'
p1839
aa(lp1840
S'vhigh'
p1841
aS'med'
p1842
ag59
ag59
aS'med'
p1843
aS'low'
p1844
aS'unacc'
p1845
aa(lp1846
S'vhigh'
p1847
aS'med'
p1848
ag59
ag59
aS'med'
p1849
aS'med'
p1850
aS'acc'
p1851
aa(lp1852
S'vhigh'
p1853
aS'med'
p1854
ag59
ag59
aS'med'
p1855
aS'high'
p1856
aS'acc'
p1857
aa(lp1858
S'vhigh'
p1859
aS'med'
p1860
ag59
ag59
aS'big'
p1861
aS'low'
p1862
aS'unacc'
p1863
aa(lp1864
S'vhigh'
p1865
aS'med'
p1866
ag59
ag59
aS'big'
p1867
aS'med'
p1868
aS'acc'
p1869
aa(lp1870
S'vhigh'
p1871
aS'med'
p1872
ag59
ag59
aS'big'
p1873
aS'high'
p1874
aS'acc'
p1875
aa(lp1876
S'vhigh'
p1877
aS'med'
p1878
ag59
aS'more'
p1879
aS'small'
p1880
aS'low'
p1881
aS'unacc'
p1882
aa(lp1883
S'vhigh'
p1884
aS'med'
p1885
ag59
aS'more'
p1886
aS'small'
p1887
aS'med'
p1888
aS'unacc'
p1889
aa(lp1890
S'vhigh'
p1891
aS'med'
p1892
ag59
aS'more'
p1893
aS'small'
p1894
aS'high'
p1895
aS'acc'
p1896
aa(lp1897
S'vhigh'
p1898
aS'med'
p1899
ag59
aS'more'
p1900
aS'med'
p1901
aS'low'
p1902
aS'unacc'
p1903
aa(lp1904
S'vhigh'
p1905
aS'med'
p1906
ag59
aS'more'
p1907
aS'med'
p1908
aS'med'
p1909
aS'acc'
p1910
aa(lp1911
S'vhigh'
p1912
aS'med'
p1913
ag59
aS'more'
p1914
aS'med'
p1915
aS'high'
p1916
aS'acc'
p1917
aa(lp1918
S'vhigh'
p1919
aS'med'
p1920
ag59
aS'more'
p1921
aS'big'
p1922
aS'low'
p1923
aS'unacc'
p1924
aa(lp1925
S'vhigh'
p1926
aS'med'
p1927
ag59
aS'more'
p1928
aS'big'
p1929
aS'med'
p1930
aS'acc'
p1931
aa(lp1932
S'vhigh'
p1933
aS'med'
p1934
ag59
aS'more'
p1935
aS'big'
p1936
aS'high'
p1937
aS'acc'
p1938
aa(lp1939
S'vhigh'
p1940
aS'med'
p1941
aS'5more'
p1942
ag4
aS'small'
p1943
aS'low'
p1944
aS'unacc'
p1945
aa(lp1946
S'vhigh'
p1947
aS'med'
p1948
aS'5more'
p1949
ag4
aS'small'
p1950
aS'med'
p1951
aS'unacc'
p1952
aa(lp1953
S'vhigh'
p1954
aS'med'
p1955
aS'5more'
p1956
ag4
aS'small'
p1957
aS'high'
p1958
aS'unacc'
p1959
aa(lp1960
S'vhigh'
p1961
aS'med'
p1962
aS'5more'
p1963
ag4
aS'med'
p1964
aS'low'
p1965
aS'unacc'
p1966
aa(lp1967
S'vhigh'
p1968
aS'med'
p1969
aS'5more'
p1970
ag4
aS'med'
p1971
aS'med'
p1972
aS'unacc'
p1973
aa(lp1974
S'vhigh'
p1975
aS'med'
p1976
aS'5more'
p1977
ag4
aS'med'
p1978
aS'high'
p1979
aS'unacc'
p1980
aa(lp1981
S'vhigh'
p1982
aS'med'
p1983
aS'5more'
p1984
ag4
aS'big'
p1985
aS'low'
p1986
aS'unacc'
p1987
aa(lp1988
S'vhigh'
p1989
aS'med'
p1990
aS'5more'
p1991
ag4
aS'big'
p1992
aS'med'
p1993
aS'unacc'
p1994
aa(lp1995
S'vhigh'
p1996
aS'med'
p1997
aS'5more'
p1998
ag4
aS'big'
p1999
aS'high'
p2000
aS'unacc'
p2001
aa(lp2002
S'vhigh'
p2003
aS'med'
p2004
aS'5more'
p2005
ag59
aS'small'
p2006
aS'low'
p2007
aS'unacc'
p2008
aa(lp2009
S'vhigh'
p2010
aS'med'
p2011
aS'5more'
p2012
ag59
aS'small'
p2013
aS'med'
p2014
aS'unacc'
p2015
aa(lp2016
S'vhigh'
p2017
aS'med'
p2018
aS'5more'
p2019
ag59
aS'small'
p2020
aS'high'
p2021
aS'acc'
p2022
aa(lp2023
S'vhigh'
p2024
aS'med'
p2025
aS'5more'
p2026
ag59
aS'med'
p2027
aS'low'
p2028
aS'unacc'
p2029
aa(lp2030
S'vhigh'
p2031
aS'med'
p2032
aS'5more'
p2033
ag59
aS'med'
p2034
aS'med'
p2035
aS'acc'
p2036
aa(lp2037
S'vhigh'
p2038
aS'med'
p2039
aS'5more'
p2040
ag59
aS'med'
p2041
aS'high'
p2042
aS'acc'
p2043
aa(lp2044
S'vhigh'
p2045
aS'med'
p2046
aS'5more'
p2047
ag59
aS'big'
p2048
aS'low'
p2049
aS'unacc'
p2050
aa(lp2051
S'vhigh'
p2052
aS'med'
p2053
aS'5more'
p2054
ag59
aS'big'
p2055
aS'med'
p2056
aS'acc'
p2057
aa(lp2058
S'vhigh'
p2059
aS'med'
p2060
aS'5more'
p2061
ag59
aS'big'
p2062
aS'high'
p2063
aS'acc'
p2064
aa(lp2065
S'vhigh'
p2066
aS'med'
p2067
aS'5more'
p2068
aS'more'
p2069
aS'small'
p2070
aS'low'
p2071
aS'unacc'
p2072
aa(lp2073
S'vhigh'
p2074
aS'med'
p2075
aS'5more'
p2076
aS'more'
p2077
aS'small'
p2078
aS'med'
p2079
aS'unacc'
p2080
aa(lp2081
S'vhigh'
p2082
aS'med'
p2083
aS'5more'
p2084
aS'more'
p2085
aS'small'
p2086
aS'high'
p2087
aS'acc'
p2088
aa(lp2089
S'vhigh'
p2090
aS'med'
p2091
aS'5more'
p2092
aS'more'
p2093
aS'med'
p2094
aS'low'
p2095
aS'unacc'
p2096
aa(lp2097
S'vhigh'
p2098
aS'med'
p2099
aS'5more'
p2100
aS'more'
p2101
aS'med'
p2102
aS'med'
p2103
aS'acc'
p2104
aa(lp2105
S'vhigh'
p2106
aS'med'
p2107
aS'5more'
p2108
aS'more'
p2109
aS'med'
p2110
aS'high'
p2111
aS'acc'
p2112
aa(lp2113
S'vhigh'
p2114
aS'med'
p2115
aS'5more'
p2116
aS'more'
p2117
aS'big'
p2118
aS'low'
p2119
aS'unacc'
p2120
aa(lp2121
S'vhigh'
p2122
aS'med'
p2123
aS'5more'
p2124
aS'more'
p2125
aS'big'
p2126
aS'med'
p2127
aS'acc'
p2128
aa(lp2129
S'vhigh'
p2130
aS'med'
p2131
aS'5more'
p2132
aS'more'
p2133
aS'big'
p2134
aS'high'
p2135
aS'acc'
p2136
aa(lp2137
S'vhigh'
p2138
aS'low'
p2139
ag4
ag4
aS'small'
p2140
aS'low'
p2141
aS'unacc'
p2142
aa(lp2143
S'vhigh'
p2144
aS'low'
p2145
ag4
ag4
aS'small'
p2146
aS'med'
p2147
aS'unacc'
p2148
aa(lp2149
S'vhigh'
p2150
aS'low'
p2151
ag4
ag4
aS'small'
p2152
aS'high'
p2153
aS'unacc'
p2154
aa(lp2155
S'vhigh'
p2156
aS'low'
p2157
ag4
ag4
aS'med'
p2158
aS'low'
p2159
aS'unacc'
p2160
aa(lp2161
S'vhigh'
p2162
aS'low'
p2163
ag4
ag4
aS'med'
p2164
aS'med'
p2165
aS'unacc'
p2166
aa(lp2167
S'vhigh'
p2168
aS'low'
p2169
ag4
ag4
aS'med'
p2170
aS'high'
p2171
aS'unacc'
p2172
aa(lp2173
S'vhigh'
p2174
aS'low'
p2175
ag4
ag4
aS'big'
p2176
aS'low'
p2177
aS'unacc'
p2178
aa(lp2179
S'vhigh'
p2180
aS'low'
p2181
ag4
ag4
aS'big'
p2182
aS'med'
p2183
aS'unacc'
p2184
aa(lp2185
S'vhigh'
p2186
aS'low'
p2187
ag4
ag4
aS'big'
p2188
aS'high'
p2189
aS'unacc'
p2190
aa(lp2191
S'vhigh'
p2192
aS'low'
p2193
ag4
ag59
aS'small'
p2194
aS'low'
p2195
aS'unacc'
p2196
aa(lp2197
S'vhigh'
p2198
aS'low'
p2199
ag4
ag59
aS'small'
p2200
aS'med'
p2201
aS'unacc'
p2202
aa(lp2203
S'vhigh'
p2204
aS'low'
p2205
ag4
ag59
aS'small'
p2206
aS'high'
p2207
aS'acc'
p2208
aa(lp2209
S'vhigh'
p2210
aS'low'
p2211
ag4
ag59
aS'med'
p2212
aS'low'
p2213
aS'unacc'
p2214
aa(lp2215
S'vhigh'
p2216
aS'low'
p2217
ag4
ag59
aS'med'
p2218
aS'med'
p2219
aS'unacc'
p2220
aa(lp2221
S'vhigh'
p2222
aS'low'
p2223
ag4
ag59
aS'med'
p2224
aS'high'
p2225
aS'acc'
p2226
aa(lp2227
S'vhigh'
p2228
aS'low'
p2229
ag4
ag59
aS'big'
p2230
aS'low'
p2231
aS'unacc'
p2232
aa(lp2233
S'vhigh'
p2234
aS'low'
p2235
ag4
ag59
aS'big'
p2236
aS'med'
p2237
aS'acc'
p2238
aa(lp2239
S'vhigh'
p2240
aS'low'
p2241
ag4
ag59
aS'big'
p2242
aS'high'
p2243
aS'acc'
p2244
aa(lp2245
S'vhigh'
p2246
aS'low'
p2247
ag4
aS'more'
p2248
aS'small'
p2249
aS'low'
p2250
aS'unacc'
p2251
aa(lp2252
S'vhigh'
p2253
aS'low'
p2254
ag4
aS'more'
p2255
aS'small'
p2256
aS'med'
p2257
aS'unacc'
p2258
aa(lp2259
S'vhigh'
p2260
aS'low'
p2261
ag4
aS'more'
p2262
aS'small'
p2263
aS'high'
p2264
aS'unacc'
p2265
aa(lp2266
S'vhigh'
p2267
aS'low'
p2268
ag4
aS'more'
p2269
aS'med'
p2270
aS'low'
p2271
aS'unacc'
p2272
aa(lp2273
S'vhigh'
p2274
aS'low'
p2275
ag4
aS'more'
p2276
aS'med'
p2277
aS'med'
p2278
aS'unacc'
p2279
aa(lp2280
S'vhigh'
p2281
aS'low'
p2282
ag4
aS'more'
p2283
aS'med'
p2284
aS'high'
p2285
aS'acc'
p2286
aa(lp2287
S'vhigh'
p2288
aS'low'
p2289
ag4
aS'more'
p2290
aS'big'
p2291
aS'low'
p2292
aS'unacc'
p2293
aa(lp2294
S'vhigh'
p2295
aS'low'
p2296
ag4
aS'more'
p2297
aS'big'
p2298
aS'med'
p2299
aS'acc'
p2300
aa(lp2301
S'vhigh'
p2302
aS'low'
p2303
ag4
aS'more'
p2304
aS'big'
p2305
aS'high'
p2306
aS'acc'
p2307
aa(lp2308
S'vhigh'
p2309
aS'low'
p2310
ag177
ag4
aS'small'
p2311
aS'low'
p2312
aS'unacc'
p2313
aa(lp2314
S'vhigh'
p2315
aS'low'
p2316
ag177
ag4
aS'small'
p2317
aS'med'
p2318
aS'unacc'
p2319
aa(lp2320
S'vhigh'
p2321
aS'low'
p2322
ag177
ag4
aS'small'
p2323
aS'high'
p2324
aS'unacc'
p2325
aa(lp2326
S'vhigh'
p2327
aS'low'
p2328
ag177
ag4
aS'med'
p2329
aS'low'
p2330
aS'unacc'
p2331
aa(lp2332
S'vhigh'
p2333
aS'low'
p2334
ag177
ag4
aS'med'
p2335
aS'med'
p2336
aS'unacc'
p2337
aa(lp2338
S'vhigh'
p2339
aS'low'
p2340
ag177
ag4
aS'med'
p2341
aS'high'
p2342
aS'unacc'
p2343
aa(lp2344
S'vhigh'
p2345
aS'low'
p2346
ag177
ag4
aS'big'
p2347
aS'low'
p2348
aS'unacc'
p2349
aa(lp2350
S'vhigh'
p2351
aS'low'
p2352
ag177
ag4
aS'big'
p2353
aS'med'
p2354
aS'unacc'
p2355
aa(lp2356
S'vhigh'
p2357
aS'low'
p2358
ag177
ag4
aS'big'
p2359
aS'high'
p2360
aS'unacc'
p2361
aa(lp2362
S'vhigh'
p2363
aS'low'
p2364
ag177
ag59
aS'small'
p2365
aS'low'
p2366
aS'unacc'
p2367
aa(lp2368
S'vhigh'
p2369
aS'low'
p2370
ag177
ag59
aS'small'
p2371
aS'med'
p2372
aS'unacc'
p2373
aa(lp2374
S'vhigh'
p2375
aS'low'
p2376
ag177
ag59
aS'small'
p2377
aS'high'
p2378
aS'acc'
p2379
aa(lp2380
S'vhigh'
p2381
aS'low'
p2382
ag177
ag59
aS'med'
p2383
aS'low'
p2384
aS'unacc'
p2385
aa(lp2386
S'vhigh'
p2387
aS'low'
p2388
ag177
ag59
aS'med'
p2389
aS'med'
p2390
aS'unacc'
p2391
aa(lp2392
S'vhigh'
p2393
aS'low'
p2394
ag177
ag59
aS'med'
p2395
aS'high'
p2396
aS'acc'
p2397
aa(lp2398
S'vhigh'
p2399
aS'low'
p2400
ag177
ag59
aS'big'
p2401
aS'low'
p2402
aS'unacc'
p2403
aa(lp2404
S'vhigh'
p2405
aS'low'
p2406
ag177
ag59
aS'big'
p2407
aS'med'
p2408
aS'acc'
p2409
aa(lp2410
S'vhigh'
p2411
aS'low'
p2412
ag177
ag59
aS'big'
p2413
aS'high'
p2414
aS'acc'
p2415
aa(lp2416
S'vhigh'
p2417
aS'low'
p2418
ag177
aS'more'
p2419
aS'small'
p2420
aS'low'
p2421
aS'unacc'
p2422
aa(lp2423
S'vhigh'
p2424
aS'low'
p2425
ag177
aS'more'
p2426
aS'small'
p2427
aS'med'
p2428
aS'unacc'
p2429
aa(lp2430
S'vhigh'
p2431
aS'low'
p2432
ag177
aS'more'
p2433
aS'small'
p2434
aS'high'
p2435
aS'acc'
p2436
aa(lp2437
S'vhigh'
p2438
aS'low'
p2439
ag177
aS'more'
p2440
aS'med'
p2441
aS'low'
p2442
aS'unacc'
p2443
aa(lp2444
S'vhigh'
p2445
aS'low'
p2446
ag177
aS'more'
p2447
aS'med'
p2448
aS'med'
p2449
aS'acc'
p2450
aa(lp2451
S'vhigh'
p2452
aS'low'
p2453
ag177
aS'more'
p2454
aS'med'
p2455
aS'high'
p2456
aS'acc'
p2457
aa(lp2458
S'vhigh'
p2459
aS'low'
p2460
ag177
aS'more'
p2461
aS'big'
p2462
aS'low'
p2463
aS'unacc'
p2464
aa(lp2465
S'vhigh'
p2466
aS'low'
p2467
ag177
aS'more'
p2468
aS'big'
p2469
aS'med'
p2470
aS'acc'
p2471
aa(lp2472
S'vhigh'
p2473
aS'low'
p2474
ag177
aS'more'
p2475
aS'big'
p2476
aS'high'
p2477
aS'acc'
p2478
aa(lp2479
S'vhigh'
p2480
aS'low'
p2481
ag59
ag4
aS'small'
p2482
aS'low'
p2483
aS'unacc'
p2484
aa(lp2485
S'vhigh'
p2486
aS'low'
p2487
ag59
ag4
aS'small'
p2488
aS'med'
p2489
aS'unacc'
p2490
aa(lp2491
S'vhigh'
p2492
aS'low'
p2493
ag59
ag4
aS'small'
p2494
aS'high'
p2495
aS'unacc'
p2496
aa(lp2497
S'vhigh'
p2498
aS'low'
p2499
ag59
ag4
aS'med'
p2500
aS'low'
p2501
aS'unacc'
p2502
aa(lp2503
S'vhigh'
p2504
aS'low'
p2505
ag59
ag4
aS'med'
p2506
aS'med'
p2507
aS'unacc'
p2508
aa(lp2509
S'vhigh'
p2510
aS'low'
p2511
ag59
ag4
aS'med'
p2512
aS'high'
p2513
aS'unacc'
p2514
aa(lp2515
S'vhigh'
p2516
aS'low'
p2517
ag59
ag4
aS'big'
p2518
aS'low'
p2519
aS'unacc'
p2520
aa(lp2521
S'vhigh'
p2522
aS'low'
p2523
ag59
ag4
aS'big'
p2524
aS'med'
p2525
aS'unacc'
p2526
aa(lp2527
S'vhigh'
p2528
aS'low'
p2529
ag59
ag4
aS'big'
p2530
aS'high'
p2531
aS'unacc'
p2532
aa(lp2533
S'vhigh'
p2534
aS'low'
p2535
ag59
ag59
aS'small'
p2536
aS'low'
p2537
aS'unacc'
p2538
aa(lp2539
S'vhigh'
p2540
aS'low'
p2541
ag59
ag59
aS'small'
p2542
aS'med'
p2543
aS'unacc'
p2544
aa(lp2545
S'vhigh'
p2546
aS'low'
p2547
ag59
ag59
aS'small'
p2548
aS'high'
p2549
aS'acc'
p2550
aa(lp2551
S'vhigh'
p2552
aS'low'
p2553
ag59
ag59
aS'med'
p2554
aS'low'
p2555
aS'unacc'
p2556
aa(lp2557
S'vhigh'
p2558
aS'low'
p2559
ag59
ag59
aS'med'
p2560
aS'med'
p2561
aS'acc'
p2562
aa(lp2563
S'vhigh'
p2564
aS'low'
p2565
ag59
ag59
aS'med'
p2566
aS'high'
p2567
aS'acc'
p2568
aa(lp2569
S'vhigh'
p2570
aS'low'
p2571
ag59
ag59
aS'big'
p2572
aS'low'
p2573
aS'unacc'
p2574
aa(lp2575
S'vhigh'
p2576
aS'low'
p2577
ag59
ag59
aS'big'
p2578
aS'med'
p2579
aS'acc'
p2580
aa(lp2581
S'vhigh'
p2582
aS'low'
p2583
ag59
ag59
aS'big'
p2584
aS'high'
p2585
aS'acc'
p2586
aa(lp2587
S'vhigh'
p2588
aS'low'
p2589
ag59
aS'more'
p2590
aS'small'
p2591
aS'low'
p2592
aS'unacc'
p2593
aa(lp2594
S'vhigh'
p2595
aS'low'
p2596
ag59
aS'more'
p2597
aS'small'
p2598
aS'med'
p2599
aS'unacc'
p2600
aa(lp2601
S'vhigh'
p2602
aS'low'
p2603
ag59
aS'more'
p2604
aS'small'
p2605
aS'high'
p2606
aS'acc'
p2607
aa(lp2608
S'vhigh'
p2609
aS'low'
p2610
ag59
aS'more'
p2611
aS'med'
p2612
aS'low'
p2613
aS'unacc'
p2614
aa(lp2615
S'vhigh'
p2616
aS'low'
p2617
ag59
aS'more'
p2618
aS'med'
p2619
aS'med'
p2620
aS'acc'
p2621
aa(lp2622
S'vhigh'
p2623
aS'low'
p2624
ag59
aS'more'
p2625
aS'med'
p2626
aS'high'
p2627
aS'acc'
p2628
aa(lp2629
S'vhigh'
p2630
aS'low'
p2631
ag59
aS'more'
p2632
aS'big'
p2633
aS'low'
p2634
aS'unacc'
p2635
aa(lp2636
S'vhigh'
p2637
aS'low'
p2638
ag59
aS'more'
p2639
aS'big'
p2640
aS'med'
p2641
aS'acc'
p2642
aa(lp2643
S'vhigh'
p2644
aS'low'
p2645
ag59
aS'more'
p2646
aS'big'
p2647
aS'high'
p2648
aS'acc'
p2649
aa(lp2650
S'vhigh'
p2651
aS'low'
p2652
aS'5more'
p2653
ag4
aS'small'
p2654
aS'low'
p2655
aS'unacc'
p2656
aa(lp2657
S'vhigh'
p2658
aS'low'
p2659
aS'5more'
p2660
ag4
aS'small'
p2661
aS'med'
p2662
aS'unacc'
p2663
aa(lp2664
S'vhigh'
p2665
aS'low'
p2666
aS'5more'
p2667
ag4
aS'small'
p2668
aS'high'
p2669
aS'unacc'
p2670
aa(lp2671
S'vhigh'
p2672
aS'low'
p2673
aS'5more'
p2674
ag4
aS'med'
p2675
aS'low'
p2676
aS'unacc'
p2677
aa(lp2678
S'vhigh'
p2679
aS'low'
p2680
aS'5more'
p2681
ag4
aS'med'
p2682
aS'med'
p2683
aS'unacc'
p2684
aa(lp2685
S'vhigh'
p2686
aS'low'
p2687
aS'5more'
p2688
ag4
aS'med'
p2689
aS'high'
p2690
aS'unacc'
p2691
aa(lp2692
S'vhigh'
p2693
aS'low'
p2694
aS'5more'
p2695
ag4
aS'big'
p2696
aS'low'
p2697
aS'unacc'
p2698
aa(lp2699
S'vhigh'
p2700
aS'low'
p2701
aS'5more'
p2702
ag4
aS'big'
p2703
aS'med'
p2704
aS'unacc'
p2705
aa(lp2706
S'vhigh'
p2707
aS'low'
p2708
aS'5more'
p2709
ag4
aS'big'
p2710
aS'high'
p2711
aS'unacc'
p2712
aa(lp2713
S'vhigh'
p2714
aS'low'
p2715
aS'5more'
p2716
ag59
aS'small'
p2717
aS'low'
p2718
aS'unacc'
p2719
aa(lp2720
S'vhigh'
p2721
aS'low'
p2722
aS'5more'
p2723
ag59
aS'small'
p2724
aS'med'
p2725
aS'unacc'
p2726
aa(lp2727
S'vhigh'
p2728
aS'low'
p2729
aS'5more'
p2730
ag59
aS'small'
p2731
aS'high'
p2732
aS'acc'
p2733
aa(lp2734
S'vhigh'
p2735
aS'low'
p2736
aS'5more'
p2737
ag59
aS'med'
p2738
aS'low'
p2739
aS'unacc'
p2740
aa(lp2741
S'vhigh'
p2742
aS'low'
p2743
aS'5more'
p2744
ag59
aS'med'
p2745
aS'med'
p2746
aS'acc'
p2747
aa(lp2748
S'vhigh'
p2749
aS'low'
p2750
aS'5more'
p2751
ag59
aS'med'
p2752
aS'high'
p2753
aS'acc'
p2754
aa(lp2755
S'vhigh'
p2756
aS'low'
p2757
aS'5more'
p2758
ag59
aS'big'
p2759
aS'low'
p2760
aS'unacc'
p2761
aa(lp2762
S'vhigh'
p2763
aS'low'
p2764
aS'5more'
p2765
ag59
aS'big'
p2766
aS'med'
p2767
aS'acc'
p2768
aa(lp2769
S'vhigh'
p2770
aS'low'
p2771
aS'5more'
p2772
ag59
aS'big'
p2773
aS'high'
p2774
aS'acc'
p2775
aa(lp2776
S'vhigh'
p2777
aS'low'
p2778
aS'5more'
p2779
aS'more'
p2780
aS'small'
p2781
aS'low'
p2782
aS'unacc'
p2783
aa(lp2784
S'vhigh'
p2785
aS'low'
p2786
aS'5more'
p2787
aS'more'
p2788
aS'small'
p2789
aS'med'
p2790
aS'unacc'
p2791
aa(lp2792
S'vhigh'
p2793
aS'low'
p2794
aS'5more'
p2795
aS'more'
p2796
aS'small'
p2797
aS'high'
p2798
aS'acc'
p2799
aa(lp2800
S'vhigh'
p2801
aS'low'
p2802
aS'5more'
p2803
aS'more'
p2804
aS'med'
p2805
aS'low'
p2806
aS'unacc'
p2807
aa(lp2808
S'vhigh'
p2809
aS'low'
p2810
aS'5more'
p2811
aS'more'
p2812
aS'med'
p2813
aS'med'
p2814
aS'acc'
p2815
aa(lp2816
S'vhigh'
p2817
aS'low'
p2818
aS'5more'
p2819
aS'more'
p2820
aS'med'
p2821
aS'high'
p2822
aS'acc'
p2823
aa(lp2824
S'vhigh'
p2825
aS'low'
p2826
aS'5more'
p2827
aS'more'
p2828
aS'big'
p2829
aS'low'
p2830
aS'unacc'
p2831
aa(lp2832
S'vhigh'
p2833
aS'low'
p2834
aS'5more'
p2835
aS'more'
p2836
aS'big'
p2837
aS'med'
p2838
aS'acc'
p2839
aa(lp2840
S'vhigh'
p2841
aS'low'
p2842
aS'5more'
p2843
aS'more'
p2844
aS'big'
p2845
aS'high'
p2846
aS'acc'
p2847
aa(lp2848
S'high'
p2849
aS'vhigh'
p2850
ag4
ag4
aS'small'
p2851
aS'low'
p2852
aS'unacc'
p2853
aa(lp2854
S'high'
p2855
aS'vhigh'
p2856
ag4
ag4
aS'small'
p2857
aS'med'
p2858
aS'unacc'
p2859
aa(lp2860
S'high'
p2861
aS'vhigh'
p2862
ag4
ag4
aS'small'
p2863
aS'high'
p2864
aS'unacc'
p2865
aa(lp2866
S'high'
p2867
aS'vhigh'
p2868
ag4
ag4
aS'med'
p2869
aS'low'
p2870
aS'unacc'
p2871
aa(lp2872
S'high'
p2873
aS'vhigh'
p2874
ag4
ag4
aS'med'
p2875
aS'med'
p2876
aS'unacc'
p2877
aa(lp2878
S'high'
p2879
aS'vhigh'
p2880
ag4
ag4
aS'med'
p2881
aS'high'
p2882
aS'unacc'
p2883
aa(lp2884
S'high'
p2885
aS'vhigh'
p2886
ag4
ag4
aS'big'
p2887
aS'low'
p2888
aS'unacc'
p2889
aa(lp2890
S'high'
p2891
aS'vhigh'
p2892
ag4
ag4
aS'big'
p2893
aS'med'
p2894
aS'unacc'
p2895
aa(lp2896
S'high'
p2897
aS'vhigh'
p2898
ag4
ag4
aS'big'
p2899
aS'high'
p2900
aS'unacc'
p2901
aa(lp2902
S'high'
p2903
aS'vhigh'
p2904
ag4
ag59
aS'small'
p2905
aS'low'
p2906
aS'unacc'
p2907
aa(lp2908
S'high'
p2909
aS'vhigh'
p2910
ag4
ag59
aS'small'
p2911
aS'med'
p2912
aS'unacc'
p2913
aa(lp2914
S'high'
p2915
aS'vhigh'
p2916
ag4
ag59
aS'small'
p2917
aS'high'
p2918
aS'unacc'
p2919
aa(lp2920
S'high'
p2921
aS'vhigh'
p2922
ag4
ag59
aS'med'
p2923
aS'low'
p2924
aS'unacc'
p2925
aa(lp2926
S'high'
p2927
aS'vhigh'
p2928
ag4
ag59
aS'med'
p2929
aS'med'
p2930
aS'unacc'
p2931
aa(lp2932
S'high'
p2933
aS'vhigh'
p2934
ag4
ag59
aS'med'
p2935
aS'high'
p2936
aS'unacc'
p2937
aa(lp2938
S'high'
p2939
aS'vhigh'
p2940
ag4
ag59
aS'big'
p2941
aS'low'
p2942
aS'unacc'
p2943
aa(lp2944
S'high'
p2945
aS'vhigh'
p2946
ag4
ag59
aS'big'
p2947
aS'med'
p2948
aS'unacc'
p2949
aa(lp2950
S'high'
p2951
aS'vhigh'
p2952
ag4
ag59
aS'big'
p2953
aS'high'
p2954
aS'unacc'
p2955
aa(lp2956
S'high'
p2957
aS'vhigh'
p2958
ag4
aS'more'
p2959
aS'small'
p2960
aS'low'
p2961
aS'unacc'
p2962
aa(lp2963
S'high'
p2964
aS'vhigh'
p2965
ag4
aS'more'
p2966
aS'small'
p2967
aS'med'
p2968
aS'unacc'
p2969
aa(lp2970
S'high'
p2971
aS'vhigh'
p2972
ag4
aS'more'
p2973
aS'small'
p2974
aS'high'
p2975
aS'unacc'
p2976
aa(lp2977
S'high'
p2978
aS'vhigh'
p2979
ag4
aS'more'
p2980
aS'med'
p2981
aS'low'
p2982
aS'unacc'
p2983
aa(lp2984
S'high'
p2985
aS'vhigh'
p2986
ag4
aS'more'
p2987
aS'med'
p2988
aS'med'
p2989
aS'unacc'
p2990
aa(lp2991
S'high'
p2992
aS'vhigh'
p2993
ag4
aS'more'
p2994
aS'med'
p2995
aS'high'
p2996
aS'unacc'
p2997
aa(lp2998
S'high'
p2999
aS'vhigh'
p3000
ag4
aS'more'
p3001
aS'big'
p3002
aS'low'
p3003
aS'unacc'
p3004
aa(lp3005
S'high'
p3006
aS'vhigh'
p3007
ag4
aS'more'
p3008
aS'big'
p3009
aS'med'
p3010
aS'unacc'
p3011
aa(lp3012
S'high'
p3013
aS'vhigh'
p3014
ag4
aS'more'
p3015
aS'big'
p3016
aS'high'
p3017
aS'unacc'
p3018
aa(lp3019
S'high'
p3020
aS'vhigh'
p3021
ag177
ag4
aS'small'
p3022
aS'low'
p3023
aS'unacc'
p3024
aa(lp3025
S'high'
p3026
aS'vhigh'
p3027
ag177
ag4
aS'small'
p3028
aS'med'
p3029
aS'unacc'
p3030
aa(lp3031
S'high'
p3032
aS'vhigh'
p3033
ag177
ag4
aS'small'
p3034
aS'high'
p3035
aS'unacc'
p3036
aa(lp3037
S'high'
p3038
aS'vhigh'
p3039
ag177
ag4
aS'med'
p3040
aS'low'
p3041
aS'unacc'
p3042
aa(lp3043
S'high'
p3044
aS'vhigh'
p3045
ag177
ag4
aS'med'
p3046
aS'med'
p3047
aS'unacc'
p3048
aa(lp3049
S'high'
p3050
aS'vhigh'
p3051
ag177
ag4
aS'med'
p3052
aS'high'
p3053
aS'unacc'
p3054
aa(lp3055
S'high'
p3056
aS'vhigh'
p3057
ag177
ag4
aS'big'
p3058
aS'low'
p3059
aS'unacc'
p3060
aa(lp3061
S'high'
p3062
aS'vhigh'
p3063
ag177
ag4
aS'big'
p3064
aS'med'
p3065
aS'unacc'
p3066
aa(lp3067
S'high'
p3068
aS'vhigh'
p3069
ag177
ag4
aS'big'
p3070
aS'high'
p3071
aS'unacc'
p3072
aa(lp3073
S'high'
p3074
aS'vhigh'
p3075
ag177
ag59
aS'small'
p3076
aS'low'
p3077
aS'unacc'
p3078
aa(lp3079
S'high'
p3080
aS'vhigh'
p3081
ag177
ag59
aS'small'
p3082
aS'med'
p3083
aS'unacc'
p3084
aa(lp3085
S'high'
p3086
aS'vhigh'
p3087
ag177
ag59
aS'small'
p3088
aS'high'
p3089
aS'unacc'
p3090
aa(lp3091
S'high'
p3092
aS'vhigh'
p3093
ag177
ag59
aS'med'
p3094
aS'low'
p3095
aS'unacc'
p3096
aa(lp3097
S'high'
p3098
aS'vhigh'
p3099
ag177
ag59
aS'med'
p3100
aS'med'
p3101
aS'unacc'
p3102
aa(lp3103
S'high'
p3104
aS'vhigh'
p3105
ag177
ag59
aS'med'
p3106
aS'high'
p3107
aS'unacc'
p3108
aa(lp3109
S'high'
p3110
aS'vhigh'
p3111
ag177
ag59
aS'big'
p3112
aS'low'
p3113
aS'unacc'
p3114
aa(lp3115
S'high'
p3116
aS'vhigh'
p3117
ag177
ag59
aS'big'
p3118
aS'med'
p3119
aS'unacc'
p3120
aa(lp3121
S'high'
p3122
aS'vhigh'
p3123
ag177
ag59
aS'big'
p3124
aS'high'
p3125
aS'unacc'
p3126
aa(lp3127
S'high'
p3128
aS'vhigh'
p3129
ag177
aS'more'
p3130
aS'small'
p3131
aS'low'
p3132
aS'unacc'
p3133
aa(lp3134
S'high'
p3135
aS'vhigh'
p3136
ag177
aS'more'
p3137
aS'small'
p3138
aS'med'
p3139
aS'unacc'
p3140
aa(lp3141
S'high'
p3142
aS'vhigh'
p3143
ag177
aS'more'
p3144
aS'small'
p3145
aS'high'
p3146
aS'unacc'
p3147
aa(lp3148
S'high'
p3149
aS'vhigh'
p3150
ag177
aS'more'
p3151
aS'med'
p3152
aS'low'
p3153
aS'unacc'
p3154
aa(lp3155
S'high'
p3156
aS'vhigh'
p3157
ag177
aS'more'
p3158
aS'med'
p3159
aS'med'
p3160
aS'unacc'
p3161
aa(lp3162
S'high'
p3163
aS'vhigh'
p3164
ag177
aS'more'
p3165
aS'med'
p3166
aS'high'
p3167
aS'unacc'
p3168
aa(lp3169
S'high'
p3170
aS'vhigh'
p3171
ag177
aS'more'
p3172
aS'big'
p3173
aS'low'
p3174
aS'unacc'
p3175
aa(lp3176
S'high'
p3177
aS'vhigh'
p3178
ag177
aS'more'
p3179
aS'big'
p3180
aS'med'
p3181
aS'unacc'
p3182
aa(lp3183
S'high'
p3184
aS'vhigh'
p3185
ag177
aS'more'
p3186
aS'big'
p3187
aS'high'
p3188
aS'unacc'
p3189
aa(lp3190
S'high'
p3191
aS'vhigh'
p3192
ag59
ag4
aS'small'
p3193
aS'low'
p3194
aS'unacc'
p3195
aa(lp3196
S'high'
p3197
aS'vhigh'
p3198
ag59
ag4
aS'small'
p3199
aS'med'
p3200
aS'unacc'
p3201
aa(lp3202
S'high'
p3203
aS'vhigh'
p3204
ag59
ag4
aS'small'
p3205
aS'high'
p3206
aS'unacc'
p3207
aa(lp3208
S'high'
p3209
aS'vhigh'
p3210
ag59
ag4
aS'med'
p3211
aS'low'
p3212
aS'unacc'
p3213
aa(lp3214
S'high'
p3215
aS'vhigh'
p3216
ag59
ag4
aS'med'
p3217
aS'med'
p3218
aS'unacc'
p3219
aa(lp3220
S'high'
p3221
aS'vhigh'
p3222
ag59
ag4
aS'med'
p3223
aS'high'
p3224
aS'unacc'
p3225
aa(lp3226
S'high'
p3227
aS'vhigh'
p3228
ag59
ag4
aS'big'
p3229
aS'low'
p3230
aS'unacc'
p3231
aa(lp3232
S'high'
p3233
aS'vhigh'
p3234
ag59
ag4
aS'big'
p3235
aS'med'
p3236
aS'unacc'
p3237
aa(lp3238
S'high'
p3239
aS'vhigh'
p3240
ag59
ag4
aS'big'
p3241
aS'high'
p3242
aS'unacc'
p3243
aa(lp3244
S'high'
p3245
aS'vhigh'
p3246
ag59
ag59
aS'small'
p3247
aS'low'
p3248
aS'unacc'
p3249
aa(lp3250
S'high'
p3251
aS'vhigh'
p3252
ag59
ag59
aS'small'
p3253
aS'med'
p3254
aS'unacc'
p3255
aa(lp3256
S'high'
p3257
aS'vhigh'
p3258
ag59
ag59
aS'small'
p3259
aS'high'
p3260
aS'unacc'
p3261
aa(lp3262
S'high'
p3263
aS'vhigh'
p3264
ag59
ag59
aS'med'
p3265
aS'low'
p3266
aS'unacc'
p3267
aa(lp3268
S'high'
p3269
aS'vhigh'
p3270
ag59
ag59
aS'med'
p3271
aS'med'
p3272
aS'unacc'
p3273
aa(lp3274
S'high'
p3275
aS'vhigh'
p3276
ag59
ag59
aS'med'
p3277
aS'high'
p3278
aS'unacc'
p3279
aa(lp3280
S'high'
p3281
aS'vhigh'
p3282
ag59
ag59
aS'big'
p3283
aS'low'
p3284
aS'unacc'
p3285
aa(lp3286
S'high'
p3287
aS'vhigh'
p3288
ag59
ag59
aS'big'
p3289
aS'med'
p3290
aS'unacc'
p3291
aa(lp3292
S'high'
p3293
aS'vhigh'
p3294
ag59
ag59
aS'big'
p3295
aS'high'
p3296
aS'unacc'
p3297
aa(lp3298
S'high'
p3299
aS'vhigh'
p3300
ag59
aS'more'
p3301
aS'small'
p3302
aS'low'
p3303
aS'unacc'
p3304
aa(lp3305
S'high'
p3306
aS'vhigh'
p3307
ag59
aS'more'
p3308
aS'small'
p3309
aS'med'
p3310
aS'unacc'
p3311
aa(lp3312
S'high'
p3313
aS'vhigh'
p3314
ag59
aS'more'
p3315
aS'small'
p3316
aS'high'
p3317
aS'unacc'
p3318
aa(lp3319
S'high'
p3320
aS'vhigh'
p3321
ag59
aS'more'
p3322
aS'med'
p3323
aS'low'
p3324
aS'unacc'
p3325
aa(lp3326
S'high'
p3327
aS'vhigh'
p3328
ag59
aS'more'
p3329
aS'med'
p3330
aS'med'
p3331
aS'unacc'
p3332
aa(lp3333
S'high'
p3334
aS'vhigh'
p3335
ag59
aS'more'
p3336
aS'med'
p3337
aS'high'
p3338
aS'unacc'
p3339
aa(lp3340
S'high'
p3341
aS'vhigh'
p3342
ag59
aS'more'
p3343
aS'big'
p3344
aS'low'
p3345
aS'unacc'
p3346
aa(lp3347
S'high'
p3348
aS'vhigh'
p3349
ag59
aS'more'
p3350
aS'big'
p3351
aS'med'
p3352
aS'unacc'
p3353
aa(lp3354
S'high'
p3355
aS'vhigh'
p3356
ag59
aS'more'
p3357
aS'big'
p3358
aS'high'
p3359
aS'unacc'
p3360
aa(lp3361
S'high'
p3362
aS'vhigh'
p3363
aS'5more'
p3364
ag4
aS'small'
p3365
aS'low'
p3366
aS'unacc'
p3367
aa(lp3368
S'high'
p3369
aS'vhigh'
p3370
aS'5more'
p3371
ag4
aS'small'
p3372
aS'med'
p3373
aS'unacc'
p3374
aa(lp3375
S'high'
p3376
aS'vhigh'
p3377
aS'5more'
p3378
ag4
aS'small'
p3379
aS'high'
p3380
aS'unacc'
p3381
aa(lp3382
S'high'
p3383
aS'vhigh'
p3384
aS'5more'
p3385
ag4
aS'med'
p3386
aS'low'
p3387
aS'unacc'
p3388
aa(lp3389
S'high'
p3390
aS'vhigh'
p3391
aS'5more'
p3392
ag4
aS'med'
p3393
aS'med'
p3394
aS'unacc'
p3395
aa(lp3396
S'high'
p3397
aS'vhigh'
p3398
aS'5more'
p3399
ag4
aS'med'
p3400
aS'high'
p3401
aS'unacc'
p3402
aa(lp3403
S'high'
p3404
aS'vhigh'
p3405
aS'5more'
p3406
ag4
aS'big'
p3407
aS'low'
p3408
aS'unacc'
p3409
aa(lp3410
S'high'
p3411
aS'vhigh'
p3412
aS'5more'
p3413
ag4
aS'big'
p3414
aS'med'
p3415
aS'unacc'
p3416
aa(lp3417
S'high'
p3418
aS'vhigh'
p3419
aS'5more'
p3420
ag4
aS'big'
p3421
aS'high'
p3422
aS'unacc'
p3423
aa(lp3424
S'high'
p3425
aS'vhigh'
p3426
aS'5more'
p3427
ag59
aS'small'
p3428
aS'low'
p3429
aS'unacc'
p3430
aa(lp3431
S'high'
p3432
aS'vhigh'
p3433
aS'5more'
p3434
ag59
aS'small'
p3435
aS'med'
p3436
aS'unacc'
p3437
aa(lp3438
S'high'
p3439
aS'vhigh'
p3440
aS'5more'
p3441
ag59
aS'small'
p3442
aS'high'
p3443
aS'unacc'
p3444
aa(lp3445
S'high'
p3446
aS'vhigh'
p3447
aS'5more'
p3448
ag59
aS'med'
p3449
aS'low'
p3450
aS'unacc'
p3451
aa(lp3452
S'high'
p3453
aS'vhigh'
p3454
aS'5more'
p3455
ag59
aS'med'
p3456
aS'med'
p3457
aS'unacc'
p3458
aa(lp3459
S'high'
p3460
aS'vhigh'
p3461
aS'5more'
p3462
ag59
aS'med'
p3463
aS'high'
p3464
aS'unacc'
p3465
aa(lp3466
S'high'
p3467
aS'vhigh'
p3468
aS'5more'
p3469
ag59
aS'big'
p3470
aS'low'
p3471
aS'unacc'
p3472
aa(lp3473
S'high'
p3474
aS'vhigh'
p3475
aS'5more'
p3476
ag59
aS'big'
p3477
aS'med'
p3478
aS'unacc'
p3479
aa(lp3480
S'high'
p3481
aS'vhigh'
p3482
aS'5more'
p3483
ag59
aS'big'
p3484
aS'high'
p3485
aS'unacc'
p3486
aa(lp3487
S'high'
p3488
aS'vhigh'
p3489
aS'5more'
p3490
aS'more'
p3491
aS'small'
p3492
aS'low'
p3493
aS'unacc'
p3494
aa(lp3495
S'high'
p3496
aS'vhigh'
p3497
aS'5more'
p3498
aS'more'
p3499
aS'small'
p3500
aS'med'
p3501
aS'unacc'
p3502
aa(lp3503
S'high'
p3504
aS'vhigh'
p3505
aS'5more'
p3506
aS'more'
p3507
aS'small'
p3508
aS'high'
p3509
aS'unacc'
p3510
aa(lp3511
S'high'
p3512
aS'vhigh'
p3513
aS'5more'
p3514
aS'more'
p3515
aS'med'
p3516
aS'low'
p3517
aS'unacc'
p3518
aa(lp3519
S'high'
p3520
aS'vhigh'
p3521
aS'5more'
p3522
aS'more'
p3523
aS'med'
p3524
aS'med'
p3525
aS'unacc'
p3526
aa(lp3527
S'high'
p3528
aS'vhigh'
p3529
aS'5more'
p3530
aS'more'
p3531
aS'med'
p3532
aS'high'
p3533
aS'unacc'
p3534
aa(lp3535
S'high'
p3536
aS'vhigh'
p3537
aS'5more'
p3538
aS'more'
p3539
aS'big'
p3540
aS'low'
p3541
aS'unacc'
p3542
aa(lp3543
S'high'
p3544
aS'vhigh'
p3545
aS'5more'
p3546
aS'more'
p3547
aS'big'
p3548
aS'med'
p3549
aS'unacc'
p3550
aa(lp3551
S'high'
p3552
aS'vhigh'
p3553
aS'5more'
p3554
aS'more'
p3555
aS'big'
p3556
aS'high'
p3557
aS'unacc'
p3558
aa(lp3559
S'high'
p3560
aS'high'
p3561
ag4
ag4
aS'small'
p3562
aS'low'
p3563
aS'unacc'
p3564
aa(lp3565
S'high'
p3566
aS'high'
p3567
ag4
ag4
aS'small'
p3568
aS'med'
p3569
aS'unacc'
p3570
aa(lp3571
S'high'
p3572
aS'high'
p3573
ag4
ag4
aS'small'
p3574
aS'high'
p3575
aS'unacc'
p3576
aa(lp3577
S'high'
p3578
aS'high'
p3579
ag4
ag4
aS'med'
p3580
aS'low'
p3581
aS'unacc'
p3582
aa(lp3583
S'high'
p3584
aS'high'
p3585
ag4
ag4
aS'med'
p3586
aS'med'
p3587
aS'unacc'
p3588
aa(lp3589
S'high'
p3590
aS'high'
p3591
ag4
ag4
aS'med'
p3592
aS'high'
p3593
aS'unacc'
p3594
aa(lp3595
S'high'
p3596
aS'high'
p3597
ag4
ag4
aS'big'
p3598
aS'low'
p3599
aS'unacc'
p3600
aa(lp3601
S'high'
p3602
aS'high'
p3603
ag4
ag4
aS'big'
p3604
aS'med'
p3605
aS'unacc'
p3606
aa(lp3607
S'high'
p3608
aS'high'
p3609
ag4
ag4
aS'big'
p3610
aS'high'
p3611
aS'unacc'
p3612
aa(lp3613
S'high'
p3614
aS'high'
p3615
ag4
ag59
aS'small'
p3616
aS'low'
p3617
aS'unacc'
p3618
aa(lp3619
S'high'
p3620
aS'high'
p3621
ag4
ag59
aS'small'
p3622
aS'med'
p3623
aS'unacc'
p3624
aa(lp3625
S'high'
p3626
aS'high'
p3627
ag4
ag59
aS'small'
p3628
aS'high'
p3629
aS'acc'
p3630
aa(lp3631
S'high'
p3632
aS'high'
p3633
ag4
ag59
aS'med'
p3634
aS'low'
p3635
aS'unacc'
p3636
aa(lp3637
S'high'
p3638
aS'high'
p3639
ag4
ag59
aS'med'
p3640
aS'med'
p3641
aS'unacc'
p3642
aa(lp3643
S'high'
p3644
aS'high'
p3645
ag4
ag59
aS'med'
p3646
aS'high'
p3647
aS'acc'
p3648
aa(lp3649
S'high'
p3650
aS'high'
p3651
ag4
ag59
aS'big'
p3652
aS'low'
p3653
aS'unacc'
p3654
aa(lp3655
S'high'
p3656
aS'high'
p3657
ag4
ag59
aS'big'
p3658
aS'med'
p3659
aS'acc'
p3660
aa(lp3661
S'high'
p3662
aS'high'
p3663
ag4
ag59
aS'big'
p3664
aS'high'
p3665
aS'acc'
p3666
aa(lp3667
S'high'
p3668
aS'high'
p3669
ag4
aS'more'
p3670
aS'small'
p3671
aS'low'
p3672
aS'unacc'
p3673
aa(lp3674
S'high'
p3675
aS'high'
p3676
ag4
aS'more'
p3677
aS'small'
p3678
aS'med'
p3679
aS'unacc'
p3680
aa(lp3681
S'high'
p3682
aS'high'
p3683
ag4
aS'more'
p3684
aS'small'
p3685
aS'high'
p3686
aS'unacc'
p3687
aa(lp3688
S'high'
p3689
aS'high'
p3690
ag4
aS'more'
p3691
aS'med'
p3692
aS'low'
p3693
aS'unacc'
p3694
aa(lp3695
S'high'
p3696
aS'high'
p3697
ag4
aS'more'
p3698
aS'med'
p3699
aS'med'
p3700
aS'unacc'
p3701
aa(lp3702
S'high'
p3703
aS'high'
p3704
ag4
aS'more'
p3705
aS'med'
p3706
aS'high'
p3707
aS'acc'
p3708
aa(lp3709
S'high'
p3710
aS'high'
p3711
ag4
aS'more'
p3712
aS'big'
p3713
aS'low'
p3714
aS'unacc'
p3715
aa(lp3716
S'high'
p3717
aS'high'
p3718
ag4
aS'more'
p3719
aS'big'
p3720
aS'med'
p3721
aS'acc'
p3722
aa(lp3723
S'high'
p3724
aS'high'
p3725
ag4
aS'more'
p3726
aS'big'
p3727
aS'high'
p3728
aS'acc'
p3729
aa(lp3730
S'high'
p3731
aS'high'
p3732
ag177
ag4
aS'small'
p3733
aS'low'
p3734
aS'unacc'
p3735
aa(lp3736
S'high'
p3737
aS'high'
p3738
ag177
ag4
aS'small'
p3739
aS'med'
p3740
aS'unacc'
p3741
aa(lp3742
S'high'
p3743
aS'high'
p3744
ag177
ag4
aS'small'
p3745
aS'high'
p3746
aS'unacc'
p3747
aa(lp3748
S'high'
p3749
aS'high'
p3750
ag177
ag4
aS'med'
p3751
aS'low'
p3752
aS'unacc'
p3753
aa(lp3754
S'high'
p3755
aS'high'
p3756
ag177
ag4
aS'med'
p3757
aS'med'
p3758
aS'unacc'
p3759
aa(lp3760
S'high'
p3761
aS'high'
p3762
ag177
ag4
aS'med'
p3763
aS'high'
p3764
aS'unacc'
p3765
aa(lp3766
S'high'
p3767
aS'high'
p3768
ag177
ag4
aS'big'
p3769
aS'low'
p3770
aS'unacc'
p3771
aa(lp3772
S'high'
p3773
aS'high'
p3774
ag177
ag4
aS'big'
p3775
aS'med'
p3776
aS'unacc'
p3777
aa(lp3778
S'high'
p3779
aS'high'
p3780
ag177
ag4
aS'big'
p3781
aS'high'
p3782
aS'unacc'
p3783
aa(lp3784
S'high'
p3785
aS'high'
p3786
ag177
ag59
aS'small'
p3787
aS'low'
p3788
aS'unacc'
p3789
aa(lp3790
S'high'
p3791
aS'high'
p3792
ag177
ag59
aS'small'
p3793
aS'med'
p3794
aS'unacc'
p3795
aa(lp3796
S'high'
p3797
aS'high'
p3798
ag177
ag59
aS'small'
p3799
aS'high'
p3800
aS'acc'
p3801
aa(lp3802
S'high'
p3803
aS'high'
p3804
ag177
ag59
aS'med'
p3805
aS'low'
p3806
aS'unacc'
p3807
aa(lp3808
S'high'
p3809
aS'high'
p3810
ag177
ag59
aS'med'
p3811
aS'med'
p3812
aS'unacc'
p3813
aa(lp3814
S'high'
p3815
aS'high'
p3816
ag177
ag59
aS'med'
p3817
aS'high'
p3818
aS'acc'
p3819
aa(lp3820
S'high'
p3821
aS'high'
p3822
ag177
ag59
aS'big'
p3823
aS'low'
p3824
aS'unacc'
p3825
aa(lp3826
S'high'
p3827
aS'high'
p3828
ag177
ag59
aS'big'
p3829
aS'med'
p3830
aS'acc'
p3831
aa(lp3832
S'high'
p3833
aS'high'
p3834
ag177
ag59
aS'big'
p3835
aS'high'
p3836
aS'acc'
p3837
aa(lp3838
S'high'
p3839
aS'high'
p3840
ag177
aS'more'
p3841
aS'small'
p3842
aS'low'
p3843
aS'unacc'
p3844
aa(lp3845
S'high'
p3846
aS'high'
p3847
ag177
aS'more'
p3848
aS'small'
p3849
aS'med'
p3850
aS'unacc'
p3851
aa(lp3852
S'high'
p3853
aS'high'
p3854
ag177
aS'more'
p3855
aS'small'
p3856
aS'high'
p3857
aS'acc'
p3858
aa(lp3859
S'high'
p3860
aS'high'
p3861
ag177
aS'more'
p3862
aS'med'
p3863
aS'low'
p3864
aS'unacc'
p3865
aa(lp3866
S'high'
p3867
aS'high'
p3868
ag177
aS'more'
p3869
aS'med'
p3870
aS'med'
p3871
aS'acc'
p3872
aa(lp3873
S'high'
p3874
aS'high'
p3875
ag177
aS'more'
p3876
aS'med'
p3877
aS'high'
p3878
aS'acc'
p3879
aa(lp3880
S'high'
p3881
aS'high'
p3882
ag177
aS'more'
p3883
aS'big'
p3884
aS'low'
p3885
aS'unacc'
p3886
aa(lp3887
S'high'
p3888
aS'high'
p3889
ag177
aS'more'
p3890
aS'big'
p3891
aS'med'
p3892
aS'acc'
p3893
aa(lp3894
S'high'
p3895
aS'high'
p3896
ag177
aS'more'
p3897
aS'big'
p3898
aS'high'
p3899
aS'acc'
p3900
aa(lp3901
S'high'
p3902
aS'high'
p3903
ag59
ag4
aS'small'
p3904
aS'low'
p3905
aS'unacc'
p3906
aa(lp3907
S'high'
p3908
aS'high'
p3909
ag59
ag4
aS'small'
p3910
aS'med'
p3911
aS'unacc'
p3912
aa(lp3913
S'high'
p3914
aS'high'
p3915
ag59
ag4
aS'small'
p3916
aS'high'
p3917
aS'unacc'
p3918
aa(lp3919
S'high'
p3920
aS'high'
p3921
ag59
ag4
aS'med'
p3922
aS'low'
p3923
aS'unacc'
p3924
aa(lp3925
S'high'
p3926
aS'high'
p3927
ag59
ag4
aS'med'
p3928
aS'med'
p3929
aS'unacc'
p3930
aa(lp3931
S'high'
p3932
aS'high'
p3933
ag59
ag4
aS'med'
p3934
aS'high'
p3935
aS'unacc'
p3936
aa(lp3937
S'high'
p3938
aS'high'
p3939
ag59
ag4
aS'big'
p3940
aS'low'
p3941
aS'unacc'
p3942
aa(lp3943
S'high'
p3944
aS'high'
p3945
ag59
ag4
aS'big'
p3946
aS'med'
p3947
aS'unacc'
p3948
aa(lp3949
S'high'
p3950
aS'high'
p3951
ag59
ag4
aS'big'
p3952
aS'high'
p3953
aS'unacc'
p3954
aa(lp3955
S'high'
p3956
aS'high'
p3957
ag59
ag59
aS'small'
p3958
aS'low'
p3959
aS'unacc'
p3960
aa(lp3961
S'high'
p3962
aS'high'
p3963
ag59
ag59
aS'small'
p3964
aS'med'
p3965
aS'unacc'
p3966
aa(lp3967
S'high'
p3968
aS'high'
p3969
ag59
ag59
aS'small'
p3970
aS'high'
p3971
aS'acc'
p3972
aa(lp3973
S'high'
p3974
aS'high'
p3975
ag59
ag59
aS'med'
p3976
aS'low'
p3977
aS'unacc'
p3978
aa(lp3979
S'high'
p3980
aS'high'
p3981
ag59
ag59
aS'med'
p3982
aS'med'
p3983
aS'acc'
p3984
aa(lp3985
S'high'
p3986
aS'high'
p3987
ag59
ag59
aS'med'
p3988
aS'high'
p3989
aS'acc'
p3990
aa(lp3991
S'high'
p3992
aS'high'
p3993
ag59
ag59
aS'big'
p3994
aS'low'
p3995
aS'unacc'
p3996
aa(lp3997
S'high'
p3998
aS'high'
p3999
ag59
ag59
aS'big'
p4000
aS'med'
p4001
aS'acc'
p4002
aa(lp4003
S'high'
p4004
aS'high'
p4005
ag59
ag59
aS'big'
p4006
aS'high'
p4007
aS'acc'
p4008
aa(lp4009
S'high'
p4010
aS'high'
p4011
ag59
aS'more'
p4012
aS'small'
p4013
aS'low'
p4014
aS'unacc'
p4015
aa(lp4016
S'high'
p4017
aS'high'
p4018
ag59
aS'more'
p4019
aS'small'
p4020
aS'med'
p4021
aS'unacc'
p4022
aa(lp4023
S'high'
p4024
aS'high'
p4025
ag59
aS'more'
p4026
aS'small'
p4027
aS'high'
p4028
aS'acc'
p4029
aa(lp4030
S'high'
p4031
aS'high'
p4032
ag59
aS'more'
p4033
aS'med'
p4034
aS'low'
p4035
aS'unacc'
p4036
aa(lp4037
S'high'
p4038
aS'high'
p4039
ag59
aS'more'
p4040
aS'med'
p4041
aS'med'
p4042
aS'acc'
p4043
aa(lp4044
S'high'
p4045
aS'high'
p4046
ag59
aS'more'
p4047
aS'med'
p4048
aS'high'
p4049
aS'acc'
p4050
aa(lp4051
S'high'
p4052
aS'high'
p4053
ag59
aS'more'
p4054
aS'big'
p4055
aS'low'
p4056
aS'unacc'
p4057
aa(lp4058
S'high'
p4059
aS'high'
p4060
ag59
aS'more'
p4061
aS'big'
p4062
aS'med'
p4063
aS'acc'
p4064
aa(lp4065
S'high'
p4066
aS'high'
p4067
ag59
aS'more'
p4068
aS'big'
p4069
aS'high'
p4070
aS'acc'
p4071
aa(lp4072
S'high'
p4073
aS'high'
p4074
aS'5more'
p4075
ag4
aS'small'
p4076
aS'low'
p4077
aS'unacc'
p4078
aa(lp4079
S'high'
p4080
aS'high'
p4081
aS'5more'
p4082
ag4
aS'small'
p4083
aS'med'
p4084
aS'unacc'
p4085
aa(lp4086
S'high'
p4087
aS'high'
p4088
aS'5more'
p4089
ag4
aS'small'
p4090
aS'high'
p4091
aS'unacc'
p4092
aa(lp4093
S'high'
p4094
aS'high'
p4095
aS'5more'
p4096
ag4
aS'med'
p4097
aS'low'
p4098
aS'unacc'
p4099
aa(lp4100
S'high'
p4101
aS'high'
p4102
aS'5more'
p4103
ag4
aS'med'
p4104
aS'med'
p4105
aS'unacc'
p4106
aa(lp4107
S'high'
p4108
aS'high'
p4109
aS'5more'
p4110
ag4
aS'med'
p4111
aS'high'
p4112
aS'unacc'
p4113
aa(lp4114
S'high'
p4115
aS'high'
p4116
aS'5more'
p4117
ag4
aS'big'
p4118
aS'low'
p4119
aS'unacc'
p4120
aa(lp4121
S'high'
p4122
aS'high'
p4123
aS'5more'
p4124
ag4
aS'big'
p4125
aS'med'
p4126
aS'unacc'
p4127
aa(lp4128
S'high'
p4129
aS'high'
p4130
aS'5more'
p4131
ag4
aS'big'
p4132
aS'high'
p4133
aS'unacc'
p4134
aa(lp4135
S'high'
p4136
aS'high'
p4137
aS'5more'
p4138
ag59
aS'small'
p4139
aS'low'
p4140
aS'unacc'
p4141
aa(lp4142
S'high'
p4143
aS'high'
p4144
aS'5more'
p4145
ag59
aS'small'
p4146
aS'med'
p4147
aS'unacc'
p4148
aa(lp4149
S'high'
p4150
aS'high'
p4151
aS'5more'
p4152
ag59
aS'small'
p4153
aS'high'
p4154
aS'acc'
p4155
aa(lp4156
S'high'
p4157
aS'high'
p4158
aS'5more'
p4159
ag59
aS'med'
p4160
aS'low'
p4161
aS'unacc'
p4162
aa(lp4163
S'high'
p4164
aS'high'
p4165
aS'5more'
p4166
ag59
aS'med'
p4167
aS'med'
p4168
aS'acc'
p4169
aa(lp4170
S'high'
p4171
aS'high'
p4172
aS'5more'
p4173
ag59
aS'med'
p4174
aS'high'
p4175
aS'acc'
p4176
aa(lp4177
S'high'
p4178
aS'high'
p4179
aS'5more'
p4180
ag59
aS'big'
p4181
aS'low'
p4182
aS'unacc'
p4183
aa(lp4184
S'high'
p4185
aS'high'
p4186
aS'5more'
p4187
ag59
aS'big'
p4188
aS'med'
p4189
aS'acc'
p4190
aa(lp4191
S'high'
p4192
aS'high'
p4193
aS'5more'
p4194
ag59
aS'big'
p4195
aS'high'
p4196
aS'acc'
p4197
aa(lp4198
S'high'
p4199
aS'high'
p4200
aS'5more'
p4201
aS'more'
p4202
aS'small'
p4203
aS'low'
p4204
aS'unacc'
p4205
aa(lp4206
S'high'
p4207
aS'high'
p4208
aS'5more'
p4209
aS'more'
p4210
aS'small'
p4211
aS'med'
p4212
aS'unacc'
p4213
aa(lp4214
S'high'
p4215
aS'high'
p4216
aS'5more'
p4217
aS'more'
p4218
aS'small'
p4219
aS'high'
p4220
aS'acc'
p4221
aa(lp4222
S'high'
p4223
aS'high'
p4224
aS'5more'
p4225
aS'more'
p4226
aS'med'
p4227
aS'low'
p4228
aS'unacc'
p4229
aa(lp4230
S'high'
p4231
aS'high'
p4232
aS'5more'
p4233
aS'more'
p4234
aS'med'
p4235
aS'med'
p4236
aS'acc'
p4237
aa(lp4238
S'high'
p4239
aS'high'
p4240
aS'5more'
p4241
aS'more'
p4242
aS'med'
p4243
aS'high'
p4244
aS'acc'
p4245
aa(lp4246
S'high'
p4247
aS'high'
p4248
aS'5more'
p4249
aS'more'
p4250
aS'big'
p4251
aS'low'
p4252
aS'unacc'
p4253
aa(lp4254
S'high'
p4255
aS'high'
p4256
aS'5more'
p4257
aS'more'
p4258
aS'big'
p4259
aS'med'
p4260
aS'acc'
p4261
aa(lp4262
S'high'
p4263
aS'high'
p4264
aS'5more'
p4265
aS'more'
p4266
aS'big'
p4267
aS'high'
p4268
aS'acc'
p4269
aa(lp4270
S'high'
p4271
aS'med'
p4272
ag4
ag4
aS'small'
p4273
aS'low'
p4274
aS'unacc'
p4275
aa(lp4276
S'high'
p4277
aS'med'
p4278
ag4
ag4
aS'small'
p4279
aS'med'
p4280
aS'unacc'
p4281
aa(lp4282
S'high'
p4283
aS'med'
p4284
ag4
ag4
aS'small'
p4285
aS'high'
p4286
aS'unacc'
p4287
aa(lp4288
S'high'
p4289
aS'med'
p4290
ag4
ag4
aS'med'
p4291
aS'low'
p4292
aS'unacc'
p4293
aa(lp4294
S'high'
p4295
aS'med'
p4296
ag4
ag4
aS'med'
p4297
aS'med'
p4298
aS'unacc'
p4299
aa(lp4300
S'high'
p4301
aS'med'
p4302
ag4
ag4
aS'med'
p4303
aS'high'
p4304
aS'unacc'
p4305
aa(lp4306
S'high'
p4307
aS'med'
p4308
ag4
ag4
aS'big'
p4309
aS'low'
p4310
aS'unacc'
p4311
aa(lp4312
S'high'
p4313
aS'med'
p4314
ag4
ag4
aS'big'
p4315
aS'med'
p4316
aS'unacc'
p4317
aa(lp4318
S'high'
p4319
aS'med'
p4320
ag4
ag4
aS'big'
p4321
aS'high'
p4322
aS'unacc'
p4323
aa(lp4324
S'high'
p4325
aS'med'
p4326
ag4
ag59
aS'small'
p4327
aS'low'
p4328
aS'unacc'
p4329
aa(lp4330
S'high'
p4331
aS'med'
p4332
ag4
ag59
aS'small'
p4333
aS'med'
p4334
aS'unacc'
p4335
aa(lp4336
S'high'
p4337
aS'med'
p4338
ag4
ag59
aS'small'
p4339
aS'high'
p4340
aS'acc'
p4341
aa(lp4342
S'high'
p4343
aS'med'
p4344
ag4
ag59
aS'med'
p4345
aS'low'
p4346
aS'unacc'
p4347
aa(lp4348
S'high'
p4349
aS'med'
p4350
ag4
ag59
aS'med'
p4351
aS'med'
p4352
aS'unacc'
p4353
aa(lp4354
S'high'
p4355
aS'med'
p4356
ag4
ag59
aS'med'
p4357
aS'high'
p4358
aS'acc'
p4359
aa(lp4360
S'high'
p4361
aS'med'
p4362
ag4
ag59
aS'big'
p4363
aS'low'
p4364
aS'unacc'
p4365
aa(lp4366
S'high'
p4367
aS'med'
p4368
ag4
ag59
aS'big'
p4369
aS'med'
p4370
aS'acc'
p4371
aa(lp4372
S'high'
p4373
aS'med'
p4374
ag4
ag59
aS'big'
p4375
aS'high'
p4376
aS'acc'
p4377
aa(lp4378
S'high'
p4379
aS'med'
p4380
ag4
aS'more'
p4381
aS'small'
p4382
aS'low'
p4383
aS'unacc'
p4384
aa(lp4385
S'high'
p4386
aS'med'
p4387
ag4
aS'more'
p4388
aS'small'
p4389
aS'med'
p4390
aS'unacc'
p4391
aa(lp4392
S'high'
p4393
aS'med'
p4394
ag4
aS'more'
p4395
aS'small'
p4396
aS'high'
p4397
aS'unacc'
p4398
aa(lp4399
S'high'
p4400
aS'med'
p4401
ag4
aS'more'
p4402
aS'med'
p4403
aS'low'
p4404
aS'unacc'
p4405
aa(lp4406
S'high'
p4407
aS'med'
p4408
ag4
aS'more'
p4409
aS'med'
p4410
aS'med'
p4411
aS'unacc'
p4412
aa(lp4413
S'high'
p4414
aS'med'
p4415
ag4
aS'more'
p4416
aS'med'
p4417
aS'high'
p4418
aS'acc'
p4419
aa(lp4420
S'high'
p4421
aS'med'
p4422
ag4
aS'more'
p4423
aS'big'
p4424
aS'low'
p4425
aS'unacc'
p4426
aa(lp4427
S'high'
p4428
aS'med'
p4429
ag4
aS'more'
p4430
aS'big'
p4431
aS'med'
p4432
aS'acc'
p4433
aa(lp4434
S'high'
p4435
aS'med'
p4436
ag4
aS'more'
p4437
aS'big'
p4438
aS'high'
p4439
aS'acc'
p4440
aa(lp4441
S'high'
p4442
aS'med'
p4443
ag177
ag4
aS'small'
p4444
aS'low'
p4445
aS'unacc'
p4446
aa(lp4447
S'high'
p4448
aS'med'
p4449
ag177
ag4
aS'small'
p4450
aS'med'
p4451
aS'unacc'
p4452
aa(lp4453
S'high'
p4454
aS'med'
p4455
ag177
ag4
aS'small'
p4456
aS'high'
p4457
aS'unacc'
p4458
aa(lp4459
S'high'
p4460
aS'med'
p4461
ag177
ag4
aS'med'
p4462
aS'low'
p4463
aS'unacc'
p4464
aa(lp4465
S'high'
p4466
aS'med'
p4467
ag177
ag4
aS'med'
p4468
aS'med'
p4469
aS'unacc'
p4470
aa(lp4471
S'high'
p4472
aS'med'
p4473
ag177
ag4
aS'med'
p4474
aS'high'
p4475
aS'unacc'
p4476
aa(lp4477
S'high'
p4478
aS'med'
p4479
ag177
ag4
aS'big'
p4480
aS'low'
p4481
aS'unacc'
p4482
aa(lp4483
S'high'
p4484
aS'med'
p4485
ag177
ag4
aS'big'
p4486
aS'med'
p4487
aS'unacc'
p4488
aa(lp4489
S'high'
p4490
aS'med'
p4491
ag177
ag4
aS'big'
p4492
aS'high'
p4493
aS'unacc'
p4494
aa(lp4495
S'high'
p4496
aS'med'
p4497
ag177
ag59
aS'small'
p4498
aS'low'
p4499
aS'unacc'
p4500
aa(lp4501
S'high'
p4502
aS'med'
p4503
ag177
ag59
aS'small'
p4504
aS'med'
p4505
aS'unacc'
p4506
aa(lp4507
S'high'
p4508
aS'med'
p4509
ag177
ag59
aS'small'
p4510
aS'high'
p4511
aS'acc'
p4512
aa(lp4513
S'high'
p4514
aS'med'
p4515
ag177
ag59
aS'med'
p4516
aS'low'
p4517
aS'unacc'
p4518
aa(lp4519
S'high'
p4520
aS'med'
p4521
ag177
ag59
aS'med'
p4522
aS'med'
p4523
aS'unacc'
p4524
aa(lp4525
S'high'
p4526
aS'med'
p4527
ag177
ag59
aS'med'
p4528
aS'high'
p4529
aS'acc'
p4530
aa(lp4531
S'high'
p4532
aS'med'
p4533
ag177
ag59
aS'big'
p4534
aS'low'
p4535
aS'unacc'
p4536
aa(lp4537
S'high'
p4538
aS'med'
p4539
ag177
ag59
aS'big'
p4540
aS'med'
p4541
aS'acc'
p4542
aa(lp4543
S'high'
p4544
aS'med'
p4545
ag177
ag59
aS'big'
p4546
aS'high'
p4547
aS'acc'
p4548
aa(lp4549
S'high'
p4550
aS'med'
p4551
ag177
aS'more'
p4552
aS'small'
p4553
aS'low'
p4554
aS'unacc'
p4555
aa(lp4556
S'high'
p4557
aS'med'
p4558
ag177
aS'more'
p4559
aS'small'
p4560
aS'med'
p4561
aS'unacc'
p4562
aa(lp4563
S'high'
p4564
aS'med'
p4565
ag177
aS'more'
p4566
aS'small'
p4567
aS'high'
p4568
aS'acc'
p4569
aa(lp4570
S'high'
p4571
aS'med'
p4572
ag177
aS'more'
p4573
aS'med'
p4574
aS'low'
p4575
aS'unacc'
p4576
aa(lp4577
S'high'
p4578
aS'med'
p4579
ag177
aS'more'
p4580
aS'med'
p4581
aS'med'
p4582
aS'acc'
p4583
aa(lp4584
S'high'
p4585
aS'med'
p4586
ag177
aS'more'
p4587
aS'med'
p4588
aS'high'
p4589
aS'acc'
p4590
aa(lp4591
S'high'
p4592
aS'med'
p4593
ag177
aS'more'
p4594
aS'big'
p4595
aS'low'
p4596
aS'unacc'
p4597
aa(lp4598
S'high'
p4599
aS'med'
p4600
ag177
aS'more'
p4601
aS'big'
p4602
aS'med'
p4603
aS'acc'
p4604
aa(lp4605
S'high'
p4606
aS'med'
p4607
ag177
aS'more'
p4608
aS'big'
p4609
aS'high'
p4610
aS'acc'
p4611
aa(lp4612
S'high'
p4613
aS'med'
p4614
ag59
ag4
aS'small'
p4615
aS'low'
p4616
aS'unacc'
p4617
aa(lp4618
S'high'
p4619
aS'med'
p4620
ag59
ag4
aS'small'
p4621
aS'med'
p4622
aS'unacc'
p4623
aa(lp4624
S'high'
p4625
aS'med'
p4626
ag59
ag4
aS'small'
p4627
aS'high'
p4628
aS'unacc'
p4629
aa(lp4630
S'high'
p4631
aS'med'
p4632
ag59
ag4
aS'med'
p4633
aS'low'
p4634
aS'unacc'
p4635
aa(lp4636
S'high'
p4637
aS'med'
p4638
ag59
ag4
aS'med'
p4639
aS'med'
p4640
aS'unacc'
p4641
aa(lp4642
S'high'
p4643
aS'med'
p4644
ag59
ag4
aS'med'
p4645
aS'high'
p4646
aS'unacc'
p4647
aa(lp4648
S'high'
p4649
aS'med'
p4650
ag59
ag4
aS'big'
p4651
aS'low'
p4652
aS'unacc'
p4653
aa(lp4654
S'high'
p4655
aS'med'
p4656
ag59
ag4
aS'big'
p4657
aS'med'
p4658
aS'unacc'
p4659
aa(lp4660
S'high'
p4661
aS'med'
p4662
ag59
ag4
aS'big'
p4663
aS'high'
p4664
aS'unacc'
p4665
aa(lp4666
S'high'
p4667
aS'med'
p4668
ag59
ag59
aS'small'
p4669
aS'low'
p4670
aS'unacc'
p4671
aa(lp4672
S'high'
p4673
aS'med'
p4674
ag59
ag59
aS'small'
p4675
aS'med'
p4676
aS'unacc'
p4677
aa(lp4678
S'high'
p4679
aS'med'
p4680
ag59
ag59
aS'small'
p4681
aS'high'
p4682
aS'acc'
p4683
aa(lp4684
S'high'
p4685
aS'med'
p4686
ag59
ag59
aS'med'
p4687
aS'low'
p4688
aS'unacc'
p4689
aa(lp4690
S'high'
p4691
aS'med'
p4692
ag59
ag59
aS'med'
p4693
aS'med'
p4694
aS'acc'
p4695
aa(lp4696
S'high'
p4697
aS'med'
p4698
ag59
ag59
aS'med'
p4699
aS'high'
p4700
aS'acc'
p4701
aa(lp4702
S'high'
p4703
aS'med'
p4704
ag59
ag59
aS'big'
p4705
aS'low'
p4706
aS'unacc'
p4707
aa(lp4708
S'high'
p4709
aS'med'
p4710
ag59
ag59
aS'big'
p4711
aS'med'
p4712
aS'acc'
p4713
aa(lp4714
S'high'
p4715
aS'med'
p4716
ag59
ag59
aS'big'
p4717
aS'high'
p4718
aS'acc'
p4719
aa(lp4720
S'high'
p4721
aS'med'
p4722
ag59
aS'more'
p4723
aS'small'
p4724
aS'low'
p4725
aS'unacc'
p4726
aa(lp4727
S'high'
p4728
aS'med'
p4729
ag59
aS'more'
p4730
aS'small'
p4731
aS'med'
p4732
aS'unacc'
p4733
aa(lp4734
S'high'
p4735
aS'med'
p4736
ag59
aS'more'
p4737
aS'small'
p4738
aS'high'
p4739
aS'acc'
p4740
aa(lp4741
S'high'
p4742
aS'med'
p4743
ag59
aS'more'
p4744
aS'med'
p4745
aS'low'
p4746
aS'unacc'
p4747
aa(lp4748
S'high'
p4749
aS'med'
p4750
ag59
aS'more'
p4751
aS'med'
p4752
aS'med'
p4753
aS'acc'
p4754
aa(lp4755
S'high'
p4756
aS'med'
p4757
ag59
aS'more'
p4758
aS'med'
p4759
aS'high'
p4760
aS'acc'
p4761
aa(lp4762
S'high'
p4763
aS'med'
p4764
ag59
aS'more'
p4765
aS'big'
p4766
aS'low'
p4767
aS'unacc'
p4768
aa(lp4769
S'high'
p4770
aS'med'
p4771
ag59
aS'more'
p4772
aS'big'
p4773
aS'med'
p4774
aS'acc'
p4775
aa(lp4776
S'high'
p4777
aS'med'
p4778
ag59
aS'more'
p4779
aS'big'
p4780
aS'high'
p4781
aS'acc'
p4782
aa(lp4783
S'high'
p4784
aS'med'
p4785
aS'5more'
p4786
ag4
aS'small'
p4787
aS'low'
p4788
aS'unacc'
p4789
aa(lp4790
S'high'
p4791
aS'med'
p4792
aS'5more'
p4793
ag4
aS'small'
p4794
aS'med'
p4795
aS'unacc'
p4796
aa(lp4797
S'high'
p4798
aS'med'
p4799
aS'5more'
p4800
ag4
aS'small'
p4801
aS'high'
p4802
aS'unacc'
p4803
aa(lp4804
S'high'
p4805
aS'med'
p4806
aS'5more'
p4807
ag4
aS'med'
p4808
aS'low'
p4809
aS'unacc'
p4810
aa(lp4811
S'high'
p4812
aS'med'
p4813
aS'5more'
p4814
ag4
aS'med'
p4815
aS'med'
p4816
aS'unacc'
p4817
aa(lp4818
S'high'
p4819
aS'med'
p4820
aS'5more'
p4821
ag4
aS'med'
p4822
aS'high'
p4823
aS'unacc'
p4824
aa(lp4825
S'high'
p4826
aS'med'
p4827
aS'5more'
p4828
ag4
aS'big'
p4829
aS'low'
p4830
aS'unacc'
p4831
aa(lp4832
S'high'
p4833
aS'med'
p4834
aS'5more'
p4835
ag4
aS'big'
p4836
aS'med'
p4837
aS'unacc'
p4838
aa(lp4839
S'high'
p4840
aS'med'
p4841
aS'5more'
p4842
ag4
aS'big'
p4843
aS'high'
p4844
aS'unacc'
p4845
aa(lp4846
S'high'
p4847
aS'med'
p4848
aS'5more'
p4849
ag59
aS'small'
p4850
aS'low'
p4851
aS'unacc'
p4852
aa(lp4853
S'high'
p4854
aS'med'
p4855
aS'5more'
p4856
ag59
aS'small'
p4857
aS'med'
p4858
aS'unacc'
p4859
aa(lp4860
S'high'
p4861
aS'med'
p4862
aS'5more'
p4863
ag59
aS'small'
p4864
aS'high'
p4865
aS'acc'
p4866
aa(lp4867
S'high'
p4868
aS'med'
p4869
aS'5more'
p4870
ag59
aS'med'
p4871
aS'low'
p4872
aS'unacc'
p4873
aa(lp4874
S'high'
p4875
aS'med'
p4876
aS'5more'
p4877
ag59
aS'med'
p4878
aS'med'
p4879
aS'acc'
p4880
aa(lp4881
S'high'
p4882
aS'med'
p4883
aS'5more'
p4884
ag59
aS'med'
p4885
aS'high'
p4886
aS'acc'
p4887
aa(lp4888
S'high'
p4889
aS'med'
p4890
aS'5more'
p4891
ag59
aS'big'
p4892
aS'low'
p4893
aS'unacc'
p4894
aa(lp4895
S'high'
p4896
aS'med'
p4897
aS'5more'
p4898
ag59
aS'big'
p4899
aS'med'
p4900
aS'acc'
p4901
aa(lp4902
S'high'
p4903
aS'med'
p4904
aS'5more'
p4905
ag59
aS'big'
p4906
aS'high'
p4907
aS'acc'
p4908
aa(lp4909
S'high'
p4910
aS'med'
p4911
aS'5more'
p4912
aS'more'
p4913
aS'small'
p4914
aS'low'
p4915
aS'unacc'
p4916
aa(lp4917
S'high'
p4918
aS'med'
p4919
aS'5more'
p4920
aS'more'
p4921
aS'small'
p4922
aS'med'
p4923
aS'unacc'
p4924
aa(lp4925
S'high'
p4926
aS'med'
p4927
aS'5more'
p4928
aS'more'
p4929
aS'small'
p4930
aS'high'
p4931
aS'acc'
p4932
aa(lp4933
S'high'
p4934
aS'med'
p4935
aS'5more'
p4936
aS'more'
p4937
aS'med'
p4938
aS'low'
p4939
aS'unacc'
p4940
aa(lp4941
S'high'
p4942
aS'med'
p4943
aS'5more'
p4944
aS'more'
p4945
aS'med'
p4946
aS'med'
p4947
aS'acc'
p4948
aa(lp4949
S'high'
p4950
aS'med'
p4951
aS'5more'
p4952
aS'more'
p4953
aS'med'
p4954
aS'high'
p4955
aS'acc'
p4956
aa(lp4957
S'high'
p4958
aS'med'
p4959
aS'5more'
p4960
aS'more'
p4961
aS'big'
p4962
aS'low'
p4963
aS'unacc'
p4964
aa(lp4965
S'high'
p4966
aS'med'
p4967
aS'5more'
p4968
aS'more'
p4969
aS'big'
p4970
aS'med'
p4971
aS'acc'
p4972
aa(lp4973
S'high'
p4974
aS'med'
p4975
aS'5more'
p4976
aS'more'
p4977
aS'big'
p4978
aS'high'
p4979
aS'acc'
p4980
aa(lp4981
S'high'
p4982
aS'low'
p4983
ag4
ag4
aS'small'
p4984
aS'low'
p4985
aS'unacc'
p4986
aa(lp4987
S'high'
p4988
aS'low'
p4989
ag4
ag4
aS'small'
p4990
aS'med'
p4991
aS'unacc'
p4992
aa(lp4993
S'high'
p4994
aS'low'
p4995
ag4
ag4
aS'small'
p4996
aS'high'
p4997
aS'unacc'
p4998
aa(lp4999
S'high'
p5000
aS'low'
p5001
ag4
ag4
aS'med'
p5002
aS'low'
p5003
aS'unacc'
p5004
aa(lp5005
S'high'
p5006
aS'low'
p5007
ag4
ag4
aS'med'
p5008
aS'med'
p5009
aS'unacc'
p5010
aa(lp5011
S'high'
p5012
aS'low'
p5013
ag4
ag4
aS'med'
p5014
aS'high'
p5015
aS'unacc'
p5016
aa(lp5017
S'high'
p5018
aS'low'
p5019
ag4
ag4
aS'big'
p5020
aS'low'
p5021
aS'unacc'
p5022
aa(lp5023
S'high'
p5024
aS'low'
p5025
ag4
ag4
aS'big'
p5026
aS'med'
p5027
aS'unacc'
p5028
aa(lp5029
S'high'
p5030
aS'low'
p5031
ag4
ag4
aS'big'
p5032
aS'high'
p5033
aS'unacc'
p5034
aa(lp5035
S'high'
p5036
aS'low'
p5037
ag4
ag59
aS'small'
p5038
aS'low'
p5039
aS'unacc'
p5040
aa(lp5041
S'high'
p5042
aS'low'
p5043
ag4
ag59
aS'small'
p5044
aS'med'
p5045
aS'unacc'
p5046
aa(lp5047
S'high'
p5048
aS'low'
p5049
ag4
ag59
aS'small'
p5050
aS'high'
p5051
aS'acc'
p5052
aa(lp5053
S'high'
p5054
aS'low'
p5055
ag4
ag59
aS'med'
p5056
aS'low'
p5057
aS'unacc'
p5058
aa(lp5059
S'high'
p5060
aS'low'
p5061
ag4
ag59
aS'med'
p5062
aS'med'
p5063
aS'unacc'
p5064
aa(lp5065
S'high'
p5066
aS'low'
p5067
ag4
ag59
aS'med'
p5068
aS'high'
p5069
aS'acc'
p5070
aa(lp5071
S'high'
p5072
aS'low'
p5073
ag4
ag59
aS'big'
p5074
aS'low'
p5075
aS'unacc'
p5076
aa(lp5077
S'high'
p5078
aS'low'
p5079
ag4
ag59
aS'big'
p5080
aS'med'
p5081
aS'acc'
p5082
aa(lp5083
S'high'
p5084
aS'low'
p5085
ag4
ag59
aS'big'
p5086
aS'high'
p5087
aS'acc'
p5088
aa(lp5089
S'high'
p5090
aS'low'
p5091
ag4
aS'more'
p5092
aS'small'
p5093
aS'low'
p5094
aS'unacc'
p5095
aa(lp5096
S'high'
p5097
aS'low'
p5098
ag4
aS'more'
p5099
aS'small'
p5100
aS'med'
p5101
aS'unacc'
p5102
aa(lp5103
S'high'
p5104
aS'low'
p5105
ag4
aS'more'
p5106
aS'small'
p5107
aS'high'
p5108
aS'unacc'
p5109
aa(lp5110
S'high'
p5111
aS'low'
p5112
ag4
aS'more'
p5113
aS'med'
p5114
aS'low'
p5115
aS'unacc'
p5116
aa(lp5117
S'high'
p5118
aS'low'
p5119
ag4
aS'more'
p5120
aS'med'
p5121
aS'med'
p5122
aS'unacc'
p5123
aa(lp5124
S'high'
p5125
aS'low'
p5126
ag4
aS'more'
p5127
aS'med'
p5128
aS'high'
p5129
aS'acc'
p5130
aa(lp5131
S'high'
p5132
aS'low'
p5133
ag4
aS'more'
p5134
aS'big'
p5135
aS'low'
p5136
aS'unacc'
p5137
aa(lp5138
S'high'
p5139
aS'low'
p5140
ag4
aS'more'
p5141
aS'big'
p5142
aS'med'
p5143
aS'acc'
p5144
aa(lp5145
S'high'
p5146
aS'low'
p5147
ag4
aS'more'
p5148
aS'big'
p5149
aS'high'
p5150
aS'acc'
p5151
aa(lp5152
S'high'
p5153
aS'low'
p5154
ag177
ag4
aS'small'
p5155
aS'low'
p5156
aS'unacc'
p5157
aa(lp5158
S'high'
p5159
aS'low'
p5160
ag177
ag4
aS'small'
p5161
aS'med'
p5162
aS'unacc'
p5163
aa(lp5164
S'high'
p5165
aS'low'
p5166
ag177
ag4
aS'small'
p5167
aS'high'
p5168
aS'unacc'
p5169
aa(lp5170
S'high'
p5171
aS'low'
p5172
ag177
ag4
aS'med'
p5173
aS'low'
p5174
aS'unacc'
p5175
aa(lp5176
S'high'
p5177
aS'low'
p5178
ag177
ag4
aS'med'
p5179
aS'med'
p5180
aS'unacc'
p5181
aa(lp5182
S'high'
p5183
aS'low'
p5184
ag177
ag4
aS'med'
p5185
aS'high'
p5186
aS'unacc'
p5187
aa(lp5188
S'high'
p5189
aS'low'
p5190
ag177
ag4
aS'big'
p5191
aS'low'
p5192
aS'unacc'
p5193
aa(lp5194
S'high'
p5195
aS'low'
p5196
ag177
ag4
aS'big'
p5197
aS'med'
p5198
aS'unacc'
p5199
aa(lp5200
S'high'
p5201
aS'low'
p5202
ag177
ag4
aS'big'
p5203
aS'high'
p5204
aS'unacc'
p5205
aa(lp5206
S'high'
p5207
aS'low'
p5208
ag177
ag59
aS'small'
p5209
aS'low'
p5210
aS'unacc'
p5211
aa(lp5212
S'high'
p5213
aS'low'
p5214
ag177
ag59
aS'small'
p5215
aS'med'
p5216
aS'unacc'
p5217
aa(lp5218
S'high'
p5219
aS'low'
p5220
ag177
ag59
aS'small'
p5221
aS'high'
p5222
aS'acc'
p5223
aa(lp5224
S'high'
p5225
aS'low'
p5226
ag177
ag59
aS'med'
p5227
aS'low'
p5228
aS'unacc'
p5229
aa(lp5230
S'high'
p5231
aS'low'
p5232
ag177
ag59
aS'med'
p5233
aS'med'
p5234
aS'unacc'
p5235
aa(lp5236
S'high'
p5237
aS'low'
p5238
ag177
ag59
aS'med'
p5239
aS'high'
p5240
aS'acc'
p5241
aa(lp5242
S'high'
p5243
aS'low'
p5244
ag177
ag59
aS'big'
p5245
aS'low'
p5246
aS'unacc'
p5247
aa(lp5248
S'high'
p5249
aS'low'
p5250
ag177
ag59
aS'big'
p5251
aS'med'
p5252
aS'acc'
p5253
aa(lp5254
S'high'
p5255
aS'low'
p5256
ag177
ag59
aS'big'
p5257
aS'high'
p5258
aS'acc'
p5259
aa(lp5260
S'high'
p5261
aS'low'
p5262
ag177
aS'more'
p5263
aS'small'
p5264
aS'low'
p5265
aS'unacc'
p5266
aa(lp5267
S'high'
p5268
aS'low'
p5269
ag177
aS'more'
p5270
aS'small'
p5271
aS'med'
p5272
aS'unacc'
p5273
aa(lp5274
S'high'
p5275
aS'low'
p5276
ag177
aS'more'
p5277
aS'small'
p5278
aS'high'
p5279
aS'acc'
p5280
aa(lp5281
S'high'
p5282
aS'low'
p5283
ag177
aS'more'
p5284
aS'med'
p5285
aS'low'
p5286
aS'unacc'
p5287
aa(lp5288
S'high'
p5289
aS'low'
p5290
ag177
aS'more'
p5291
aS'med'
p5292
aS'med'
p5293
aS'acc'
p5294
aa(lp5295
S'high'
p5296
aS'low'
p5297
ag177
aS'more'
p5298
aS'med'
p5299
aS'high'
p5300
aS'acc'
p5301
aa(lp5302
S'high'
p5303
aS'low'
p5304
ag177
aS'more'
p5305
aS'big'
p5306
aS'low'
p5307
aS'unacc'
p5308
aa(lp5309
S'high'
p5310
aS'low'
p5311
ag177
aS'more'
p5312
aS'big'
p5313
aS'med'
p5314
aS'acc'
p5315
aa(lp5316
S'high'
p5317
aS'low'
p5318
ag177
aS'more'
p5319
aS'big'
p5320
aS'high'
p5321
aS'acc'
p5322
aa(lp5323
S'high'
p5324
aS'low'
p5325
ag59
ag4
aS'small'
p5326
aS'low'
p5327
aS'unacc'
p5328
aa(lp5329
S'high'
p5330
aS'low'
p5331
ag59
ag4
aS'small'
p5332
aS'med'
p5333
aS'unacc'
p5334
aa(lp5335
S'high'
p5336
aS'low'
p5337
ag59
ag4
aS'small'
p5338
aS'high'
p5339
aS'unacc'
p5340
aa(lp5341
S'high'
p5342
aS'low'
p5343
ag59
ag4
aS'med'
p5344
aS'low'
p5345
aS'unacc'
p5346
aa(lp5347
S'high'
p5348
aS'low'
p5349
ag59
ag4
aS'med'
p5350
aS'med'
p5351
aS'unacc'
p5352
aa(lp5353
S'high'
p5354
aS'low'
p5355
ag59
ag4
aS'med'
p5356
aS'high'
p5357
aS'unacc'
p5358
aa(lp5359
S'high'
p5360
aS'low'
p5361
ag59
ag4
aS'big'
p5362
aS'low'
p5363
aS'unacc'
p5364
aa(lp5365
S'high'
p5366
aS'low'
p5367
ag59
ag4
aS'big'
p5368
aS'med'
p5369
aS'unacc'
p5370
aa(lp5371
S'high'
p5372
aS'low'
p5373
ag59
ag4
aS'big'
p5374
aS'high'
p5375
aS'unacc'
p5376
aa(lp5377
S'high'
p5378
aS'low'
p5379
ag59
ag59
aS'small'
p5380
aS'low'
p5381
aS'unacc'
p5382
aa(lp5383
S'high'
p5384
aS'low'
p5385
ag59
ag59
aS'small'
p5386
aS'med'
p5387
aS'unacc'
p5388
aa(lp5389
S'high'
p5390
aS'low'
p5391
ag59
ag59
aS'small'
p5392
aS'high'
p5393
aS'acc'
p5394
aa(lp5395
S'high'
p5396
aS'low'
p5397
ag59
ag59
aS'med'
p5398
aS'low'
p5399
aS'unacc'
p5400
aa(lp5401
S'high'
p5402
aS'low'
p5403
ag59
ag59
aS'med'
p5404
aS'med'
p5405
aS'acc'
p5406
aa(lp5407
S'high'
p5408
aS'low'
p5409
ag59
ag59
aS'med'
p5410
aS'high'
p5411
aS'acc'
p5412
aa(lp5413
S'high'
p5414
aS'low'
p5415
ag59
ag59
aS'big'
p5416
aS'low'
p5417
aS'unacc'
p5418
aa(lp5419
S'high'
p5420
aS'low'
p5421
ag59
ag59
aS'big'
p5422
aS'med'
p5423
aS'acc'
p5424
aa(lp5425
S'high'
p5426
aS'low'
p5427
ag59
ag59
aS'big'
p5428
aS'high'
p5429
aS'acc'
p5430
aa(lp5431
S'high'
p5432
aS'low'
p5433
ag59
aS'more'
p5434
aS'small'
p5435
aS'low'
p5436
aS'unacc'
p5437
aa(lp5438
S'high'
p5439
aS'low'
p5440
ag59
aS'more'
p5441
aS'small'
p5442
aS'med'
p5443
aS'unacc'
p5444
aa(lp5445
S'high'
p5446
aS'low'
p5447
ag59
aS'more'
p5448
aS'small'
p5449
aS'high'
p5450
aS'acc'
p5451
aa(lp5452
S'high'
p5453
aS'low'
p5454
ag59
aS'more'
p5455
aS'med'
p5456
aS'low'
p5457
aS'unacc'
p5458
aa(lp5459
S'high'
p5460
aS'low'
p5461
ag59
aS'more'
p5462
aS'med'
p5463
aS'med'
p5464
aS'acc'
p5465
aa(lp5466
S'high'
p5467
aS'low'
p5468
ag59
aS'more'
p5469
aS'med'
p5470
aS'high'
p5471
aS'acc'
p5472
aa(lp5473
S'high'
p5474
aS'low'
p5475
ag59
aS'more'
p5476
aS'big'
p5477
aS'low'
p5478
aS'unacc'
p5479
aa(lp5480
S'high'
p5481
aS'low'
p5482
ag59
aS'more'
p5483
aS'big'
p5484
aS'med'
p5485
aS'acc'
p5486
aa(lp5487
S'high'
p5488
aS'low'
p5489
ag59
aS'more'
p5490
aS'big'
p5491
aS'high'
p5492
aS'acc'
p5493
aa(lp5494
S'high'
p5495
aS'low'
p5496
aS'5more'
p5497
ag4
aS'small'
p5498
aS'low'
p5499
aS'unacc'
p5500
aa(lp5501
S'high'
p5502
aS'low'
p5503
aS'5more'
p5504
ag4
aS'small'
p5505
aS'med'
p5506
aS'unacc'
p5507
aa(lp5508
S'high'
p5509
aS'low'
p5510
aS'5more'
p5511
ag4
aS'small'
p5512
aS'high'
p5513
aS'unacc'
p5514
aa(lp5515
S'high'
p5516
aS'low'
p5517
aS'5more'
p5518
ag4
aS'med'
p5519
aS'low'
p5520
aS'unacc'
p5521
aa(lp5522
S'high'
p5523
aS'low'
p5524
aS'5more'
p5525
ag4
aS'med'
p5526
aS'med'
p5527
aS'unacc'
p5528
aa(lp5529
S'high'
p5530
aS'low'
p5531
aS'5more'
p5532
ag4
aS'med'
p5533
aS'high'
p5534
aS'unacc'
p5535
aa(lp5536
S'high'
p5537
aS'low'
p5538
aS'5more'
p5539
ag4
aS'big'
p5540
aS'low'
p5541
aS'unacc'
p5542
aa(lp5543
S'high'
p5544
aS'low'
p5545
aS'5more'
p5546
ag4
aS'big'
p5547
aS'med'
p5548
aS'unacc'
p5549
aa(lp5550
S'high'
p5551
aS'low'
p5552
aS'5more'
p5553
ag4
aS'big'
p5554
aS'high'
p5555
aS'unacc'
p5556
aa(lp5557
S'high'
p5558
aS'low'
p5559
aS'5more'
p5560
ag59
aS'small'
p5561
aS'low'
p5562
aS'unacc'
p5563
aa(lp5564
S'high'
p5565
aS'low'
p5566
aS'5more'
p5567
ag59
aS'small'
p5568
aS'med'
p5569
aS'unacc'
p5570
aa(lp5571
S'high'
p5572
aS'low'
p5573
aS'5more'
p5574
ag59
aS'small'
p5575
aS'high'
p5576
aS'acc'
p5577
aa(lp5578
S'high'
p5579
aS'low'
p5580
aS'5more'
p5581
ag59
aS'med'
p5582
aS'low'
p5583
aS'unacc'
p5584
aa(lp5585
S'high'
p5586
aS'low'
p5587
aS'5more'
p5588
ag59
aS'med'
p5589
aS'med'
p5590
aS'acc'
p5591
aa(lp5592
S'high'
p5593
aS'low'
p5594
aS'5more'
p5595
ag59
aS'med'
p5596
aS'high'
p5597
aS'acc'
p5598
aa(lp5599
S'high'
p5600
aS'low'
p5601
aS'5more'
p5602
ag59
aS'big'
p5603
aS'low'
p5604
aS'unacc'
p5605
aa(lp5606
S'high'
p5607
aS'low'
p5608
aS'5more'
p5609
ag59
aS'big'
p5610
aS'med'
p5611
aS'acc'
p5612
aa(lp5613
S'high'
p5614
aS'low'
p5615
aS'5more'
p5616
ag59
aS'big'
p5617
aS'high'
p5618
aS'acc'
p5619
aa(lp5620
S'high'
p5621
aS'low'
p5622
aS'5more'
p5623
aS'more'
p5624
aS'small'
p5625
aS'low'
p5626
aS'unacc'
p5627
aa(lp5628
S'high'
p5629
aS'low'
p5630
aS'5more'
p5631
aS'more'
p5632
aS'small'
p5633
aS'med'
p5634
aS'unacc'
p5635
aa(lp5636
S'high'
p5637
aS'low'
p5638
aS'5more'
p5639
aS'more'
p5640
aS'small'
p5641
aS'high'
p5642
aS'acc'
p5643
aa(lp5644
S'high'
p5645
aS'low'
p5646
aS'5more'
p5647
aS'more'
p5648
aS'med'
p5649
aS'low'
p5650
aS'unacc'
p5651
aa(lp5652
S'high'
p5653
aS'low'
p5654
aS'5more'
p5655
aS'more'
p5656
aS'med'
p5657
aS'med'
p5658
aS'acc'
p5659
aa(lp5660
S'high'
p5661
aS'low'
p5662
aS'5more'
p5663
aS'more'
p5664
aS'med'
p5665
aS'high'
p5666
aS'acc'
p5667
aa(lp5668
S'high'
p5669
aS'low'
p5670
aS'5more'
p5671
aS'more'
p5672
aS'big'
p5673
aS'low'
p5674
aS'unacc'
p5675
aa(lp5676
S'high'
p5677
aS'low'
p5678
aS'5more'
p5679
aS'more'
p5680
aS'big'
p5681
aS'med'
p5682
aS'acc'
p5683
aa(lp5684
S'high'
p5685
aS'low'
p5686
aS'5more'
p5687
aS'more'
p5688
aS'big'
p5689
aS'high'
p5690
aS'acc'
p5691
aa(lp5692
S'med'
p5693
aS'vhigh'
p5694
ag4
ag4
aS'small'
p5695
aS'low'
p5696
aS'unacc'
p5697
aa(lp5698
S'med'
p5699
aS'vhigh'
p5700
ag4
ag4
aS'small'
p5701
aS'med'
p5702
aS'unacc'
p5703
aa(lp5704
S'med'
p5705
aS'vhigh'
p5706
ag4
ag4
aS'small'
p5707
aS'high'
p5708
aS'unacc'
p5709
aa(lp5710
S'med'
p5711
aS'vhigh'
p5712
ag4
ag4
aS'med'
p5713
aS'low'
p5714
aS'unacc'
p5715
aa(lp5716
S'med'
p5717
aS'vhigh'
p5718
ag4
ag4
aS'med'
p5719
aS'med'
p5720
aS'unacc'
p5721
aa(lp5722
S'med'
p5723
aS'vhigh'
p5724
ag4
ag4
aS'med'
p5725
aS'high'
p5726
aS'unacc'
p5727
aa(lp5728
S'med'
p5729
aS'vhigh'
p5730
ag4
ag4
aS'big'
p5731
aS'low'
p5732
aS'unacc'
p5733
aa(lp5734
S'med'
p5735
aS'vhigh'
p5736
ag4
ag4
aS'big'
p5737
aS'med'
p5738
aS'unacc'
p5739
aa(lp5740
S'med'
p5741
aS'vhigh'
p5742
ag4
ag4
aS'big'
p5743
aS'high'
p5744
aS'unacc'
p5745
aa(lp5746
S'med'
p5747
aS'vhigh'
p5748
ag4
ag59
aS'small'
p5749
aS'low'
p5750
aS'unacc'
p5751
aa(lp5752
S'med'
p5753
aS'vhigh'
p5754
ag4
ag59
aS'small'
p5755
aS'med'
p5756
aS'unacc'
p5757
aa(lp5758
S'med'
p5759
aS'vhigh'
p5760
ag4
ag59
aS'small'
p5761
aS'high'
p5762
aS'acc'
p5763
aa(lp5764
S'med'
p5765
aS'vhigh'
p5766
ag4
ag59
aS'med'
p5767
aS'low'
p5768
aS'unacc'
p5769
aa(lp5770
S'med'
p5771
aS'vhigh'
p5772
ag4
ag59
aS'med'
p5773
aS'med'
p5774
aS'unacc'
p5775
aa(lp5776
S'med'
p5777
aS'vhigh'
p5778
ag4
ag59
aS'med'
p5779
aS'high'
p5780
aS'acc'
p5781
aa(lp5782
S'med'
p5783
aS'vhigh'
p5784
ag4
ag59
aS'big'
p5785
aS'low'
p5786
aS'unacc'
p5787
aa(lp5788
S'med'
p5789
aS'vhigh'
p5790
ag4
ag59
aS'big'
p5791
aS'med'
p5792
aS'acc'
p5793
aa(lp5794
S'med'
p5795
aS'vhigh'
p5796
ag4
ag59
aS'big'
p5797
aS'high'
p5798
aS'acc'
p5799
aa(lp5800
S'med'
p5801
aS'vhigh'
p5802
ag4
aS'more'
p5803
aS'small'
p5804
aS'low'
p5805
aS'unacc'
p5806
aa(lp5807
S'med'
p5808
aS'vhigh'
p5809
ag4
aS'more'
p5810
aS'small'
p5811
aS'med'
p5812
aS'unacc'
p5813
aa(lp5814
S'med'
p5815
aS'vhigh'
p5816
ag4
aS'more'
p5817
aS'small'
p5818
aS'high'
p5819
aS'unacc'
p5820
aa(lp5821
S'med'
p5822
aS'vhigh'
p5823
ag4
aS'more'
p5824
aS'med'
p5825
aS'low'
p5826
aS'unacc'
p5827
aa(lp5828
S'med'
p5829
aS'vhigh'
p5830
ag4
aS'more'
p5831
aS'med'
p5832
aS'med'
p5833
aS'unacc'
p5834
aa(lp5835
S'med'
p5836
aS'vhigh'
p5837
ag4
aS'more'
p5838
aS'med'
p5839
aS'high'
p5840
aS'acc'
p5841
aa(lp5842
S'med'
p5843
aS'vhigh'
p5844
ag4
aS'more'
p5845
aS'big'
p5846
aS'low'
p5847
aS'unacc'
p5848
aa(lp5849
S'med'
p5850
aS'vhigh'
p5851
ag4
aS'more'
p5852
aS'big'
p5853
aS'med'
p5854
aS'acc'
p5855
aa(lp5856
S'med'
p5857
aS'vhigh'
p5858
ag4
aS'more'
p5859
aS'big'
p5860
aS'high'
p5861
aS'acc'
p5862
aa(lp5863
S'med'
p5864
aS'vhigh'
p5865
ag177
ag4
aS'small'
p5866
aS'low'
p5867
aS'unacc'
p5868
aa(lp5869
S'med'
p5870
aS'vhigh'
p5871
ag177
ag4
aS'small'
p5872
aS'med'
p5873
aS'unacc'
p5874
aa(lp5875
S'med'
p5876
aS'vhigh'
p5877
ag177
ag4
aS'small'
p5878
aS'high'
p5879
aS'unacc'
p5880
aa(lp5881
S'med'
p5882
aS'vhigh'
p5883
ag177
ag4
aS'med'
p5884
aS'low'
p5885
aS'unacc'
p5886
aa(lp5887
S'med'
p5888
aS'vhigh'
p5889
ag177
ag4
aS'med'
p5890
aS'med'
p5891
aS'unacc'
p5892
aa(lp5893
S'med'
p5894
aS'vhigh'
p5895
ag177
ag4
aS'med'
p5896
aS'high'
p5897
aS'unacc'
p5898
aa(lp5899
S'med'
p5900
aS'vhigh'
p5901
ag177
ag4
aS'big'
p5902
aS'low'
p5903
aS'unacc'
p5904
aa(lp5905
S'med'
p5906
aS'vhigh'
p5907
ag177
ag4
aS'big'
p5908
aS'med'
p5909
aS'unacc'
p5910
aa(lp5911
S'med'
p5912
aS'vhigh'
p5913
ag177
ag4
aS'big'
p5914
aS'high'
p5915
aS'unacc'
p5916
aa(lp5917
S'med'
p5918
aS'vhigh'
p5919
ag177
ag59
aS'small'
p5920
aS'low'
p5921
aS'unacc'
p5922
aa(lp5923
S'med'
p5924
aS'vhigh'
p5925
ag177
ag59
aS'small'
p5926
aS'med'
p5927
aS'unacc'
p5928
aa(lp5929
S'med'
p5930
aS'vhigh'
p5931
ag177
ag59
aS'small'
p5932
aS'high'
p5933
aS'acc'
p5934
aa(lp5935
S'med'
p5936
aS'vhigh'
p5937
ag177
ag59
aS'med'
p5938
aS'low'
p5939
aS'unacc'
p5940
aa(lp5941
S'med'
p5942
aS'vhigh'
p5943
ag177
ag59
aS'med'
p5944
aS'med'
p5945
aS'unacc'
p5946
aa(lp5947
S'med'
p5948
aS'vhigh'
p5949
ag177
ag59
aS'med'
p5950
aS'high'
p5951
aS'acc'
p5952
aa(lp5953
S'med'
p5954
aS'vhigh'
p5955
ag177
ag59
aS'big'
p5956
aS'low'
p5957
aS'unacc'
p5958
aa(lp5959
S'med'
p5960
aS'vhigh'
p5961
ag177
ag59
aS'big'
p5962
aS'med'
p5963
aS'acc'
p5964
aa(lp5965
S'med'
p5966
aS'vhigh'
p5967
ag177
ag59
aS'big'
p5968
aS'high'
p5969
aS'acc'
p5970
aa(lp5971
S'med'
p5972
aS'vhigh'
p5973
ag177
aS'more'
p5974
aS'small'
p5975
aS'low'
p5976
aS'unacc'
p5977
aa(lp5978
S'med'
p5979
aS'vhigh'
p5980
ag177
aS'more'
p5981
aS'small'
p5982
aS'med'
p5983
aS'unacc'
p5984
aa(lp5985
S'med'
p5986
aS'vhigh'
p5987
ag177
aS'more'
p5988
aS'small'
p5989
aS'high'
p5990
aS'acc'
p5991
aa(lp5992
S'med'
p5993
aS'vhigh'
p5994
ag177
aS'more'
p5995
aS'med'
p5996
aS'low'
p5997
aS'unacc'
p5998
aa(lp5999
S'med'
p6000
aS'vhigh'
p6001
ag177
aS'more'
p6002
aS'med'
p6003
aS'med'
p6004
aS'acc'
p6005
aa(lp6006
S'med'
p6007
aS'vhigh'
p6008
ag177
aS'more'
p6009
aS'med'
p6010
aS'high'
p6011
aS'acc'
p6012
aa(lp6013
S'med'
p6014
aS'vhigh'
p6015
ag177
aS'more'
p6016
aS'big'
p6017
aS'low'
p6018
aS'unacc'
p6019
aa(lp6020
S'med'
p6021
aS'vhigh'
p6022
ag177
aS'more'
p6023
aS'big'
p6024
aS'med'
p6025
aS'acc'
p6026
aa(lp6027
S'med'
p6028
aS'vhigh'
p6029
ag177
aS'more'
p6030
aS'big'
p6031
aS'high'
p6032
aS'acc'
p6033
aa(lp6034
S'med'
p6035
aS'vhigh'
p6036
ag59
ag4
aS'small'
p6037
aS'low'
p6038
aS'unacc'
p6039
aa(lp6040
S'med'
p6041
aS'vhigh'
p6042
ag59
ag4
aS'small'
p6043
aS'med'
p6044
aS'unacc'
p6045
aa(lp6046
S'med'
p6047
aS'vhigh'
p6048
ag59
ag4
aS'small'
p6049
aS'high'
p6050
aS'unacc'
p6051
aa(lp6052
S'med'
p6053
aS'vhigh'
p6054
ag59
ag4
aS'med'
p6055
aS'low'
p6056
aS'unacc'
p6057
aa(lp6058
S'med'
p6059
aS'vhigh'
p6060
ag59
ag4
aS'med'
p6061
aS'med'
p6062
aS'unacc'
p6063
aa(lp6064
S'med'
p6065
aS'vhigh'
p6066
ag59
ag4
aS'med'
p6067
aS'high'
p6068
aS'unacc'
p6069
aa(lp6070
S'med'
p6071
aS'vhigh'
p6072
ag59
ag4
aS'big'
p6073
aS'low'
p6074
aS'unacc'
p6075
aa(lp6076
S'med'
p6077
aS'vhigh'
p6078
ag59
ag4
aS'big'
p6079
aS'med'
p6080
aS'unacc'
p6081
aa(lp6082
S'med'
p6083
aS'vhigh'
p6084
ag59
ag4
aS'big'
p6085
aS'high'
p6086
aS'unacc'
p6087
aa(lp6088
S'med'
p6089
aS'vhigh'
p6090
ag59
ag59
aS'small'
p6091
aS'low'
p6092
aS'unacc'
p6093
aa(lp6094
S'med'
p6095
aS'vhigh'
p6096
ag59
ag59
aS'small'
p6097
aS'med'
p6098
aS'unacc'
p6099
aa(lp6100
S'med'
p6101
aS'vhigh'
p6102
ag59
ag59
aS'small'
p6103
aS'high'
p6104
aS'acc'
p6105
aa(lp6106
S'med'
p6107
aS'vhigh'
p6108
ag59
ag59
aS'med'
p6109
aS'low'
p6110
aS'unacc'
p6111
aa(lp6112
S'med'
p6113
aS'vhigh'
p6114
ag59
ag59
aS'med'
p6115
aS'med'
p6116
aS'acc'
p6117
aa(lp6118
S'med'
p6119
aS'vhigh'
p6120
ag59
ag59
aS'med'
p6121
aS'high'
p6122
aS'acc'
p6123
aa(lp6124
S'med'
p6125
aS'vhigh'
p6126
ag59
ag59
aS'big'
p6127
aS'low'
p6128
aS'unacc'
p6129
aa(lp6130
S'med'
p6131
aS'vhigh'
p6132
ag59
ag59
aS'big'
p6133
aS'med'
p6134
aS'acc'
p6135
aa(lp6136
S'med'
p6137
aS'vhigh'
p6138
ag59
ag59
aS'big'
p6139
aS'high'
p6140
aS'acc'
p6141
aa(lp6142
S'med'
p6143
aS'vhigh'
p6144
ag59
aS'more'
p6145
aS'small'
p6146
aS'low'
p6147
aS'unacc'
p6148
aa(lp6149
S'med'
p6150
aS'vhigh'
p6151
ag59
aS'more'
p6152
aS'small'
p6153
aS'med'
p6154
aS'unacc'
p6155
aa(lp6156
S'med'
p6157
aS'vhigh'
p6158
ag59
aS'more'
p6159
aS'small'
p6160
aS'high'
p6161
aS'acc'
p6162
aa(lp6163
S'med'
p6164
aS'vhigh'
p6165
ag59
aS'more'
p6166
aS'med'
p6167
aS'low'
p6168
aS'unacc'
p6169
aa(lp6170
S'med'
p6171
aS'vhigh'
p6172
ag59
aS'more'
p6173
aS'med'
p6174
aS'med'
p6175
aS'acc'
p6176
aa(lp6177
S'med'
p6178
aS'vhigh'
p6179
ag59
aS'more'
p6180
aS'med'
p6181
aS'high'
p6182
aS'acc'
p6183
aa(lp6184
S'med'
p6185
aS'vhigh'
p6186
ag59
aS'more'
p6187
aS'big'
p6188
aS'low'
p6189
aS'unacc'
p6190
aa(lp6191
S'med'
p6192
aS'vhigh'
p6193
ag59
aS'more'
p6194
aS'big'
p6195
aS'med'
p6196
aS'acc'
p6197
aa(lp6198
S'med'
p6199
aS'vhigh'
p6200
ag59
aS'more'
p6201
aS'big'
p6202
aS'high'
p6203
aS'acc'
p6204
aa(lp6205
S'med'
p6206
aS'vhigh'
p6207
aS'5more'
p6208
ag4
aS'small'
p6209
aS'low'
p6210
aS'unacc'
p6211
aa(lp6212
S'med'
p6213
aS'vhigh'
p6214
aS'5more'
p6215
ag4
aS'small'
p6216
aS'med'
p6217
aS'unacc'
p6218
aa(lp6219
S'med'
p6220
aS'vhigh'
p6221
aS'5more'
p6222
ag4
aS'small'
p6223
aS'high'
p6224
aS'unacc'
p6225
aa(lp6226
S'med'
p6227
aS'vhigh'
p6228
aS'5more'
p6229
ag4
aS'med'
p6230
aS'low'
p6231
aS'unacc'
p6232
aa(lp6233
S'med'
p6234
aS'vhigh'
p6235
aS'5more'
p6236
ag4
aS'med'
p6237
aS'med'
p6238
aS'unacc'
p6239
aa(lp6240
S'med'
p6241
aS'vhigh'
p6242
aS'5more'
p6243
ag4
aS'med'
p6244
aS'high'
p6245
aS'unacc'
p6246
aa(lp6247
S'med'
p6248
aS'vhigh'
p6249
aS'5more'
p6250
ag4
aS'big'
p6251
aS'low'
p6252
aS'unacc'
p6253
aa(lp6254
S'med'
p6255
aS'vhigh'
p6256
aS'5more'
p6257
ag4
aS'big'
p6258
aS'med'
p6259
aS'unacc'
p6260
aa(lp6261
S'med'
p6262
aS'vhigh'
p6263
aS'5more'
p6264
ag4
aS'big'
p6265
aS'high'
p6266
aS'unacc'
p6267
aa(lp6268
S'med'
p6269
aS'vhigh'
p6270
aS'5more'
p6271
ag59
aS'small'
p6272
aS'low'
p6273
aS'unacc'
p6274
aa(lp6275
S'med'
p6276
aS'vhigh'
p6277
aS'5more'
p6278
ag59
aS'small'
p6279
aS'med'
p6280
aS'unacc'
p6281
aa(lp6282
S'med'
p6283
aS'vhigh'
p6284
aS'5more'
p6285
ag59
aS'small'
p6286
aS'high'
p6287
aS'acc'
p6288
aa(lp6289
S'med'
p6290
aS'vhigh'
p6291
aS'5more'
p6292
ag59
aS'med'
p6293
aS'low'
p6294
aS'unacc'
p6295
aa(lp6296
S'med'
p6297
aS'vhigh'
p6298
aS'5more'
p6299
ag59
aS'med'
p6300
aS'med'
p6301
aS'acc'
p6302
aa(lp6303
S'med'
p6304
aS'vhigh'
p6305
aS'5more'
p6306
ag59
aS'med'
p6307
aS'high'
p6308
aS'acc'
p6309
aa(lp6310
S'med'
p6311
aS'vhigh'
p6312
aS'5more'
p6313
ag59
aS'big'
p6314
aS'low'
p6315
aS'unacc'
p6316
aa(lp6317
S'med'
p6318
aS'vhigh'
p6319
aS'5more'
p6320
ag59
aS'big'
p6321
aS'med'
p6322
aS'acc'
p6323
aa(lp6324
S'med'
p6325
aS'vhigh'
p6326
aS'5more'
p6327
ag59
aS'big'
p6328
aS'high'
p6329
aS'acc'
p6330
aa(lp6331
S'med'
p6332
aS'vhigh'
p6333
aS'5more'
p6334
aS'more'
p6335
aS'small'
p6336
aS'low'
p6337
aS'unacc'
p6338
aa(lp6339
S'med'
p6340
aS'vhigh'
p6341
aS'5more'
p6342
aS'more'
p6343
aS'small'
p6344
aS'med'
p6345
aS'unacc'
p6346
aa(lp6347
S'med'
p6348
aS'vhigh'
p6349
aS'5more'
p6350
aS'more'
p6351
aS'small'
p6352
aS'high'
p6353
aS'acc'
p6354
aa(lp6355
S'med'
p6356
aS'vhigh'
p6357
aS'5more'
p6358
aS'more'
p6359
aS'med'
p6360
aS'low'
p6361
aS'unacc'
p6362
aa(lp6363
S'med'
p6364
aS'vhigh'
p6365
aS'5more'
p6366
aS'more'
p6367
aS'med'
p6368
aS'med'
p6369
aS'acc'
p6370
aa(lp6371
S'med'
p6372
aS'vhigh'
p6373
aS'5more'
p6374
aS'more'
p6375
aS'med'
p6376
aS'high'
p6377
aS'acc'
p6378
aa(lp6379
S'med'
p6380
aS'vhigh'
p6381
aS'5more'
p6382
aS'more'
p6383
aS'big'
p6384
aS'low'
p6385
aS'unacc'
p6386
aa(lp6387
S'med'
p6388
aS'vhigh'
p6389
aS'5more'
p6390
aS'more'
p6391
aS'big'
p6392
aS'med'
p6393
aS'acc'
p6394
aa(lp6395
S'med'
p6396
aS'vhigh'
p6397
aS'5more'
p6398
aS'more'
p6399
aS'big'
p6400
aS'high'
p6401
aS'acc'
p6402
aa(lp6403
S'med'
p6404
aS'high'
p6405
ag4
ag4
aS'small'
p6406
aS'low'
p6407
aS'unacc'
p6408
aa(lp6409
S'med'
p6410
aS'high'
p6411
ag4
ag4
aS'small'
p6412
aS'med'
p6413
aS'unacc'
p6414
aa(lp6415
S'med'
p6416
aS'high'
p6417
ag4
ag4
aS'small'
p6418
aS'high'
p6419
aS'unacc'
p6420
aa(lp6421
S'med'
p6422
aS'high'
p6423
ag4
ag4
aS'med'
p6424
aS'low'
p6425
aS'unacc'
p6426
aa(lp6427
S'med'
p6428
aS'high'
p6429
ag4
ag4
aS'med'
p6430
aS'med'
p6431
aS'unacc'
p6432
aa(lp6433
S'med'
p6434
aS'high'
p6435
ag4
ag4
aS'med'
p6436
aS'high'
p6437
aS'unacc'
p6438
aa(lp6439
S'med'
p6440
aS'high'
p6441
ag4
ag4
aS'big'
p6442
aS'low'
p6443
aS'unacc'
p6444
aa(lp6445
S'med'
p6446
aS'high'
p6447
ag4
ag4
aS'big'
p6448
aS'med'
p6449
aS'unacc'
p6450
aa(lp6451
S'med'
p6452
aS'high'
p6453
ag4
ag4
aS'big'
p6454
aS'high'
p6455
aS'unacc'
p6456
aa(lp6457
S'med'
p6458
aS'high'
p6459
ag4
ag59
aS'small'
p6460
aS'low'
p6461
aS'unacc'
p6462
aa(lp6463
S'med'
p6464
aS'high'
p6465
ag4
ag59
aS'small'
p6466
aS'med'
p6467
aS'unacc'
p6468
aa(lp6469
S'med'
p6470
aS'high'
p6471
ag4
ag59
aS'small'
p6472
aS'high'
p6473
aS'acc'
p6474
aa(lp6475
S'med'
p6476
aS'high'
p6477
ag4
ag59
aS'med'
p6478
aS'low'
p6479
aS'unacc'
p6480
aa(lp6481
S'med'
p6482
aS'high'
p6483
ag4
ag59
aS'med'
p6484
aS'med'
p6485
aS'unacc'
p6486
aa(lp6487
S'med'
p6488
aS'high'
p6489
ag4
ag59
aS'med'
p6490
aS'high'
p6491
aS'acc'
p6492
aa(lp6493
S'med'
p6494
aS'high'
p6495
ag4
ag59
aS'big'
p6496
aS'low'
p6497
aS'unacc'
p6498
aa(lp6499
S'med'
p6500
aS'high'
p6501
ag4
ag59
aS'big'
p6502
aS'med'
p6503
aS'acc'
p6504
aa(lp6505
S'med'
p6506
aS'high'
p6507
ag4
ag59
aS'big'
p6508
aS'high'
p6509
aS'acc'
p6510
aa(lp6511
S'med'
p6512
aS'high'
p6513
ag4
aS'more'
p6514
aS'small'
p6515
aS'low'
p6516
aS'unacc'
p6517
aa(lp6518
S'med'
p6519
aS'high'
p6520
ag4
aS'more'
p6521
aS'small'
p6522
aS'med'
p6523
aS'unacc'
p6524
aa(lp6525
S'med'
p6526
aS'high'
p6527
ag4
aS'more'
p6528
aS'small'
p6529
aS'high'
p6530
aS'unacc'
p6531
aa(lp6532
S'med'
p6533
aS'high'
p6534
ag4
aS'more'
p6535
aS'med'
p6536
aS'low'
p6537
aS'unacc'
p6538
aa(lp6539
S'med'
p6540
aS'high'
p6541
ag4
aS'more'
p6542
aS'med'
p6543
aS'med'
p6544
aS'unacc'
p6545
aa(lp6546
S'med'
p6547
aS'high'
p6548
ag4
aS'more'
p6549
aS'med'
p6550
aS'high'
p6551
aS'acc'
p6552
aa(lp6553
S'med'
p6554
aS'high'
p6555
ag4
aS'more'
p6556
aS'big'
p6557
aS'low'
p6558
aS'unacc'
p6559
aa(lp6560
S'med'
p6561
aS'high'
p6562
ag4
aS'more'
p6563
aS'big'
p6564
aS'med'
p6565
aS'acc'
p6566
aa(lp6567
S'med'
p6568
aS'high'
p6569
ag4
aS'more'
p6570
aS'big'
p6571
aS'high'
p6572
aS'acc'
p6573
aa(lp6574
S'med'
p6575
aS'high'
p6576
ag177
ag4
aS'small'
p6577
aS'low'
p6578
aS'unacc'
p6579
aa(lp6580
S'med'
p6581
aS'high'
p6582
ag177
ag4
aS'small'
p6583
aS'med'
p6584
aS'unacc'
p6585
aa(lp6586
S'med'
p6587
aS'high'
p6588
ag177
ag4
aS'small'
p6589
aS'high'
p6590
aS'unacc'
p6591
aa(lp6592
S'med'
p6593
aS'high'
p6594
ag177
ag4
aS'med'
p6595
aS'low'
p6596
aS'unacc'
p6597
aa(lp6598
S'med'
p6599
aS'high'
p6600
ag177
ag4
aS'med'
p6601
aS'med'
p6602
aS'unacc'
p6603
aa(lp6604
S'med'
p6605
aS'high'
p6606
ag177
ag4
aS'med'
p6607
aS'high'
p6608
aS'unacc'
p6609
aa(lp6610
S'med'
p6611
aS'high'
p6612
ag177
ag4
aS'big'
p6613
aS'low'
p6614
aS'unacc'
p6615
aa(lp6616
S'med'
p6617
aS'high'
p6618
ag177
ag4
aS'big'
p6619
aS'med'
p6620
aS'unacc'
p6621
aa(lp6622
S'med'
p6623
aS'high'
p6624
ag177
ag4
aS'big'
p6625
aS'high'
p6626
aS'unacc'
p6627
aa(lp6628
S'med'
p6629
aS'high'
p6630
ag177
ag59
aS'small'
p6631
aS'low'
p6632
aS'unacc'
p6633
aa(lp6634
S'med'
p6635
aS'high'
p6636
ag177
ag59
aS'small'
p6637
aS'med'
p6638
aS'unacc'
p6639
aa(lp6640
S'med'
p6641
aS'high'
p6642
ag177
ag59
aS'small'
p6643
aS'high'
p6644
aS'acc'
p6645
aa(lp6646
S'med'
p6647
aS'high'
p6648
ag177
ag59
aS'med'
p6649
aS'low'
p6650
aS'unacc'
p6651
aa(lp6652
S'med'
p6653
aS'high'
p6654
ag177
ag59
aS'med'
p6655
aS'med'
p6656
aS'unacc'
p6657
aa(lp6658
S'med'
p6659
aS'high'
p6660
ag177
ag59
aS'med'
p6661
aS'high'
p6662
aS'acc'
p6663
aa(lp6664
S'med'
p6665
aS'high'
p6666
ag177
ag59
aS'big'
p6667
aS'low'
p6668
aS'unacc'
p6669
aa(lp6670
S'med'
p6671
aS'high'
p6672
ag177
ag59
aS'big'
p6673
aS'med'
p6674
aS'acc'
p6675
aa(lp6676
S'med'
p6677
aS'high'
p6678
ag177
ag59
aS'big'
p6679
aS'high'
p6680
aS'acc'
p6681
aa(lp6682
S'med'
p6683
aS'high'
p6684
ag177
aS'more'
p6685
aS'small'
p6686
aS'low'
p6687
aS'unacc'
p6688
aa(lp6689
S'med'
p6690
aS'high'
p6691
ag177
aS'more'
p6692
aS'small'
p6693
aS'med'
p6694
aS'unacc'
p6695
aa(lp6696
S'med'
p6697
aS'high'
p6698
ag177
aS'more'
p6699
aS'small'
p6700
aS'high'
p6701
aS'acc'
p6702
aa(lp6703
S'med'
p6704
aS'high'
p6705
ag177
aS'more'
p6706
aS'med'
p6707
aS'low'
p6708
aS'unacc'
p6709
aa(lp6710
S'med'
p6711
aS'high'
p6712
ag177
aS'more'
p6713
aS'med'
p6714
aS'med'
p6715
aS'acc'
p6716
aa(lp6717
S'med'
p6718
aS'high'
p6719
ag177
aS'more'
p6720
aS'med'
p6721
aS'high'
p6722
aS'acc'
p6723
aa(lp6724
S'med'
p6725
aS'high'
p6726
ag177
aS'more'
p6727
aS'big'
p6728
aS'low'
p6729
aS'unacc'
p6730
aa(lp6731
S'med'
p6732
aS'high'
p6733
ag177
aS'more'
p6734
aS'big'
p6735
aS'med'
p6736
aS'acc'
p6737
aa(lp6738
S'med'
p6739
aS'high'
p6740
ag177
aS'more'
p6741
aS'big'
p6742
aS'high'
p6743
aS'acc'
p6744
aa(lp6745
S'med'
p6746
aS'high'
p6747
ag59
ag4
aS'small'
p6748
aS'low'
p6749
aS'unacc'
p6750
aa(lp6751
S'med'
p6752
aS'high'
p6753
ag59
ag4
aS'small'
p6754
aS'med'
p6755
aS'unacc'
p6756
aa(lp6757
S'med'
p6758
aS'high'
p6759
ag59
ag4
aS'small'
p6760
aS'high'
p6761
aS'unacc'
p6762
aa(lp6763
S'med'
p6764
aS'high'
p6765
ag59
ag4
aS'med'
p6766
aS'low'
p6767
aS'unacc'
p6768
aa(lp6769
S'med'
p6770
aS'high'
p6771
ag59
ag4
aS'med'
p6772
aS'med'
p6773
aS'unacc'
p6774
aa(lp6775
S'med'
p6776
aS'high'
p6777
ag59
ag4
aS'med'
p6778
aS'high'
p6779
aS'unacc'
p6780
aa(lp6781
S'med'
p6782
aS'high'
p6783
ag59
ag4
aS'big'
p6784
aS'low'
p6785
aS'unacc'
p6786
aa(lp6787
S'med'
p6788
aS'high'
p6789
ag59
ag4
aS'big'
p6790
aS'med'
p6791
aS'unacc'
p6792
aa(lp6793
S'med'
p6794
aS'high'
p6795
ag59
ag4
aS'big'
p6796
aS'high'
p6797
aS'unacc'
p6798
aa(lp6799
S'med'
p6800
aS'high'
p6801
ag59
ag59
aS'small'
p6802
aS'low'
p6803
aS'unacc'
p6804
aa(lp6805
S'med'
p6806
aS'high'
p6807
ag59
ag59
aS'small'
p6808
aS'med'
p6809
aS'unacc'
p6810
aa(lp6811
S'med'
p6812
aS'high'
p6813
ag59
ag59
aS'small'
p6814
aS'high'
p6815
aS'acc'
p6816
aa(lp6817
S'med'
p6818
aS'high'
p6819
ag59
ag59
aS'med'
p6820
aS'low'
p6821
aS'unacc'
p6822
aa(lp6823
S'med'
p6824
aS'high'
p6825
ag59
ag59
aS'med'
p6826
aS'med'
p6827
aS'acc'
p6828
aa(lp6829
S'med'
p6830
aS'high'
p6831
ag59
ag59
aS'med'
p6832
aS'high'
p6833
aS'acc'
p6834
aa(lp6835
S'med'
p6836
aS'high'
p6837
ag59
ag59
aS'big'
p6838
aS'low'
p6839
aS'unacc'
p6840
aa(lp6841
S'med'
p6842
aS'high'
p6843
ag59
ag59
aS'big'
p6844
aS'med'
p6845
aS'acc'
p6846
aa(lp6847
S'med'
p6848
aS'high'
p6849
ag59
ag59
aS'big'
p6850
aS'high'
p6851
aS'acc'
p6852
aa(lp6853
S'med'
p6854
aS'high'
p6855
ag59
aS'more'
p6856
aS'small'
p6857
aS'low'
p6858
aS'unacc'
p6859
aa(lp6860
S'med'
p6861
aS'high'
p6862
ag59
aS'more'
p6863
aS'small'
p6864
aS'med'
p6865
aS'unacc'
p6866
aa(lp6867
S'med'
p6868
aS'high'
p6869
ag59
aS'more'
p6870
aS'small'
p6871
aS'high'
p6872
aS'acc'
p6873
aa(lp6874
S'med'
p6875
aS'high'
p6876
ag59
aS'more'
p6877
aS'med'
p6878
aS'low'
p6879
aS'unacc'
p6880
aa(lp6881
S'med'
p6882
aS'high'
p6883
ag59
aS'more'
p6884
aS'med'
p6885
aS'med'
p6886
aS'acc'
p6887
aa(lp6888
S'med'
p6889
aS'high'
p6890
ag59
aS'more'
p6891
aS'med'
p6892
aS'high'
p6893
aS'acc'
p6894
aa(lp6895
S'med'
p6896
aS'high'
p6897
ag59
aS'more'
p6898
aS'big'
p6899
aS'low'
p6900
aS'unacc'
p6901
aa(lp6902
S'med'
p6903
aS'high'
p6904
ag59
aS'more'
p6905
aS'big'
p6906
aS'med'
p6907
aS'acc'
p6908
aa(lp6909
S'med'
p6910
aS'high'
p6911
ag59
aS'more'
p6912
aS'big'
p6913
aS'high'
p6914
aS'acc'
p6915
aa(lp6916
S'med'
p6917
aS'high'
p6918
aS'5more'
p6919
ag4
aS'small'
p6920
aS'low'
p6921
aS'unacc'
p6922
aa(lp6923
S'med'
p6924
aS'high'
p6925
aS'5more'
p6926
ag4
aS'small'
p6927
aS'med'
p6928
aS'unacc'
p6929
aa(lp6930
S'med'
p6931
aS'high'
p6932
aS'5more'
p6933
ag4
aS'small'
p6934
aS'high'
p6935
aS'unacc'
p6936
aa(lp6937
S'med'
p6938
aS'high'
p6939
aS'5more'
p6940
ag4
aS'med'
p6941
aS'low'
p6942
aS'unacc'
p6943
aa(lp6944
S'med'
p6945
aS'high'
p6946
aS'5more'
p6947
ag4
aS'med'
p6948
aS'med'
p6949
aS'unacc'
p6950
aa(lp6951
S'med'
p6952
aS'high'
p6953
aS'5more'
p6954
ag4
aS'med'
p6955
aS'high'
p6956
aS'unacc'
p6957
aa(lp6958
S'med'
p6959
aS'high'
p6960
aS'5more'
p6961
ag4
aS'big'
p6962
aS'low'
p6963
aS'unacc'
p6964
aa(lp6965
S'med'
p6966
aS'high'
p6967
aS'5more'
p6968
ag4
aS'big'
p6969
aS'med'
p6970
aS'unacc'
p6971
aa(lp6972
S'med'
p6973
aS'high'
p6974
aS'5more'
p6975
ag4
aS'big'
p6976
aS'high'
p6977
aS'unacc'
p6978
aa(lp6979
S'med'
p6980
aS'high'
p6981
aS'5more'
p6982
ag59
aS'small'
p6983
aS'low'
p6984
aS'unacc'
p6985
aa(lp6986
S'med'
p6987
aS'high'
p6988
aS'5more'
p6989
ag59
aS'small'
p6990
aS'med'
p6991
aS'unacc'
p6992
aa(lp6993
S'med'
p6994
aS'high'
p6995
aS'5more'
p6996
ag59
aS'small'
p6997
aS'high'
p6998
aS'acc'
p6999
aa(lp7000
S'med'
p7001
aS'high'
p7002
aS'5more'
p7003
ag59
aS'med'
p7004
aS'low'
p7005
aS'unacc'
p7006
aa(lp7007
S'med'
p7008
aS'high'
p7009
aS'5more'
p7010
ag59
aS'med'
p7011
aS'med'
p7012
aS'acc'
p7013
aa(lp7014
S'med'
p7015
aS'high'
p7016
aS'5more'
p7017
ag59
aS'med'
p7018
aS'high'
p7019
aS'acc'
p7020
aa(lp7021
S'med'
p7022
aS'high'
p7023
aS'5more'
p7024
ag59
aS'big'
p7025
aS'low'
p7026
aS'unacc'
p7027
aa(lp7028
S'med'
p7029
aS'high'
p7030
aS'5more'
p7031
ag59
aS'big'
p7032
aS'med'
p7033
aS'acc'
p7034
aa(lp7035
S'med'
p7036
aS'high'
p7037
aS'5more'
p7038
ag59
aS'big'
p7039
aS'high'
p7040
aS'acc'
p7041
aa(lp7042
S'med'
p7043
aS'high'
p7044
aS'5more'
p7045
aS'more'
p7046
aS'small'
p7047
aS'low'
p7048
aS'unacc'
p7049
aa(lp7050
S'med'
p7051
aS'high'
p7052
aS'5more'
p7053
aS'more'
p7054
aS'small'
p7055
aS'med'
p7056
aS'unacc'
p7057
aa(lp7058
S'med'
p7059
aS'high'
p7060
aS'5more'
p7061
aS'more'
p7062
aS'small'
p7063
aS'high'
p7064
aS'acc'
p7065
aa(lp7066
S'med'
p7067
aS'high'
p7068
aS'5more'
p7069
aS'more'
p7070
aS'med'
p7071
aS'low'
p7072
aS'unacc'
p7073
aa(lp7074
S'med'
p7075
aS'high'
p7076
aS'5more'
p7077
aS'more'
p7078
aS'med'
p7079
aS'med'
p7080
aS'acc'
p7081
aa(lp7082
S'med'
p7083
aS'high'
p7084
aS'5more'
p7085
aS'more'
p7086
aS'med'
p7087
aS'high'
p7088
aS'acc'
p7089
aa(lp7090
S'med'
p7091
aS'high'
p7092
aS'5more'
p7093
aS'more'
p7094
aS'big'
p7095
aS'low'
p7096
aS'unacc'
p7097
aa(lp7098
S'med'
p7099
aS'high'
p7100
aS'5more'
p7101
aS'more'
p7102
aS'big'
p7103
aS'med'
p7104
aS'acc'
p7105
aa(lp7106
S'med'
p7107
aS'high'
p7108
aS'5more'
p7109
aS'more'
p7110
aS'big'
p7111
aS'high'
p7112
aS'acc'
p7113
aa(lp7114
S'med'
p7115
aS'med'
p7116
ag4
ag4
aS'small'
p7117
aS'low'
p7118
aS'unacc'
p7119
aa(lp7120
S'med'
p7121
aS'med'
p7122
ag4
ag4
aS'small'
p7123
aS'med'
p7124
aS'unacc'
p7125
aa(lp7126
S'med'
p7127
aS'med'
p7128
ag4
ag4
aS'small'
p7129
aS'high'
p7130
aS'unacc'
p7131
aa(lp7132
S'med'
p7133
aS'med'
p7134
ag4
ag4
aS'med'
p7135
aS'low'
p7136
aS'unacc'
p7137
aa(lp7138
S'med'
p7139
aS'med'
p7140
ag4
ag4
aS'med'
p7141
aS'med'
p7142
aS'unacc'
p7143
aa(lp7144
S'med'
p7145
aS'med'
p7146
ag4
ag4
aS'med'
p7147
aS'high'
p7148
aS'unacc'
p7149
aa(lp7150
S'med'
p7151
aS'med'
p7152
ag4
ag4
aS'big'
p7153
aS'low'
p7154
aS'unacc'
p7155
aa(lp7156
S'med'
p7157
aS'med'
p7158
ag4
ag4
aS'big'
p7159
aS'med'
p7160
aS'unacc'
p7161
aa(lp7162
S'med'
p7163
aS'med'
p7164
ag4
ag4
aS'big'
p7165
aS'high'
p7166
aS'unacc'
p7167
aa(lp7168
S'med'
p7169
aS'med'
p7170
ag4
ag59
aS'small'
p7171
aS'low'
p7172
aS'unacc'
p7173
aa(lp7174
S'med'
p7175
aS'med'
p7176
ag4
ag59
aS'small'
p7177
aS'med'
p7178
aS'acc'
p7179
aa(lp7180
S'med'
p7181
aS'med'
p7182
ag4
ag59
aS'small'
p7183
aS'high'
p7184
aS'acc'
p7185
aa(lp7186
S'med'
p7187
aS'med'
p7188
ag4
ag59
aS'med'
p7189
aS'low'
p7190
aS'unacc'
p7191
aa(lp7192
S'med'
p7193
aS'med'
p7194
ag4
ag59
aS'med'
p7195
aS'med'
p7196
aS'acc'
p7197
aa(lp7198
S'med'
p7199
aS'med'
p7200
ag4
ag59
aS'med'
p7201
aS'high'
p7202
aS'acc'
p7203
aa(lp7204
S'med'
p7205
aS'med'
p7206
ag4
ag59
aS'big'
p7207
aS'low'
p7208
aS'unacc'
p7209
aa(lp7210
S'med'
p7211
aS'med'
p7212
ag4
ag59
aS'big'
p7213
aS'med'
p7214
aS'acc'
p7215
aa(lp7216
S'med'
p7217
aS'med'
p7218
ag4
ag59
aS'big'
p7219
aS'high'
p7220
aS'vgood'
p7221
aa(lp7222
S'med'
p7223
aS'med'
p7224
ag4
aS'more'
p7225
aS'small'
p7226
aS'low'
p7227
aS'unacc'
p7228
aa(lp7229
S'med'
p7230
aS'med'
p7231
ag4
aS'more'
p7232
aS'small'
p7233
aS'med'
p7234
aS'unacc'
p7235
aa(lp7236
S'med'
p7237
aS'med'
p7238
ag4
aS'more'
p7239
aS'small'
p7240
aS'high'
p7241
aS'unacc'
p7242
aa(lp7243
S'med'
p7244
aS'med'
p7245
ag4
aS'more'
p7246
aS'med'
p7247
aS'low'
p7248
aS'unacc'
p7249
aa(lp7250
S'med'
p7251
aS'med'
p7252
ag4
aS'more'
p7253
aS'med'
p7254
aS'med'
p7255
aS'acc'
p7256
aa(lp7257
S'med'
p7258
aS'med'
p7259
ag4
aS'more'
p7260
aS'med'
p7261
aS'high'
p7262
aS'acc'
p7263
aa(lp7264
S'med'
p7265
aS'med'
p7266
ag4
aS'more'
p7267
aS'big'
p7268
aS'low'
p7269
aS'unacc'
p7270
aa(lp7271
S'med'
p7272
aS'med'
p7273
ag4
aS'more'
p7274
aS'big'
p7275
aS'med'
p7276
aS'acc'
p7277
aa(lp7278
S'med'
p7279
aS'med'
p7280
ag4
aS'more'
p7281
aS'big'
p7282
aS'high'
p7283
aS'vgood'
p7284
aa(lp7285
S'med'
p7286
aS'med'
p7287
ag177
ag4
aS'small'
p7288
aS'low'
p7289
aS'unacc'
p7290
aa(lp7291
S'med'
p7292
aS'med'
p7293
ag177
ag4
aS'small'
p7294
aS'med'
p7295
aS'unacc'
p7296
aa(lp7297
S'med'
p7298
aS'med'
p7299
ag177
ag4
aS'small'
p7300
aS'high'
p7301
aS'unacc'
p7302
aa(lp7303
S'med'
p7304
aS'med'
p7305
ag177
ag4
aS'med'
p7306
aS'low'
p7307
aS'unacc'
p7308
aa(lp7309
S'med'
p7310
aS'med'
p7311
ag177
ag4
aS'med'
p7312
aS'med'
p7313
aS'unacc'
p7314
aa(lp7315
S'med'
p7316
aS'med'
p7317
ag177
ag4
aS'med'
p7318
aS'high'
p7319
aS'unacc'
p7320
aa(lp7321
S'med'
p7322
aS'med'
p7323
ag177
ag4
aS'big'
p7324
aS'low'
p7325
aS'unacc'
p7326
aa(lp7327
S'med'
p7328
aS'med'
p7329
ag177
ag4
aS'big'
p7330
aS'med'
p7331
aS'unacc'
p7332
aa(lp7333
S'med'
p7334
aS'med'
p7335
ag177
ag4
aS'big'
p7336
aS'high'
p7337
aS'unacc'
p7338
aa(lp7339
S'med'
p7340
aS'med'
p7341
ag177
ag59
aS'small'
p7342
aS'low'
p7343
aS'unacc'
p7344
aa(lp7345
S'med'
p7346
aS'med'
p7347
ag177
ag59
aS'small'
p7348
aS'med'
p7349
aS'acc'
p7350
aa(lp7351
S'med'
p7352
aS'med'
p7353
ag177
ag59
aS'small'
p7354
aS'high'
p7355
aS'acc'
p7356
aa(lp7357
S'med'
p7358
aS'med'
p7359
ag177
ag59
aS'med'
p7360
aS'low'
p7361
aS'unacc'
p7362
aa(lp7363
S'med'
p7364
aS'med'
p7365
ag177
ag59
aS'med'
p7366
aS'med'
p7367
aS'acc'
p7368
aa(lp7369
S'med'
p7370
aS'med'
p7371
ag177
ag59
aS'med'
p7372
aS'high'
p7373
aS'acc'
p7374
aa(lp7375
S'med'
p7376
aS'med'
p7377
ag177
ag59
aS'big'
p7378
aS'low'
p7379
aS'unacc'
p7380
aa(lp7381
S'med'
p7382
aS'med'
p7383
ag177
ag59
aS'big'
p7384
aS'med'
p7385
aS'acc'
p7386
aa(lp7387
S'med'
p7388
aS'med'
p7389
ag177
ag59
aS'big'
p7390
aS'high'
p7391
aS'vgood'
p7392
aa(lp7393
S'med'
p7394
aS'med'
p7395
ag177
aS'more'
p7396
aS'small'
p7397
aS'low'
p7398
aS'unacc'
p7399
aa(lp7400
S'med'
p7401
aS'med'
p7402
ag177
aS'more'
p7403
aS'small'
p7404
aS'med'
p7405
aS'acc'
p7406
aa(lp7407
S'med'
p7408
aS'med'
p7409
ag177
aS'more'
p7410
aS'small'
p7411
aS'high'
p7412
aS'acc'
p7413
aa(lp7414
S'med'
p7415
aS'med'
p7416
ag177
aS'more'
p7417
aS'med'
p7418
aS'low'
p7419
aS'unacc'
p7420
aa(lp7421
S'med'
p7422
aS'med'
p7423
ag177
aS'more'
p7424
aS'med'
p7425
aS'med'
p7426
aS'acc'
p7427
aa(lp7428
S'med'
p7429
aS'med'
p7430
ag177
aS'more'
p7431
aS'med'
p7432
aS'high'
p7433
aS'vgood'
p7434
aa(lp7435
S'med'
p7436
aS'med'
p7437
ag177
aS'more'
p7438
aS'big'
p7439
aS'low'
p7440
aS'unacc'
p7441
aa(lp7442
S'med'
p7443
aS'med'
p7444
ag177
aS'more'
p7445
aS'big'
p7446
aS'med'
p7447
aS'acc'
p7448
aa(lp7449
S'med'
p7450
aS'med'
p7451
ag177
aS'more'
p7452
aS'big'
p7453
aS'high'
p7454
aS'vgood'
p7455
aa(lp7456
S'med'
p7457
aS'med'
p7458
ag59
ag4
aS'small'
p7459
aS'low'
p7460
aS'unacc'
p7461
aa(lp7462
S'med'
p7463
aS'med'
p7464
ag59
ag4
aS'small'
p7465
aS'med'
p7466
aS'unacc'
p7467
aa(lp7468
S'med'
p7469
aS'med'
p7470
ag59
ag4
aS'small'
p7471
aS'high'
p7472
aS'unacc'
p7473
aa(lp7474
S'med'
p7475
aS'med'
p7476
ag59
ag4
aS'med'
p7477
aS'low'
p7478
aS'unacc'
p7479
aa(lp7480
S'med'
p7481
aS'med'
p7482
ag59
ag4
aS'med'
p7483
aS'med'
p7484
aS'unacc'
p7485
aa(lp7486
S'med'
p7487
aS'med'
p7488
ag59
ag4
aS'med'
p7489
aS'high'
p7490
aS'unacc'
p7491
aa(lp7492
S'med'
p7493
aS'med'
p7494
ag59
ag4
aS'big'
p7495
aS'low'
p7496
aS'unacc'
p7497
aa(lp7498
S'med'
p7499
aS'med'
p7500
ag59
ag4
aS'big'
p7501
aS'med'
p7502
aS'unacc'
p7503
aa(lp7504
S'med'
p7505
aS'med'
p7506
ag59
ag4
aS'big'
p7507
aS'high'
p7508
aS'unacc'
p7509
aa(lp7510
S'med'
p7511
aS'med'
p7512
ag59
ag59
aS'small'
p7513
aS'low'
p7514
aS'unacc'
p7515
aa(lp7516
S'med'
p7517
aS'med'
p7518
ag59
ag59
aS'small'
p7519
aS'med'
p7520
aS'acc'
p7521
aa(lp7522
S'med'
p7523
aS'med'
p7524
ag59
ag59
aS'small'
p7525
aS'high'
p7526
aS'acc'
p7527
aa(lp7528
S'med'
p7529
aS'med'
p7530
ag59
ag59
aS'med'
p7531
aS'low'
p7532
aS'unacc'
p7533
aa(lp7534
S'med'
p7535
aS'med'
p7536
ag59
ag59
aS'med'
p7537
aS'med'
p7538
aS'acc'
p7539
aa(lp7540
S'med'
p7541
aS'med'
p7542
ag59
ag59
aS'med'
p7543
aS'high'
p7544
aS'vgood'
p7545
aa(lp7546
S'med'
p7547
aS'med'
p7548
ag59
ag59
aS'big'
p7549
aS'low'
p7550
aS'unacc'
p7551
aa(lp7552
S'med'
p7553
aS'med'
p7554
ag59
ag59
aS'big'
p7555
aS'med'
p7556
aS'acc'
p7557
aa(lp7558
S'med'
p7559
aS'med'
p7560
ag59
ag59
aS'big'
p7561
aS'high'
p7562
aS'vgood'
p7563
aa(lp7564
S'med'
p7565
aS'med'
p7566
ag59
aS'more'
p7567
aS'small'
p7568
aS'low'
p7569
aS'unacc'
p7570
aa(lp7571
S'med'
p7572
aS'med'
p7573
ag59
aS'more'
p7574
aS'small'
p7575
aS'med'
p7576
aS'acc'
p7577
aa(lp7578
S'med'
p7579
aS'med'
p7580
ag59
aS'more'
p7581
aS'small'
p7582
aS'high'
p7583
aS'acc'
p7584
aa(lp7585
S'med'
p7586
aS'med'
p7587
ag59
aS'more'
p7588
aS'med'
p7589
aS'low'
p7590
aS'unacc'
p7591
aa(lp7592
S'med'
p7593
aS'med'
p7594
ag59
aS'more'
p7595
aS'med'
p7596
aS'med'
p7597
aS'acc'
p7598
aa(lp7599
S'med'
p7600
aS'med'
p7601
ag59
aS'more'
p7602
aS'med'
p7603
aS'high'
p7604
aS'vgood'
p7605
aa(lp7606
S'med'
p7607
aS'med'
p7608
ag59
aS'more'
p7609
aS'big'
p7610
aS'low'
p7611
aS'unacc'
p7612
aa(lp7613
S'med'
p7614
aS'med'
p7615
ag59
aS'more'
p7616
aS'big'
p7617
aS'med'
p7618
aS'acc'
p7619
aa(lp7620
S'med'
p7621
aS'med'
p7622
ag59
aS'more'
p7623
aS'big'
p7624
aS'high'
p7625
aS'vgood'
p7626
aa(lp7627
S'med'
p7628
aS'med'
p7629
aS'5more'
p7630
ag4
aS'small'
p7631
aS'low'
p7632
aS'unacc'
p7633
aa(lp7634
S'med'
p7635
aS'med'
p7636
aS'5more'
p7637
ag4
aS'small'
p7638
aS'med'
p7639
aS'unacc'
p7640
aa(lp7641
S'med'
p7642
aS'med'
p7643
aS'5more'
p7644
ag4
aS'small'
p7645
aS'high'
p7646
aS'unacc'
p7647
aa(lp7648
S'med'
p7649
aS'med'
p7650
aS'5more'
p7651
ag4
aS'med'
p7652
aS'low'
p7653
aS'unacc'
p7654
aa(lp7655
S'med'
p7656
aS'med'
p7657
aS'5more'
p7658
ag4
aS'med'
p7659
aS'med'
p7660
aS'unacc'
p7661
aa(lp7662
S'med'
p7663
aS'med'
p7664
aS'5more'
p7665
ag4
aS'med'
p7666
aS'high'
p7667
aS'unacc'
p7668
aa(lp7669
S'med'
p7670
aS'med'
p7671
aS'5more'
p7672
ag4
aS'big'
p7673
aS'low'
p7674
aS'unacc'
p7675
aa(lp7676
S'med'
p7677
aS'med'
p7678
aS'5more'
p7679
ag4
aS'big'
p7680
aS'med'
p7681
aS'unacc'
p7682
aa(lp7683
S'med'
p7684
aS'med'
p7685
aS'5more'
p7686
ag4
aS'big'
p7687
aS'high'
p7688
aS'unacc'
p7689
aa(lp7690
S'med'
p7691
aS'med'
p7692
aS'5more'
p7693
ag59
aS'small'
p7694
aS'low'
p7695
aS'unacc'
p7696
aa(lp7697
S'med'
p7698
aS'med'
p7699
aS'5more'
p7700
ag59
aS'small'
p7701
aS'med'
p7702
aS'acc'
p7703
aa(lp7704
S'med'
p7705
aS'med'
p7706
aS'5more'
p7707
ag59
aS'small'
p7708
aS'high'
p7709
aS'acc'
p7710
aa(lp7711
S'med'
p7712
aS'med'
p7713
aS'5more'
p7714
ag59
aS'med'
p7715
aS'low'
p7716
aS'unacc'
p7717
aa(lp7718
S'med'
p7719
aS'med'
p7720
aS'5more'
p7721
ag59
aS'med'
p7722
aS'med'
p7723
aS'acc'
p7724
aa(lp7725
S'med'
p7726
aS'med'
p7727
aS'5more'
p7728
ag59
aS'med'
p7729
aS'high'
p7730
aS'vgood'
p7731
aa(lp7732
S'med'
p7733
aS'med'
p7734
aS'5more'
p7735
ag59
aS'big'
p7736
aS'low'
p7737
aS'unacc'
p7738
aa(lp7739
S'med'
p7740
aS'med'
p7741
aS'5more'
p7742
ag59
aS'big'
p7743
aS'med'
p7744
aS'acc'
p7745
aa(lp7746
S'med'
p7747
aS'med'
p7748
aS'5more'
p7749
ag59
aS'big'
p7750
aS'high'
p7751
aS'vgood'
p7752
aa(lp7753
S'med'
p7754
aS'med'
p7755
aS'5more'
p7756
aS'more'
p7757
aS'small'
p7758
aS'low'
p7759
aS'unacc'
p7760
aa(lp7761
S'med'
p7762
aS'med'
p7763
aS'5more'
p7764
aS'more'
p7765
aS'small'
p7766
aS'med'
p7767
aS'acc'
p7768
aa(lp7769
S'med'
p7770
aS'med'
p7771
aS'5more'
p7772
aS'more'
p7773
aS'small'
p7774
aS'high'
p7775
aS'acc'
p7776
aa(lp7777
S'med'
p7778
aS'med'
p7779
aS'5more'
p7780
aS'more'
p7781
aS'med'
p7782
aS'low'
p7783
aS'unacc'
p7784
aa(lp7785
S'med'
p7786
aS'med'
p7787
aS'5more'
p7788
aS'more'
p7789
aS'med'
p7790
aS'med'
p7791
aS'acc'
p7792
aa(lp7793
S'med'
p7794
aS'med'
p7795
aS'5more'
p7796
aS'more'
p7797
aS'med'
p7798
aS'high'
p7799
aS'vgood'
p7800
aa(lp7801
S'med'
p7802
aS'med'
p7803
aS'5more'
p7804
aS'more'
p7805
aS'big'
p7806
aS'low'
p7807
aS'unacc'
p7808
aa(lp7809
S'med'
p7810
aS'med'
p7811
aS'5more'
p7812
aS'more'
p7813
aS'big'
p7814
aS'med'
p7815
aS'acc'
p7816
aa(lp7817
S'med'
p7818
aS'med'
p7819
aS'5more'
p7820
aS'more'
p7821
aS'big'
p7822
aS'high'
p7823
aS'vgood'
p7824
aa(lp7825
S'med'
p7826
aS'low'
p7827
ag4
ag4
aS'small'
p7828
aS'low'
p7829
aS'unacc'
p7830
aa(lp7831
S'med'
p7832
aS'low'
p7833
ag4
ag4
aS'small'
p7834
aS'med'
p7835
aS'unacc'
p7836
aa(lp7837
S'med'
p7838
aS'low'
p7839
ag4
ag4
aS'small'
p7840
aS'high'
p7841
aS'unacc'
p7842
aa(lp7843
S'med'
p7844
aS'low'
p7845
ag4
ag4
aS'med'
p7846
aS'low'
p7847
aS'unacc'
p7848
aa(lp7849
S'med'
p7850
aS'low'
p7851
ag4
ag4
aS'med'
p7852
aS'med'
p7853
aS'unacc'
p7854
aa(lp7855
S'med'
p7856
aS'low'
p7857
ag4
ag4
aS'med'
p7858
aS'high'
p7859
aS'unacc'
p7860
aa(lp7861
S'med'
p7862
aS'low'
p7863
ag4
ag4
aS'big'
p7864
aS'low'
p7865
aS'unacc'
p7866
aa(lp7867
S'med'
p7868
aS'low'
p7869
ag4
ag4
aS'big'
p7870
aS'med'
p7871
aS'unacc'
p7872
aa(lp7873
S'med'
p7874
aS'low'
p7875
ag4
ag4
aS'big'
p7876
aS'high'
p7877
aS'unacc'
p7878
aa(lp7879
S'med'
p7880
aS'low'
p7881
ag4
ag59
aS'small'
p7882
aS'low'
p7883
aS'unacc'
p7884
aa(lp7885
S'med'
p7886
aS'low'
p7887
ag4
ag59
aS'small'
p7888
aS'med'
p7889
aS'acc'
p7890
aa(lp7891
S'med'
p7892
aS'low'
p7893
ag4
ag59
aS'small'
p7894
aS'high'
p7895
aS'good'
p7896
aa(lp7897
S'med'
p7898
aS'low'
p7899
ag4
ag59
aS'med'
p7900
aS'low'
p7901
aS'unacc'
p7902
aa(lp7903
S'med'
p7904
aS'low'
p7905
ag4
ag59
aS'med'
p7906
aS'med'
p7907
aS'acc'
p7908
aa(lp7909
S'med'
p7910
aS'low'
p7911
ag4
ag59
aS'med'
p7912
aS'high'
p7913
aS'good'
p7914
aa(lp7915
S'med'
p7916
aS'low'
p7917
ag4
ag59
aS'big'
p7918
aS'low'
p7919
aS'unacc'
p7920
aa(lp7921
S'med'
p7922
aS'low'
p7923
ag4
ag59
aS'big'
p7924
aS'med'
p7925
aS'good'
p7926
aa(lp7927
S'med'
p7928
aS'low'
p7929
ag4
ag59
aS'big'
p7930
aS'high'
p7931
aS'vgood'
p7932
aa(lp7933
S'med'
p7934
aS'low'
p7935
ag4
aS'more'
p7936
aS'small'
p7937
aS'low'
p7938
aS'unacc'
p7939
aa(lp7940
S'med'
p7941
aS'low'
p7942
ag4
aS'more'
p7943
aS'small'
p7944
aS'med'
p7945
aS'unacc'
p7946
aa(lp7947
S'med'
p7948
aS'low'
p7949
ag4
aS'more'
p7950
aS'small'
p7951
aS'high'
p7952
aS'unacc'
p7953
aa(lp7954
S'med'
p7955
aS'low'
p7956
ag4
aS'more'
p7957
aS'med'
p7958
aS'low'
p7959
aS'unacc'
p7960
aa(lp7961
S'med'
p7962
aS'low'
p7963
ag4
aS'more'
p7964
aS'med'
p7965
aS'med'
p7966
aS'acc'
p7967
aa(lp7968
S'med'
p7969
aS'low'
p7970
ag4
aS'more'
p7971
aS'med'
p7972
aS'high'
p7973
aS'good'
p7974
aa(lp7975
S'med'
p7976
aS'low'
p7977
ag4
aS'more'
p7978
aS'big'
p7979
aS'low'
p7980
aS'unacc'
p7981
aa(lp7982
S'med'
p7983
aS'low'
p7984
ag4
aS'more'
p7985
aS'big'
p7986
aS'med'
p7987
aS'good'
p7988
aa(lp7989
S'med'
p7990
aS'low'
p7991
ag4
aS'more'
p7992
aS'big'
p7993
aS'high'
p7994
aS'vgood'
p7995
aa(lp7996
S'med'
p7997
aS'low'
p7998
ag177
ag4
aS'small'
p7999
aS'low'
p8000
aS'unacc'
p8001
aa(lp8002
S'med'
p8003
aS'low'
p8004
ag177
ag4
aS'small'
p8005
aS'med'
p8006
aS'unacc'
p8007
aa(lp8008
S'med'
p8009
aS'low'
p8010
ag177
ag4
aS'small'
p8011
aS'high'
p8012
aS'unacc'
p8013
aa(lp8014
S'med'
p8015
aS'low'
p8016
ag177
ag4
aS'med'
p8017
aS'low'
p8018
aS'unacc'
p8019
aa(lp8020
S'med'
p8021
aS'low'
p8022
ag177
ag4
aS'med'
p8023
aS'med'
p8024
aS'unacc'
p8025
aa(lp8026
S'med'
p8027
aS'low'
p8028
ag177
ag4
aS'med'
p8029
aS'high'
p8030
aS'unacc'
p8031
aa(lp8032
S'med'
p8033
aS'low'
p8034
ag177
ag4
aS'big'
p8035
aS'low'
p8036
aS'unacc'
p8037
aa(lp8038
S'med'
p8039
aS'low'
p8040
ag177
ag4
aS'big'
p8041
aS'med'
p8042
aS'unacc'
p8043
aa(lp8044
S'med'
p8045
aS'low'
p8046
ag177
ag4
aS'big'
p8047
aS'high'
p8048
aS'unacc'
p8049
aa(lp8050
S'med'
p8051
aS'low'
p8052
ag177
ag59
aS'small'
p8053
aS'low'
p8054
aS'unacc'
p8055
aa(lp8056
S'med'
p8057
aS'low'
p8058
ag177
ag59
aS'small'
p8059
aS'med'
p8060
aS'acc'
p8061
aa(lp8062
S'med'
p8063
aS'low'
p8064
ag177
ag59
aS'small'
p8065
aS'high'
p8066
aS'good'
p8067
aa(lp8068
S'med'
p8069
aS'low'
p8070
ag177
ag59
aS'med'
p8071
aS'low'
p8072
aS'unacc'
p8073
aa(lp8074
S'med'
p8075
aS'low'
p8076
ag177
ag59
aS'med'
p8077
aS'med'
p8078
aS'acc'
p8079
aa(lp8080
S'med'
p8081
aS'low'
p8082
ag177
ag59
aS'med'
p8083
aS'high'
p8084
aS'good'
p8085
aa(lp8086
S'med'
p8087
aS'low'
p8088
ag177
ag59
aS'big'
p8089
aS'low'
p8090
aS'unacc'
p8091
aa(lp8092
S'med'
p8093
aS'low'
p8094
ag177
ag59
aS'big'
p8095
aS'med'
p8096
aS'good'
p8097
aa(lp8098
S'med'
p8099
aS'low'
p8100
ag177
ag59
aS'big'
p8101
aS'high'
p8102
aS'vgood'
p8103
aa(lp8104
S'med'
p8105
aS'low'
p8106
ag177
aS'more'
p8107
aS'small'
p8108
aS'low'
p8109
aS'unacc'
p8110
aa(lp8111
S'med'
p8112
aS'low'
p8113
ag177
aS'more'
p8114
aS'small'
p8115
aS'med'
p8116
aS'acc'
p8117
aa(lp8118
S'med'
p8119
aS'low'
p8120
ag177
aS'more'
p8121
aS'small'
p8122
aS'high'
p8123
aS'good'
p8124
aa(lp8125
S'med'
p8126
aS'low'
p8127
ag177
aS'more'
p8128
aS'med'
p8129
aS'low'
p8130
aS'unacc'
p8131
aa(lp8132
S'med'
p8133
aS'low'
p8134
ag177
aS'more'
p8135
aS'med'
p8136
aS'med'
p8137
aS'good'
p8138
aa(lp8139
S'med'
p8140
aS'low'
p8141
ag177
aS'more'
p8142
aS'med'
p8143
aS'high'
p8144
aS'vgood'
p8145
aa(lp8146
S'med'
p8147
aS'low'
p8148
ag177
aS'more'
p8149
aS'big'
p8150
aS'low'
p8151
aS'unacc'
p8152
aa(lp8153
S'med'
p8154
aS'low'
p8155
ag177
aS'more'
p8156
aS'big'
p8157
aS'med'
p8158
aS'good'
p8159
aa(lp8160
S'med'
p8161
aS'low'
p8162
ag177
aS'more'
p8163
aS'big'
p8164
aS'high'
p8165
aS'vgood'
p8166
aa(lp8167
S'med'
p8168
aS'low'
p8169
ag59
ag4
aS'small'
p8170
aS'low'
p8171
aS'unacc'
p8172
aa(lp8173
S'med'
p8174
aS'low'
p8175
ag59
ag4
aS'small'
p8176
aS'med'
p8177
aS'unacc'
p8178
aa(lp8179
S'med'
p8180
aS'low'
p8181
ag59
ag4
aS'small'
p8182
aS'high'
p8183
aS'unacc'
p8184
aa(lp8185
S'med'
p8186
aS'low'
p8187
ag59
ag4
aS'med'
p8188
aS'low'
p8189
aS'unacc'
p8190
aa(lp8191
S'med'
p8192
aS'low'
p8193
ag59
ag4
aS'med'
p8194
aS'med'
p8195
aS'unacc'
p8196
aa(lp8197
S'med'
p8198
aS'low'
p8199
ag59
ag4
aS'med'
p8200
aS'high'
p8201
aS'unacc'
p8202
aa(lp8203
S'med'
p8204
aS'low'
p8205
ag59
ag4
aS'big'
p8206
aS'low'
p8207
aS'unacc'
p8208
aa(lp8209
S'med'
p8210
aS'low'
p8211
ag59
ag4
aS'big'
p8212
aS'med'
p8213
aS'unacc'
p8214
aa(lp8215
S'med'
p8216
aS'low'
p8217
ag59
ag4
aS'big'
p8218
aS'high'
p8219
aS'unacc'
p8220
aa(lp8221
S'med'
p8222
aS'low'
p8223
ag59
ag59
aS'small'
p8224
aS'low'
p8225
aS'unacc'
p8226
aa(lp8227
S'med'
p8228
aS'low'
p8229
ag59
ag59
aS'small'
p8230
aS'med'
p8231
aS'acc'
p8232
aa(lp8233
S'med'
p8234
aS'low'
p8235
ag59
ag59
aS'small'
p8236
aS'high'
p8237
aS'good'
p8238
aa(lp8239
S'med'
p8240
aS'low'
p8241
ag59
ag59
aS'med'
p8242
aS'low'
p8243
aS'unacc'
p8244
aa(lp8245
S'med'
p8246
aS'low'
p8247
ag59
ag59
aS'med'
p8248
aS'med'
p8249
aS'good'
p8250
aa(lp8251
S'med'
p8252
aS'low'
p8253
ag59
ag59
aS'med'
p8254
aS'high'
p8255
aS'vgood'
p8256
aa(lp8257
S'med'
p8258
aS'low'
p8259
ag59
ag59
aS'big'
p8260
aS'low'
p8261
aS'unacc'
p8262
aa(lp8263
S'med'
p8264
aS'low'
p8265
ag59
ag59
aS'big'
p8266
aS'med'
p8267
aS'good'
p8268
aa(lp8269
S'med'
p8270
aS'low'
p8271
ag59
ag59
aS'big'
p8272
aS'high'
p8273
aS'vgood'
p8274
aa(lp8275
S'med'
p8276
aS'low'
p8277
ag59
aS'more'
p8278
aS'small'
p8279
aS'low'
p8280
aS'unacc'
p8281
aa(lp8282
S'med'
p8283
aS'low'
p8284
ag59
aS'more'
p8285
aS'small'
p8286
aS'med'
p8287
aS'acc'
p8288
aa(lp8289
S'med'
p8290
aS'low'
p8291
ag59
aS'more'
p8292
aS'small'
p8293
aS'high'
p8294
aS'good'
p8295
aa(lp8296
S'med'
p8297
aS'low'
p8298
ag59
aS'more'
p8299
aS'med'
p8300
aS'low'
p8301
aS'unacc'
p8302
aa(lp8303
S'med'
p8304
aS'low'
p8305
ag59
aS'more'
p8306
aS'med'
p8307
aS'med'
p8308
aS'good'
p8309
aa(lp8310
S'med'
p8311
aS'low'
p8312
ag59
aS'more'
p8313
aS'med'
p8314
aS'high'
p8315
aS'vgood'
p8316
aa(lp8317
S'med'
p8318
aS'low'
p8319
ag59
aS'more'
p8320
aS'big'
p8321
aS'low'
p8322
aS'unacc'
p8323
aa(lp8324
S'med'
p8325
aS'low'
p8326
ag59
aS'more'
p8327
aS'big'
p8328
aS'med'
p8329
aS'good'
p8330
aa(lp8331
S'med'
p8332
aS'low'
p8333
ag59
aS'more'
p8334
aS'big'
p8335
aS'high'
p8336
aS'vgood'
p8337
aa(lp8338
S'med'
p8339
aS'low'
p8340
aS'5more'
p8341
ag4
aS'small'
p8342
aS'low'
p8343
aS'unacc'
p8344
aa(lp8345
S'med'
p8346
aS'low'
p8347
aS'5more'
p8348
ag4
aS'small'
p8349
aS'med'
p8350
aS'unacc'
p8351
aa(lp8352
S'med'
p8353
aS'low'
p8354
aS'5more'
p8355
ag4
aS'small'
p8356
aS'high'
p8357
aS'unacc'
p8358
aa(lp8359
S'med'
p8360
aS'low'
p8361
aS'5more'
p8362
ag4
aS'med'
p8363
aS'low'
p8364
aS'unacc'
p8365
aa(lp8366
S'med'
p8367
aS'low'
p8368
aS'5more'
p8369
ag4
aS'med'
p8370
aS'med'
p8371
aS'unacc'
p8372
aa(lp8373
S'med'
p8374
aS'low'
p8375
aS'5more'
p8376
ag4
aS'med'
p8377
aS'high'
p8378
aS'unacc'
p8379
aa(lp8380
S'med'
p8381
aS'low'
p8382
aS'5more'
p8383
ag4
aS'big'
p8384
aS'low'
p8385
aS'unacc'
p8386
aa(lp8387
S'med'
p8388
aS'low'
p8389
aS'5more'
p8390
ag4
aS'big'
p8391
aS'med'
p8392
aS'unacc'
p8393
aa(lp8394
S'med'
p8395
aS'low'
p8396
aS'5more'
p8397
ag4
aS'big'
p8398
aS'high'
p8399
aS'unacc'
p8400
aa(lp8401
S'med'
p8402
aS'low'
p8403
aS'5more'
p8404
ag59
aS'small'
p8405
aS'low'
p8406
aS'unacc'
p8407
aa(lp8408
S'med'
p8409
aS'low'
p8410
aS'5more'
p8411
ag59
aS'small'
p8412
aS'med'
p8413
aS'acc'
p8414
aa(lp8415
S'med'
p8416
aS'low'
p8417
aS'5more'
p8418
ag59
aS'small'
p8419
aS'high'
p8420
aS'good'
p8421
aa(lp8422
S'med'
p8423
aS'low'
p8424
aS'5more'
p8425
ag59
aS'med'
p8426
aS'low'
p8427
aS'unacc'
p8428
aa(lp8429
S'med'
p8430
aS'low'
p8431
aS'5more'
p8432
ag59
aS'med'
p8433
aS'med'
p8434
aS'good'
p8435
aa(lp8436
S'med'
p8437
aS'low'
p8438
aS'5more'
p8439
ag59
aS'med'
p8440
aS'high'
p8441
aS'vgood'
p8442
aa(lp8443
S'med'
p8444
aS'low'
p8445
aS'5more'
p8446
ag59
aS'big'
p8447
aS'low'
p8448
aS'unacc'
p8449
aa(lp8450
S'med'
p8451
aS'low'
p8452
aS'5more'
p8453
ag59
aS'big'
p8454
aS'med'
p8455
aS'good'
p8456
aa(lp8457
S'med'
p8458
aS'low'
p8459
aS'5more'
p8460
ag59
aS'big'
p8461
aS'high'
p8462
aS'vgood'
p8463
aa(lp8464
S'med'
p8465
aS'low'
p8466
aS'5more'
p8467
aS'more'
p8468
aS'small'
p8469
aS'low'
p8470
aS'unacc'
p8471
aa(lp8472
S'med'
p8473
aS'low'
p8474
aS'5more'
p8475
aS'more'
p8476
aS'small'
p8477
aS'med'
p8478
aS'acc'
p8479
aa(lp8480
S'med'
p8481
aS'low'
p8482
aS'5more'
p8483
aS'more'
p8484
aS'small'
p8485
aS'high'
p8486
aS'good'
p8487
aa(lp8488
S'med'
p8489
aS'low'
p8490
aS'5more'
p8491
aS'more'
p8492
aS'med'
p8493
aS'low'
p8494
aS'unacc'
p8495
aa(lp8496
S'med'
p8497
aS'low'
p8498
aS'5more'
p8499
aS'more'
p8500
aS'med'
p8501
aS'med'
p8502
aS'good'
p8503
aa(lp8504
S'med'
p8505
aS'low'
p8506
aS'5more'
p8507
aS'more'
p8508
aS'med'
p8509
aS'high'
p8510
aS'vgood'
p8511
aa(lp8512
S'med'
p8513
aS'low'
p8514
aS'5more'
p8515
aS'more'
p8516
aS'big'
p8517
aS'low'
p8518
aS'unacc'
p8519
aa(lp8520
S'med'
p8521
aS'low'
p8522
aS'5more'
p8523
aS'more'
p8524
aS'big'
p8525
aS'med'
p8526
aS'good'
p8527
aa(lp8528
S'med'
p8529
aS'low'
p8530
aS'5more'
p8531
aS'more'
p8532
aS'big'
p8533
aS'high'
p8534
aS'vgood'
p8535
aa(lp8536
S'low'
p8537
aS'vhigh'
p8538
ag4
ag4
aS'small'
p8539
aS'low'
p8540
aS'unacc'
p8541
aa(lp8542
S'low'
p8543
aS'vhigh'
p8544
ag4
ag4
aS'small'
p8545
aS'med'
p8546
aS'unacc'
p8547
aa(lp8548
S'low'
p8549
aS'vhigh'
p8550
ag4
ag4
aS'small'
p8551
aS'high'
p8552
aS'unacc'
p8553
aa(lp8554
S'low'
p8555
aS'vhigh'
p8556
ag4
ag4
aS'med'
p8557
aS'low'
p8558
aS'unacc'
p8559
aa(lp8560
S'low'
p8561
aS'vhigh'
p8562
ag4
ag4
aS'med'
p8563
aS'med'
p8564
aS'unacc'
p8565
aa(lp8566
S'low'
p8567
aS'vhigh'
p8568
ag4
ag4
aS'med'
p8569
aS'high'
p8570
aS'unacc'
p8571
aa(lp8572
S'low'
p8573
aS'vhigh'
p8574
ag4
ag4
aS'big'
p8575
aS'low'
p8576
aS'unacc'
p8577
aa(lp8578
S'low'
p8579
aS'vhigh'
p8580
ag4
ag4
aS'big'
p8581
aS'med'
p8582
aS'unacc'
p8583
aa(lp8584
S'low'
p8585
aS'vhigh'
p8586
ag4
ag4
aS'big'
p8587
aS'high'
p8588
aS'unacc'
p8589
aa(lp8590
S'low'
p8591
aS'vhigh'
p8592
ag4
ag59
aS'small'
p8593
aS'low'
p8594
aS'unacc'
p8595
aa(lp8596
S'low'
p8597
aS'vhigh'
p8598
ag4
ag59
aS'small'
p8599
aS'med'
p8600
aS'unacc'
p8601
aa(lp8602
S'low'
p8603
aS'vhigh'
p8604
ag4
ag59
aS'small'
p8605
aS'high'
p8606
aS'acc'
p8607
aa(lp8608
S'low'
p8609
aS'vhigh'
p8610
ag4
ag59
aS'med'
p8611
aS'low'
p8612
aS'unacc'
p8613
aa(lp8614
S'low'
p8615
aS'vhigh'
p8616
ag4
ag59
aS'med'
p8617
aS'med'
p8618
aS'unacc'
p8619
aa(lp8620
S'low'
p8621
aS'vhigh'
p8622
ag4
ag59
aS'med'
p8623
aS'high'
p8624
aS'acc'
p8625
aa(lp8626
S'low'
p8627
aS'vhigh'
p8628
ag4
ag59
aS'big'
p8629
aS'low'
p8630
aS'unacc'
p8631
aa(lp8632
S'low'
p8633
aS'vhigh'
p8634
ag4
ag59
aS'big'
p8635
aS'med'
p8636
aS'acc'
p8637
aa(lp8638
S'low'
p8639
aS'vhigh'
p8640
ag4
ag59
aS'big'
p8641
aS'high'
p8642
aS'acc'
p8643
aa(lp8644
S'low'
p8645
aS'vhigh'
p8646
ag4
aS'more'
p8647
aS'small'
p8648
aS'low'
p8649
aS'unacc'
p8650
aa(lp8651
S'low'
p8652
aS'vhigh'
p8653
ag4
aS'more'
p8654
aS'small'
p8655
aS'med'
p8656
aS'unacc'
p8657
aa(lp8658
S'low'
p8659
aS'vhigh'
p8660
ag4
aS'more'
p8661
aS'small'
p8662
aS'high'
p8663
aS'unacc'
p8664
aa(lp8665
S'low'
p8666
aS'vhigh'
p8667
ag4
aS'more'
p8668
aS'med'
p8669
aS'low'
p8670
aS'unacc'
p8671
aa(lp8672
S'low'
p8673
aS'vhigh'
p8674
ag4
aS'more'
p8675
aS'med'
p8676
aS'med'
p8677
aS'unacc'
p8678
aa(lp8679
S'low'
p8680
aS'vhigh'
p8681
ag4
aS'more'
p8682
aS'med'
p8683
aS'high'
p8684
aS'acc'
p8685
aa(lp8686
S'low'
p8687
aS'vhigh'
p8688
ag4
aS'more'
p8689
aS'big'
p8690
aS'low'
p8691
aS'unacc'
p8692
aa(lp8693
S'low'
p8694
aS'vhigh'
p8695
ag4
aS'more'
p8696
aS'big'
p8697
aS'med'
p8698
aS'acc'
p8699
aa(lp8700
S'low'
p8701
aS'vhigh'
p8702
ag4
aS'more'
p8703
aS'big'
p8704
aS'high'
p8705
aS'acc'
p8706
aa(lp8707
S'low'
p8708
aS'vhigh'
p8709
ag177
ag4
aS'small'
p8710
aS'low'
p8711
aS'unacc'
p8712
aa(lp8713
S'low'
p8714
aS'vhigh'
p8715
ag177
ag4
aS'small'
p8716
aS'med'
p8717
aS'unacc'
p8718
aa(lp8719
S'low'
p8720
aS'vhigh'
p8721
ag177
ag4
aS'small'
p8722
aS'high'
p8723
aS'unacc'
p8724
aa(lp8725
S'low'
p8726
aS'vhigh'
p8727
ag177
ag4
aS'med'
p8728
aS'low'
p8729
aS'unacc'
p8730
aa(lp8731
S'low'
p8732
aS'vhigh'
p8733
ag177
ag4
aS'med'
p8734
aS'med'
p8735
aS'unacc'
p8736
aa(lp8737
S'low'
p8738
aS'vhigh'
p8739
ag177
ag4
aS'med'
p8740
aS'high'
p8741
aS'unacc'
p8742
aa(lp8743
S'low'
p8744
aS'vhigh'
p8745
ag177
ag4
aS'big'
p8746
aS'low'
p8747
aS'unacc'
p8748
aa(lp8749
S'low'
p8750
aS'vhigh'
p8751
ag177
ag4
aS'big'
p8752
aS'med'
p8753
aS'unacc'
p8754
aa(lp8755
S'low'
p8756
aS'vhigh'
p8757
ag177
ag4
aS'big'
p8758
aS'high'
p8759
aS'unacc'
p8760
aa(lp8761
S'low'
p8762
aS'vhigh'
p8763
ag177
ag59
aS'small'
p8764
aS'low'
p8765
aS'unacc'
p8766
aa(lp8767
S'low'
p8768
aS'vhigh'
p8769
ag177
ag59
aS'small'
p8770
aS'med'
p8771
aS'unacc'
p8772
aa(lp8773
S'low'
p8774
aS'vhigh'
p8775
ag177
ag59
aS'small'
p8776
aS'high'
p8777
aS'acc'
p8778
aa(lp8779
S'low'
p8780
aS'vhigh'
p8781
ag177
ag59
aS'med'
p8782
aS'low'
p8783
aS'unacc'
p8784
aa(lp8785
S'low'
p8786
aS'vhigh'
p8787
ag177
ag59
aS'med'
p8788
aS'med'
p8789
aS'unacc'
p8790
aa(lp8791
S'low'
p8792
aS'vhigh'
p8793
ag177
ag59
aS'med'
p8794
aS'high'
p8795
aS'acc'
p8796
aa(lp8797
S'low'
p8798
aS'vhigh'
p8799
ag177
ag59
aS'big'
p8800
aS'low'
p8801
aS'unacc'
p8802
aa(lp8803
S'low'
p8804
aS'vhigh'
p8805
ag177
ag59
aS'big'
p8806
aS'med'
p8807
aS'acc'
p8808
aa(lp8809
S'low'
p8810
aS'vhigh'
p8811
ag177
ag59
aS'big'
p8812
aS'high'
p8813
aS'acc'
p8814
aa(lp8815
S'low'
p8816
aS'vhigh'
p8817
ag177
aS'more'
p8818
aS'small'
p8819
aS'low'
p8820
aS'unacc'
p8821
aa(lp8822
S'low'
p8823
aS'vhigh'
p8824
ag177
aS'more'
p8825
aS'small'
p8826
aS'med'
p8827
aS'unacc'
p8828
aa(lp8829
S'low'
p8830
aS'vhigh'
p8831
ag177
aS'more'
p8832
aS'small'
p8833
aS'high'
p8834
aS'acc'
p8835
aa(lp8836
S'low'
p8837
aS'vhigh'
p8838
ag177
aS'more'
p8839
aS'med'
p8840
aS'low'
p8841
aS'unacc'
p8842
aa(lp8843
S'low'
p8844
aS'vhigh'
p8845
ag177
aS'more'
p8846
aS'med'
p8847
aS'med'
p8848
aS'acc'
p8849
aa(lp8850
S'low'
p8851
aS'vhigh'
p8852
ag177
aS'more'
p8853
aS'med'
p8854
aS'high'
p8855
aS'acc'
p8856
aa(lp8857
S'low'
p8858
aS'vhigh'
p8859
ag177
aS'more'
p8860
aS'big'
p8861
aS'low'
p8862
aS'unacc'
p8863
aa(lp8864
S'low'
p8865
aS'vhigh'
p8866
ag177
aS'more'
p8867
aS'big'
p8868
aS'med'
p8869
aS'acc'
p8870
aa(lp8871
S'low'
p8872
aS'vhigh'
p8873
ag177
aS'more'
p8874
aS'big'
p8875
aS'high'
p8876
aS'acc'
p8877
aa(lp8878
S'low'
p8879
aS'vhigh'
p8880
ag59
ag4
aS'small'
p8881
aS'low'
p8882
aS'unacc'
p8883
aa(lp8884
S'low'
p8885
aS'vhigh'
p8886
ag59
ag4
aS'small'
p8887
aS'med'
p8888
aS'unacc'
p8889
aa(lp8890
S'low'
p8891
aS'vhigh'
p8892
ag59
ag4
aS'small'
p8893
aS'high'
p8894
aS'unacc'
p8895
aa(lp8896
S'low'
p8897
aS'vhigh'
p8898
ag59
ag4
aS'med'
p8899
aS'low'
p8900
aS'unacc'
p8901
aa(lp8902
S'low'
p8903
aS'vhigh'
p8904
ag59
ag4
aS'med'
p8905
aS'med'
p8906
aS'unacc'
p8907
aa(lp8908
S'low'
p8909
aS'vhigh'
p8910
ag59
ag4
aS'med'
p8911
aS'high'
p8912
aS'unacc'
p8913
aa(lp8914
S'low'
p8915
aS'vhigh'
p8916
ag59
ag4
aS'big'
p8917
aS'low'
p8918
aS'unacc'
p8919
aa(lp8920
S'low'
p8921
aS'vhigh'
p8922
ag59
ag4
aS'big'
p8923
aS'med'
p8924
aS'unacc'
p8925
aa(lp8926
S'low'
p8927
aS'vhigh'
p8928
ag59
ag4
aS'big'
p8929
aS'high'
p8930
aS'unacc'
p8931
aa(lp8932
S'low'
p8933
aS'vhigh'
p8934
ag59
ag59
aS'small'
p8935
aS'low'
p8936
aS'unacc'
p8937
aa(lp8938
S'low'
p8939
aS'vhigh'
p8940
ag59
ag59
aS'small'
p8941
aS'med'
p8942
aS'unacc'
p8943
aa(lp8944
S'low'
p8945
aS'vhigh'
p8946
ag59
ag59
aS'small'
p8947
aS'high'
p8948
aS'acc'
p8949
aa(lp8950
S'low'
p8951
aS'vhigh'
p8952
ag59
ag59
aS'med'
p8953
aS'low'
p8954
aS'unacc'
p8955
aa(lp8956
S'low'
p8957
aS'vhigh'
p8958
ag59
ag59
aS'med'
p8959
aS'med'
p8960
aS'acc'
p8961
aa(lp8962
S'low'
p8963
aS'vhigh'
p8964
ag59
ag59
aS'med'
p8965
aS'high'
p8966
aS'acc'
p8967
aa(lp8968
S'low'
p8969
aS'vhigh'
p8970
ag59
ag59
aS'big'
p8971
aS'low'
p8972
aS'unacc'
p8973
aa(lp8974
S'low'
p8975
aS'vhigh'
p8976
ag59
ag59
aS'big'
p8977
aS'med'
p8978
aS'acc'
p8979
aa(lp8980
S'low'
p8981
aS'vhigh'
p8982
ag59
ag59
aS'big'
p8983
aS'high'
p8984
aS'acc'
p8985
aa(lp8986
S'low'
p8987
aS'vhigh'
p8988
ag59
aS'more'
p8989
aS'small'
p8990
aS'low'
p8991
aS'unacc'
p8992
aa(lp8993
S'low'
p8994
aS'vhigh'
p8995
ag59
aS'more'
p8996
aS'small'
p8997
aS'med'
p8998
aS'unacc'
p8999
aa(lp9000
S'low'
p9001
aS'vhigh'
p9002
ag59
aS'more'
p9003
aS'small'
p9004
aS'high'
p9005
aS'acc'
p9006
aa(lp9007
S'low'
p9008
aS'vhigh'
p9009
ag59
aS'more'
p9010
aS'med'
p9011
aS'low'
p9012
aS'unacc'
p9013
aa(lp9014
S'low'
p9015
aS'vhigh'
p9016
ag59
aS'more'
p9017
aS'med'
p9018
aS'med'
p9019
aS'acc'
p9020
aa(lp9021
S'low'
p9022
aS'vhigh'
p9023
ag59
aS'more'
p9024
aS'med'
p9025
aS'high'
p9026
aS'acc'
p9027
aa(lp9028
S'low'
p9029
aS'vhigh'
p9030
ag59
aS'more'
p9031
aS'big'
p9032
aS'low'
p9033
aS'unacc'
p9034
aa(lp9035
S'low'
p9036
aS'vhigh'
p9037
ag59
aS'more'
p9038
aS'big'
p9039
aS'med'
p9040
aS'acc'
p9041
aa(lp9042
S'low'
p9043
aS'vhigh'
p9044
ag59
aS'more'
p9045
aS'big'
p9046
aS'high'
p9047
aS'acc'
p9048
aa(lp9049
S'low'
p9050
aS'vhigh'
p9051
aS'5more'
p9052
ag4
aS'small'
p9053
aS'low'
p9054
aS'unacc'
p9055
aa(lp9056
S'low'
p9057
aS'vhigh'
p9058
aS'5more'
p9059
ag4
aS'small'
p9060
aS'med'
p9061
aS'unacc'
p9062
aa(lp9063
S'low'
p9064
aS'vhigh'
p9065
aS'5more'
p9066
ag4
aS'small'
p9067
aS'high'
p9068
aS'unacc'
p9069
aa(lp9070
S'low'
p9071
aS'vhigh'
p9072
aS'5more'
p9073
ag4
aS'med'
p9074
aS'low'
p9075
aS'unacc'
p9076
aa(lp9077
S'low'
p9078
aS'vhigh'
p9079
aS'5more'
p9080
ag4
aS'med'
p9081
aS'med'
p9082
aS'unacc'
p9083
aa(lp9084
S'low'
p9085
aS'vhigh'
p9086
aS'5more'
p9087
ag4
aS'med'
p9088
aS'high'
p9089
aS'unacc'
p9090
aa(lp9091
S'low'
p9092
aS'vhigh'
p9093
aS'5more'
p9094
ag4
aS'big'
p9095
aS'low'
p9096
aS'unacc'
p9097
aa(lp9098
S'low'
p9099
aS'vhigh'
p9100
aS'5more'
p9101
ag4
aS'big'
p9102
aS'med'
p9103
aS'unacc'
p9104
aa(lp9105
S'low'
p9106
aS'vhigh'
p9107
aS'5more'
p9108
ag4
aS'big'
p9109
aS'high'
p9110
aS'unacc'
p9111
aa(lp9112
S'low'
p9113
aS'vhigh'
p9114
aS'5more'
p9115
ag59
aS'small'
p9116
aS'low'
p9117
aS'unacc'
p9118
aa(lp9119
S'low'
p9120
aS'vhigh'
p9121
aS'5more'
p9122
ag59
aS'small'
p9123
aS'med'
p9124
aS'unacc'
p9125
aa(lp9126
S'low'
p9127
aS'vhigh'
p9128
aS'5more'
p9129
ag59
aS'small'
p9130
aS'high'
p9131
aS'acc'
p9132
aa(lp9133
S'low'
p9134
aS'vhigh'
p9135
aS'5more'
p9136
ag59
aS'med'
p9137
aS'low'
p9138
aS'unacc'
p9139
aa(lp9140
S'low'
p9141
aS'vhigh'
p9142
aS'5more'
p9143
ag59
aS'med'
p9144
aS'med'
p9145
aS'acc'
p9146
aa(lp9147
S'low'
p9148
aS'vhigh'
p9149
aS'5more'
p9150
ag59
aS'med'
p9151
aS'high'
p9152
aS'acc'
p9153
aa(lp9154
S'low'
p9155
aS'vhigh'
p9156
aS'5more'
p9157
ag59
aS'big'
p9158
aS'low'
p9159
aS'unacc'
p9160
aa(lp9161
S'low'
p9162
aS'vhigh'
p9163
aS'5more'
p9164
ag59
aS'big'
p9165
aS'med'
p9166
aS'acc'
p9167
aa(lp9168
S'low'
p9169
aS'vhigh'
p9170
aS'5more'
p9171
ag59
aS'big'
p9172
aS'high'
p9173
aS'acc'
p9174
aa(lp9175
S'low'
p9176
aS'vhigh'
p9177
aS'5more'
p9178
aS'more'
p9179
aS'small'
p9180
aS'low'
p9181
aS'unacc'
p9182
aa(lp9183
S'low'
p9184
aS'vhigh'
p9185
aS'5more'
p9186
aS'more'
p9187
aS'small'
p9188
aS'med'
p9189
aS'unacc'
p9190
aa(lp9191
S'low'
p9192
aS'vhigh'
p9193
aS'5more'
p9194
aS'more'
p9195
aS'small'
p9196
aS'high'
p9197
aS'acc'
p9198
aa(lp9199
S'low'
p9200
aS'vhigh'
p9201
aS'5more'
p9202
aS'more'
p9203
aS'med'
p9204
aS'low'
p9205
aS'unacc'
p9206
aa(lp9207
S'low'
p9208
aS'vhigh'
p9209
aS'5more'
p9210
aS'more'
p9211
aS'med'
p9212
aS'med'
p9213
aS'acc'
p9214
aa(lp9215
S'low'
p9216
aS'vhigh'
p9217
aS'5more'
p9218
aS'more'
p9219
aS'med'
p9220
aS'high'
p9221
aS'acc'
p9222
aa(lp9223
S'low'
p9224
aS'vhigh'
p9225
aS'5more'
p9226
aS'more'
p9227
aS'big'
p9228
aS'low'
p9229
aS'unacc'
p9230
aa(lp9231
S'low'
p9232
aS'vhigh'
p9233
aS'5more'
p9234
aS'more'
p9235
aS'big'
p9236
aS'med'
p9237
aS'acc'
p9238
aa(lp9239
S'low'
p9240
aS'vhigh'
p9241
aS'5more'
p9242
aS'more'
p9243
aS'big'
p9244
aS'high'
p9245
aS'acc'
p9246
aa(lp9247
S'low'
p9248
aS'high'
p9249
ag4
ag4
aS'small'
p9250
aS'low'
p9251
aS'unacc'
p9252
aa(lp9253
S'low'
p9254
aS'high'
p9255
ag4
ag4
aS'small'
p9256
aS'med'
p9257
aS'unacc'
p9258
aa(lp9259
S'low'
p9260
aS'high'
p9261
ag4
ag4
aS'small'
p9262
aS'high'
p9263
aS'unacc'
p9264
aa(lp9265
S'low'
p9266
aS'high'
p9267
ag4
ag4
aS'med'
p9268
aS'low'
p9269
aS'unacc'
p9270
aa(lp9271
S'low'
p9272
aS'high'
p9273
ag4
ag4
aS'med'
p9274
aS'med'
p9275
aS'unacc'
p9276
aa(lp9277
S'low'
p9278
aS'high'
p9279
ag4
ag4
aS'med'
p9280
aS'high'
p9281
aS'unacc'
p9282
aa(lp9283
S'low'
p9284
aS'high'
p9285
ag4
ag4
aS'big'
p9286
aS'low'
p9287
aS'unacc'
p9288
aa(lp9289
S'low'
p9290
aS'high'
p9291
ag4
ag4
aS'big'
p9292
aS'med'
p9293
aS'unacc'
p9294
aa(lp9295
S'low'
p9296
aS'high'
p9297
ag4
ag4
aS'big'
p9298
aS'high'
p9299
aS'unacc'
p9300
aa(lp9301
S'low'
p9302
aS'high'
p9303
ag4
ag59
aS'small'
p9304
aS'low'
p9305
aS'unacc'
p9306
aa(lp9307
S'low'
p9308
aS'high'
p9309
ag4
ag59
aS'small'
p9310
aS'med'
p9311
aS'acc'
p9312
aa(lp9313
S'low'
p9314
aS'high'
p9315
ag4
ag59
aS'small'
p9316
aS'high'
p9317
aS'acc'
p9318
aa(lp9319
S'low'
p9320
aS'high'
p9321
ag4
ag59
aS'med'
p9322
aS'low'
p9323
aS'unacc'
p9324
aa(lp9325
S'low'
p9326
aS'high'
p9327
ag4
ag59
aS'med'
p9328
aS'med'
p9329
aS'acc'
p9330
aa(lp9331
S'low'
p9332
aS'high'
p9333
ag4
ag59
aS'med'
p9334
aS'high'
p9335
aS'acc'
p9336
aa(lp9337
S'low'
p9338
aS'high'
p9339
ag4
ag59
aS'big'
p9340
aS'low'
p9341
aS'unacc'
p9342
aa(lp9343
S'low'
p9344
aS'high'
p9345
ag4
ag59
aS'big'
p9346
aS'med'
p9347
aS'acc'
p9348
aa(lp9349
S'low'
p9350
aS'high'
p9351
ag4
ag59
aS'big'
p9352
aS'high'
p9353
aS'vgood'
p9354
aa(lp9355
S'low'
p9356
aS'high'
p9357
ag4
aS'more'
p9358
aS'small'
p9359
aS'low'
p9360
aS'unacc'
p9361
aa(lp9362
S'low'
p9363
aS'high'
p9364
ag4
aS'more'
p9365
aS'small'
p9366
aS'med'
p9367
aS'unacc'
p9368
aa(lp9369
S'low'
p9370
aS'high'
p9371
ag4
aS'more'
p9372
aS'small'
p9373
aS'high'
p9374
aS'unacc'
p9375
aa(lp9376
S'low'
p9377
aS'high'
p9378
ag4
aS'more'
p9379
aS'med'
p9380
aS'low'
p9381
aS'unacc'
p9382
aa(lp9383
S'low'
p9384
aS'high'
p9385
ag4
aS'more'
p9386
aS'med'
p9387
aS'med'
p9388
aS'acc'
p9389
aa(lp9390
S'low'
p9391
aS'high'
p9392
ag4
aS'more'
p9393
aS'med'
p9394
aS'high'
p9395
aS'acc'
p9396
aa(lp9397
S'low'
p9398
aS'high'
p9399
ag4
aS'more'
p9400
aS'big'
p9401
aS'low'
p9402
aS'unacc'
p9403
aa(lp9404
S'low'
p9405
aS'high'
p9406
ag4
aS'more'
p9407
aS'big'
p9408
aS'med'
p9409
aS'acc'
p9410
aa(lp9411
S'low'
p9412
aS'high'
p9413
ag4
aS'more'
p9414
aS'big'
p9415
aS'high'
p9416
aS'vgood'
p9417
aa(lp9418
S'low'
p9419
aS'high'
p9420
ag177
ag4
aS'small'
p9421
aS'low'
p9422
aS'unacc'
p9423
aa(lp9424
S'low'
p9425
aS'high'
p9426
ag177
ag4
aS'small'
p9427
aS'med'
p9428
aS'unacc'
p9429
aa(lp9430
S'low'
p9431
aS'high'
p9432
ag177
ag4
aS'small'
p9433
aS'high'
p9434
aS'unacc'
p9435
aa(lp9436
S'low'
p9437
aS'high'
p9438
ag177
ag4
aS'med'
p9439
aS'low'
p9440
aS'unacc'
p9441
aa(lp9442
S'low'
p9443
aS'high'
p9444
ag177
ag4
aS'med'
p9445
aS'med'
p9446
aS'unacc'
p9447
aa(lp9448
S'low'
p9449
aS'high'
p9450
ag177
ag4
aS'med'
p9451
aS'high'
p9452
aS'unacc'
p9453
aa(lp9454
S'low'
p9455
aS'high'
p9456
ag177
ag4
aS'big'
p9457
aS'low'
p9458
aS'unacc'
p9459
aa(lp9460
S'low'
p9461
aS'high'
p9462
ag177
ag4
aS'big'
p9463
aS'med'
p9464
aS'unacc'
p9465
aa(lp9466
S'low'
p9467
aS'high'
p9468
ag177
ag4
aS'big'
p9469
aS'high'
p9470
aS'unacc'
p9471
aa(lp9472
S'low'
p9473
aS'high'
p9474
ag177
ag59
aS'small'
p9475
aS'low'
p9476
aS'unacc'
p9477
aa(lp9478
S'low'
p9479
aS'high'
p9480
ag177
ag59
aS'small'
p9481
aS'med'
p9482
aS'acc'
p9483
aa(lp9484
S'low'
p9485
aS'high'
p9486
ag177
ag59
aS'small'
p9487
aS'high'
p9488
aS'acc'
p9489
aa(lp9490
S'low'
p9491
aS'high'
p9492
ag177
ag59
aS'med'
p9493
aS'low'
p9494
aS'unacc'
p9495
aa(lp9496
S'low'
p9497
aS'high'
p9498
ag177
ag59
aS'med'
p9499
aS'med'
p9500
aS'acc'
p9501
aa(lp9502
S'low'
p9503
aS'high'
p9504
ag177
ag59
aS'med'
p9505
aS'high'
p9506
aS'acc'
p9507
aa(lp9508
S'low'
p9509
aS'high'
p9510
ag177
ag59
aS'big'
p9511
aS'low'
p9512
aS'unacc'
p9513
aa(lp9514
S'low'
p9515
aS'high'
p9516
ag177
ag59
aS'big'
p9517
aS'med'
p9518
aS'acc'
p9519
aa(lp9520
S'low'
p9521
aS'high'
p9522
ag177
ag59
aS'big'
p9523
aS'high'
p9524
aS'vgood'
p9525
aa(lp9526
S'low'
p9527
aS'high'
p9528
ag177
aS'more'
p9529
aS'small'
p9530
aS'low'
p9531
aS'unacc'
p9532
aa(lp9533
S'low'
p9534
aS'high'
p9535
ag177
aS'more'
p9536
aS'small'
p9537
aS'med'
p9538
aS'acc'
p9539
aa(lp9540
S'low'
p9541
aS'high'
p9542
ag177
aS'more'
p9543
aS'small'
p9544
aS'high'
p9545
aS'acc'
p9546
aa(lp9547
S'low'
p9548
aS'high'
p9549
ag177
aS'more'
p9550
aS'med'
p9551
aS'low'
p9552
aS'unacc'
p9553
aa(lp9554
S'low'
p9555
aS'high'
p9556
ag177
aS'more'
p9557
aS'med'
p9558
aS'high'
p9559
aS'vgood'
p9560
aa(lp9561
S'low'
p9562
aS'high'
p9563
ag177
aS'more'
p9564
aS'big'
p9565
aS'low'
p9566
aS'unacc'
p9567
aa(lp9568
S'low'
p9569
aS'high'
p9570
ag177
aS'more'
p9571
aS'big'
p9572
aS'high'
p9573
aS'vgood'
p9574
aa(lp9575
S'low'
p9576
aS'high'
p9577
ag59
ag4
aS'small'
p9578
aS'low'
p9579
aS'unacc'
p9580
aa(lp9581
S'low'
p9582
aS'high'
p9583
ag59
ag4
aS'small'
p9584
aS'med'
p9585
aS'unacc'
p9586
aa(lp9587
S'low'
p9588
aS'high'
p9589
ag59
ag4
aS'small'
p9590
aS'high'
p9591
aS'unacc'
p9592
aa(lp9593
S'low'
p9594
aS'high'
p9595
ag59
ag4
aS'med'
p9596
aS'low'
p9597
aS'unacc'
p9598
aa(lp9599
S'low'
p9600
aS'high'
p9601
ag59
ag4
aS'med'
p9602
aS'med'
p9603
aS'unacc'
p9604
aa(lp9605
S'low'
p9606
aS'high'
p9607
ag59
ag4
aS'med'
p9608
aS'high'
p9609
aS'unacc'
p9610
aa(lp9611
S'low'
p9612
aS'high'
p9613
ag59
ag4
aS'big'
p9614
aS'low'
p9615
aS'unacc'
p9616
aa(lp9617
S'low'
p9618
aS'high'
p9619
ag59
ag4
aS'big'
p9620
aS'med'
p9621
aS'unacc'
p9622
aa(lp9623
S'low'
p9624
aS'high'
p9625
ag59
ag4
aS'big'
p9626
aS'high'
p9627
aS'unacc'
p9628
aa(lp9629
S'low'
p9630
aS'high'
p9631
ag59
ag59
aS'small'
p9632
aS'low'
p9633
aS'unacc'
p9634
aa(lp9635
S'low'
p9636
aS'high'
p9637
ag59
ag59
aS'med'
p9638
aS'low'
p9639
aS'unacc'
p9640
aa(lp9641
S'low'
p9642
aS'high'
p9643
ag59
ag59
aS'med'
p9644
aS'high'
p9645
aS'vgood'
p9646
aa(lp9647
S'low'
p9648
aS'high'
p9649
ag59
ag59
aS'big'
p9650
aS'low'
p9651
aS'unacc'
p9652
aa(lp9653
S'low'
p9654
aS'high'
p9655
ag59
ag59
aS'big'
p9656
aS'high'
p9657
aS'vgood'
p9658
aa(lp9659
S'low'
p9660
aS'high'
p9661
ag59
aS'more'
p9662
aS'small'
p9663
aS'low'
p9664
aS'unacc'
p9665
aa(lp9666
S'low'
p9667
aS'high'
p9668
ag59
aS'more'
p9669
aS'med'
p9670
aS'low'
p9671
aS'unacc'
p9672
aa(lp9673
S'low'
p9674
aS'high'
p9675
ag59
aS'more'
p9676
aS'med'
p9677
aS'high'
p9678
aS'vgood'
p9679
aa(lp9680
S'low'
p9681
aS'high'
p9682
ag59
aS'more'
p9683
aS'big'
p9684
aS'low'
p9685
aS'unacc'
p9686
aa(lp9687
S'low'
p9688
aS'high'
p9689
ag59
aS'more'
p9690
aS'big'
p9691
aS'high'
p9692
aS'vgood'
p9693
aa(lp9694
S'low'
p9695
aS'high'
p9696
aS'5more'
p9697
ag4
aS'small'
p9698
aS'low'
p9699
aS'unacc'
p9700
aa(lp9701
S'low'
p9702
aS'high'
p9703
aS'5more'
p9704
ag4
aS'small'
p9705
aS'med'
p9706
aS'unacc'
p9707
aa(lp9708
S'low'
p9709
aS'high'
p9710
aS'5more'
p9711
ag4
aS'small'
p9712
aS'high'
p9713
aS'unacc'
p9714
aa(lp9715
S'low'
p9716
aS'high'
p9717
aS'5more'
p9718
ag4
aS'med'
p9719
aS'low'
p9720
aS'unacc'
p9721
aa(lp9722
S'low'
p9723
aS'high'
p9724
aS'5more'
p9725
ag4
aS'med'
p9726
aS'med'
p9727
aS'unacc'
p9728
aa(lp9729
S'low'
p9730
aS'high'
p9731
aS'5more'
p9732
ag4
aS'med'
p9733
aS'high'
p9734
aS'unacc'
p9735
aa(lp9736
S'low'
p9737
aS'high'
p9738
aS'5more'
p9739
ag4
aS'big'
p9740
aS'low'
p9741
aS'unacc'
p9742
aa(lp9743
S'low'
p9744
aS'high'
p9745
aS'5more'
p9746
ag4
aS'big'
p9747
aS'med'
p9748
aS'unacc'
p9749
aa(lp9750
S'low'
p9751
aS'high'
p9752
aS'5more'
p9753
ag4
aS'big'
p9754
aS'high'
p9755
aS'unacc'
p9756
aa(lp9757
S'low'
p9758
aS'high'
p9759
aS'5more'
p9760
ag59
aS'small'
p9761
aS'low'
p9762
aS'unacc'
p9763
aa(lp9764
S'low'
p9765
aS'high'
p9766
aS'5more'
p9767
ag59
aS'med'
p9768
aS'low'
p9769
aS'unacc'
p9770
aa(lp9771
S'low'
p9772
aS'high'
p9773
aS'5more'
p9774
ag59
aS'med'
p9775
aS'high'
p9776
aS'vgood'
p9777
aa(lp9778
S'low'
p9779
aS'high'
p9780
aS'5more'
p9781
ag59
aS'big'
p9782
aS'low'
p9783
aS'unacc'
p9784
aa(lp9785
S'low'
p9786
aS'high'
p9787
aS'5more'
p9788
ag59
aS'big'
p9789
aS'high'
p9790
aS'vgood'
p9791
aa(lp9792
S'low'
p9793
aS'high'
p9794
aS'5more'
p9795
aS'more'
p9796
aS'small'
p9797
aS'low'
p9798
aS'unacc'
p9799
aa(lp9800
S'low'
p9801
aS'high'
p9802
aS'5more'
p9803
aS'more'
p9804
aS'med'
p9805
aS'low'
p9806
aS'unacc'
p9807
aa(lp9808
S'low'
p9809
aS'high'
p9810
aS'5more'
p9811
aS'more'
p9812
aS'med'
p9813
aS'high'
p9814
aS'vgood'
p9815
aa(lp9816
S'low'
p9817
aS'high'
p9818
aS'5more'
p9819
aS'more'
p9820
aS'big'
p9821
aS'low'
p9822
aS'unacc'
p9823
aa(lp9824
S'low'
p9825
aS'high'
p9826
aS'5more'
p9827
aS'more'
p9828
aS'big'
p9829
aS'high'
p9830
aS'vgood'
p9831
aa(lp9832
S'low'
p9833
aS'med'
p9834
ag4
ag4
aS'small'
p9835
aS'low'
p9836
aS'unacc'
p9837
aa(lp9838
S'low'
p9839
aS'med'
p9840
ag4
ag4
aS'small'
p9841
aS'med'
p9842
aS'unacc'
p9843
aa(lp9844
S'low'
p9845
aS'med'
p9846
ag4
ag4
aS'small'
p9847
aS'high'
p9848
aS'unacc'
p9849
aa(lp9850
S'low'
p9851
aS'med'
p9852
ag4
ag59
aS'small'
p9853
aS'high'
p9854
aS'good'
p9855
aa(lp9856
S'low'
p9857
aS'med'
p9858
ag4
ag59
aS'med'
p9859
aS'high'
p9860
aS'good'
p9861
aa(lp9862
S'low'
p9863
aS'med'
p9864
ag4
ag59
aS'big'
p9865
aS'med'
p9866
aS'good'
p9867
aa(lp9868
S'low'
p9869
aS'med'
p9870
ag4
ag59
aS'big'
p9871
aS'high'
p9872
aS'vgood'
p9873
aa(lp9874
S'low'
p9875
aS'med'
p9876
ag4
aS'more'
p9877
aS'med'
p9878
aS'high'
p9879
aS'good'
p9880
aa(lp9881
S'low'
p9882
aS'med'
p9883
ag4
aS'more'
p9884
aS'big'
p9885
aS'med'
p9886
aS'good'
p9887
aa(lp9888
S'low'
p9889
aS'med'
p9890
ag4
aS'more'
p9891
aS'big'
p9892
aS'high'
p9893
aS'vgood'
p9894
aa(lp9895
S'low'
p9896
aS'med'
p9897
ag177
ag59
aS'small'
p9898
aS'high'
p9899
aS'good'
p9900
aa(lp9901
S'low'
p9902
aS'med'
p9903
ag177
ag59
aS'med'
p9904
aS'high'
p9905
aS'good'
p9906
aa(lp9907
S'low'
p9908
aS'med'
p9909
ag177
ag59
aS'big'
p9910
aS'med'
p9911
aS'good'
p9912
aa(lp9913
S'low'
p9914
aS'med'
p9915
ag177
ag59
aS'big'
p9916
aS'high'
p9917
aS'vgood'
p9918
aa(lp9919
S'low'
p9920
aS'med'
p9921
ag177
aS'more'
p9922
aS'small'
p9923
aS'high'
p9924
aS'good'
p9925
aa(lp9926
S'low'
p9927
aS'med'
p9928
ag177
aS'more'
p9929
aS'med'
p9930
aS'med'
p9931
aS'good'
p9932
aa(lp9933
S'low'
p9934
aS'med'
p9935
ag177
aS'more'
p9936
aS'med'
p9937
aS'high'
p9938
aS'vgood'
p9939
aa(lp9940
S'low'
p9941
aS'med'
p9942
ag177
aS'more'
p9943
aS'big'
p9944
aS'med'
p9945
aS'good'
p9946
aa(lp9947
S'low'
p9948
aS'med'
p9949
ag177
aS'more'
p9950
aS'big'
p9951
aS'high'
p9952
aS'vgood'
p9953
aa(lp9954
S'low'
p9955
aS'med'
p9956
ag59
ag59
aS'small'
p9957
aS'high'
p9958
aS'good'
p9959
aa(lp9960
S'low'
p9961
aS'med'
p9962
ag59
ag59
aS'med'
p9963
aS'med'
p9964
aS'good'
p9965
aa(lp9966
S'low'
p9967
aS'med'
p9968
ag59
ag59
aS'med'
p9969
aS'high'
p9970
aS'vgood'
p9971
aa(lp9972
S'low'
p9973
aS'med'
p9974
ag59
ag59
aS'big'
p9975
aS'med'
p9976
aS'good'
p9977
aa(lp9978
S'low'
p9979
aS'med'
p9980
ag59
ag59
aS'big'
p9981
aS'high'
p9982
aS'vgood'
p9983
aa(lp9984
S'low'
p9985
aS'med'
p9986
ag59
aS'more'
p9987
aS'small'
p9988
aS'high'
p9989
aS'good'
p9990
aa(lp9991
S'low'
p9992
aS'med'
p9993
ag59
aS'more'
p9994
aS'med'
p9995
aS'med'
p9996
aS'good'
p9997
aa(lp9998
S'low'
p9999
aS'med'
p10000
ag59
aS'more'
p10001
aS'med'
p10002
aS'high'
p10003
aS'vgood'
p10004
aa(lp10005
S'low'
p10006
aS'med'
p10007
ag59
aS'more'
p10008
aS'big'
p10009
aS'med'
p10010
aS'good'
p10011
aa(lp10012
S'low'
p10013
aS'med'
p10014
ag59
aS'more'
p10015
aS'big'
p10016
aS'high'
p10017
aS'vgood'
p10018
aa(lp10019
S'low'
p10020
aS'med'
p10021
aS'5more'
p10022
ag59
aS'small'
p10023
aS'high'
p10024
aS'good'
p10025
aa(lp10026
S'low'
p10027
aS'med'
p10028
aS'5more'
p10029
ag59
aS'med'
p10030
aS'med'
p10031
aS'good'
p10032
aa(lp10033
S'low'
p10034
aS'med'
p10035
aS'5more'
p10036
ag59
aS'med'
p10037
aS'high'
p10038
aS'vgood'
p10039
aa(lp10040
S'low'
p10041
aS'med'
p10042
aS'5more'
p10043
ag59
aS'big'
p10044
aS'med'
p10045
aS'good'
p10046
aa(lp10047
S'low'
p10048
aS'med'
p10049
aS'5more'
p10050
ag59
aS'big'
p10051
aS'high'
p10052
aS'vgood'
p10053
aa(lp10054
S'low'
p10055
aS'med'
p10056
aS'5more'
p10057
aS'more'
p10058
aS'small'
p10059
aS'high'
p10060
aS'good'
p10061
aa(lp10062
S'low'
p10063
aS'med'
p10064
aS'5more'
p10065
aS'more'
p10066
aS'med'
p10067
aS'med'
p10068
aS'good'
p10069
aa(lp10070
S'low'
p10071
aS'med'
p10072
aS'5more'
p10073
aS'more'
p10074
aS'med'
p10075
aS'high'
p10076
aS'vgood'
p10077
aa(lp10078
S'low'
p10079
aS'med'
p10080
aS'5more'
p10081
aS'more'
p10082
aS'big'
p10083
aS'med'
p10084
aS'good'
p10085
aa(lp10086
S'low'
p10087
aS'med'
p10088
aS'5more'
p10089
aS'more'
p10090
aS'big'
p10091
aS'high'
p10092
aS'vgood'
p10093
aa(lp10094
S'low'
p10095
aS'low'
p10096
ag4
ag59
aS'small'
p10097
aS'high'
p10098
aS'good'
p10099
aa(lp10100
S'low'
p10101
aS'low'
p10102
ag4
ag59
aS'med'
p10103
aS'high'
p10104
aS'good'
p10105
aa(lp10106
S'low'
p10107
aS'low'
p10108
ag4
ag59
aS'big'
p10109
aS'med'
p10110
aS'good'
p10111
aa(lp10112
S'low'
p10113
aS'low'
p10114
ag4
ag59
aS'big'
p10115
aS'high'
p10116
aS'vgood'
p10117
aa(lp10118
S'low'
p10119
aS'low'
p10120
ag4
aS'more'
p10121
aS'med'
p10122
aS'high'
p10123
aS'good'
p10124
aa(lp10125
S'low'
p10126
aS'low'
p10127
ag4
aS'more'
p10128
aS'big'
p10129
aS'med'
p10130
aS'good'
p10131
aa(lp10132
S'low'
p10133
aS'low'
p10134
ag4
aS'more'
p10135
aS'big'
p10136
aS'high'
p10137
aS'vgood'
p10138
aa(lp10139
S'low'
p10140
aS'low'
p10141
ag177
ag59
aS'small'
p10142
aS'high'
p10143
aS'good'
p10144
aa(lp10145
S'low'
p10146
aS'low'
p10147
ag177
ag59
aS'med'
p10148
aS'high'
p10149
aS'good'
p10150
aa(lp10151
S'low'
p10152
aS'low'
p10153
ag177
ag59
aS'big'
p10154
aS'med'
p10155
aS'good'
p10156
aa(lp10157
S'low'
p10158
aS'low'
p10159
ag177
ag59
aS'big'
p10160
aS'high'
p10161
aS'vgood'
p10162
aa(lp10163
S'low'
p10164
aS'low'
p10165
ag177
aS'more'
p10166
aS'small'
p10167
aS'high'
p10168
aS'good'
p10169
aa(lp10170
S'low'
p10171
aS'low'
p10172
ag177
aS'more'
p10173
aS'med'
p10174
aS'med'
p10175
aS'good'
p10176
aa(lp10177
S'low'
p10178
aS'low'
p10179
ag177
aS'more'
p10180
aS'med'
p10181
aS'high'
p10182
aS'vgood'
p10183
aa(lp10184
S'low'
p10185
aS'low'
p10186
ag177
aS'more'
p10187
aS'big'
p10188
aS'med'
p10189
aS'good'
p10190
aa(lp10191
S'low'
p10192
aS'low'
p10193
ag177
aS'more'
p10194
aS'big'
p10195
aS'high'
p10196
aS'vgood'
p10197
aa(lp10198
S'low'
p10199
aS'low'
p10200
ag59
ag59
aS'small'
p10201
aS'high'
p10202
aS'good'
p10203
aa(lp10204
S'low'
p10205
aS'low'
p10206
ag59
ag59
aS'med'
p10207
aS'med'
p10208
aS'good'
p10209
aa(lp10210
S'low'
p10211
aS'low'
p10212
ag59
ag59
aS'med'
p10213
aS'high'
p10214
aS'vgood'
p10215
aa(lp10216
S'low'
p10217
aS'low'
p10218
ag59
ag59
aS'big'
p10219
aS'med'
p10220
aS'good'
p10221
aa(lp10222
S'low'
p10223
aS'low'
p10224
ag59
ag59
aS'big'
p10225
aS'high'
p10226
aS'vgood'
p10227
aa(lp10228
S'low'
p10229
aS'low'
p10230
ag59
aS'more'
p10231
aS'small'
p10232
aS'high'
p10233
aS'good'
p10234
aa(lp10235
S'low'
p10236
aS'low'
p10237
ag59
aS'more'
p10238
aS'med'
p10239
aS'med'
p10240
aS'good'
p10241
aa(lp10242
S'low'
p10243
aS'low'
p10244
ag59
aS'more'
p10245
aS'big'
p10246
aS'med'
p10247
aS'good'
p10248
aa.