(lp0
(lp1
F13.88
aF1.89
aF2.59
aF15.0
aF101.0
aF3.25
aF3.56
aF0.17
aF1.7
aF5.43
aF0.88
aF3.56
aF1095.0
aS'1'
p2
aa(lp3
F13.24
aF3.98
aF2.29
aF17.5
aF103.0
aF2.64
aF2.63
aF0.32
aF1.66
aF4.36
aF0.82
aF3.0
aF680.0
ag2
aa(lp4
F13.05
aF1.77
aF2.1
aF17.0
aF107.0
aF3.0
aF3.0
aF0.28
aF2.03
aF5.04
aF0.88
aF3.35
aF885.0
ag2
aa(lp5
F14.21
aF4.04
aF2.44
aF18.9
aF111.0
aF2.85
aF2.65
aF0.3
aF1.25
aF5.24
aF0.87
aF3.33
aF1080.0
ag2
aa(lp6
F14.38
aF3.59
aF2.28
aF16.0
aF102.0
aF3.25
aF3.17
aF0.27
aF2.19
aF4.9
aF1.04
aF3.44
aF1065.0
ag2
aa(lp7
F13.9
aF1.68
aF2.12
aF16.0
aF101.0
aF3.1
aF3.39
aF0.21
aF2.14
aF6.1
aF0.91
aF3.33
aF985.0
ag2
aa(lp8
F11.61
aF1.35
aF2.7
aF20.0
aF94.0
aF2.74
aF2.92
aF0.29
aF2.49
aF2.65
aF0.96
aF3.26
aF680.0
aS'2'
p9
aa(lp10
F11.46
aF3.74
aF1.82
aF19.5
aF107.0
aF3.18
aF2.58
aF0.24
aF3.58
aF2.9
aF0.75
aF2.81
aF562.0
ag9
aa(lp11
F12.52
aF2.43
aF2.17
aF21.0
aF88.0
aF2.55
aF2.27
aF0.26
aF1.22
aF2.0
aF0.9
aF2.78
aF325.0
ag9
aa(lp12
F11.76
aF2.68
aF2.92
aF20.0
aF103.0
aF1.75
aF2.03
aF0.6
aF1.05
aF3.8
aF1.23
aF2.5
aF607.0
ag9
aa(lp13
F11.41
aF0.74
aF2.5
aF21.0
aF88.0
aF2.48
aF2.01
aF0.42
aF1.44
aF3.08
aF1.1
aF2.31
aF434.0
ag9
aa(lp14
F12.08
aF1.39
aF2.5
aF22.5
aF84.0
aF2.56
aF2.29
aF0.43
aF1.04
aF2.9
aF0.93
aF3.19
aF385.0
ag9
aa(lp15
F11.03
aF1.51
aF2.2
aF21.5
aF85.0
aF2.46
aF2.17
aF0.52
aF2.01
aF1.9
aF1.71
aF2.87
aF407.0
ag9
aa(lp16
F13.73
aF4.36
aF2.26
aF22.5
aF88.0
aF1.28
aF0.47
aF0.52
aF1.15
aF6.62
aF0.78
aF1.75
aF520.0
aS'3'
p17
aa(lp18
F13.45
aF3.7
aF2.6
aF23.0
aF111.0
aF1.7
aF0.92
aF0.43
aF1.46
aF10.68
aF0.85
aF1.56
aF695.0
ag17
aa(lp19
F12.82
aF3.37
aF2.3
aF19.5
aF88.0
aF1.48
aF0.66
aF0.4
aF0.97
aF10.26
aF0.72
aF1.75
aF685.0
ag17
aa(lp20
F13.58
aF2.58
aF2.69
aF24.5
aF105.0
aF1.55
aF0.84
aF0.39
aF1.54
aF8.66
aF0.74
aF1.8
aF750.0
ag17
aa(lp21
F13.4
aF4.6
aF2.86
aF25.0
aF112.0
aF1.98
aF0.96
aF0.27
aF1.11
aF8.5
aF0.67
aF1.92
aF630.0
ag17
aa.