(lp0
(lp1
F14.1
aF2.02
aF2.4
aF18.8
aF103.0
aF2.75
aF2.92
aF0.32
aF2.38
aF6.2
aF1.07
aF2.75
aF1060.0
aS'1'
p2
aa(lp3
F13.94
aF1.73
aF2.27
aF17.4
aF108.0
aF2.88
aF3.54
aF0.32
aF2.08
aF8.9
aF1.12
aF3.1
aF1260.0
ag2
aa(lp4
F13.05
aF1.73
aF2.04
aF12.4
aF92.0
aF2.72
aF3.27
aF0.17
aF2.91
aF7.2
aF1.12
aF2.91
aF1150.0
ag2
aa(lp5
F13.83
aF1.65
aF2.6
aF17.2
aF94.0
aF2.45
aF2.99
aF0.22
aF2.29
aF5.6
aF1.24
aF3.37
aF1265.0
ag2
aa(lp6
F13.82
aF1.75
aF2.42
aF14.0
aF111.0
aF3.88
aF3.74
aF0.32
aF1.87
aF7.05
aF1.01
aF3.26
aF1190.0
ag2
aa(lp7
F13.77
aF1.9
aF2.68
aF17.1
aF115.0
aF3.0
aF2.79
aF0.39
aF1.68
aF6.3
aF1.13
aF2.93
aF1375.0
ag2
aa(lp8
F11.82
aF1.47
aF1.99
aF20.8
aF86.0
aF1.98
aF1.6
aF0.3
aF1.53
aF1.95
aF0.95
aF3.33
aF495.0
aS'2'
p9
aa(lp10
F12.42
aF1.61
aF2.19
aF22.5
aF108.0
aF2.0
aF2.09
aF0.34
aF1.61
aF2.06
aF1.06
aF2.96
aF345.0
ag9
aa(lp11
F12.77
aF3.43
aF1.98
aF16.0
aF80.0
aF1.63
aF1.25
aF0.43
aF0.83
aF3.4
aF0.7
aF2.12
aF372.0
ag9
aa(lp12
F12.0
aF3.43
aF2.0
aF19.0
aF87.0
aF2.0
aF1.64
aF0.37
aF1.87
aF1.28
aF0.93
aF3.05
aF564.0
ag9
aa(lp13
F11.45
aF2.4
aF2.42
aF20.0
aF96.0
aF2.9
aF2.79
aF0.32
aF1.83
aF3.25
aF0.8
aF3.39
aF625.0
ag9
aa(lp14
F11.56
aF2.05
aF3.23
aF28.5
aF119.0
aF3.18
aF5.08
aF0.47
aF1.87
aF6.0
aF0.93
aF3.69
aF465.0
ag9
aa(lp15
F12.42
aF4.43
aF2.73
aF26.5
aF102.0
aF2.2
aF2.13
aF0.43
aF1.71
aF2.08
aF0.92
aF3.12
aF365.0
ag9
aa(lp16
F12.2
aF3.03
aF2.32
aF19.0
aF96.0
aF1.25
aF0.49
aF0.4
aF0.73
aF5.5
aF0.66
aF1.83
aF510.0
aS'3'
p17
aa(lp18
F12.77
aF2.39
aF2.28
aF19.5
aF86.0
aF1.39
aF0.51
aF0.48
aF0.64
aF9.899999
aF0.57
aF1.63
aF470.0
ag17
aa(lp19
F14.16
aF2.51
aF2.48
aF20.0
aF91.0
aF1.68
aF0.7
aF0.44
aF1.24
aF9.7
aF0.62
aF1.71
aF660.0
ag17
aa(lp20
F13.71
aF5.65
aF2.45
aF20.5
aF95.0
aF1.68
aF0.61
aF0.52
aF1.06
aF7.7
aF0.64
aF1.74
aF740.0
ag17
aa.