(lp0
(lp1
F14.23
aF1.71
aF2.43
aF15.6
aF127.0
aF2.8
aF3.06
aF0.28
aF2.29
aF5.64
aF1.04
aF3.92
aF1065.0
aS'1'
p2
aa(lp3
F13.2
aF1.78
aF2.14
aF11.2
aF100.0
aF2.65
aF2.76
aF0.26
aF1.28
aF4.38
aF1.05
aF3.4
aF1050.0
ag2
aa(lp4
F13.16
aF2.36
aF2.67
aF18.6
aF101.0
aF2.8
aF3.24
aF0.3
aF2.81
aF5.68
aF1.03
aF3.17
aF1185.0
ag2
aa(lp5
F14.37
aF1.95
aF2.5
aF16.8
aF113.0
aF3.85
aF3.49
aF0.24
aF2.18
aF7.8
aF0.86
aF3.45
aF1480.0
ag2
aa(lp6
F13.24
aF2.59
aF2.87
aF21.0
aF118.0
aF2.8
aF2.69
aF0.39
aF1.82
aF4.32
aF1.04
aF2.93
aF735.0
ag2
aa(lp7
F14.2
aF1.76
aF2.45
aF15.2
aF112.0
aF3.27
aF3.39
aF0.34
aF1.97
aF6.75
aF1.05
aF2.85
aF1450.0
ag2
aa(lp8
F12.37
aF0.94
aF1.36
aF10.6
aF88.0
aF1.98
aF0.57
aF0.28
aF0.42
aF1.95
aF1.05
aF1.82
aF520.0
aS'2'
p9
aa(lp10
F12.33
aF1.1
aF2.28
aF16.0
aF101.0
aF2.05
aF1.09
aF0.63
aF0.41
aF3.27
aF1.25
aF1.67
aF680.0
ag9
aa(lp11
F12.64
aF1.36
aF2.02
aF16.8
aF100.0
aF2.02
aF1.41
aF0.53
aF0.62
aF5.75
aF0.98
aF1.59
aF450.0
ag9
aa(lp12
F13.67
aF1.25
aF1.92
aF18.0
aF94.0
aF2.1
aF1.79
aF0.32
aF0.73
aF3.8
aF1.23
aF2.46
aF630.0
ag9
aa(lp13
F12.37
aF1.13
aF2.16
aF19.0
aF87.0
aF3.5
aF3.1
aF0.19
aF1.87
aF4.45
aF1.22
aF2.87
aF420.0
ag9
aa(lp14
F12.17
aF1.45
aF2.53
aF19.0
aF104.0
aF1.89
aF1.75
aF0.45
aF1.03
aF2.95
aF1.45
aF2.23
aF355.0
ag9
aa(lp15
F12.37
aF1.21
aF2.56
aF18.1
aF98.0
aF2.42
aF2.65
aF0.37
aF2.08
aF4.6
aF1.19
aF2.3
aF678.0
ag9
aa(lp16
F13.11
aF1.01
aF1.7
aF15.0
aF78.0
aF2.98
aF3.18
aF0.26
aF2.28
aF5.3
aF1.12
aF3.18
aF502.0
ag9
aa(lp17
F12.86
aF1.35
aF2.32
aF18.0
aF122.0
aF1.51
aF1.25
aF0.21
aF0.94
aF4.1
aF0.76
aF1.29
aF630.0
aS'3'
p18
aa(lp19
F12.88
aF2.99
aF2.4
aF20.0
aF104.0
aF1.3
aF1.22
aF0.24
aF0.83
aF5.4
aF0.74
aF1.42
aF530.0
ag18
aa(lp20
F12.81
aF2.31
aF2.4
aF24.0
aF98.0
aF1.15
aF1.09
aF0.27
aF0.83
aF5.7
aF0.66
aF1.36
aF560.0
ag18
aa(lp21
F12.7
aF3.55
aF2.36
aF21.5
aF106.0
aF1.7
aF1.2
aF0.17
aF0.84
aF5.0
aF0.78
aF1.29
aF600.0
ag18
aa(lp22
F12.51
aF1.24
aF2.25
aF17.5
aF85.0
aF2.0
aF0.58
aF0.6
aF1.25
aF5.45
aF0.75
aF1.51
aF650.0
ag18
aa.