(lp0
(lp1
F13.75
aF1.73
aF2.41
aF16.0
aF89.0
aF2.6
aF2.76
aF0.29
aF1.81
aF5.6
aF1.15
aF2.9
aF1320.0
aS'1'
p2
aa(lp3
F14.75
aF1.73
aF2.39
aF11.4
aF91.0
aF3.1
aF3.69
aF0.43
aF2.81
aF5.4
aF1.25
aF2.73
aF1150.0
ag2
aa(lp4
F14.38
aF1.87
aF2.38
aF12.0
aF102.0
aF3.3
aF3.64
aF0.29
aF2.96
aF7.5
aF1.2
aF3.0
aF1547.0
ag2
aa(lp5
F13.63
aF1.81
aF2.7
aF17.2
aF112.0
aF2.85
aF2.91
aF0.3
aF1.46
aF7.3
aF1.28
aF2.88
aF1310.0
ag2
aa(lp6
F14.3
aF1.92
aF2.72
aF20.0
aF120.0
aF2.8
aF3.14
aF0.33
aF1.97
aF6.2
aF1.07
aF2.65
aF1280.0
ag2
aa(lp7
F13.83
aF1.57
aF2.62
aF20.0
aF115.0
aF2.95
aF3.4
aF0.4
aF1.72
aF6.6
aF1.13
aF2.57
aF1130.0
ag2
aa(lp8
F11.96
aF1.09
aF2.3
aF21.0
aF101.0
aF3.38
aF2.14
aF0.13
aF1.65
aF3.21
aF0.99
aF3.13
aF886.0
aS'2'
p9
aa(lp10
F11.66
aF1.88
aF1.92
aF16.0
aF97.0
aF1.61
aF1.57
aF0.34
aF1.15
aF3.8
aF1.23
aF2.14
aF428.0
ag9
aa(lp11
F13.03
aF0.9
aF1.71
aF16.0
aF86.0
aF1.95
aF2.03
aF0.24
aF1.46
aF4.6
aF1.19
aF2.48
aF392.0
ag9
aa(lp12
F11.84
aF2.89
aF2.23
aF18.0
aF112.0
aF1.72
aF1.32
aF0.43
aF0.95
aF2.65
aF0.96
aF2.52
aF500.0
ag9
aa(lp13
F12.33
aF0.99
aF1.95
aF14.8
aF136.0
aF1.9
aF1.85
aF0.35
aF2.76
aF3.4
aF1.06
aF2.31
aF750.0
ag9
aa(lp14
F12.7
aF3.87
aF2.4
aF23.0
aF101.0
aF2.83
aF2.55
aF0.43
aF1.95
aF2.57
aF1.19
aF3.13
aF463.0
ag9
aa(lp15
F12.0
aF0.92
aF2.0
aF19.0
aF86.0
aF2.42
aF2.26
aF0.3
aF1.43
aF2.5
aF1.38
aF3.12
aF278.0
ag9
aa(lp16
F12.93
aF2.81
aF2.7
aF21.0
aF96.0
aF1.54
aF0.5
aF0.53
aF0.75
aF4.6
aF0.77
aF2.31
aF600.0
aS'3'
p17
aa(lp18
F13.36
aF2.56
aF2.35
aF20.0
aF89.0
aF1.4
aF0.5
aF0.37
aF0.64
aF5.6
aF0.7
aF2.47
aF780.0
ag17
aa(lp19
F13.52
aF3.17
aF2.72
aF23.5
aF97.0
aF1.55
aF0.52
aF0.5
aF0.55
aF4.35
aF0.89
aF2.06
aF520.0
ag17
aa(lp20
F13.62
aF4.95
aF2.35
aF20.0
aF92.0
aF2.0
aF0.8
aF0.47
aF1.02
aF4.4
aF0.91
aF2.05
aF550.0
ag17
aa(lp21
F12.25
aF3.88
aF2.2
aF18.5
aF112.0
aF1.38
aF0.78
aF0.29
aF1.14
aF8.21
aF0.65
aF2.0
aF855.0
ag17
aa.