(lp0
(lp1
F13.73
aF1.5
aF2.7
aF22.5
aF101.0
aF3.0
aF3.25
aF0.29
aF2.38
aF5.7
aF1.19
aF2.71
aF1285.0
aS'1'
p2
aa(lp3
F13.58
aF1.66
aF2.36
aF19.1
aF106.0
aF2.86
aF3.19
aF0.22
aF1.95
aF6.9
aF1.09
aF2.88
aF1515.0
ag2
aa(lp4
F13.68
aF1.83
aF2.36
aF17.2
aF104.0
aF2.42
aF2.69
aF0.42
aF1.97
aF3.84
aF1.23
aF2.87
aF990.0
ag2
aa(lp5
F13.76
aF1.53
aF2.7
aF19.5
aF132.0
aF2.95
aF2.74
aF0.5
aF1.35
aF5.4
aF1.25
aF3.0
aF1235.0
ag2
aa(lp6
F13.51
aF1.8
aF2.65
aF19.0
aF110.0
aF2.35
aF2.53
aF0.29
aF1.54
aF4.2
aF1.1
aF2.87
aF1095.0
ag2
aa(lp7
F13.48
aF1.81
aF2.41
aF20.5
aF100.0
aF2.7
aF2.98
aF0.26
aF1.86
aF5.1
aF1.04
aF3.47
aF920.0
ag2
aa(lp8
F12.47
aF1.52
aF2.2
aF19.0
aF162.0
aF2.5
aF2.27
aF0.32
aF3.28
aF2.6
aF1.16
aF2.63
aF937.0
aS'2'
p9
aa(lp10
F11.81
aF2.12
aF2.74
aF21.5
aF134.0
aF1.6
aF0.99
aF0.14
aF1.56
aF2.5
aF0.95
aF2.26
aF625.0
ag9
aa(lp11
F12.29
aF1.41
aF1.98
aF16.0
aF85.0
aF2.55
aF2.5
aF0.29
aF1.77
aF2.9
aF1.23
aF2.74
aF428.0
ag9
aa(lp12
F12.37
aF1.07
aF2.1
aF18.5
aF88.0
aF3.52
aF3.75
aF0.24
aF1.95
aF4.5
aF1.04
aF2.77
aF660.0
ag9
aa(lp13
F12.29
aF3.17
aF2.21
aF18.0
aF88.0
aF2.85
aF2.99
aF0.45
aF2.81
aF2.3
aF1.42
aF2.83
aF406.0
ag9
aa(lp14
F12.08
aF2.08
aF1.7
aF17.5
aF97.0
aF2.23
aF2.17
aF0.26
aF1.4
aF3.3
aF1.27
aF2.96
aF710.0
ag9
aa(lp15
F12.6
aF1.34
aF1.9
aF18.5
aF88.0
aF1.45
aF1.36
aF0.29
aF1.35
aF2.45
aF1.04
aF2.77
aF562.0
ag9
aa(lp16
F13.17
aF5.19
aF2.32
aF22.0
aF93.0
aF1.74
aF0.63
aF0.61
aF1.55
aF7.9
aF0.6
aF1.48
aF725.0
aS'3'
p17
aa(lp18
F13.84
aF4.12
aF2.38
aF19.5
aF89.0
aF1.8
aF0.83
aF0.48
aF1.56
aF9.01
aF0.57
aF1.64
aF480.0
ag17
aa(lp19
F12.45
aF3.03
aF2.64
aF27.0
aF97.0
aF1.9
aF0.58
aF0.63
aF1.14
aF7.5
aF0.67
aF1.73
aF880.0
ag17
aa(lp20
F14.34
aF1.68
aF2.7
aF25.0
aF98.0
aF2.8
aF1.31
aF0.53
aF2.7
aF13.0
aF0.57
aF1.96
aF660.0
ag17
aa(lp21
F13.48
aF1.67
aF2.64
aF22.5
aF89.0
aF2.6
aF1.1
aF0.52
aF2.29
aF11.75
aF0.57
aF1.78
aF620.0
ag17
aa.